
/home/damon_devil/RV32I_X/software/benchmark/sim_hex/main.elf:     file format elf32-littleriscv


Disassembly of section .text:

00000000 <_start>:
       0:	7f050137          	lui	sp,0x7f050
       4:	0140006f          	j	18 <_call_main>

00000008 <_finish>:
       8:	7f0301b7          	lui	gp,0x7f030
       c:	0ff00293          	li	t0,255
      10:	00518023          	sb	t0,0(gp) # 7f030000 <.LC0+0x7f02beb0>
      14:	fe000ae3          	beqz	zero,8 <_finish>

00000018 <_call_main>:
      18:	5f0010ef          	jal	ra,1608 <_end>
      1c:	fedff06f          	j	8 <_finish>

00000020 <printf_num>:
      20:	00051463          	bnez	a0,28 <.L15>
      24:	00008067          	ret

00000028 <.L15>:
      28:	fe010113          	addi	sp,sp,-32 # 7f04ffe0 <.LC0+0x7f04be90>
      2c:	00812c23          	sw	s0,24(sp)
      30:	00912a23          	sw	s1,20(sp)
      34:	00112e23          	sw	ra,28(sp)
      38:	01212823          	sw	s2,16(sp)
      3c:	01312623          	sw	s3,12(sp)
      40:	00900793          	li	a5,9
      44:	00050413          	mv	s0,a0
      48:	000044b7          	lui	s1,0x4
      4c:	02a7ee63          	bltu	a5,a0,88 <.L16>

00000050 <.L3>:
      50:	00040513          	mv	a0,s0
      54:	00a00593          	li	a1,10
      58:	52c010ef          	jal	ra,1584 <__umodsi3>
      5c:	0004a783          	lw	a5,0(s1) # 4000 <outputAddr>
      60:	03050513          	addi	a0,a0,48
      64:	0ff57513          	andi	a0,a0,255
      68:	00a78023          	sb	a0,0(a5)
      6c:	01c12083          	lw	ra,28(sp)
      70:	01812403          	lw	s0,24(sp)
      74:	01412483          	lw	s1,20(sp)
      78:	01012903          	lw	s2,16(sp)
      7c:	00c12983          	lw	s3,12(sp)
      80:	02010113          	addi	sp,sp,32
      84:	00008067          	ret

00000088 <.L16>:
      88:	00a00593          	li	a1,10
      8c:	4cc010ef          	jal	ra,1558 <__udivsi3>
      90:	06300793          	li	a5,99
      94:	00050913          	mv	s2,a0
      98:	0287e263          	bltu	a5,s0,bc <.L17>

0000009c <.L4>:
      9c:	00a00593          	li	a1,10
      a0:	00090513          	mv	a0,s2
      a4:	4e0010ef          	jal	ra,1584 <__umodsi3>
      a8:	0004a783          	lw	a5,0(s1)
      ac:	03050513          	addi	a0,a0,48
      b0:	0ff57513          	andi	a0,a0,255
      b4:	00a78023          	sb	a0,0(a5)
      b8:	f99ff06f          	j	50 <.L3>

000000bc <.L17>:
      bc:	00a00593          	li	a1,10
      c0:	498010ef          	jal	ra,1558 <__udivsi3>
      c4:	00a00593          	li	a1,10
      c8:	00050993          	mv	s3,a0
      cc:	48c010ef          	jal	ra,1558 <__udivsi3>
      d0:	f51ff0ef          	jal	ra,20 <printf_num>
      d4:	00a00593          	li	a1,10
      d8:	00098513          	mv	a0,s3
      dc:	4a8010ef          	jal	ra,1584 <__umodsi3>
      e0:	0004a703          	lw	a4,0(s1)
      e4:	03050793          	addi	a5,a0,48
      e8:	0ff7f793          	andi	a5,a5,255
      ec:	00f70023          	sb	a5,0(a4)
      f0:	fadff06f          	j	9c <.L4>

000000f4 <printf_deci.part.0>:
      f4:	fd010113          	addi	sp,sp,-48
      f8:	02812423          	sw	s0,40(sp)
      fc:	02912223          	sw	s1,36(sp)
     100:	02112623          	sw	ra,44(sp)
     104:	03212023          	sw	s2,32(sp)
     108:	01312e23          	sw	s3,28(sp)
     10c:	01412c23          	sw	s4,24(sp)
     110:	01512a23          	sw	s5,20(sp)
     114:	01612823          	sw	s6,16(sp)
     118:	01712623          	sw	s7,12(sp)
     11c:	01812423          	sw	s8,8(sp)
     120:	01912223          	sw	s9,4(sp)
     124:	00050413          	mv	s0,a0
     128:	000044b7          	lui	s1,0x4
     12c:	00055a63          	bgez	a0,140 <.L19>
     130:	0004a783          	lw	a5,0(s1) # 4000 <outputAddr>
     134:	02d00713          	li	a4,45
     138:	40a00433          	neg	s0,a0
     13c:	00e78023          	sb	a4,0(a5)

00000140 <.L19>:
     140:	00900793          	li	a5,9
     144:	0487ca63          	blt	a5,s0,198 <.L31>

00000148 <.L20>:
     148:	00040513          	mv	a0,s0
     14c:	00a00593          	li	a1,10
     150:	434010ef          	jal	ra,1584 <__umodsi3>
     154:	0004a783          	lw	a5,0(s1)
     158:	03050513          	addi	a0,a0,48
     15c:	0ff57513          	andi	a0,a0,255
     160:	00a78023          	sb	a0,0(a5)
     164:	02c12083          	lw	ra,44(sp)
     168:	02812403          	lw	s0,40(sp)
     16c:	02412483          	lw	s1,36(sp)
     170:	02012903          	lw	s2,32(sp)
     174:	01c12983          	lw	s3,28(sp)
     178:	01812a03          	lw	s4,24(sp)
     17c:	01412a83          	lw	s5,20(sp)
     180:	01012b03          	lw	s6,16(sp)
     184:	00c12b83          	lw	s7,12(sp)
     188:	00812c03          	lw	s8,8(sp)
     18c:	00412c83          	lw	s9,4(sp)
     190:	03010113          	addi	sp,sp,48
     194:	00008067          	ret

00000198 <.L31>:
     198:	00a00593          	li	a1,10
     19c:	00040513          	mv	a0,s0
     1a0:	3b8010ef          	jal	ra,1558 <__udivsi3>
     1a4:	06300793          	li	a5,99
     1a8:	00050913          	mv	s2,a0
     1ac:	0287c263          	blt	a5,s0,1d0 <.L32>

000001b0 <.L21>:
     1b0:	00a00593          	li	a1,10
     1b4:	00090513          	mv	a0,s2
     1b8:	3cc010ef          	jal	ra,1584 <__umodsi3>
     1bc:	0004a783          	lw	a5,0(s1)
     1c0:	03050513          	addi	a0,a0,48
     1c4:	0ff57513          	andi	a0,a0,255
     1c8:	00a78023          	sb	a0,0(a5)
     1cc:	f7dff06f          	j	148 <.L20>

000001d0 <.L32>:
     1d0:	00a00593          	li	a1,10
     1d4:	384010ef          	jal	ra,1558 <__udivsi3>
     1d8:	3e700793          	li	a5,999
     1dc:	00050993          	mv	s3,a0
     1e0:	0287e263          	bltu	a5,s0,204 <.L33>

000001e4 <.L22>:
     1e4:	00a00593          	li	a1,10
     1e8:	00098513          	mv	a0,s3
     1ec:	398010ef          	jal	ra,1584 <__umodsi3>
     1f0:	0004a783          	lw	a5,0(s1)
     1f4:	03050513          	addi	a0,a0,48
     1f8:	0ff57513          	andi	a0,a0,255
     1fc:	00a78023          	sb	a0,0(a5)
     200:	fb1ff06f          	j	1b0 <.L21>

00000204 <.L33>:
     204:	00a00593          	li	a1,10
     208:	350010ef          	jal	ra,1558 <__udivsi3>
     20c:	000027b7          	lui	a5,0x2
     210:	70f78793          	addi	a5,a5,1807 # 270f <.Ldebug_line0+0x1c7>
     214:	00050a13          	mv	s4,a0
     218:	0287e263          	bltu	a5,s0,23c <.L34>

0000021c <.L23>:
     21c:	00a00593          	li	a1,10
     220:	000a0513          	mv	a0,s4
     224:	360010ef          	jal	ra,1584 <__umodsi3>
     228:	0004a703          	lw	a4,0(s1)
     22c:	03050793          	addi	a5,a0,48
     230:	0ff7f793          	andi	a5,a5,255
     234:	00f70023          	sb	a5,0(a4)
     238:	fadff06f          	j	1e4 <.L22>

0000023c <.L34>:
     23c:	00a00593          	li	a1,10
     240:	318010ef          	jal	ra,1558 <__udivsi3>
     244:	000187b7          	lui	a5,0x18
     248:	69f78793          	addi	a5,a5,1695 # 1869f <.LC0+0x1454f>
     24c:	00050a93          	mv	s5,a0
     250:	0287e263          	bltu	a5,s0,274 <.L35>

00000254 <.L24>:
     254:	00a00593          	li	a1,10
     258:	000a8513          	mv	a0,s5
     25c:	328010ef          	jal	ra,1584 <__umodsi3>
     260:	0004a703          	lw	a4,0(s1)
     264:	03050793          	addi	a5,a0,48
     268:	0ff7f793          	andi	a5,a5,255
     26c:	00f70023          	sb	a5,0(a4)
     270:	fadff06f          	j	21c <.L23>

00000274 <.L35>:
     274:	00a00593          	li	a1,10
     278:	2e0010ef          	jal	ra,1558 <__udivsi3>
     27c:	000f47b7          	lui	a5,0xf4
     280:	23f78793          	addi	a5,a5,575 # f423f <.LC0+0xf00ef>
     284:	00050b13          	mv	s6,a0
     288:	0287e263          	bltu	a5,s0,2ac <.L36>

0000028c <.L25>:
     28c:	00a00593          	li	a1,10
     290:	000b0513          	mv	a0,s6
     294:	2f0010ef          	jal	ra,1584 <__umodsi3>
     298:	0004a703          	lw	a4,0(s1)
     29c:	03050793          	addi	a5,a0,48
     2a0:	0ff7f793          	andi	a5,a5,255
     2a4:	00f70023          	sb	a5,0(a4)
     2a8:	fadff06f          	j	254 <.L24>

000002ac <.L36>:
     2ac:	00a00593          	li	a1,10
     2b0:	2a8010ef          	jal	ra,1558 <__udivsi3>
     2b4:	009897b7          	lui	a5,0x989
     2b8:	67f78793          	addi	a5,a5,1663 # 98967f <.LC0+0x98552f>
     2bc:	00050b93          	mv	s7,a0
     2c0:	0287e263          	bltu	a5,s0,2e4 <.L37>

000002c4 <.L26>:
     2c4:	00a00593          	li	a1,10
     2c8:	000b8513          	mv	a0,s7
     2cc:	2b8010ef          	jal	ra,1584 <__umodsi3>
     2d0:	0004a703          	lw	a4,0(s1)
     2d4:	03050793          	addi	a5,a0,48
     2d8:	0ff7f793          	andi	a5,a5,255
     2dc:	00f70023          	sb	a5,0(a4)
     2e0:	fadff06f          	j	28c <.L25>

000002e4 <.L37>:
     2e4:	00a00593          	li	a1,10
     2e8:	270010ef          	jal	ra,1558 <__udivsi3>
     2ec:	05f5e7b7          	lui	a5,0x5f5e
     2f0:	0ff78793          	addi	a5,a5,255 # 5f5e0ff <.LC0+0x5f59faf>
     2f4:	00050c13          	mv	s8,a0
     2f8:	0287e263          	bltu	a5,s0,31c <.L38>

000002fc <.L27>:
     2fc:	00a00593          	li	a1,10
     300:	000c0513          	mv	a0,s8
     304:	280010ef          	jal	ra,1584 <__umodsi3>
     308:	0004a703          	lw	a4,0(s1)
     30c:	03050793          	addi	a5,a0,48
     310:	0ff7f793          	andi	a5,a5,255
     314:	00f70023          	sb	a5,0(a4)
     318:	fadff06f          	j	2c4 <.L26>

0000031c <.L38>:
     31c:	00a00593          	li	a1,10
     320:	238010ef          	jal	ra,1558 <__udivsi3>
     324:	3b9ad7b7          	lui	a5,0x3b9ad
     328:	9ff78793          	addi	a5,a5,-1537 # 3b9ac9ff <.LC0+0x3b9a88af>
     32c:	00050c93          	mv	s9,a0
     330:	0287e263          	bltu	a5,s0,354 <.L39>

00000334 <.L28>:
     334:	00a00593          	li	a1,10
     338:	000c8513          	mv	a0,s9
     33c:	248010ef          	jal	ra,1584 <__umodsi3>
     340:	0004a703          	lw	a4,0(s1)
     344:	03050793          	addi	a5,a0,48
     348:	0ff7f793          	andi	a5,a5,255
     34c:	00f70023          	sb	a5,0(a4)
     350:	fadff06f          	j	2fc <.L27>

00000354 <.L39>:
     354:	00000513          	li	a0,0
     358:	cc9ff0ef          	jal	ra,20 <printf_num>
     35c:	00a00593          	li	a1,10
     360:	000c8513          	mv	a0,s9
     364:	1f4010ef          	jal	ra,1558 <__udivsi3>
     368:	0004a703          	lw	a4,0(s1)
     36c:	03050793          	addi	a5,a0,48
     370:	0ff7f793          	andi	a5,a5,255
     374:	00f70023          	sb	a5,0(a4)
     378:	fbdff06f          	j	334 <.L28>

0000037c <printf_deci>:
     37c:	0c050c63          	beqz	a0,454 <.L54>
     380:	fd010113          	addi	sp,sp,-48
     384:	02812423          	sw	s0,40(sp)
     388:	02912223          	sw	s1,36(sp)
     38c:	02112623          	sw	ra,44(sp)
     390:	03212023          	sw	s2,32(sp)
     394:	01312e23          	sw	s3,28(sp)
     398:	01412c23          	sw	s4,24(sp)
     39c:	01512a23          	sw	s5,20(sp)
     3a0:	01612823          	sw	s6,16(sp)
     3a4:	01712623          	sw	s7,12(sp)
     3a8:	00050413          	mv	s0,a0
     3ac:	000044b7          	lui	s1,0x4
     3b0:	04054a63          	bltz	a0,404 <.L55>
     3b4:	00900793          	li	a5,9
     3b8:	0687c263          	blt	a5,s0,41c <.L56>

000003bc <.L44>:
     3bc:	00040513          	mv	a0,s0
     3c0:	00a00593          	li	a1,10
     3c4:	1c0010ef          	jal	ra,1584 <__umodsi3>
     3c8:	0004a783          	lw	a5,0(s1) # 4000 <outputAddr>
     3cc:	03050513          	addi	a0,a0,48
     3d0:	0ff57513          	andi	a0,a0,255
     3d4:	00a78023          	sb	a0,0(a5)
     3d8:	02c12083          	lw	ra,44(sp)
     3dc:	02812403          	lw	s0,40(sp)
     3e0:	02412483          	lw	s1,36(sp)
     3e4:	02012903          	lw	s2,32(sp)
     3e8:	01c12983          	lw	s3,28(sp)
     3ec:	01812a03          	lw	s4,24(sp)
     3f0:	01412a83          	lw	s5,20(sp)
     3f4:	01012b03          	lw	s6,16(sp)
     3f8:	00c12b83          	lw	s7,12(sp)
     3fc:	03010113          	addi	sp,sp,48
     400:	00008067          	ret

00000404 <.L55>:
     404:	0004a783          	lw	a5,0(s1)
     408:	02d00713          	li	a4,45
     40c:	40a00433          	neg	s0,a0
     410:	00e78023          	sb	a4,0(a5)
     414:	00900793          	li	a5,9
     418:	fa87d2e3          	bge	a5,s0,3bc <.L44>

0000041c <.L56>:
     41c:	00a00593          	li	a1,10
     420:	00040513          	mv	a0,s0
     424:	134010ef          	jal	ra,1558 <__udivsi3>
     428:	06300793          	li	a5,99
     42c:	00050913          	mv	s2,a0
     430:	0287cc63          	blt	a5,s0,468 <.L57>

00000434 <.L45>:
     434:	00a00593          	li	a1,10
     438:	00090513          	mv	a0,s2
     43c:	148010ef          	jal	ra,1584 <__umodsi3>
     440:	0004a783          	lw	a5,0(s1)
     444:	03050513          	addi	a0,a0,48
     448:	0ff57513          	andi	a0,a0,255
     44c:	00a78023          	sb	a0,0(a5)
     450:	f6dff06f          	j	3bc <.L44>

00000454 <.L54>:
     454:	000047b7          	lui	a5,0x4
     458:	0007a783          	lw	a5,0(a5) # 4000 <outputAddr>
     45c:	03000713          	li	a4,48
     460:	00e78023          	sb	a4,0(a5)
     464:	00008067          	ret

00000468 <.L57>:
     468:	00a00593          	li	a1,10
     46c:	0ec010ef          	jal	ra,1558 <__udivsi3>
     470:	3e700793          	li	a5,999
     474:	00050993          	mv	s3,a0
     478:	0287e263          	bltu	a5,s0,49c <.L58>

0000047c <.L46>:
     47c:	00a00593          	li	a1,10
     480:	00098513          	mv	a0,s3
     484:	100010ef          	jal	ra,1584 <__umodsi3>
     488:	0004a783          	lw	a5,0(s1)
     48c:	03050513          	addi	a0,a0,48
     490:	0ff57513          	andi	a0,a0,255
     494:	00a78023          	sb	a0,0(a5)
     498:	f9dff06f          	j	434 <.L45>

0000049c <.L58>:
     49c:	00a00593          	li	a1,10
     4a0:	0b8010ef          	jal	ra,1558 <__udivsi3>
     4a4:	000027b7          	lui	a5,0x2
     4a8:	70f78793          	addi	a5,a5,1807 # 270f <.Ldebug_line0+0x1c7>
     4ac:	00050a13          	mv	s4,a0
     4b0:	0287e263          	bltu	a5,s0,4d4 <.L59>

000004b4 <.L47>:
     4b4:	00a00593          	li	a1,10
     4b8:	000a0513          	mv	a0,s4
     4bc:	0c8010ef          	jal	ra,1584 <__umodsi3>
     4c0:	0004a703          	lw	a4,0(s1)
     4c4:	03050793          	addi	a5,a0,48
     4c8:	0ff7f793          	andi	a5,a5,255
     4cc:	00f70023          	sb	a5,0(a4)
     4d0:	fadff06f          	j	47c <.L46>

000004d4 <.L59>:
     4d4:	00a00593          	li	a1,10
     4d8:	080010ef          	jal	ra,1558 <__udivsi3>
     4dc:	000187b7          	lui	a5,0x18
     4e0:	69f78793          	addi	a5,a5,1695 # 1869f <.LC0+0x1454f>
     4e4:	00050a93          	mv	s5,a0
     4e8:	0287e263          	bltu	a5,s0,50c <.L60>

000004ec <.L48>:
     4ec:	00a00593          	li	a1,10
     4f0:	000a8513          	mv	a0,s5
     4f4:	090010ef          	jal	ra,1584 <__umodsi3>
     4f8:	0004a703          	lw	a4,0(s1)
     4fc:	03050793          	addi	a5,a0,48
     500:	0ff7f793          	andi	a5,a5,255
     504:	00f70023          	sb	a5,0(a4)
     508:	fadff06f          	j	4b4 <.L47>

0000050c <.L60>:
     50c:	00a00593          	li	a1,10
     510:	048010ef          	jal	ra,1558 <__udivsi3>
     514:	000f47b7          	lui	a5,0xf4
     518:	23f78793          	addi	a5,a5,575 # f423f <.LC0+0xf00ef>
     51c:	00050b13          	mv	s6,a0
     520:	0287e263          	bltu	a5,s0,544 <.L61>

00000524 <.L49>:
     524:	00a00593          	li	a1,10
     528:	000b0513          	mv	a0,s6
     52c:	058010ef          	jal	ra,1584 <__umodsi3>
     530:	0004a703          	lw	a4,0(s1)
     534:	03050793          	addi	a5,a0,48
     538:	0ff7f793          	andi	a5,a5,255
     53c:	00f70023          	sb	a5,0(a4)
     540:	fadff06f          	j	4ec <.L48>

00000544 <.L61>:
     544:	00a00593          	li	a1,10
     548:	010010ef          	jal	ra,1558 <__udivsi3>
     54c:	00a00593          	li	a1,10
     550:	00050b93          	mv	s7,a0
     554:	004010ef          	jal	ra,1558 <__udivsi3>
     558:	ac9ff0ef          	jal	ra,20 <printf_num>
     55c:	00a00593          	li	a1,10
     560:	000b8513          	mv	a0,s7
     564:	020010ef          	jal	ra,1584 <__umodsi3>
     568:	0004a703          	lw	a4,0(s1)
     56c:	03050793          	addi	a5,a0,48
     570:	0ff7f793          	andi	a5,a5,255
     574:	00f70023          	sb	a5,0(a4)
     578:	fadff06f          	j	524 <.L49>

0000057c <printf_char>:
     57c:	000047b7          	lui	a5,0x4
     580:	0007a783          	lw	a5,0(a5) # 4000 <outputAddr>
     584:	0ff57513          	andi	a0,a0,255
     588:	00a78023          	sb	a0,0(a5)
     58c:	00008067          	ret

00000590 <printf_str>:
     590:	00054783          	lbu	a5,0(a0)
     594:	02078063          	beqz	a5,5b4 <.L63>
     598:	00150513          	addi	a0,a0,1
     59c:	000046b7          	lui	a3,0x4

000005a0 <.L65>:
     5a0:	0006a703          	lw	a4,0(a3) # 4000 <outputAddr>
     5a4:	00150513          	addi	a0,a0,1
     5a8:	00f70023          	sb	a5,0(a4)
     5ac:	fff54783          	lbu	a5,-1(a0)
     5b0:	fe0798e3          	bnez	a5,5a0 <.L65>

000005b4 <.L63>:
     5b4:	00008067          	ret

000005b8 <printf_float>:
     5b8:	fe010113          	addi	sp,sp,-32
     5bc:	00000613          	li	a2,0
     5c0:	00000693          	li	a3,0
     5c4:	00812c23          	sw	s0,24(sp)
     5c8:	00912a23          	sw	s1,20(sp)
     5cc:	00112e23          	sw	ra,28(sp)
     5d0:	01212823          	sw	s2,16(sp)
     5d4:	01312623          	sw	s3,12(sp)
     5d8:	00050493          	mv	s1,a0
     5dc:	00058413          	mv	s0,a1
     5e0:	340000ef          	jal	ra,920 <__eqdf2>
     5e4:	10050a63          	beqz	a0,6f8 <.L87>
     5e8:	00048513          	mv	a0,s1
     5ec:	00040593          	mv	a1,s0
     5f0:	00000613          	li	a2,0
     5f4:	00000693          	li	a3,0
     5f8:	392000ef          	jal	ra,98a <__ledf2>
     5fc:	00004937          	lui	s2,0x4
     600:	0a054663          	bltz	a0,6ac <.L82>
     604:	00048513          	mv	a0,s1
     608:	00040593          	mv	a1,s0
     60c:	67b000ef          	jal	ra,1486 <__fixdfsi>
     610:	00050993          	mv	s3,a0
     614:	0c050a63          	beqz	a0,6e8 <.L88>

00000618 <.L76>:
     618:	addff0ef          	jal	ra,f4 <printf_deci.part.0>

0000061c <.L77>:
     61c:	00092783          	lw	a5,0(s2) # 4000 <outputAddr>
     620:	02e00713          	li	a4,46
     624:	00098513          	mv	a0,s3
     628:	00e78023          	sb	a4,0(a5)
     62c:	6bf000ef          	jal	ra,14ea <__floatsidf>
     630:	00050613          	mv	a2,a0
     634:	00058693          	mv	a3,a1
     638:	00048513          	mv	a0,s1
     63c:	00040593          	mv	a1,s0
     640:	02f000ef          	jal	ra,e6e <__subdf3>
     644:	00000613          	li	a2,0
     648:	00000693          	li	a3,0
     64c:	00050493          	mv	s1,a0
     650:	00058413          	mv	s0,a1
     654:	2cc000ef          	jal	ra,920 <__eqdf2>
     658:	0c051663          	bnez	a0,724 <.L85>
     65c:	00092703          	lw	a4,0(s2)
     660:	03000793          	li	a5,48
     664:	00f70023          	sb	a5,0(a4)
     668:	00092703          	lw	a4,0(s2)
     66c:	00f70023          	sb	a5,0(a4)
     670:	00092703          	lw	a4,0(s2)
     674:	00f70023          	sb	a5,0(a4)
     678:	00092703          	lw	a4,0(s2)
     67c:	00f70023          	sb	a5,0(a4)
     680:	00092703          	lw	a4,0(s2)
     684:	00f70023          	sb	a5,0(a4)
     688:	00092703          	lw	a4,0(s2)
     68c:	00f70023          	sb	a5,0(a4)
     690:	01c12083          	lw	ra,28(sp)
     694:	01812403          	lw	s0,24(sp)
     698:	01412483          	lw	s1,20(sp)
     69c:	01012903          	lw	s2,16(sp)
     6a0:	00c12983          	lw	s3,12(sp)
     6a4:	02010113          	addi	sp,sp,32
     6a8:	00008067          	ret

000006ac <.L82>:
     6ac:	00092783          	lw	a5,0(s2)
     6b0:	02d00713          	li	a4,45
     6b4:	00048613          	mv	a2,s1
     6b8:	00040693          	mv	a3,s0
     6bc:	00e78023          	sb	a4,0(a5)
     6c0:	00000513          	li	a0,0
     6c4:	00000593          	li	a1,0
     6c8:	7a6000ef          	jal	ra,e6e <__subdf3>
     6cc:	00050493          	mv	s1,a0
     6d0:	00058413          	mv	s0,a1
     6d4:	00048513          	mv	a0,s1
     6d8:	00040593          	mv	a1,s0
     6dc:	5ab000ef          	jal	ra,1486 <__fixdfsi>
     6e0:	00050993          	mv	s3,a0
     6e4:	f2051ae3          	bnez	a0,618 <.L76>

000006e8 <.L88>:
     6e8:	00092783          	lw	a5,0(s2)
     6ec:	03000713          	li	a4,48
     6f0:	00e78023          	sb	a4,0(a5)
     6f4:	f29ff06f          	j	61c <.L77>

000006f8 <.L87>:
     6f8:	000047b7          	lui	a5,0x4
     6fc:	0007a783          	lw	a5,0(a5) # 4000 <outputAddr>
     700:	03000713          	li	a4,48
     704:	00e78023          	sb	a4,0(a5)
     708:	01c12083          	lw	ra,28(sp)
     70c:	01812403          	lw	s0,24(sp)
     710:	01412483          	lw	s1,20(sp)
     714:	01012903          	lw	s2,16(sp)
     718:	00c12983          	lw	s3,12(sp)
     71c:	02010113          	addi	sp,sp,32
     720:	00008067          	ret

00000724 <.L85>:
     724:	000047b7          	lui	a5,0x4
     728:	1507a603          	lw	a2,336(a5) # 4150 <.LC0>
     72c:	1547a683          	lw	a3,340(a5)
     730:	00048513          	mv	a0,s1
     734:	00040593          	mv	a1,s0
     738:	2f8000ef          	jal	ra,a30 <__muldf3>
     73c:	54b000ef          	jal	ra,1486 <__fixdfsi>
     740:	02050063          	beqz	a0,760 <.L89>
     744:	01812403          	lw	s0,24(sp)
     748:	01c12083          	lw	ra,28(sp)
     74c:	01412483          	lw	s1,20(sp)
     750:	01012903          	lw	s2,16(sp)
     754:	00c12983          	lw	s3,12(sp)
     758:	02010113          	addi	sp,sp,32
     75c:	999ff06f          	j	f4 <printf_deci.part.0>

00000760 <.L89>:
     760:	00092783          	lw	a5,0(s2)
     764:	03000713          	li	a4,48
     768:	00e78023          	sb	a4,0(a5)
     76c:	01c12083          	lw	ra,28(sp)
     770:	01812403          	lw	s0,24(sp)
     774:	01412483          	lw	s1,20(sp)
     778:	01012903          	lw	s2,16(sp)
     77c:	00c12983          	lw	s3,12(sp)
     780:	02010113          	addi	sp,sp,32
     784:	00008067          	ret

00000788 <my_printf>:
     788:	fa010113          	addi	sp,sp,-96
     78c:	02112e23          	sw	ra,60(sp)
     790:	02812c23          	sw	s0,56(sp)
     794:	02912a23          	sw	s1,52(sp)
     798:	03212823          	sw	s2,48(sp)
     79c:	03312623          	sw	s3,44(sp)
     7a0:	03412423          	sw	s4,40(sp)
     7a4:	03512223          	sw	s5,36(sp)
     7a8:	03612023          	sw	s6,32(sp)
     7ac:	01712e23          	sw	s7,28(sp)
     7b0:	01812c23          	sw	s8,24(sp)
     7b4:	01912a23          	sw	s9,20(sp)
     7b8:	00054303          	lbu	t1,0(a0)
     7bc:	04f12a23          	sw	a5,84(sp)
     7c0:	04410793          	addi	a5,sp,68
     7c4:	04b12223          	sw	a1,68(sp)
     7c8:	04c12423          	sw	a2,72(sp)
     7cc:	04d12623          	sw	a3,76(sp)
     7d0:	04e12823          	sw	a4,80(sp)
     7d4:	05012c23          	sw	a6,88(sp)
     7d8:	05112e23          	sw	a7,92(sp)
     7dc:	00f12623          	sw	a5,12(sp)
     7e0:	08030463          	beqz	t1,868 <.L90>
     7e4:	00050913          	mv	s2,a0
     7e8:	00000413          	li	s0,0
     7ec:	02500b13          	li	s6,37
     7f0:	06600a93          	li	s5,102
     7f4:	07300c93          	li	s9,115
     7f8:	000049b7          	lui	s3,0x4
     7fc:	06300c13          	li	s8,99
     800:	06400b93          	li	s7,100
     804:	03000a13          	li	s4,48
     808:	0180006f          	j	820 <.L91>

0000080c <.L110>:
     80c:	0009a703          	lw	a4,0(s3) # 4000 <outputAddr>
     810:	00078413          	mv	s0,a5
     814:	00670023          	sb	t1,0(a4)

00000818 <.L93>:
     818:	0004c303          	lbu	t1,0(s1)
     81c:	04030663          	beqz	t1,868 <.L90>

00000820 <.L91>:
     820:	00140793          	addi	a5,s0,1
     824:	00f904b3          	add	s1,s2,a5
     828:	ff6312e3          	bne	t1,s6,80c <.L110>
     82c:	0004c783          	lbu	a5,0(s1)
     830:	00240413          	addi	s0,s0,2
     834:	008904b3          	add	s1,s2,s0
     838:	09578e63          	beq	a5,s5,8d4 <.L94>
     83c:	06fae063          	bltu	s5,a5,89c <.L95>
     840:	0b878c63          	beq	a5,s8,8f8 <.L96>
     844:	fd779ae3          	bne	a5,s7,818 <.L93>
     848:	00c12783          	lw	a5,12(sp)
     84c:	0007a503          	lw	a0,0(a5)
     850:	00478793          	addi	a5,a5,4
     854:	00f12623          	sw	a5,12(sp)
     858:	0a050e63          	beqz	a0,914 <.L111>
     85c:	899ff0ef          	jal	ra,f4 <printf_deci.part.0>
     860:	0004c303          	lbu	t1,0(s1)
     864:	fa031ee3          	bnez	t1,820 <.L91>

00000868 <.L90>:
     868:	03c12083          	lw	ra,60(sp)
     86c:	03812403          	lw	s0,56(sp)
     870:	03412483          	lw	s1,52(sp)
     874:	03012903          	lw	s2,48(sp)
     878:	02c12983          	lw	s3,44(sp)
     87c:	02812a03          	lw	s4,40(sp)
     880:	02412a83          	lw	s5,36(sp)
     884:	02012b03          	lw	s6,32(sp)
     888:	01c12b83          	lw	s7,28(sp)
     88c:	01812c03          	lw	s8,24(sp)
     890:	01412c83          	lw	s9,20(sp)
     894:	06010113          	addi	sp,sp,96
     898:	00008067          	ret

0000089c <.L95>:
     89c:	f7979ee3          	bne	a5,s9,818 <.L93>
     8a0:	00c12703          	lw	a4,12(sp)
     8a4:	00072783          	lw	a5,0(a4)
     8a8:	00470713          	addi	a4,a4,4
     8ac:	00e12623          	sw	a4,12(sp)
     8b0:	0007c703          	lbu	a4,0(a5)
     8b4:	f60702e3          	beqz	a4,818 <.L93>
     8b8:	00178793          	addi	a5,a5,1

000008bc <.L100>:
     8bc:	0009a683          	lw	a3,0(s3)
     8c0:	00178793          	addi	a5,a5,1
     8c4:	00e68023          	sb	a4,0(a3)
     8c8:	fff7c703          	lbu	a4,-1(a5)
     8cc:	fe0718e3          	bnez	a4,8bc <.L100>
     8d0:	f49ff06f          	j	818 <.L93>

000008d4 <.L94>:
     8d4:	00c12783          	lw	a5,12(sp)
     8d8:	00778793          	addi	a5,a5,7
     8dc:	ff87f793          	andi	a5,a5,-8
     8e0:	0007a503          	lw	a0,0(a5)
     8e4:	0047a583          	lw	a1,4(a5)
     8e8:	00878793          	addi	a5,a5,8
     8ec:	00f12623          	sw	a5,12(sp)
     8f0:	cc9ff0ef          	jal	ra,5b8 <printf_float>
     8f4:	f25ff06f          	j	818 <.L93>

000008f8 <.L96>:
     8f8:	00c12783          	lw	a5,12(sp)
     8fc:	0009a703          	lw	a4,0(s3)
     900:	0007c683          	lbu	a3,0(a5)
     904:	00478793          	addi	a5,a5,4
     908:	00f12623          	sw	a5,12(sp)
     90c:	00d70023          	sb	a3,0(a4)
     910:	f09ff06f          	j	818 <.L93>

00000914 <.L111>:
     914:	0009a783          	lw	a5,0(s3)
     918:	01478023          	sb	s4,0(a5)
     91c:	efdff06f          	j	818 <.L93>

00000920 <__eqdf2>:
     920:	0145d713          	srli	a4,a1,0x14
     924:	001007b7          	lui	a5,0x100
     928:	17fd                	addi	a5,a5,-1

0000092a <.LBB3>:
     92a:	0146d813          	srli	a6,a3,0x14

0000092e <.LBE3>:
     92e:	832a                	mv	t1,a0
     930:	8eaa                	mv	t4,a0

00000932 <.LBB4>:
     932:	7ff77713          	andi	a4,a4,2047

00000936 <.LBE4>:
     936:	7ff00513          	li	a0,2047

0000093a <.LBB5>:
     93a:	00b7f8b3          	and	a7,a5,a1
     93e:	8f32                	mv	t5,a2

00000940 <.LBB6>:
     940:	8ff5                	and	a5,a5,a3

00000942 <.LBB7>:
     942:	81fd                	srli	a1,a1,0x1f

00000944 <.LBB8>:
     944:	7ff87813          	andi	a6,a6,2047
     948:	82fd                	srli	a3,a3,0x1f

0000094a <.LBE8>:
     94a:	00a71a63          	bne	a4,a0,95e <.L2>
     94e:	0068ee33          	or	t3,a7,t1
     952:	4505                	li	a0,1
     954:	000e1463          	bnez	t3,95c <.L1>
     958:	00e80563          	beq	a6,a4,962 <.L6>

0000095c <.L1>:
     95c:	8082                	ret

0000095e <.L2>:
     95e:	00a81563          	bne	a6,a0,968 <.L5>

00000962 <.L6>:
     962:	8e5d                	or	a2,a2,a5

00000964 <.LVL9>:
     964:	4505                	li	a0,1
     966:	fa7d                	bnez	a2,95c <.L1>

00000968 <.L5>:
     968:	4505                	li	a0,1
     96a:	ff0719e3          	bne	a4,a6,95c <.L1>
     96e:	fef897e3          	bne	a7,a5,95c <.L1>
     972:	ffee95e3          	bne	t4,t5,95c <.L1>
     976:	00d58863          	beq	a1,a3,986 <.L12>
     97a:	f36d                	bnez	a4,95c <.L1>
     97c:	0068e533          	or	a0,a7,t1
     980:	00a03533          	snez	a0,a0
     984:	8082                	ret

00000986 <.L12>:
     986:	4501                	li	a0,0
     988:	8082                	ret

0000098a <__ledf2>:
     98a:	00100737          	lui	a4,0x100
     98e:	177d                	addi	a4,a4,-1
     990:	0145d813          	srli	a6,a1,0x14
     994:	00b778b3          	and	a7,a4,a1

00000998 <.LBE2>:
     998:	87aa                	mv	a5,a0
     99a:	832a                	mv	t1,a0

0000099c <.LBB3>:
     99c:	7ff87813          	andi	a6,a6,2047
     9a0:	01f5d513          	srli	a0,a1,0x1f

000009a4 <.LBB4>:
     9a4:	7ff00e93          	li	t4,2047

000009a8 <.LBB5>:
     9a8:	0146d593          	srli	a1,a3,0x14
     9ac:	8f75                	and	a4,a4,a3
     9ae:	8e32                	mv	t3,a2

000009b0 <.LVL4>:
     9b0:	7ff5f593          	andi	a1,a1,2047
     9b4:	82fd                	srli	a3,a3,0x1f

000009b6 <.LBE5>:
     9b6:	01d81863          	bne	a6,t4,9c6 <.L2>
     9ba:	00f8eeb3          	or	t4,a7,a5
     9be:	060e8463          	beqz	t4,a26 <.L34>

000009c2 <.L23>:
     9c2:	4509                	li	a0,2

000009c4 <.LVL7>:
     9c4:	8082                	ret

000009c6 <.L2>:
     9c6:	01d59663          	bne	a1,t4,9d2 <.L5>

000009ca <.L21>:
     9ca:	00c76eb3          	or	t4,a4,a2
     9ce:	fe0e9ae3          	bnez	t4,9c2 <.L23>

000009d2 <.L5>:
     9d2:	04081c63          	bnez	a6,a2a <.L6>
     9d6:	00f8e7b3          	or	a5,a7,a5
     9da:	0017b793          	seqz	a5,a5

000009de <.LVL9>:
     9de:	e199                	bnez	a1,9e4 <.L7>

000009e0 <.L20>:
     9e0:	8e59                	or	a2,a2,a4

000009e2 <.LVL11>:
     9e2:	ce0d                	beqz	a2,a1c <.L8>

000009e4 <.L7>:
     9e4:	eb81                	bnez	a5,9f4 <.L16>

000009e6 <.L17>:
     9e6:	00d51463          	bne	a0,a3,9ee <.L13>
     9ea:	0105d963          	bge	a1,a6,9fc <.L11>

000009ee <.L13>:
     9ee:	c50d                	beqz	a0,a18 <.L29>

000009f0 <.L31>:
     9f0:	557d                	li	a0,-1

000009f2 <.LVL15>:
     9f2:	8082                	ret

000009f4 <.L16>:
     9f4:	557d                	li	a0,-1

000009f6 <.LVL17>:
     9f6:	c691                	beqz	a3,a02 <.L1>
     9f8:	8536                	mv	a0,a3
     9fa:	8082                	ret

000009fc <.L11>:
     9fc:	00b85463          	bge	a6,a1,a04 <.L12>

00000a00 <.L19>:
     a00:	d965                	beqz	a0,9f0 <.L31>

00000a02 <.L1>:
     a02:	8082                	ret

00000a04 <.L12>:
     a04:	ff1765e3          	bltu	a4,a7,9ee <.L13>
     a08:	00e89c63          	bne	a7,a4,a20 <.L14>
     a0c:	fe6e61e3          	bltu	t3,t1,9ee <.L13>
     a10:	ffc368e3          	bltu	t1,t3,a00 <.L19>

00000a14 <.L39>:
     a14:	4501                	li	a0,0

00000a16 <.LVL22>:
     a16:	8082                	ret

00000a18 <.L29>:
     a18:	4505                	li	a0,1

00000a1a <.LVL24>:
     a1a:	8082                	ret

00000a1c <.L8>:
     a1c:	ffe5                	bnez	a5,a14 <.L39>
     a1e:	bfc1                	j	9ee <.L13>

00000a20 <.L14>:
     a20:	fee8e0e3          	bltu	a7,a4,a00 <.L19>
     a24:	bfc5                	j	a14 <.L39>

00000a26 <.L34>:
     a26:	fb0582e3          	beq	a1,a6,9ca <.L21>

00000a2a <.L6>:
     a2a:	fdd5                	bnez	a1,9e6 <.L17>
     a2c:	4781                	li	a5,0
     a2e:	bf4d                	j	9e0 <.L20>

00000a30 <__muldf3>:
     a30:	7179                	addi	sp,sp,-48
     a32:	ce4e                	sw	s3,28(sp)

00000a34 <.LBB3>:
     a34:	0145d993          	srli	s3,a1,0x14

00000a38 <.LBE3>:
     a38:	d422                	sw	s0,40(sp)
     a3a:	d226                	sw	s1,36(sp)
     a3c:	cc52                	sw	s4,24(sp)
     a3e:	ca56                	sw	s5,20(sp)
     a40:	c65e                	sw	s7,12(sp)

00000a42 <.LBB4>:
     a42:	00c59493          	slli	s1,a1,0xc

00000a46 <.LBE4>:
     a46:	d606                	sw	ra,44(sp)
     a48:	d04a                	sw	s2,32(sp)
     a4a:	c85a                	sw	s6,16(sp)

00000a4c <.LBB5>:
     a4c:	7ff9f993          	andi	s3,s3,2047

00000a50 <.LBE5>:
     a50:	842a                	mv	s0,a0
     a52:	8bb2                	mv	s7,a2
     a54:	8ab6                	mv	s5,a3

00000a56 <.LBB6>:
     a56:	80b1                	srli	s1,s1,0xc

00000a58 <.LVL1>:
     a58:	01f5da13          	srli	s4,a1,0x1f

00000a5c <.LBE6>:
     a5c:	06098f63          	beqz	s3,ada <.L2>
     a60:	7ff00793          	li	a5,2047
     a64:	0cf98363          	beq	s3,a5,b2a <.L3>

00000a68 <.LVL3>:
     a68:	01d55793          	srli	a5,a0,0x1d
     a6c:	048e                	slli	s1,s1,0x3

00000a6e <.LVL4>:
     a6e:	8cdd                	or	s1,s1,a5
     a70:	008007b7          	lui	a5,0x800
     a74:	8cdd                	or	s1,s1,a5

00000a76 <.LVL5>:
     a76:	00351913          	slli	s2,a0,0x3

00000a7a <.LVL6>:
     a7a:	c0198993          	addi	s3,s3,-1023

00000a7e <.L58>:
     a7e:	4b01                	li	s6,0

00000a80 <.L4>:
     a80:	014ad513          	srli	a0,s5,0x14
     a84:	00ca9413          	slli	s0,s5,0xc
     a88:	7ff57513          	andi	a0,a0,2047
     a8c:	8031                	srli	s0,s0,0xc

00000a8e <.LVL9>:
     a8e:	01fada93          	srli	s5,s5,0x1f

00000a92 <.LBE11>:
     a92:	cd55                	beqz	a0,b4e <.L9>
     a94:	7ff00793          	li	a5,2047
     a98:	10f50363          	beq	a0,a5,b9e <.L10>

00000a9c <.LVL11>:
     a9c:	01dbd793          	srli	a5,s7,0x1d
     aa0:	040e                	slli	s0,s0,0x3

00000aa2 <.LVL12>:
     aa2:	8c5d                	or	s0,s0,a5
     aa4:	008007b7          	lui	a5,0x800
     aa8:	8c5d                	or	s0,s0,a5

00000aaa <.LVL13>:
     aaa:	c0150513          	addi	a0,a0,-1023

00000aae <.LVL14>:
     aae:	003b9793          	slli	a5,s7,0x3

00000ab2 <.L59>:
     ab2:	4701                	li	a4,0

00000ab4 <.L11>:
     ab4:	002b1693          	slli	a3,s6,0x2
     ab8:	8ed9                	or	a3,a3,a4
     aba:	954e                	add	a0,a0,s3

00000abc <.LVL17>:
     abc:	16fd                	addi	a3,a3,-1
     abe:	4839                	li	a6,14
     ac0:	015a4633          	xor	a2,s4,s5

00000ac4 <.LVL18>:
     ac4:	00150593          	addi	a1,a0,1

00000ac8 <.LVL19>:
     ac8:	0ed86c63          	bltu	a6,a3,bc0 <.L16>
     acc:	6511                	lui	a0,0x4
     ace:	068a                	slli	a3,a3,0x2
     ad0:	00450513          	addi	a0,a0,4 # 4004 <.L18>
     ad4:	96aa                	add	a3,a3,a0
     ad6:	4294                	lw	a3,0(a3)
     ad8:	8682                	jr	a3

00000ada <.L2>:
     ada:	00a4e933          	or	s2,s1,a0
     ade:	04090f63          	beqz	s2,b3c <.L35>

00000ae2 <.LBB17>:
     ae2:	c88d                	beqz	s1,b14 <.L5>
     ae4:	8526                	mv	a0,s1

00000ae6 <.LVL21>:
     ae6:	2e9000ef          	jal	ra,15ce <__clzsi2>

00000aea <.L6>:
     aea:	ff550713          	addi	a4,a0,-11

00000aee <.LVL23>:
     aee:	47f1                	li	a5,28
     af0:	02e7c763          	blt	a5,a4,b1e <.L7>
     af4:	47f5                	li	a5,29
     af6:	ff850913          	addi	s2,a0,-8
     afa:	8f99                	sub	a5,a5,a4
     afc:	012494b3          	sll	s1,s1,s2

00000b00 <.LVL24>:
     b00:	00f457b3          	srl	a5,s0,a5
     b04:	8cdd                	or	s1,s1,a5

00000b06 <.LVL25>:
     b06:	01241933          	sll	s2,s0,s2

00000b0a <.L8>:
     b0a:	c0d00993          	li	s3,-1011

00000b0e <.LVL27>:
     b0e:	40a989b3          	sub	s3,s3,a0
     b12:	b7b5                	j	a7e <.L58>

00000b14 <.L5>:
     b14:	2bb000ef          	jal	ra,15ce <__clzsi2>

00000b18 <.LVL29>:
     b18:	02050513          	addi	a0,a0,32
     b1c:	b7f9                	j	aea <.L6>

00000b1e <.L7>:
     b1e:	fd850493          	addi	s1,a0,-40

00000b22 <.LVL32>:
     b22:	009414b3          	sll	s1,s0,s1

00000b26 <.LVL33>:
     b26:	4901                	li	s2,0
     b28:	b7cd                	j	b0a <.L8>

00000b2a <.L3>:
     b2a:	00a4e933          	or	s2,s1,a0
     b2e:	00090b63          	beqz	s2,b44 <.L36>
     b32:	892a                	mv	s2,a0
     b34:	7ff00993          	li	s3,2047

00000b38 <.LVL35>:
     b38:	4b0d                	li	s6,3
     b3a:	b799                	j	a80 <.L4>

00000b3c <.L35>:
     b3c:	4481                	li	s1,0

00000b3e <.LVL37>:
     b3e:	4981                	li	s3,0

00000b40 <.LVL38>:
     b40:	4b05                	li	s6,1
     b42:	bf3d                	j	a80 <.L4>

00000b44 <.L36>:
     b44:	4481                	li	s1,0

00000b46 <.LVL40>:
     b46:	7ff00993          	li	s3,2047

00000b4a <.LVL41>:
     b4a:	4b09                	li	s6,2
     b4c:	bf15                	j	a80 <.L4>

00000b4e <.L9>:
     b4e:	017467b3          	or	a5,s0,s7
     b52:	cfb1                	beqz	a5,bae <.L37>

00000b54 <.LBB18>:
     b54:	c80d                	beqz	s0,b86 <.L12>
     b56:	8522                	mv	a0,s0

00000b58 <.LVL43>:
     b58:	277000ef          	jal	ra,15ce <__clzsi2>

00000b5c <.L13>:
     b5c:	ff550693          	addi	a3,a0,-11

00000b60 <.LVL45>:
     b60:	47f1                	li	a5,28
     b62:	02d7c863          	blt	a5,a3,b92 <.L14>
     b66:	4775                	li	a4,29
     b68:	ff850793          	addi	a5,a0,-8
     b6c:	8f15                	sub	a4,a4,a3
     b6e:	00f41433          	sll	s0,s0,a5

00000b72 <.LVL46>:
     b72:	00ebd733          	srl	a4,s7,a4
     b76:	8c59                	or	s0,s0,a4

00000b78 <.LVL47>:
     b78:	00fb97b3          	sll	a5,s7,a5

00000b7c <.L15>:
     b7c:	c0d00713          	li	a4,-1011
     b80:	40a70533          	sub	a0,a4,a0
     b84:	b73d                	j	ab2 <.L59>

00000b86 <.L12>:
     b86:	855e                	mv	a0,s7

00000b88 <.LVL50>:
     b88:	247000ef          	jal	ra,15ce <__clzsi2>

00000b8c <.LVL51>:
     b8c:	02050513          	addi	a0,a0,32
     b90:	b7f1                	j	b5c <.L13>

00000b92 <.L14>:
     b92:	fd850413          	addi	s0,a0,-40

00000b96 <.LVL54>:
     b96:	008b9433          	sll	s0,s7,s0

00000b9a <.LVL55>:
     b9a:	4781                	li	a5,0
     b9c:	b7c5                	j	b7c <.L15>

00000b9e <.L10>:
     b9e:	017467b3          	or	a5,s0,s7
     ba2:	cb91                	beqz	a5,bb6 <.L38>
     ba4:	87de                	mv	a5,s7
     ba6:	7ff00513          	li	a0,2047

00000baa <.LVL57>:
     baa:	470d                	li	a4,3
     bac:	b721                	j	ab4 <.L11>

00000bae <.L37>:
     bae:	4401                	li	s0,0

00000bb0 <.LVL59>:
     bb0:	4501                	li	a0,0

00000bb2 <.LVL60>:
     bb2:	4705                	li	a4,1
     bb4:	b701                	j	ab4 <.L11>

00000bb6 <.L38>:
     bb6:	4401                	li	s0,0

00000bb8 <.LVL62>:
     bb8:	7ff00513          	li	a0,2047

00000bbc <.LVL63>:
     bbc:	4709                	li	a4,2
     bbe:	bddd                	j	ab4 <.L11>

00000bc0 <.L16>:
     bc0:	6f41                	lui	t5,0x10
     bc2:	ffff0e93          	addi	t4,t5,-1 # ffff <.LC0+0xbeaf>
     bc6:	01095713          	srli	a4,s2,0x10

00000bca <.LVL65>:
     bca:	0107d893          	srli	a7,a5,0x10

00000bce <.LVL66>:
     bce:	01d97933          	and	s2,s2,t4

00000bd2 <.LVL67>:
     bd2:	01d7f7b3          	and	a5,a5,t4

00000bd6 <.LVL68>:
     bd6:	03288833          	mul	a6,a7,s2
     bda:	02f906b3          	mul	a3,s2,a5

00000bde <.LVL69>:
     bde:	02f70fb3          	mul	t6,a4,a5

00000be2 <.LVL70>:
     be2:	01f80333          	add	t1,a6,t6
     be6:	0106d813          	srli	a6,a3,0x10

00000bea <.LVL71>:
     bea:	981a                	add	a6,a6,t1
     bec:	03170e33          	mul	t3,a4,a7

00000bf0 <.LVL72>:
     bf0:	01f87363          	bgeu	a6,t6,bf6 <.L23>
     bf4:	9e7a                	add	t3,t3,t5

00000bf6 <.L23>:
     bf6:	01085393          	srli	t2,a6,0x10
     bfa:	01d87833          	and	a6,a6,t4

00000bfe <.LVL74>:
     bfe:	01d6f6b3          	and	a3,a3,t4

00000c02 <.LBB22>:
     c02:	01045f13          	srli	t5,s0,0x10
     c06:	01d472b3          	and	t0,s0,t4

00000c0a <.LBB23>:
     c0a:	0842                	slli	a6,a6,0x10
     c0c:	9836                	add	a6,a6,a3

00000c0e <.LBB24>:
     c0e:	02570eb3          	mul	t4,a4,t0
     c12:	025906b3          	mul	a3,s2,t0

00000c16 <.LVL77>:
     c16:	032f0933          	mul	s2,t5,s2

00000c1a <.LVL78>:
     c1a:	01d90333          	add	t1,s2,t4
     c1e:	0106d913          	srli	s2,a3,0x10

00000c22 <.LVL79>:
     c22:	991a                	add	s2,s2,t1
     c24:	03e70733          	mul	a4,a4,t5

00000c28 <.LVL80>:
     c28:	01d97463          	bgeu	s2,t4,c30 <.L24>
     c2c:	6341                	lui	t1,0x10
     c2e:	971a                	add	a4,a4,t1

00000c30 <.L24>:
     c30:	01095e93          	srli	t4,s2,0x10

00000c34 <.LVL82>:
     c34:	69c1                	lui	s3,0x10

00000c36 <.LVL83>:
     c36:	9eba                	add	t4,t4,a4

00000c38 <.LVL84>:
     c38:	fff98713          	addi	a4,s3,-1 # ffff <.LC0+0xbeaf>

00000c3c <.LVL85>:
     c3c:	00e97933          	and	s2,s2,a4

00000c40 <.LVL86>:
     c40:	8ef9                	and	a3,a3,a4

00000c42 <.LBB25>:
     c42:	0104d413          	srli	s0,s1,0x10

00000c46 <.LBB26>:
     c46:	0942                	slli	s2,s2,0x10
     c48:	8cf9                	and	s1,s1,a4

00000c4a <.LBB27>:
     c4a:	02978733          	mul	a4,a5,s1

00000c4e <.LBB28>:
     c4e:	9936                	add	s2,s2,a3
     c50:	93ca                	add	t2,t2,s2

00000c52 <.LBB29>:
     c52:	02f40333          	mul	t1,s0,a5

00000c56 <.LVL91>:
     c56:	029886b3          	mul	a3,a7,s1

00000c5a <.LVL92>:
     c5a:	028887b3          	mul	a5,a7,s0

00000c5e <.LVL93>:
     c5e:	006688b3          	add	a7,a3,t1

00000c62 <.LVL94>:
     c62:	01075693          	srli	a3,a4,0x10

00000c66 <.LVL95>:
     c66:	96c6                	add	a3,a3,a7

00000c68 <.LVL96>:
     c68:	0066f363          	bgeu	a3,t1,c6e <.L25>
     c6c:	97ce                	add	a5,a5,s3

00000c6e <.L25>:
     c6e:	0106d893          	srli	a7,a3,0x10
     c72:	69c1                	lui	s3,0x10
     c74:	00f88fb3          	add	t6,a7,a5

00000c78 <.LVL98>:
     c78:	fff98793          	addi	a5,s3,-1 # ffff <.LC0+0xbeaf>

00000c7c <.LBB30>:
     c7c:	029288b3          	mul	a7,t0,s1

00000c80 <.LBB31>:
     c80:	8efd                	and	a3,a3,a5

00000c82 <.LVL100>:
     c82:	8f7d                	and	a4,a4,a5

00000c84 <.LVL101>:
     c84:	06c2                	slli	a3,a3,0x10
     c86:	96ba                	add	a3,a3,a4

00000c88 <.LBB32>:
     c88:	025407b3          	mul	a5,s0,t0

00000c8c <.LVL103>:
     c8c:	029f04b3          	mul	s1,t5,s1

00000c90 <.LVL104>:
     c90:	028f0333          	mul	t1,t5,s0

00000c94 <.LVL105>:
     c94:	94be                	add	s1,s1,a5

00000c96 <.LVL106>:
     c96:	0108d413          	srli	s0,a7,0x10

00000c9a <.LVL107>:
     c9a:	94a2                	add	s1,s1,s0

00000c9c <.LVL108>:
     c9c:	00f4f363          	bgeu	s1,a5,ca2 <.L26>
     ca0:	934e                	add	t1,t1,s3

00000ca2 <.L26>:
     ca2:	67c1                	lui	a5,0x10

00000ca4 <.LVL110>:
     ca4:	17fd                	addi	a5,a5,-1
     ca6:	00f4f733          	and	a4,s1,a5
     caa:	00f8f8b3          	and	a7,a7,a5

00000cae <.LVL111>:
     cae:	0742                	slli	a4,a4,0x10

00000cb0 <.LBB35>:
     cb0:	9e1e                	add	t3,t3,t2

00000cb2 <.LBB36>:
     cb2:	9746                	add	a4,a4,a7

00000cb4 <.LBB37>:
     cb4:	012e3933          	sltu	s2,t3,s2

00000cb8 <.LVL113>:
     cb8:	9776                	add	a4,a4,t4

00000cba <.LVL114>:
     cba:	01270433          	add	s0,a4,s2

00000cbe <.LBB38>:
     cbe:	9e36                	add	t3,t3,a3
     cc0:	00de36b3          	sltu	a3,t3,a3

00000cc4 <.LVL116>:
     cc4:	01f408b3          	add	a7,s0,t6

00000cc8 <.LVL117>:
     cc8:	00d88f33          	add	t5,a7,a3

00000ccc <.LBB39>:
     ccc:	01d73733          	sltu	a4,a4,t4

00000cd0 <.LVL119>:
     cd0:	01243433          	sltu	s0,s0,s2
     cd4:	8c59                	or	s0,s0,a4

00000cd6 <.LBB40>:
     cd6:	80c1                	srli	s1,s1,0x10

00000cd8 <.LBB41>:
     cd8:	01f8b8b3          	sltu	a7,a7,t6

00000cdc <.LVL121>:
     cdc:	00df36b3          	sltu	a3,t5,a3

00000ce0 <.LVL122>:
     ce0:	9426                	add	s0,s0,s1
     ce2:	00d8e6b3          	or	a3,a7,a3
     ce6:	9436                	add	s0,s0,a3
     ce8:	941a                	add	s0,s0,t1

00000cea <.LBB44>:
     cea:	017f5793          	srli	a5,t5,0x17
     cee:	0426                	slli	s0,s0,0x9
     cf0:	8c5d                	or	s0,s0,a5

00000cf2 <.LBB45>:
     cf2:	009e1793          	slli	a5,t3,0x9
     cf6:	0107e7b3          	or	a5,a5,a6

00000cfa <.LVL124>:
     cfa:	00f037b3          	snez	a5,a5

00000cfe <.LVL125>:
     cfe:	017e5e13          	srli	t3,t3,0x17

00000d02 <.LVL126>:
     d02:	009f1713          	slli	a4,t5,0x9

00000d06 <.LBE45>:
     d06:	01c7e7b3          	or	a5,a5,t3
     d0a:	8fd9                	or	a5,a5,a4

00000d0c <.LBE19>:
     d0c:	01000737          	lui	a4,0x1000
     d10:	8f61                	and	a4,a4,s0
     d12:	cb4d                	beqz	a4,dc4 <.L40>
     d14:	0017d713          	srli	a4,a5,0x1
     d18:	8b85                	andi	a5,a5,1

00000d1a <.LVL128>:
     d1a:	8fd9                	or	a5,a5,a4
     d1c:	01f41713          	slli	a4,s0,0x1f
     d20:	8fd9                	or	a5,a5,a4

00000d22 <.LVL129>:
     d22:	8005                	srli	s0,s0,0x1

00000d24 <.L27>:
     d24:	3ff58693          	addi	a3,a1,1023

00000d28 <.LVL131>:
     d28:	0ad05063          	blez	a3,dc8 <.L28>
     d2c:	0077f713          	andi	a4,a5,7
     d30:	cf01                	beqz	a4,d48 <.L29>
     d32:	00f7f713          	andi	a4,a5,15
     d36:	4511                	li	a0,4
     d38:	00a70863          	beq	a4,a0,d48 <.L29>

00000d3c <.LBB49>:
     d3c:	00478713          	addi	a4,a5,4 # 10004 <.LC0+0xbeb4>

00000d40 <.LVL132>:
     d40:	00f737b3          	sltu	a5,a4,a5

00000d44 <.LVL133>:
     d44:	943e                	add	s0,s0,a5

00000d46 <.LVL134>:
     d46:	87ba                	mv	a5,a4

00000d48 <.L29>:
     d48:	01000737          	lui	a4,0x1000
     d4c:	8f61                	and	a4,a4,s0
     d4e:	c719                	beqz	a4,d5c <.L30>
     d50:	ff000737          	lui	a4,0xff000
     d54:	177d                	addi	a4,a4,-1
     d56:	8c79                	and	s0,s0,a4
     d58:	40058693          	addi	a3,a1,1024

00000d5c <.L30>:
     d5c:	7fe00713          	li	a4,2046
     d60:	0ed74e63          	blt	a4,a3,e5c <.L44>
     d64:	0037d713          	srli	a4,a5,0x3

00000d68 <.LVL138>:
     d68:	01d41793          	slli	a5,s0,0x1d

00000d6c <.LVL139>:
     d6c:	8fd9                	or	a5,a5,a4

00000d6e <.LVL140>:
     d6e:	800d                	srli	s0,s0,0x3

00000d70 <.L17>:
     d70:	01469713          	slli	a4,a3,0x14
     d74:	0432                	slli	s0,s0,0xc

00000d76 <.LVL142>:
     d76:	7ff006b7          	lui	a3,0x7ff00

00000d7a <.LVL143>:
     d7a:	8f75                	and	a4,a4,a3
     d7c:	8031                	srli	s0,s0,0xc
     d7e:	8c59                	or	s0,s0,a4
     d80:	067e                	slli	a2,a2,0x1f

00000d82 <.LBE52>:
     d82:	50b2                	lw	ra,44(sp)

00000d84 <.LBB53>:
     d84:	00c46733          	or	a4,s0,a2

00000d88 <.LBE53>:
     d88:	5422                	lw	s0,40(sp)
     d8a:	5492                	lw	s1,36(sp)
     d8c:	5902                	lw	s2,32(sp)
     d8e:	49f2                	lw	s3,28(sp)
     d90:	4a62                	lw	s4,24(sp)

00000d92 <.LVL146>:
     d92:	4ad2                	lw	s5,20(sp)

00000d94 <.LVL147>:
     d94:	4b42                	lw	s6,16(sp)

00000d96 <.LVL148>:
     d96:	4bb2                	lw	s7,12(sp)
     d98:	853e                	mv	a0,a5
     d9a:	85ba                	mv	a1,a4
     d9c:	6145                	addi	sp,sp,48
     d9e:	8082                	ret

00000da0 <.L19>:
     da0:	8652                	mv	a2,s4

00000da2 <.L60>:
     da2:	8426                	mv	s0,s1

00000da4 <.LVL151>:
     da4:	87ca                	mv	a5,s2

00000da6 <.LVL152>:
     da6:	875a                	mv	a4,s6

00000da8 <.L22>:
     da8:	4689                	li	a3,2
     daa:	0ad70963          	beq	a4,a3,e5c <.L44>
     dae:	468d                	li	a3,3
     db0:	08d70f63          	beq	a4,a3,e4e <.L42>
     db4:	4685                	li	a3,1
     db6:	f6d717e3          	bne	a4,a3,d24 <.L27>

00000dba <.L45>:
     dba:	4401                	li	s0,0

00000dbc <.LVL155>:
     dbc:	4781                	li	a5,0

00000dbe <.LVL156>:
     dbe:	a09d                	j	e24 <.L61>

00000dc0 <.L20>:
     dc0:	8656                	mv	a2,s5

00000dc2 <.LBE60>:
     dc2:	b7dd                	j	da8 <.L22>

00000dc4 <.L40>:
     dc4:	85aa                	mv	a1,a0

00000dc6 <.LVL160>:
     dc6:	bfb9                	j	d24 <.L27>

00000dc8 <.L28>:
     dc8:	4505                	li	a0,1
     dca:	8d15                	sub	a0,a0,a3

00000dcc <.LVL162>:
     dcc:	03800713          	li	a4,56
     dd0:	fea745e3          	blt	a4,a0,dba <.L45>
     dd4:	477d                	li	a4,31
     dd6:	04a74963          	blt	a4,a0,e28 <.L31>
     dda:	41e58593          	addi	a1,a1,1054
     dde:	00b41733          	sll	a4,s0,a1
     de2:	00a7d6b3          	srl	a3,a5,a0
     de6:	00b797b3          	sll	a5,a5,a1

00000dea <.LVL163>:
     dea:	8f55                	or	a4,a4,a3
     dec:	00f037b3          	snez	a5,a5
     df0:	8fd9                	or	a5,a5,a4

00000df2 <.LVL164>:
     df2:	00a45433          	srl	s0,s0,a0

00000df6 <.L32>:
     df6:	0077f713          	andi	a4,a5,7
     dfa:	cf01                	beqz	a4,e12 <.L34>
     dfc:	00f7f713          	andi	a4,a5,15
     e00:	4691                	li	a3,4
     e02:	00d70863          	beq	a4,a3,e12 <.L34>

00000e06 <.LBB57>:
     e06:	00478713          	addi	a4,a5,4

00000e0a <.LVL166>:
     e0a:	00f737b3          	sltu	a5,a4,a5

00000e0e <.LVL167>:
     e0e:	943e                	add	s0,s0,a5

00000e10 <.LVL168>:
     e10:	87ba                	mv	a5,a4

00000e12 <.L34>:
     e12:	00800737          	lui	a4,0x800
     e16:	8f61                	and	a4,a4,s0
     e18:	e739                	bnez	a4,e66 <.L47>

00000e1a <.LVL170>:
     e1a:	01d41713          	slli	a4,s0,0x1d
     e1e:	838d                	srli	a5,a5,0x3

00000e20 <.LVL171>:
     e20:	8fd9                	or	a5,a5,a4

00000e22 <.LVL172>:
     e22:	800d                	srli	s0,s0,0x3

00000e24 <.L61>:
     e24:	4681                	li	a3,0
     e26:	b7a9                	j	d70 <.L17>

00000e28 <.L31>:
     e28:	5705                	li	a4,-31
     e2a:	8f15                	sub	a4,a4,a3
     e2c:	02000813          	li	a6,32
     e30:	00e45733          	srl	a4,s0,a4
     e34:	4681                	li	a3,0
     e36:	01050663          	beq	a0,a6,e42 <.L33>
     e3a:	43e58593          	addi	a1,a1,1086
     e3e:	00b416b3          	sll	a3,s0,a1

00000e42 <.L33>:
     e42:	8fd5                	or	a5,a5,a3

00000e44 <.LVL175>:
     e44:	00f037b3          	snez	a5,a5
     e48:	8fd9                	or	a5,a5,a4

00000e4a <.LVL176>:
     e4a:	4401                	li	s0,0
     e4c:	b76d                	j	df6 <.L32>

00000e4e <.L42>:
     e4e:	00080437          	lui	s0,0x80
     e52:	4781                	li	a5,0
     e54:	7ff00693          	li	a3,2047
     e58:	4601                	li	a2,0

00000e5a <.LVL178>:
     e5a:	bf19                	j	d70 <.L17>

00000e5c <.L44>:
     e5c:	4401                	li	s0,0
     e5e:	4781                	li	a5,0
     e60:	7ff00693          	li	a3,2047
     e64:	b731                	j	d70 <.L17>

00000e66 <.L47>:
     e66:	4401                	li	s0,0

00000e68 <.LVL181>:
     e68:	4781                	li	a5,0

00000e6a <.LVL182>:
     e6a:	4685                	li	a3,1
     e6c:	b711                	j	d70 <.L17>

00000e6e <__subdf3>:
     e6e:	00100837          	lui	a6,0x100
     e72:	187d                	addi	a6,a6,-1

00000e74 <.LBE2>:
     e74:	1101                	addi	sp,sp,-32

00000e76 <.LBB3>:
     e76:	00b877b3          	and	a5,a6,a1

00000e7a <.LVL1>:
     e7a:	0145d713          	srli	a4,a1,0x14

00000e7e <.LBB4>:
     e7e:	00d87833          	and	a6,a6,a3
     e82:	0146d313          	srli	t1,a3,0x14

00000e86 <.LBE4>:
     e86:	cc22                	sw	s0,24(sp)
     e88:	078e                	slli	a5,a5,0x3

00000e8a <.LBB6>:
     e8a:	7ff77413          	andi	s0,a4,2047

00000e8e <.LBE6>:
     e8e:	01d55713          	srli	a4,a0,0x1d
     e92:	ca26                	sw	s1,20(sp)
     e94:	8fd9                	or	a5,a5,a4

00000e96 <.LBB9>:
     e96:	01f5d493          	srli	s1,a1,0x1f

00000e9a <.LBE9>:
     e9a:	01d65713          	srli	a4,a2,0x1d
     e9e:	00351593          	slli	a1,a0,0x3

00000ea2 <.LBB13>:
     ea2:	080e                	slli	a6,a6,0x3

00000ea4 <.LVL6>:
     ea4:	ce06                	sw	ra,28(sp)
     ea6:	c84a                	sw	s2,16(sp)
     ea8:	c64e                	sw	s3,12(sp)

00000eaa <.LBB15>:
     eaa:	7ff37313          	andi	t1,t1,2047

00000eae <.LBE15>:
     eae:	7ff00513          	li	a0,2047

00000eb2 <.LBB16>:
     eb2:	82fd                	srli	a3,a3,0x1f

00000eb4 <.LBE16>:
     eb4:	01076733          	or	a4,a4,a6

00000eb8 <.LVL10>:
     eb8:	060e                	slli	a2,a2,0x3

00000eba <.LVL11>:
     eba:	00a31563          	bne	t1,a0,ec4 <.L2>
     ebe:	00c76533          	or	a0,a4,a2
     ec2:	e119                	bnez	a0,ec8 <.L3>

00000ec4 <.L2>:
     ec4:	0016c693          	xori	a3,a3,1

00000ec8 <.L3>:
     ec8:	40640833          	sub	a6,s0,t1

00000ecc <.LBE18>:
     ecc:	22969863          	bne	a3,s1,10fc <.L4>

00000ed0 <.LBB39>:
     ed0:	0f005363          	blez	a6,fb6 <.L5>

00000ed4 <.LVL14>:
     ed4:	02031863          	bnez	t1,f04 <.L6>
     ed8:	00c766b3          	or	a3,a4,a2

00000edc <.LVL15>:
     edc:	58068163          	beqz	a3,145e <.L73>
     ee0:	fff80513          	addi	a0,a6,-1 # fffff <.LC0+0xfbeaf>

00000ee4 <.LVL16>:
     ee4:	e909                	bnez	a0,ef6 <.L8>

00000ee6 <.LBB19>:
     ee6:	962e                	add	a2,a2,a1

00000ee8 <.LVL17>:
     ee8:	00b63533          	sltu	a0,a2,a1

00000eec <.LVL18>:
     eec:	97ba                	add	a5,a5,a4

00000eee <.LVL19>:
     eee:	97aa                	add	a5,a5,a0

00000ef0 <.LBB20>:
     ef0:	85b2                	mv	a1,a2

00000ef2 <.L114>:
     ef2:	4405                	li	s0,1

00000ef4 <.LBB41>:
     ef4:	a8b9                	j	f52 <.L9>

00000ef6 <.L8>:
     ef6:	7ff00693          	li	a3,2047
     efa:	00d81d63          	bne	a6,a3,f14 <.L10>

00000efe <.L83>:
     efe:	7ff00413          	li	s0,2047

00000f02 <.LVL25>:
     f02:	a24d                	j	10a4 <.L56>

00000f04 <.L6>:
     f04:	7ff00693          	li	a3,2047

00000f08 <.LVL27>:
     f08:	18d40e63          	beq	s0,a3,10a4 <.L56>
     f0c:	008006b7          	lui	a3,0x800
     f10:	8f55                	or	a4,a4,a3
     f12:	8542                	mv	a0,a6

00000f14 <.L10>:
     f14:	03800693          	li	a3,56
     f18:	08a6cb63          	blt	a3,a0,fae <.L11>
     f1c:	46fd                	li	a3,31
     f1e:	06a6c263          	blt	a3,a0,f82 <.L12>
     f22:	02000813          	li	a6,32
     f26:	40a80833          	sub	a6,a6,a0
     f2a:	010716b3          	sll	a3,a4,a6
     f2e:	00a658b3          	srl	a7,a2,a0
     f32:	01061633          	sll	a2,a2,a6

00000f36 <.LVL30>:
     f36:	0116e6b3          	or	a3,a3,a7
     f3a:	00c03633          	snez	a2,a2
     f3e:	8e55                	or	a2,a2,a3

00000f40 <.LVL31>:
     f40:	00a75733          	srl	a4,a4,a0

00000f44 <.L13>:
     f44:	962e                	add	a2,a2,a1

00000f46 <.LVL33>:
     f46:	00b63533          	sltu	a0,a2,a1
     f4a:	973e                	add	a4,a4,a5

00000f4c <.LVL34>:
     f4c:	00a707b3          	add	a5,a4,a0

00000f50 <.LBB24>:
     f50:	85b2                	mv	a1,a2

00000f52 <.L9>:
     f52:	00800737          	lui	a4,0x800
     f56:	8f7d                	and	a4,a4,a5
     f58:	14070663          	beqz	a4,10a4 <.L56>

00000f5c <.LVL37>:
     f5c:	0405                	addi	s0,s0,1

00000f5e <.LVL38>:
     f5e:	7ff00713          	li	a4,2047
     f62:	48e40b63          	beq	s0,a4,13f8 <.L72>
     f66:	ff800737          	lui	a4,0xff800
     f6a:	177d                	addi	a4,a4,-1
     f6c:	8ff9                	and	a5,a5,a4

00000f6e <.LVL39>:
     f6e:	0015f513          	andi	a0,a1,1
     f72:	0015d713          	srli	a4,a1,0x1
     f76:	8d59                	or	a0,a0,a4
     f78:	01f79593          	slli	a1,a5,0x1f
     f7c:	8dc9                	or	a1,a1,a0
     f7e:	8385                	srli	a5,a5,0x1
     f80:	a215                	j	10a4 <.L56>

00000f82 <.L12>:
     f82:	fe050693          	addi	a3,a0,-32
     f86:	02000893          	li	a7,32
     f8a:	00d756b3          	srl	a3,a4,a3
     f8e:	4801                	li	a6,0
     f90:	01150863          	beq	a0,a7,fa0 <.L14>
     f94:	04000813          	li	a6,64
     f98:	40a80533          	sub	a0,a6,a0

00000f9c <.LVL41>:
     f9c:	00a71833          	sll	a6,a4,a0

00000fa0 <.L14>:
     fa0:	00c86633          	or	a2,a6,a2

00000fa4 <.LVL42>:
     fa4:	00c03633          	snez	a2,a2
     fa8:	8e55                	or	a2,a2,a3

00000faa <.L112>:
     faa:	4701                	li	a4,0
     fac:	bf61                	j	f44 <.L13>

00000fae <.L11>:
     fae:	8e59                	or	a2,a2,a4

00000fb0 <.LVL45>:
     fb0:	00c03633          	snez	a2,a2
     fb4:	bfdd                	j	faa <.L112>

00000fb6 <.L5>:
     fb6:	0a080b63          	beqz	a6,106c <.L15>
     fba:	40830533          	sub	a0,t1,s0

00000fbe <.LVL47>:
     fbe:	e40d                	bnez	s0,fe8 <.L16>
     fc0:	00b7e6b3          	or	a3,a5,a1

00000fc4 <.LVL48>:
     fc4:	42068163          	beqz	a3,13e6 <.L63>
     fc8:	fff50693          	addi	a3,a0,-1

00000fcc <.LVL49>:
     fcc:	e699                	bnez	a3,fda <.L17>

00000fce <.LBB28>:
     fce:	95b2                	add	a1,a1,a2

00000fd0 <.LVL50>:
     fd0:	97ba                	add	a5,a5,a4

00000fd2 <.LVL51>:
     fd2:	00c5b633          	sltu	a2,a1,a2

00000fd6 <.LVL52>:
     fd6:	97b2                	add	a5,a5,a2
     fd8:	bf29                	j	ef2 <.L114>

00000fda <.L17>:
     fda:	7ff00813          	li	a6,2047
     fde:	01051d63          	bne	a0,a6,ff8 <.L18>

00000fe2 <.L69>:
     fe2:	87ba                	mv	a5,a4

00000fe4 <.LVL55>:
     fe4:	85b2                	mv	a1,a2

00000fe6 <.LVL56>:
     fe6:	bf21                	j	efe <.L83>

00000fe8 <.L16>:
     fe8:	7ff00693          	li	a3,2047

00000fec <.LVL58>:
     fec:	fed30be3          	beq	t1,a3,fe2 <.L69>
     ff0:	008006b7          	lui	a3,0x800
     ff4:	8fd5                	or	a5,a5,a3
     ff6:	86aa                	mv	a3,a0

00000ff8 <.L18>:
     ff8:	03800513          	li	a0,56
     ffc:	06d54363          	blt	a0,a3,1062 <.L19>
    1000:	457d                	li	a0,31
    1002:	02d54b63          	blt	a0,a3,1038 <.L20>
    1006:	02000813          	li	a6,32
    100a:	40d80833          	sub	a6,a6,a3
    100e:	01079533          	sll	a0,a5,a6
    1012:	00d5d8b3          	srl	a7,a1,a3
    1016:	010595b3          	sll	a1,a1,a6

0000101a <.LVL61>:
    101a:	01156533          	or	a0,a0,a7
    101e:	00b035b3          	snez	a1,a1
    1022:	8d4d                	or	a0,a0,a1

00001024 <.LVL62>:
    1024:	00d7d7b3          	srl	a5,a5,a3

00001028 <.L21>:
    1028:	00c505b3          	add	a1,a0,a2

0000102c <.LVL64>:
    102c:	97ba                	add	a5,a5,a4

0000102e <.LVL65>:
    102e:	00c5b633          	sltu	a2,a1,a2

00001032 <.LVL66>:
    1032:	97b2                	add	a5,a5,a2

00001034 <.LBB70>:
    1034:	841a                	mv	s0,t1

00001036 <.LBB71>:
    1036:	bf31                	j	f52 <.L9>

00001038 <.L20>:
    1038:	fe068513          	addi	a0,a3,-32 # 7fffe0 <.LC0+0x7fbe90>
    103c:	02000893          	li	a7,32
    1040:	00a7d833          	srl	a6,a5,a0
    1044:	4501                	li	a0,0
    1046:	01168763          	beq	a3,a7,1054 <.L22>
    104a:	04000513          	li	a0,64
    104e:	8d15                	sub	a0,a0,a3
    1050:	00a79533          	sll	a0,a5,a0

00001054 <.L22>:
    1054:	8d4d                	or	a0,a0,a1
    1056:	00a03533          	snez	a0,a0
    105a:	00a86533          	or	a0,a6,a0

0000105e <.L113>:
    105e:	4781                	li	a5,0
    1060:	b7e1                	j	1028 <.L21>

00001062 <.L19>:
    1062:	00b7e533          	or	a0,a5,a1
    1066:	00a03533          	snez	a0,a0
    106a:	bfd5                	j	105e <.L113>

0000106c <.L15>:
    106c:	00140693          	addi	a3,s0,1 # 80001 <.LC0+0x7beb1>

00001070 <.LVL73>:
    1070:	7fe6f513          	andi	a0,a3,2046
    1074:	e13d                	bnez	a0,10da <.L23>
    1076:	00b7e6b3          	or	a3,a5,a1
    107a:	e429                	bnez	s0,10c4 <.L24>

0000107c <.LVL74>:
    107c:	36068963          	beqz	a3,13ee <.L67>
    1080:	00c766b3          	or	a3,a4,a2
    1084:	c285                	beqz	a3,10a4 <.L56>

00001086 <.LBB32>:
    1086:	962e                	add	a2,a2,a1

00001088 <.LVL75>:
    1088:	97ba                	add	a5,a5,a4

0000108a <.LVL76>:
    108a:	00b63533          	sltu	a0,a2,a1
    108e:	97aa                	add	a5,a5,a0

00001090 <.LBE32>:
    1090:	00800737          	lui	a4,0x800

00001094 <.LVL78>:
    1094:	8f7d                	and	a4,a4,a5

00001096 <.LBB33>:
    1096:	85b2                	mv	a1,a2

00001098 <.LBE33>:
    1098:	c711                	beqz	a4,10a4 <.L56>
    109a:	ff800737          	lui	a4,0xff800
    109e:	177d                	addi	a4,a4,-1
    10a0:	8ff9                	and	a5,a5,a4

000010a2 <.LVL80>:
    10a2:	4405                	li	s0,1

000010a4 <.L56>:
    10a4:	0075f713          	andi	a4,a1,7
    10a8:	34070a63          	beqz	a4,13fc <.L57>
    10ac:	00f5f713          	andi	a4,a1,15
    10b0:	4691                	li	a3,4
    10b2:	34d70563          	beq	a4,a3,13fc <.L57>

000010b6 <.LBB74>:
    10b6:	00458713          	addi	a4,a1,4

000010ba <.LVL82>:
    10ba:	00b73533          	sltu	a0,a4,a1
    10be:	97aa                	add	a5,a5,a0

000010c0 <.LVL83>:
    10c0:	85ba                	mv	a1,a4
    10c2:	ae2d                	j	13fc <.L57>

000010c4 <.L24>:
    10c4:	de99                	beqz	a3,fe2 <.L69>
    10c6:	8e59                	or	a2,a2,a4

000010c8 <.LVL85>:
    10c8:	e2060be3          	beqz	a2,efe <.L83>

000010cc <.L122>:
    10cc:	4481                	li	s1,0

000010ce <.LVL87>:
    10ce:	004007b7          	lui	a5,0x400

000010d2 <.LVL88>:
    10d2:	4581                	li	a1,0

000010d4 <.L120>:
    10d4:	7ff00413          	li	s0,2047

000010d8 <.LVL90>:
    10d8:	a615                	j	13fc <.L57>

000010da <.L23>:
    10da:	7ff00513          	li	a0,2047
    10de:	30a68b63          	beq	a3,a0,13f4 <.L71>

000010e2 <.LBB37>:
    10e2:	962e                	add	a2,a2,a1

000010e4 <.LVL92>:
    10e4:	00b63533          	sltu	a0,a2,a1
    10e8:	97ba                	add	a5,a5,a4

000010ea <.LVL93>:
    10ea:	97aa                	add	a5,a5,a0

000010ec <.LBE37>:
    10ec:	01f79513          	slli	a0,a5,0x1f
    10f0:	8205                	srli	a2,a2,0x1

000010f2 <.LVL95>:
    10f2:	00c565b3          	or	a1,a0,a2

000010f6 <.LVL96>:
    10f6:	8385                	srli	a5,a5,0x1
    10f8:	8436                	mv	s0,a3

000010fa <.LVL97>:
    10fa:	b76d                	j	10a4 <.L56>

000010fc <.L4>:
    10fc:	0d005663          	blez	a6,11c8 <.L25>

00001100 <.LVL99>:
    1100:	08031163          	bnez	t1,1182 <.L26>
    1104:	00c766b3          	or	a3,a4,a2

00001108 <.LVL100>:
    1108:	34068b63          	beqz	a3,145e <.L73>
    110c:	fff80513          	addi	a0,a6,-1

00001110 <.LVL101>:
    1110:	e911                	bnez	a0,1124 <.L27>

00001112 <.LBB43>:
    1112:	40c58633          	sub	a2,a1,a2

00001116 <.LVL102>:
    1116:	00c5b533          	sltu	a0,a1,a2

0000111a <.LVL103>:
    111a:	8f99                	sub	a5,a5,a4

0000111c <.LVL104>:
    111c:	8f89                	sub	a5,a5,a0

0000111e <.LBB44>:
    111e:	85b2                	mv	a1,a2

00001120 <.L117>:
    1120:	4405                	li	s0,1

00001122 <.LBB82>:
    1122:	a0b1                	j	116e <.L28>

00001124 <.L27>:
    1124:	7ff00693          	li	a3,2047
    1128:	dcd80be3          	beq	a6,a3,efe <.L83>

0000112c <.L29>:
    112c:	03800693          	li	a3,56
    1130:	08a6c863          	blt	a3,a0,11c0 <.L30>
    1134:	46fd                	li	a3,31
    1136:	04a6cf63          	blt	a3,a0,1194 <.L31>
    113a:	02000813          	li	a6,32
    113e:	40a80833          	sub	a6,a6,a0
    1142:	010716b3          	sll	a3,a4,a6
    1146:	00a658b3          	srl	a7,a2,a0
    114a:	01061633          	sll	a2,a2,a6

0000114e <.LVL110>:
    114e:	0116e6b3          	or	a3,a3,a7
    1152:	00c03633          	snez	a2,a2
    1156:	8e55                	or	a2,a2,a3

00001158 <.LVL111>:
    1158:	00a75733          	srl	a4,a4,a0

0000115c <.L32>:
    115c:	40c58633          	sub	a2,a1,a2

00001160 <.LVL113>:
    1160:	00c5b533          	sltu	a0,a1,a2
    1164:	40e78733          	sub	a4,a5,a4

00001168 <.LVL114>:
    1168:	40a707b3          	sub	a5,a4,a0

0000116c <.LBB47>:
    116c:	85b2                	mv	a1,a2

0000116e <.L28>:
    116e:	00800937          	lui	s2,0x800
    1172:	0127f733          	and	a4,a5,s2
    1176:	d71d                	beqz	a4,10a4 <.L56>

00001178 <.LBB48>:
    1178:	197d                	addi	s2,s2,-1
    117a:	0127f933          	and	s2,a5,s2

0000117e <.LVL117>:
    117e:	89ae                	mv	s3,a1
    1180:	aa5d                	j	1336 <.L48>

00001182 <.L26>:
    1182:	7ff00693          	li	a3,2047

00001186 <.LVL119>:
    1186:	f0d40fe3          	beq	s0,a3,10a4 <.L56>
    118a:	008006b7          	lui	a3,0x800
    118e:	8f55                	or	a4,a4,a3
    1190:	8542                	mv	a0,a6
    1192:	bf69                	j	112c <.L29>

00001194 <.L31>:
    1194:	fe050693          	addi	a3,a0,-32
    1198:	02000893          	li	a7,32
    119c:	00d756b3          	srl	a3,a4,a3
    11a0:	4801                	li	a6,0
    11a2:	01150863          	beq	a0,a7,11b2 <.L33>
    11a6:	04000813          	li	a6,64
    11aa:	40a80533          	sub	a0,a6,a0

000011ae <.LVL122>:
    11ae:	00a71833          	sll	a6,a4,a0

000011b2 <.L33>:
    11b2:	00c86633          	or	a2,a6,a2

000011b6 <.LVL123>:
    11b6:	00c03633          	snez	a2,a2
    11ba:	8e55                	or	a2,a2,a3

000011bc <.L115>:
    11bc:	4701                	li	a4,0
    11be:	bf79                	j	115c <.L32>

000011c0 <.L30>:
    11c0:	8e59                	or	a2,a2,a4

000011c2 <.LVL126>:
    11c2:	00c03633          	snez	a2,a2
    11c6:	bfdd                	j	11bc <.L115>

000011c8 <.L25>:
    11c8:	0c080563          	beqz	a6,1292 <.L34>
    11cc:	40830533          	sub	a0,t1,s0

000011d0 <.LVL128>:
    11d0:	e81d                	bnez	s0,1206 <.L35>
    11d2:	00b7e833          	or	a6,a5,a1
    11d6:	28080663          	beqz	a6,1462 <.L76>
    11da:	fff50813          	addi	a6,a0,-1

000011de <.LVL129>:
    11de:	00081b63          	bnez	a6,11f4 <.L36>

000011e2 <.LBB54>:
    11e2:	40b605b3          	sub	a1,a2,a1

000011e6 <.LVL130>:
    11e6:	40f707b3          	sub	a5,a4,a5

000011ea <.LVL131>:
    11ea:	00b63633          	sltu	a2,a2,a1

000011ee <.LVL132>:
    11ee:	8f91                	sub	a5,a5,a2

000011f0 <.LBE54>:
    11f0:	84b6                	mv	s1,a3

000011f2 <.LVL134>:
    11f2:	b73d                	j	1120 <.L117>

000011f4 <.L36>:
    11f4:	7ff00893          	li	a7,2047
    11f8:	03151063          	bne	a0,a7,1218 <.L37>

000011fc <.L78>:
    11fc:	87ba                	mv	a5,a4

000011fe <.LVL137>:
    11fe:	85b2                	mv	a1,a2

00001200 <.LBB84>:
    1200:	7ff00413          	li	s0,2047

00001204 <.LVL139>:
    1204:	a07d                	j	12b2 <.L118>

00001206 <.L35>:
    1206:	7ff00813          	li	a6,2047
    120a:	ff0309e3          	beq	t1,a6,11fc <.L78>
    120e:	00800837          	lui	a6,0x800
    1212:	0107e7b3          	or	a5,a5,a6
    1216:	882a                	mv	a6,a0

00001218 <.L37>:
    1218:	03800513          	li	a0,56
    121c:	07054663          	blt	a0,a6,1288 <.L38>
    1220:	457d                	li	a0,31
    1222:	03054d63          	blt	a0,a6,125c <.L39>
    1226:	02000893          	li	a7,32
    122a:	410888b3          	sub	a7,a7,a6
    122e:	01179533          	sll	a0,a5,a7
    1232:	0105de33          	srl	t3,a1,a6
    1236:	011595b3          	sll	a1,a1,a7

0000123a <.LVL143>:
    123a:	01c56533          	or	a0,a0,t3
    123e:	00b035b3          	snez	a1,a1
    1242:	8d4d                	or	a0,a0,a1

00001244 <.LVL144>:
    1244:	0107d7b3          	srl	a5,a5,a6

00001248 <.L40>:
    1248:	40a605b3          	sub	a1,a2,a0

0000124c <.LVL146>:
    124c:	40f707b3          	sub	a5,a4,a5

00001250 <.LVL147>:
    1250:	00b63633          	sltu	a2,a2,a1

00001254 <.LVL148>:
    1254:	8f91                	sub	a5,a5,a2

00001256 <.LBB85>:
    1256:	841a                	mv	s0,t1

00001258 <.LBB86>:
    1258:	84b6                	mv	s1,a3

0000125a <.LVL151>:
    125a:	bf11                	j	116e <.L28>

0000125c <.L39>:
    125c:	fe080513          	addi	a0,a6,-32 # 7fffe0 <.LC0+0x7fbe90>
    1260:	02000e13          	li	t3,32
    1264:	00a7d8b3          	srl	a7,a5,a0
    1268:	4501                	li	a0,0
    126a:	01c80863          	beq	a6,t3,127a <.L41>
    126e:	04000513          	li	a0,64
    1272:	41050533          	sub	a0,a0,a6
    1276:	00a79533          	sll	a0,a5,a0

0000127a <.L41>:
    127a:	8d4d                	or	a0,a0,a1
    127c:	00a03533          	snez	a0,a0
    1280:	00a8e533          	or	a0,a7,a0

00001284 <.L116>:
    1284:	4781                	li	a5,0
    1286:	b7c9                	j	1248 <.L40>

00001288 <.L38>:
    1288:	00b7e533          	or	a0,a5,a1
    128c:	00a03533          	snez	a0,a0
    1290:	bfd5                	j	1284 <.L116>

00001292 <.L34>:
    1292:	00140513          	addi	a0,s0,1
    1296:	7fe57513          	andi	a0,a0,2046
    129a:	e925                	bnez	a0,130a <.L42>

0000129c <.LBB87>:
    129c:	00b7e833          	or	a6,a5,a1

000012a0 <.LBE87>:
    12a0:	00c76533          	or	a0,a4,a2

000012a4 <.LBB88>:
    12a4:	e821                	bnez	s0,12f4 <.L43>

000012a6 <.LVL156>:
    12a6:	00081863          	bnez	a6,12b6 <.L44>

000012aa <.LVL157>:
    12aa:	1c050063          	beqz	a0,146a <.L80>

000012ae <.LBE88>:
    12ae:	87ba                	mv	a5,a4

000012b0 <.LVL158>:
    12b0:	85b2                	mv	a1,a2

000012b2 <.L118>:
    12b2:	84b6                	mv	s1,a3

000012b4 <.LVL160>:
    12b4:	bbc5                	j	10a4 <.L56>

000012b6 <.L44>:
    12b6:	de0507e3          	beqz	a0,10a4 <.L56>

000012ba <.LBB58>:
    12ba:	40c58833          	sub	a6,a1,a2

000012be <.LVL162>:
    12be:	0105b8b3          	sltu	a7,a1,a6
    12c2:	40e78533          	sub	a0,a5,a4
    12c6:	41150533          	sub	a0,a0,a7

000012ca <.LBE58>:
    12ca:	008008b7          	lui	a7,0x800
    12ce:	011578b3          	and	a7,a0,a7
    12d2:	00088a63          	beqz	a7,12e6 <.L45>

000012d6 <.LBB59>:
    12d6:	40b605b3          	sub	a1,a2,a1

000012da <.LVL164>:
    12da:	40f707b3          	sub	a5,a4,a5

000012de <.LVL165>:
    12de:	00b63633          	sltu	a2,a2,a1

000012e2 <.LVL166>:
    12e2:	8f91                	sub	a5,a5,a2

000012e4 <.LBE59>:
    12e4:	b7f9                	j	12b2 <.L118>

000012e6 <.L45>:
    12e6:	00a865b3          	or	a1,a6,a0

000012ea <.LVL169>:
    12ea:	18058463          	beqz	a1,1472 <.L81>
    12ee:	87aa                	mv	a5,a0

000012f0 <.LBB60>:
    12f0:	85c2                	mv	a1,a6
    12f2:	bb4d                	j	10a4 <.L56>

000012f4 <.L43>:
    12f4:	00081863          	bnez	a6,1304 <.L46>
    12f8:	16050f63          	beqz	a0,1476 <.L82>

000012fc <.LBE90>:
    12fc:	87ba                	mv	a5,a4

000012fe <.LVL172>:
    12fe:	85b2                	mv	a1,a2

00001300 <.LBB92>:
    1300:	84b6                	mv	s1,a3

00001302 <.LVL174>:
    1302:	bef5                	j	efe <.L83>

00001304 <.L46>:
    1304:	be050de3          	beqz	a0,efe <.L83>
    1308:	b3d1                	j	10cc <.L122>

0000130a <.L42>:
    130a:	40c589b3          	sub	s3,a1,a2

0000130e <.LVL177>:
    130e:	0135b533          	sltu	a0,a1,s3
    1312:	40e78933          	sub	s2,a5,a4
    1316:	40a90933          	sub	s2,s2,a0

0000131a <.LBE61>:
    131a:	00800537          	lui	a0,0x800
    131e:	00a97533          	and	a0,s2,a0
    1322:	c53d                	beqz	a0,1390 <.L47>

00001324 <.LBB62>:
    1324:	40b609b3          	sub	s3,a2,a1

00001328 <.LVL179>:
    1328:	40f707b3          	sub	a5,a4,a5

0000132c <.LVL180>:
    132c:	01363633          	sltu	a2,a2,s3

00001330 <.LVL181>:
    1330:	40c78933          	sub	s2,a5,a2

00001334 <.LBE62>:
    1334:	84b6                	mv	s1,a3

00001336 <.L48>:
    1336:	06090363          	beqz	s2,139c <.L49>
    133a:	854a                	mv	a0,s2
    133c:	2c49                	jal	15ce <__clzsi2>

0000133e <.L50>:
    133e:	ff850713          	addi	a4,a0,-8 # 7ffff8 <.LC0+0x7fbea8>

00001342 <.LVL185>:
    1342:	47fd                	li	a5,31
    1344:	06e7c163          	blt	a5,a4,13a6 <.L51>
    1348:	02000793          	li	a5,32
    134c:	8f99                	sub	a5,a5,a4
    134e:	00e91933          	sll	s2,s2,a4

00001352 <.LVL186>:
    1352:	00f9d7b3          	srl	a5,s3,a5
    1356:	0127e7b3          	or	a5,a5,s2

0000135a <.LVL187>:
    135a:	00e995b3          	sll	a1,s3,a4

0000135e <.L52>:
    135e:	06874e63          	blt	a4,s0,13da <.L53>
    1362:	8f01                	sub	a4,a4,s0

00001364 <.LVL189>:
    1364:	00170693          	addi	a3,a4,1 # ff800001 <.LC0+0xff7fbeb1>

00001368 <.LVL190>:
    1368:	467d                	li	a2,31
    136a:	04d64463          	blt	a2,a3,13b2 <.L54>
    136e:	02000713          	li	a4,32
    1372:	8f15                	sub	a4,a4,a3
    1374:	00e79633          	sll	a2,a5,a4
    1378:	00d5d533          	srl	a0,a1,a3
    137c:	00e595b3          	sll	a1,a1,a4

00001380 <.LVL191>:
    1380:	8e49                	or	a2,a2,a0
    1382:	00b035b3          	snez	a1,a1
    1386:	8dd1                	or	a1,a1,a2

00001388 <.LVL192>:
    1388:	00d7d7b3          	srl	a5,a5,a3

0000138c <.L119>:
    138c:	4401                	li	s0,0

0000138e <.LVL194>:
    138e:	bb19                	j	10a4 <.L56>

00001390 <.L47>:
    1390:	0129e5b3          	or	a1,s3,s2

00001394 <.LVL196>:
    1394:	f1cd                	bnez	a1,1336 <.L48>
    1396:	4781                	li	a5,0

00001398 <.LVL197>:
    1398:	4401                	li	s0,0

0000139a <.LVL198>:
    139a:	a8d1                	j	146e <.L121>

0000139c <.L49>:
    139c:	854e                	mv	a0,s3
    139e:	2c05                	jal	15ce <__clzsi2>

000013a0 <.LVL200>:
    13a0:	02050513          	addi	a0,a0,32
    13a4:	bf69                	j	133e <.L50>

000013a6 <.L51>:
    13a6:	fd850793          	addi	a5,a0,-40
    13aa:	00f997b3          	sll	a5,s3,a5

000013ae <.LVL203>:
    13ae:	4581                	li	a1,0
    13b0:	b77d                	j	135e <.L52>

000013b2 <.L54>:
    13b2:	1705                	addi	a4,a4,-31
    13b4:	02000613          	li	a2,32
    13b8:	00e7d733          	srl	a4,a5,a4
    13bc:	4501                	li	a0,0
    13be:	00c68763          	beq	a3,a2,13cc <.L55>
    13c2:	04000513          	li	a0,64
    13c6:	8d15                	sub	a0,a0,a3
    13c8:	00a79533          	sll	a0,a5,a0

000013cc <.L55>:
    13cc:	8d4d                	or	a0,a0,a1
    13ce:	00a03533          	snez	a0,a0
    13d2:	00a765b3          	or	a1,a4,a0

000013d6 <.LVL205>:
    13d6:	4781                	li	a5,0
    13d8:	bf55                	j	138c <.L119>

000013da <.L53>:
    13da:	8c19                	sub	s0,s0,a4
    13dc:	ff800737          	lui	a4,0xff800

000013e0 <.LVL208>:
    13e0:	177d                	addi	a4,a4,-1
    13e2:	8ff9                	and	a5,a5,a4
    13e4:	b1c1                	j	10a4 <.L56>

000013e6 <.L63>:
    13e6:	87ba                	mv	a5,a4

000013e8 <.LVL211>:
    13e8:	85b2                	mv	a1,a2

000013ea <.LBB94>:
    13ea:	842a                	mv	s0,a0

000013ec <.LVL213>:
    13ec:	b965                	j	10a4 <.L56>

000013ee <.L67>:
    13ee:	87ba                	mv	a5,a4

000013f0 <.LVL215>:
    13f0:	85b2                	mv	a1,a2

000013f2 <.LVL216>:
    13f2:	b94d                	j	10a4 <.L56>

000013f4 <.L71>:
    13f4:	7ff00413          	li	s0,2047

000013f8 <.L72>:
    13f8:	4781                	li	a5,0
    13fa:	4581                	li	a1,0

000013fc <.L57>:
    13fc:	00800737          	lui	a4,0x800
    1400:	8f7d                	and	a4,a4,a5
    1402:	cb11                	beqz	a4,1416 <.L58>

00001404 <.LVL220>:
    1404:	0405                	addi	s0,s0,1

00001406 <.LVL221>:
    1406:	7ff00713          	li	a4,2047
    140a:	06e40b63          	beq	s0,a4,1480 <.L86>
    140e:	ff800737          	lui	a4,0xff800
    1412:	177d                	addi	a4,a4,-1
    1414:	8ff9                	and	a5,a5,a4

00001416 <.L58>:
    1416:	01d79713          	slli	a4,a5,0x1d
    141a:	0035d513          	srli	a0,a1,0x3
    141e:	8d59                	or	a0,a0,a4

00001420 <.LVL223>:
    1420:	7ff00713          	li	a4,2047
    1424:	838d                	srli	a5,a5,0x3
    1426:	00e41963          	bne	s0,a4,1438 <.L59>

0000142a <.LVL225>:
    142a:	8d5d                	or	a0,a0,a5

0000142c <.LVL226>:
    142c:	4781                	li	a5,0

0000142e <.LVL227>:
    142e:	c509                	beqz	a0,1438 <.L59>
    1430:	000807b7          	lui	a5,0x80
    1434:	4501                	li	a0,0
    1436:	4481                	li	s1,0

00001438 <.L59>:
    1438:	01441713          	slli	a4,s0,0x14
    143c:	7ff006b7          	lui	a3,0x7ff00
    1440:	07b2                	slli	a5,a5,0xc

00001442 <.LBE98>:
    1442:	40f2                	lw	ra,28(sp)
    1444:	4462                	lw	s0,24(sp)

00001446 <.LBB99>:
    1446:	8f75                	and	a4,a4,a3
    1448:	83b1                	srli	a5,a5,0xc
    144a:	04fe                	slli	s1,s1,0x1f

0000144c <.LVL230>:
    144c:	8fd9                	or	a5,a5,a4
    144e:	0097e733          	or	a4,a5,s1

00001452 <.LBE99>:
    1452:	4942                	lw	s2,16(sp)
    1454:	44d2                	lw	s1,20(sp)
    1456:	49b2                	lw	s3,12(sp)
    1458:	85ba                	mv	a1,a4
    145a:	6105                	addi	sp,sp,32
    145c:	8082                	ret

0000145e <.L73>:
    145e:	8442                	mv	s0,a6

00001460 <.LVL233>:
    1460:	b191                	j	10a4 <.L56>

00001462 <.L76>:
    1462:	87ba                	mv	a5,a4

00001464 <.LVL235>:
    1464:	85b2                	mv	a1,a2

00001466 <.LBB102>:
    1466:	842a                	mv	s0,a0

00001468 <.LVL237>:
    1468:	b5a9                	j	12b2 <.L118>

0000146a <.L80>:
    146a:	4781                	li	a5,0

0000146c <.LVL239>:
    146c:	4581                	li	a1,0

0000146e <.L121>:
    146e:	4481                	li	s1,0

00001470 <.LVL241>:
    1470:	b771                	j	13fc <.L57>

00001472 <.L81>:
    1472:	4781                	li	a5,0

00001474 <.LVL243>:
    1474:	bfed                	j	146e <.L121>

00001476 <.L82>:
    1476:	4581                	li	a1,0

00001478 <.LVL245>:
    1478:	4481                	li	s1,0

0000147a <.LVL246>:
    147a:	004007b7          	lui	a5,0x400

0000147e <.LVL247>:
    147e:	b999                	j	10d4 <.L120>

00001480 <.L86>:
    1480:	4781                	li	a5,0

00001482 <.LVL249>:
    1482:	4581                	li	a1,0

00001484 <.LVL250>:
    1484:	bf49                	j	1416 <.L58>

00001486 <__fixdfsi>:
    1486:	0145d713          	srli	a4,a1,0x14
    148a:	001006b7          	lui	a3,0x100
    148e:	fff68793          	addi	a5,a3,-1 # fffff <.LC0+0xfbeaf>
    1492:	7ff77713          	andi	a4,a4,2047

00001496 <.LBE2>:
    1496:	3fe00613          	li	a2,1022

0000149a <.LBB3>:
    149a:	8fed                	and	a5,a5,a1

0000149c <.LVL1>:
    149c:	81fd                	srli	a1,a1,0x1f

0000149e <.LBE3>:
    149e:	04e65463          	bge	a2,a4,14e6 <.L6>
    14a2:	41d00613          	li	a2,1053
    14a6:	00e65863          	bge	a2,a4,14b6 <.L3>

000014aa <.LVL3>:
    14aa:	80000537          	lui	a0,0x80000

000014ae <.LVL4>:
    14ae:	fff54513          	not	a0,a0
    14b2:	952e                	add	a0,a0,a1

000014b4 <.LVL5>:
    14b4:	8082                	ret

000014b6 <.L3>:
    14b6:	8fd5                	or	a5,a5,a3
    14b8:	43300693          	li	a3,1075
    14bc:	8e99                	sub	a3,a3,a4
    14be:	467d                	li	a2,31
    14c0:	00d64d63          	blt	a2,a3,14da <.L4>

000014c4 <.LVL8>:
    14c4:	bed70713          	addi	a4,a4,-1043 # ff7ffbed <.LC0+0xff7fba9d>

000014c8 <.LVL9>:
    14c8:	00e797b3          	sll	a5,a5,a4

000014cc <.LVL10>:
    14cc:	00d55533          	srl	a0,a0,a3

000014d0 <.LVL11>:
    14d0:	8d5d                	or	a0,a0,a5

000014d2 <.L5>:
    14d2:	c999                	beqz	a1,14e8 <.L2>
    14d4:	40a00533          	neg	a0,a0

000014d8 <.LVL13>:
    14d8:	8082                	ret

000014da <.L4>:
    14da:	41300513          	li	a0,1043

000014de <.LVL15>:
    14de:	8d19                	sub	a0,a0,a4
    14e0:	00a7d533          	srl	a0,a5,a0

000014e4 <.LVL16>:
    14e4:	b7fd                	j	14d2 <.L5>

000014e6 <.L6>:
    14e6:	4501                	li	a0,0

000014e8 <.L2>:
    14e8:	8082                	ret

000014ea <__floatsidf>:
    14ea:	1141                	addi	sp,sp,-16
    14ec:	c606                	sw	ra,12(sp)
    14ee:	c422                	sw	s0,8(sp)
    14f0:	c226                	sw	s1,4(sp)

000014f2 <.LBB10>:
    14f2:	cd21                	beqz	a0,154a <.L5>

000014f4 <.LBB3>:
    14f4:	41f55793          	srai	a5,a0,0x1f
    14f8:	00a7c433          	xor	s0,a5,a0
    14fc:	8c1d                	sub	s0,s0,a5
    14fe:	01f55493          	srli	s1,a0,0x1f

00001502 <.LBB4>:
    1502:	8522                	mv	a0,s0

00001504 <.LVL3>:
    1504:	20e9                	jal	15ce <__clzsi2>

00001506 <.LVL4>:
    1506:	41e00713          	li	a4,1054

0000150a <.LBE4>:
    150a:	47a9                	li	a5,10

0000150c <.LBB5>:
    150c:	8f09                	sub	a4,a4,a0

0000150e <.LBE5>:
    150e:	02a7c863          	blt	a5,a0,153e <.L4>
    1512:	47ad                	li	a5,11
    1514:	8f89                	sub	a5,a5,a0
    1516:	0555                	addi	a0,a0,21

00001518 <.LVL6>:
    1518:	00f457b3          	srl	a5,s0,a5

0000151c <.LVL7>:
    151c:	00a41433          	sll	s0,s0,a0

00001520 <.LVL8>:
    1520:	8526                	mv	a0,s1

00001522 <.L2>:
    1522:	07b2                	slli	a5,a5,0xc

00001524 <.LVL10>:
    1524:	0752                	slli	a4,a4,0x14

00001526 <.LVL11>:
    1526:	83b1                	srli	a5,a5,0xc
    1528:	057e                	slli	a0,a0,0x1f

0000152a <.LVL12>:
    152a:	8fd9                	or	a5,a5,a4

0000152c <.LBE11>:
    152c:	40b2                	lw	ra,12(sp)

0000152e <.LBB12>:
    152e:	00a7e733          	or	a4,a5,a0

00001532 <.LBE12>:
    1532:	8522                	mv	a0,s0
    1534:	4422                	lw	s0,8(sp)

00001536 <.LVL14>:
    1536:	4492                	lw	s1,4(sp)
    1538:	85ba                	mv	a1,a4
    153a:	0141                	addi	sp,sp,16
    153c:	8082                	ret

0000153e <.L4>:
    153e:	1555                	addi	a0,a0,-11

00001540 <.LVL16>:
    1540:	00a417b3          	sll	a5,s0,a0

00001544 <.LVL17>:
    1544:	8526                	mv	a0,s1

00001546 <.L7>:
    1546:	4401                	li	s0,0
    1548:	bfe9                	j	1522 <.L2>

0000154a <.L5>:
    154a:	4701                	li	a4,0
    154c:	4781                	li	a5,0
    154e:	bfe5                	j	1546 <.L7>

00001550 <__divsi3>:
    1550:	02054e63          	bltz	a0,158c <.L10>
    1554:	0405c363          	bltz	a1,159a <.L11>

00001558 <__udivsi3>:
    1558:	862e                	mv	a2,a1
    155a:	85aa                	mv	a1,a0
    155c:	557d                	li	a0,-1
    155e:	c215                	beqz	a2,1582 <.L5>
    1560:	4685                	li	a3,1
    1562:	00b67863          	bgeu	a2,a1,1572 <.L2>

00001566 <.L1>:
    1566:	00c05663          	blez	a2,1572 <.L2>
    156a:	0606                	slli	a2,a2,0x1
    156c:	0686                	slli	a3,a3,0x1
    156e:	feb66ce3          	bltu	a2,a1,1566 <.L1>

00001572 <.L2>:
    1572:	4501                	li	a0,0

00001574 <.L3>:
    1574:	00c5e463          	bltu	a1,a2,157c <.L4>
    1578:	8d91                	sub	a1,a1,a2
    157a:	8d55                	or	a0,a0,a3

0000157c <.L4>:
    157c:	8285                	srli	a3,a3,0x1
    157e:	8205                	srli	a2,a2,0x1
    1580:	faf5                	bnez	a3,1574 <.L3>

00001582 <.L5>:
    1582:	8082                	ret

00001584 <__umodsi3>:
    1584:	8286                	mv	t0,ra
    1586:	3fc9                	jal	1558 <__udivsi3>
    1588:	852e                	mv	a0,a1
    158a:	8282                	jr	t0

0000158c <.L10>:
    158c:	40a00533          	neg	a0,a0
    1590:	00b04763          	bgtz	a1,159e <.L12>
    1594:	40b005b3          	neg	a1,a1
    1598:	b7c1                	j	1558 <__udivsi3>

0000159a <.L11>:
    159a:	40b005b3          	neg	a1,a1

0000159e <.L12>:
    159e:	8286                	mv	t0,ra
    15a0:	3f65                	jal	1558 <__udivsi3>
    15a2:	40a00533          	neg	a0,a0
    15a6:	8282                	jr	t0

000015a8 <__modsi3>:
    15a8:	8286                	mv	t0,ra
    15aa:	0005c763          	bltz	a1,15b8 <.L31>
    15ae:	00054963          	bltz	a0,15c0 <.L32>

000015b2 <.L30>:
    15b2:	375d                	jal	1558 <__udivsi3>
    15b4:	852e                	mv	a0,a1
    15b6:	8282                	jr	t0

000015b8 <.L31>:
    15b8:	40b005b3          	neg	a1,a1
    15bc:	fe055be3          	bgez	a0,15b2 <.L30>

000015c0 <.L32>:
    15c0:	40a00533          	neg	a0,a0
    15c4:	3f51                	jal	1558 <__udivsi3>
    15c6:	40b00533          	neg	a0,a1
    15ca:	8282                	jr	t0
	...

000015ce <__clzsi2>:
    15ce:	67c1                	lui	a5,0x10
    15d0:	02f57563          	bgeu	a0,a5,15fa <.L2>
    15d4:	0ff00793          	li	a5,255
    15d8:	00a7b7b3          	sltu	a5,a5,a0
    15dc:	078e                	slli	a5,a5,0x3

000015de <.L3>:
    15de:	6711                	lui	a4,0x4
    15e0:	02000693          	li	a3,32
    15e4:	8e9d                	sub	a3,a3,a5
    15e6:	00f55533          	srl	a0,a0,a5

000015ea <.LVL2>:
    15ea:	04070793          	addi	a5,a4,64 # 4040 <__clz_tab>

000015ee <.LVL3>:
    15ee:	953e                	add	a0,a0,a5
    15f0:	00054503          	lbu	a0,0(a0) # 80000000 <.LC0+0x7fffbeb0>

000015f4 <.LBE3>:
    15f4:	40a68533          	sub	a0,a3,a0
    15f8:	8082                	ret

000015fa <.L2>:
    15fa:	01000737          	lui	a4,0x1000
    15fe:	47c1                	li	a5,16
    1600:	fce56fe3          	bltu	a0,a4,15de <.L3>
    1604:	47e1                	li	a5,24
    1606:	bfe1                	j	15de <.L3>

Disassembly of section .text.startup:

00001608 <main>:
    1608:	00004537          	lui	a0,0x4
    160c:	ff010113          	addi	sp,sp,-16
    1610:	14050513          	addi	a0,a0,320 # 4140 <.LC1>
    1614:	00112623          	sw	ra,12(sp)
    1618:	970ff0ef          	jal	ra,788 <my_printf>
    161c:	00c12083          	lw	ra,12(sp)
    1620:	00000513          	li	a0,0
    1624:	01010113          	addi	sp,sp,16
    1628:	00008067          	ret
