
/home/damon_devil/RV32I_X/software/benchmark/sim_hex/main.elf:     file format elf32-littleriscv


Disassembly of section .data:

00004000 <outputAddr>:
    4000:	0000                	unimp
    4002:	          	0xda87f03

00004004 <.L18>:
    4004:	0da8                	addi	a0,sp,728
    4006:	0000                	unimp
    4008:	0da8                	addi	a0,sp,728
    400a:	0000                	unimp
    400c:	0dc0                	addi	s0,sp,724
    400e:	0000                	unimp
    4010:	0da2                	slli	s11,s11,0x8
    4012:	0000                	unimp
    4014:	0da2                	slli	s11,s11,0x8
    4016:	0000                	unimp
    4018:	0e4e                	slli	t3,t3,0x13
    401a:	0000                	unimp
    401c:	0dc0                	addi	s0,sp,724
    401e:	0000                	unimp
    4020:	0da2                	slli	s11,s11,0x8
    4022:	0000                	unimp
    4024:	0e4e                	slli	t3,t3,0x13
    4026:	0000                	unimp
    4028:	0da2                	slli	s11,s11,0x8
    402a:	0000                	unimp
    402c:	0dc0                	addi	s0,sp,724
    402e:	0000                	unimp
    4030:	0da0                	addi	s0,sp,728
    4032:	0000                	unimp
    4034:	0da0                	addi	s0,sp,728
    4036:	0000                	unimp
    4038:	0da0                	addi	s0,sp,728
    403a:	0000                	unimp
    403c:	0e4e                	slli	t3,t3,0x13
	...

00004040 <__clz_tab>:
    4040:	0100                	addi	s0,sp,128
    4042:	0202                	c.slli64	tp
    4044:	03030303          	lb	t1,48(t1)
    4048:	0404                	addi	s1,sp,512
    404a:	0404                	addi	s1,sp,512
    404c:	0404                	addi	s1,sp,512
    404e:	0404                	addi	s1,sp,512
    4050:	0505                	addi	a0,a0,1
    4052:	0505                	addi	a0,a0,1
    4054:	0505                	addi	a0,a0,1
    4056:	0505                	addi	a0,a0,1
    4058:	0505                	addi	a0,a0,1
    405a:	0505                	addi	a0,a0,1
    405c:	0505                	addi	a0,a0,1
    405e:	0505                	addi	a0,a0,1
    4060:	0606                	slli	a2,a2,0x1
    4062:	0606                	slli	a2,a2,0x1
    4064:	0606                	slli	a2,a2,0x1
    4066:	0606                	slli	a2,a2,0x1
    4068:	0606                	slli	a2,a2,0x1
    406a:	0606                	slli	a2,a2,0x1
    406c:	0606                	slli	a2,a2,0x1
    406e:	0606                	slli	a2,a2,0x1
    4070:	0606                	slli	a2,a2,0x1
    4072:	0606                	slli	a2,a2,0x1
    4074:	0606                	slli	a2,a2,0x1
    4076:	0606                	slli	a2,a2,0x1
    4078:	0606                	slli	a2,a2,0x1
    407a:	0606                	slli	a2,a2,0x1
    407c:	0606                	slli	a2,a2,0x1
    407e:	0606                	slli	a2,a2,0x1
    4080:	07070707          	0x7070707
    4084:	07070707          	0x7070707
    4088:	07070707          	0x7070707
    408c:	07070707          	0x7070707
    4090:	07070707          	0x7070707
    4094:	07070707          	0x7070707
    4098:	07070707          	0x7070707
    409c:	07070707          	0x7070707
    40a0:	07070707          	0x7070707
    40a4:	07070707          	0x7070707
    40a8:	07070707          	0x7070707
    40ac:	07070707          	0x7070707
    40b0:	07070707          	0x7070707
    40b4:	07070707          	0x7070707
    40b8:	07070707          	0x7070707
    40bc:	07070707          	0x7070707
    40c0:	0808                	addi	a0,sp,16
    40c2:	0808                	addi	a0,sp,16
    40c4:	0808                	addi	a0,sp,16
    40c6:	0808                	addi	a0,sp,16
    40c8:	0808                	addi	a0,sp,16
    40ca:	0808                	addi	a0,sp,16
    40cc:	0808                	addi	a0,sp,16
    40ce:	0808                	addi	a0,sp,16
    40d0:	0808                	addi	a0,sp,16
    40d2:	0808                	addi	a0,sp,16
    40d4:	0808                	addi	a0,sp,16
    40d6:	0808                	addi	a0,sp,16
    40d8:	0808                	addi	a0,sp,16
    40da:	0808                	addi	a0,sp,16
    40dc:	0808                	addi	a0,sp,16
    40de:	0808                	addi	a0,sp,16
    40e0:	0808                	addi	a0,sp,16
    40e2:	0808                	addi	a0,sp,16
    40e4:	0808                	addi	a0,sp,16
    40e6:	0808                	addi	a0,sp,16
    40e8:	0808                	addi	a0,sp,16
    40ea:	0808                	addi	a0,sp,16
    40ec:	0808                	addi	a0,sp,16
    40ee:	0808                	addi	a0,sp,16
    40f0:	0808                	addi	a0,sp,16
    40f2:	0808                	addi	a0,sp,16
    40f4:	0808                	addi	a0,sp,16
    40f6:	0808                	addi	a0,sp,16
    40f8:	0808                	addi	a0,sp,16
    40fa:	0808                	addi	a0,sp,16
    40fc:	0808                	addi	a0,sp,16
    40fe:	0808                	addi	a0,sp,16
    4100:	0808                	addi	a0,sp,16
    4102:	0808                	addi	a0,sp,16
    4104:	0808                	addi	a0,sp,16
    4106:	0808                	addi	a0,sp,16
    4108:	0808                	addi	a0,sp,16
    410a:	0808                	addi	a0,sp,16
    410c:	0808                	addi	a0,sp,16
    410e:	0808                	addi	a0,sp,16
    4110:	0808                	addi	a0,sp,16
    4112:	0808                	addi	a0,sp,16
    4114:	0808                	addi	a0,sp,16
    4116:	0808                	addi	a0,sp,16
    4118:	0808                	addi	a0,sp,16
    411a:	0808                	addi	a0,sp,16
    411c:	0808                	addi	a0,sp,16
    411e:	0808                	addi	a0,sp,16
    4120:	0808                	addi	a0,sp,16
    4122:	0808                	addi	a0,sp,16
    4124:	0808                	addi	a0,sp,16
    4126:	0808                	addi	a0,sp,16
    4128:	0808                	addi	a0,sp,16
    412a:	0808                	addi	a0,sp,16
    412c:	0808                	addi	a0,sp,16
    412e:	0808                	addi	a0,sp,16
    4130:	0808                	addi	a0,sp,16
    4132:	0808                	addi	a0,sp,16
    4134:	0808                	addi	a0,sp,16
    4136:	0808                	addi	a0,sp,16
    4138:	0808                	addi	a0,sp,16
    413a:	0808                	addi	a0,sp,16
    413c:	0808                	addi	a0,sp,16
    413e:	0808                	addi	a0,sp,16

00004140 <.LC1>:
    4140:	6548                	flw	fa0,12(a0)
    4142:	6c6c                	flw	fa1,92(s0)
    4144:	6f57206f          	j	77038 <.LC0+0x72ee8>
    4148:	6c72                	flw	fs8,28(sp)
    414a:	2164                	fld	fs1,192(a0)
    414c:	000a                	c.slli	zero,0x2
	...

00004150 <.LC0>:
    4150:	0000                	unimp
    4152:	0000                	unimp
    4154:	8480                	0x8480
    4156:	412e                	lw	sp,200(sp)

Disassembly of section .text:

00000000 <_start>:
       0:	7f050137          	lui	sp,0x7f050
       4:	0140006f          	j	18 <_call_main>

00000008 <_finish>:
       8:	7f0301b7          	lui	gp,0x7f030
       c:	0ff00293          	li	t0,255
      10:	00518023          	sb	t0,0(gp) # 7f030000 <.LC0+0x7f02beb0>
      14:	fe000ae3          	beqz	zero,8 <_finish>

00000018 <_call_main>:
      18:	5f0010ef          	jal	ra,1608 <_end>
      1c:	fedff06f          	j	8 <_finish>

00000020 <printf_num>:
      20:	00051463          	bnez	a0,28 <.L15>
      24:	00008067          	ret

00000028 <.L15>:
      28:	fe010113          	addi	sp,sp,-32 # 7f04ffe0 <.LC0+0x7f04be90>
      2c:	00812c23          	sw	s0,24(sp)
      30:	00912a23          	sw	s1,20(sp)
      34:	00112e23          	sw	ra,28(sp)
      38:	01212823          	sw	s2,16(sp)
      3c:	01312623          	sw	s3,12(sp)
      40:	00900793          	li	a5,9
      44:	00050413          	mv	s0,a0
      48:	000044b7          	lui	s1,0x4
      4c:	02a7ee63          	bltu	a5,a0,88 <.L16>

00000050 <.L3>:
      50:	00040513          	mv	a0,s0
      54:	00a00593          	li	a1,10
      58:	52c010ef          	jal	ra,1584 <__umodsi3>
      5c:	0004a783          	lw	a5,0(s1) # 4000 <outputAddr>
      60:	03050513          	addi	a0,a0,48
      64:	0ff57513          	andi	a0,a0,255
      68:	00a78023          	sb	a0,0(a5)
      6c:	01c12083          	lw	ra,28(sp)
      70:	01812403          	lw	s0,24(sp)
      74:	01412483          	lw	s1,20(sp)
      78:	01012903          	lw	s2,16(sp)
      7c:	00c12983          	lw	s3,12(sp)
      80:	02010113          	addi	sp,sp,32
      84:	00008067          	ret

00000088 <.L16>:
      88:	00a00593          	li	a1,10
      8c:	4cc010ef          	jal	ra,1558 <__udivsi3>
      90:	06300793          	li	a5,99
      94:	00050913          	mv	s2,a0
      98:	0287e263          	bltu	a5,s0,bc <.L17>

0000009c <.L4>:
      9c:	00a00593          	li	a1,10
      a0:	00090513          	mv	a0,s2
      a4:	4e0010ef          	jal	ra,1584 <__umodsi3>
      a8:	0004a783          	lw	a5,0(s1)
      ac:	03050513          	addi	a0,a0,48
      b0:	0ff57513          	andi	a0,a0,255
      b4:	00a78023          	sb	a0,0(a5)
      b8:	f99ff06f          	j	50 <.L3>

000000bc <.L17>:
      bc:	00a00593          	li	a1,10
      c0:	498010ef          	jal	ra,1558 <__udivsi3>
      c4:	00a00593          	li	a1,10
      c8:	00050993          	mv	s3,a0
      cc:	48c010ef          	jal	ra,1558 <__udivsi3>
      d0:	f51ff0ef          	jal	ra,20 <printf_num>
      d4:	00a00593          	li	a1,10
      d8:	00098513          	mv	a0,s3
      dc:	4a8010ef          	jal	ra,1584 <__umodsi3>
      e0:	0004a703          	lw	a4,0(s1)
      e4:	03050793          	addi	a5,a0,48
      e8:	0ff7f793          	andi	a5,a5,255
      ec:	00f70023          	sb	a5,0(a4)
      f0:	fadff06f          	j	9c <.L4>

000000f4 <printf_deci.part.0>:
      f4:	fd010113          	addi	sp,sp,-48
      f8:	02812423          	sw	s0,40(sp)
      fc:	02912223          	sw	s1,36(sp)
     100:	02112623          	sw	ra,44(sp)
     104:	03212023          	sw	s2,32(sp)
     108:	01312e23          	sw	s3,28(sp)
     10c:	01412c23          	sw	s4,24(sp)
     110:	01512a23          	sw	s5,20(sp)
     114:	01612823          	sw	s6,16(sp)
     118:	01712623          	sw	s7,12(sp)
     11c:	01812423          	sw	s8,8(sp)
     120:	01912223          	sw	s9,4(sp)
     124:	00050413          	mv	s0,a0
     128:	000044b7          	lui	s1,0x4
     12c:	00055a63          	bgez	a0,140 <.L19>
     130:	0004a783          	lw	a5,0(s1) # 4000 <outputAddr>
     134:	02d00713          	li	a4,45
     138:	40a00433          	neg	s0,a0
     13c:	00e78023          	sb	a4,0(a5)

00000140 <.L19>:
     140:	00900793          	li	a5,9
     144:	0487ca63          	blt	a5,s0,198 <.L31>

00000148 <.L20>:
     148:	00040513          	mv	a0,s0
     14c:	00a00593          	li	a1,10
     150:	434010ef          	jal	ra,1584 <__umodsi3>
     154:	0004a783          	lw	a5,0(s1)
     158:	03050513          	addi	a0,a0,48
     15c:	0ff57513          	andi	a0,a0,255
     160:	00a78023          	sb	a0,0(a5)
     164:	02c12083          	lw	ra,44(sp)
     168:	02812403          	lw	s0,40(sp)
     16c:	02412483          	lw	s1,36(sp)
     170:	02012903          	lw	s2,32(sp)
     174:	01c12983          	lw	s3,28(sp)
     178:	01812a03          	lw	s4,24(sp)
     17c:	01412a83          	lw	s5,20(sp)
     180:	01012b03          	lw	s6,16(sp)
     184:	00c12b83          	lw	s7,12(sp)
     188:	00812c03          	lw	s8,8(sp)
     18c:	00412c83          	lw	s9,4(sp)
     190:	03010113          	addi	sp,sp,48
     194:	00008067          	ret

00000198 <.L31>:
     198:	00a00593          	li	a1,10
     19c:	00040513          	mv	a0,s0
     1a0:	3b8010ef          	jal	ra,1558 <__udivsi3>
     1a4:	06300793          	li	a5,99
     1a8:	00050913          	mv	s2,a0
     1ac:	0287c263          	blt	a5,s0,1d0 <.L32>

000001b0 <.L21>:
     1b0:	00a00593          	li	a1,10
     1b4:	00090513          	mv	a0,s2
     1b8:	3cc010ef          	jal	ra,1584 <__umodsi3>
     1bc:	0004a783          	lw	a5,0(s1)
     1c0:	03050513          	addi	a0,a0,48
     1c4:	0ff57513          	andi	a0,a0,255
     1c8:	00a78023          	sb	a0,0(a5)
     1cc:	f7dff06f          	j	148 <.L20>

000001d0 <.L32>:
     1d0:	00a00593          	li	a1,10
     1d4:	384010ef          	jal	ra,1558 <__udivsi3>
     1d8:	3e700793          	li	a5,999
     1dc:	00050993          	mv	s3,a0
     1e0:	0287e263          	bltu	a5,s0,204 <.L33>

000001e4 <.L22>:
     1e4:	00a00593          	li	a1,10
     1e8:	00098513          	mv	a0,s3
     1ec:	398010ef          	jal	ra,1584 <__umodsi3>
     1f0:	0004a783          	lw	a5,0(s1)
     1f4:	03050513          	addi	a0,a0,48
     1f8:	0ff57513          	andi	a0,a0,255
     1fc:	00a78023          	sb	a0,0(a5)
     200:	fb1ff06f          	j	1b0 <.L21>

00000204 <.L33>:
     204:	00a00593          	li	a1,10
     208:	350010ef          	jal	ra,1558 <__udivsi3>
     20c:	000027b7          	lui	a5,0x2
     210:	70f78793          	addi	a5,a5,1807 # 270f <.Ldebug_line0+0x1c7>
     214:	00050a13          	mv	s4,a0
     218:	0287e263          	bltu	a5,s0,23c <.L34>

0000021c <.L23>:
     21c:	00a00593          	li	a1,10
     220:	000a0513          	mv	a0,s4
     224:	360010ef          	jal	ra,1584 <__umodsi3>
     228:	0004a703          	lw	a4,0(s1)
     22c:	03050793          	addi	a5,a0,48
     230:	0ff7f793          	andi	a5,a5,255
     234:	00f70023          	sb	a5,0(a4)
     238:	fadff06f          	j	1e4 <.L22>

0000023c <.L34>:
     23c:	00a00593          	li	a1,10
     240:	318010ef          	jal	ra,1558 <__udivsi3>
     244:	000187b7          	lui	a5,0x18
     248:	69f78793          	addi	a5,a5,1695 # 1869f <.LC0+0x1454f>
     24c:	00050a93          	mv	s5,a0
     250:	0287e263          	bltu	a5,s0,274 <.L35>

00000254 <.L24>:
     254:	00a00593          	li	a1,10
     258:	000a8513          	mv	a0,s5
     25c:	328010ef          	jal	ra,1584 <__umodsi3>
     260:	0004a703          	lw	a4,0(s1)
     264:	03050793          	addi	a5,a0,48
     268:	0ff7f793          	andi	a5,a5,255
     26c:	00f70023          	sb	a5,0(a4)
     270:	fadff06f          	j	21c <.L23>

00000274 <.L35>:
     274:	00a00593          	li	a1,10
     278:	2e0010ef          	jal	ra,1558 <__udivsi3>
     27c:	000f47b7          	lui	a5,0xf4
     280:	23f78793          	addi	a5,a5,575 # f423f <.LC0+0xf00ef>
     284:	00050b13          	mv	s6,a0
     288:	0287e263          	bltu	a5,s0,2ac <.L36>

0000028c <.L25>:
     28c:	00a00593          	li	a1,10
     290:	000b0513          	mv	a0,s6
     294:	2f0010ef          	jal	ra,1584 <__umodsi3>
     298:	0004a703          	lw	a4,0(s1)
     29c:	03050793          	addi	a5,a0,48
     2a0:	0ff7f793          	andi	a5,a5,255
     2a4:	00f70023          	sb	a5,0(a4)
     2a8:	fadff06f          	j	254 <.L24>

000002ac <.L36>:
     2ac:	00a00593          	li	a1,10
     2b0:	2a8010ef          	jal	ra,1558 <__udivsi3>
     2b4:	009897b7          	lui	a5,0x989
     2b8:	67f78793          	addi	a5,a5,1663 # 98967f <.LC0+0x98552f>
     2bc:	00050b93          	mv	s7,a0
     2c0:	0287e263          	bltu	a5,s0,2e4 <.L37>

000002c4 <.L26>:
     2c4:	00a00593          	li	a1,10
     2c8:	000b8513          	mv	a0,s7
     2cc:	2b8010ef          	jal	ra,1584 <__umodsi3>
     2d0:	0004a703          	lw	a4,0(s1)
     2d4:	03050793          	addi	a5,a0,48
     2d8:	0ff7f793          	andi	a5,a5,255
     2dc:	00f70023          	sb	a5,0(a4)
     2e0:	fadff06f          	j	28c <.L25>

000002e4 <.L37>:
     2e4:	00a00593          	li	a1,10
     2e8:	270010ef          	jal	ra,1558 <__udivsi3>
     2ec:	05f5e7b7          	lui	a5,0x5f5e
     2f0:	0ff78793          	addi	a5,a5,255 # 5f5e0ff <.LC0+0x5f59faf>
     2f4:	00050c13          	mv	s8,a0
     2f8:	0287e263          	bltu	a5,s0,31c <.L38>

000002fc <.L27>:
     2fc:	00a00593          	li	a1,10
     300:	000c0513          	mv	a0,s8
     304:	280010ef          	jal	ra,1584 <__umodsi3>
     308:	0004a703          	lw	a4,0(s1)
     30c:	03050793          	addi	a5,a0,48
     310:	0ff7f793          	andi	a5,a5,255
     314:	00f70023          	sb	a5,0(a4)
     318:	fadff06f          	j	2c4 <.L26>

0000031c <.L38>:
     31c:	00a00593          	li	a1,10
     320:	238010ef          	jal	ra,1558 <__udivsi3>
     324:	3b9ad7b7          	lui	a5,0x3b9ad
     328:	9ff78793          	addi	a5,a5,-1537 # 3b9ac9ff <.LC0+0x3b9a88af>
     32c:	00050c93          	mv	s9,a0
     330:	0287e263          	bltu	a5,s0,354 <.L39>

00000334 <.L28>:
     334:	00a00593          	li	a1,10
     338:	000c8513          	mv	a0,s9
     33c:	248010ef          	jal	ra,1584 <__umodsi3>
     340:	0004a703          	lw	a4,0(s1)
     344:	03050793          	addi	a5,a0,48
     348:	0ff7f793          	andi	a5,a5,255
     34c:	00f70023          	sb	a5,0(a4)
     350:	fadff06f          	j	2fc <.L27>

00000354 <.L39>:
     354:	00000513          	li	a0,0
     358:	cc9ff0ef          	jal	ra,20 <printf_num>
     35c:	00a00593          	li	a1,10
     360:	000c8513          	mv	a0,s9
     364:	1f4010ef          	jal	ra,1558 <__udivsi3>
     368:	0004a703          	lw	a4,0(s1)
     36c:	03050793          	addi	a5,a0,48
     370:	0ff7f793          	andi	a5,a5,255
     374:	00f70023          	sb	a5,0(a4)
     378:	fbdff06f          	j	334 <.L28>

0000037c <printf_deci>:
     37c:	0c050c63          	beqz	a0,454 <.L54>
     380:	fd010113          	addi	sp,sp,-48
     384:	02812423          	sw	s0,40(sp)
     388:	02912223          	sw	s1,36(sp)
     38c:	02112623          	sw	ra,44(sp)
     390:	03212023          	sw	s2,32(sp)
     394:	01312e23          	sw	s3,28(sp)
     398:	01412c23          	sw	s4,24(sp)
     39c:	01512a23          	sw	s5,20(sp)
     3a0:	01612823          	sw	s6,16(sp)
     3a4:	01712623          	sw	s7,12(sp)
     3a8:	00050413          	mv	s0,a0
     3ac:	000044b7          	lui	s1,0x4
     3b0:	04054a63          	bltz	a0,404 <.L55>
     3b4:	00900793          	li	a5,9
     3b8:	0687c263          	blt	a5,s0,41c <.L56>

000003bc <.L44>:
     3bc:	00040513          	mv	a0,s0
     3c0:	00a00593          	li	a1,10
     3c4:	1c0010ef          	jal	ra,1584 <__umodsi3>
     3c8:	0004a783          	lw	a5,0(s1) # 4000 <outputAddr>
     3cc:	03050513          	addi	a0,a0,48
     3d0:	0ff57513          	andi	a0,a0,255
     3d4:	00a78023          	sb	a0,0(a5)
     3d8:	02c12083          	lw	ra,44(sp)
     3dc:	02812403          	lw	s0,40(sp)
     3e0:	02412483          	lw	s1,36(sp)
     3e4:	02012903          	lw	s2,32(sp)
     3e8:	01c12983          	lw	s3,28(sp)
     3ec:	01812a03          	lw	s4,24(sp)
     3f0:	01412a83          	lw	s5,20(sp)
     3f4:	01012b03          	lw	s6,16(sp)
     3f8:	00c12b83          	lw	s7,12(sp)
     3fc:	03010113          	addi	sp,sp,48
     400:	00008067          	ret

00000404 <.L55>:
     404:	0004a783          	lw	a5,0(s1)
     408:	02d00713          	li	a4,45
     40c:	40a00433          	neg	s0,a0
     410:	00e78023          	sb	a4,0(a5)
     414:	00900793          	li	a5,9
     418:	fa87d2e3          	bge	a5,s0,3bc <.L44>

0000041c <.L56>:
     41c:	00a00593          	li	a1,10
     420:	00040513          	mv	a0,s0
     424:	134010ef          	jal	ra,1558 <__udivsi3>
     428:	06300793          	li	a5,99
     42c:	00050913          	mv	s2,a0
     430:	0287cc63          	blt	a5,s0,468 <.L57>

00000434 <.L45>:
     434:	00a00593          	li	a1,10
     438:	00090513          	mv	a0,s2
     43c:	148010ef          	jal	ra,1584 <__umodsi3>
     440:	0004a783          	lw	a5,0(s1)
     444:	03050513          	addi	a0,a0,48
     448:	0ff57513          	andi	a0,a0,255
     44c:	00a78023          	sb	a0,0(a5)
     450:	f6dff06f          	j	3bc <.L44>

00000454 <.L54>:
     454:	000047b7          	lui	a5,0x4
     458:	0007a783          	lw	a5,0(a5) # 4000 <outputAddr>
     45c:	03000713          	li	a4,48
     460:	00e78023          	sb	a4,0(a5)
     464:	00008067          	ret

00000468 <.L57>:
     468:	00a00593          	li	a1,10
     46c:	0ec010ef          	jal	ra,1558 <__udivsi3>
     470:	3e700793          	li	a5,999
     474:	00050993          	mv	s3,a0
     478:	0287e263          	bltu	a5,s0,49c <.L58>

0000047c <.L46>:
     47c:	00a00593          	li	a1,10
     480:	00098513          	mv	a0,s3
     484:	100010ef          	jal	ra,1584 <__umodsi3>
     488:	0004a783          	lw	a5,0(s1)
     48c:	03050513          	addi	a0,a0,48
     490:	0ff57513          	andi	a0,a0,255
     494:	00a78023          	sb	a0,0(a5)
     498:	f9dff06f          	j	434 <.L45>

0000049c <.L58>:
     49c:	00a00593          	li	a1,10
     4a0:	0b8010ef          	jal	ra,1558 <__udivsi3>
     4a4:	000027b7          	lui	a5,0x2
     4a8:	70f78793          	addi	a5,a5,1807 # 270f <.Ldebug_line0+0x1c7>
     4ac:	00050a13          	mv	s4,a0
     4b0:	0287e263          	bltu	a5,s0,4d4 <.L59>

000004b4 <.L47>:
     4b4:	00a00593          	li	a1,10
     4b8:	000a0513          	mv	a0,s4
     4bc:	0c8010ef          	jal	ra,1584 <__umodsi3>
     4c0:	0004a703          	lw	a4,0(s1)
     4c4:	03050793          	addi	a5,a0,48
     4c8:	0ff7f793          	andi	a5,a5,255
     4cc:	00f70023          	sb	a5,0(a4)
     4d0:	fadff06f          	j	47c <.L46>

000004d4 <.L59>:
     4d4:	00a00593          	li	a1,10
     4d8:	080010ef          	jal	ra,1558 <__udivsi3>
     4dc:	000187b7          	lui	a5,0x18
     4e0:	69f78793          	addi	a5,a5,1695 # 1869f <.LC0+0x1454f>
     4e4:	00050a93          	mv	s5,a0
     4e8:	0287e263          	bltu	a5,s0,50c <.L60>

000004ec <.L48>:
     4ec:	00a00593          	li	a1,10
     4f0:	000a8513          	mv	a0,s5
     4f4:	090010ef          	jal	ra,1584 <__umodsi3>
     4f8:	0004a703          	lw	a4,0(s1)
     4fc:	03050793          	addi	a5,a0,48
     500:	0ff7f793          	andi	a5,a5,255
     504:	00f70023          	sb	a5,0(a4)
     508:	fadff06f          	j	4b4 <.L47>

0000050c <.L60>:
     50c:	00a00593          	li	a1,10
     510:	048010ef          	jal	ra,1558 <__udivsi3>
     514:	000f47b7          	lui	a5,0xf4
     518:	23f78793          	addi	a5,a5,575 # f423f <.LC0+0xf00ef>
     51c:	00050b13          	mv	s6,a0
     520:	0287e263          	bltu	a5,s0,544 <.L61>

00000524 <.L49>:
     524:	00a00593          	li	a1,10
     528:	000b0513          	mv	a0,s6
     52c:	058010ef          	jal	ra,1584 <__umodsi3>
     530:	0004a703          	lw	a4,0(s1)
     534:	03050793          	addi	a5,a0,48
     538:	0ff7f793          	andi	a5,a5,255
     53c:	00f70023          	sb	a5,0(a4)
     540:	fadff06f          	j	4ec <.L48>

00000544 <.L61>:
     544:	00a00593          	li	a1,10
     548:	010010ef          	jal	ra,1558 <__udivsi3>
     54c:	00a00593          	li	a1,10
     550:	00050b93          	mv	s7,a0
     554:	004010ef          	jal	ra,1558 <__udivsi3>
     558:	ac9ff0ef          	jal	ra,20 <printf_num>
     55c:	00a00593          	li	a1,10
     560:	000b8513          	mv	a0,s7
     564:	020010ef          	jal	ra,1584 <__umodsi3>
     568:	0004a703          	lw	a4,0(s1)
     56c:	03050793          	addi	a5,a0,48
     570:	0ff7f793          	andi	a5,a5,255
     574:	00f70023          	sb	a5,0(a4)
     578:	fadff06f          	j	524 <.L49>

0000057c <printf_char>:
     57c:	000047b7          	lui	a5,0x4
     580:	0007a783          	lw	a5,0(a5) # 4000 <outputAddr>
     584:	0ff57513          	andi	a0,a0,255
     588:	00a78023          	sb	a0,0(a5)
     58c:	00008067          	ret

00000590 <printf_str>:
     590:	00054783          	lbu	a5,0(a0)
     594:	02078063          	beqz	a5,5b4 <.L63>
     598:	00150513          	addi	a0,a0,1
     59c:	000046b7          	lui	a3,0x4

000005a0 <.L65>:
     5a0:	0006a703          	lw	a4,0(a3) # 4000 <outputAddr>
     5a4:	00150513          	addi	a0,a0,1
     5a8:	00f70023          	sb	a5,0(a4)
     5ac:	fff54783          	lbu	a5,-1(a0)
     5b0:	fe0798e3          	bnez	a5,5a0 <.L65>

000005b4 <.L63>:
     5b4:	00008067          	ret

000005b8 <printf_float>:
     5b8:	fe010113          	addi	sp,sp,-32
     5bc:	00000613          	li	a2,0
     5c0:	00000693          	li	a3,0
     5c4:	00812c23          	sw	s0,24(sp)
     5c8:	00912a23          	sw	s1,20(sp)
     5cc:	00112e23          	sw	ra,28(sp)
     5d0:	01212823          	sw	s2,16(sp)
     5d4:	01312623          	sw	s3,12(sp)
     5d8:	00050493          	mv	s1,a0
     5dc:	00058413          	mv	s0,a1
     5e0:	340000ef          	jal	ra,920 <__eqdf2>
     5e4:	10050a63          	beqz	a0,6f8 <.L87>
     5e8:	00048513          	mv	a0,s1
     5ec:	00040593          	mv	a1,s0
     5f0:	00000613          	li	a2,0
     5f4:	00000693          	li	a3,0
     5f8:	392000ef          	jal	ra,98a <__ledf2>
     5fc:	00004937          	lui	s2,0x4
     600:	0a054663          	bltz	a0,6ac <.L82>
     604:	00048513          	mv	a0,s1
     608:	00040593          	mv	a1,s0
     60c:	67b000ef          	jal	ra,1486 <__fixdfsi>
     610:	00050993          	mv	s3,a0
     614:	0c050a63          	beqz	a0,6e8 <.L88>

00000618 <.L76>:
     618:	addff0ef          	jal	ra,f4 <printf_deci.part.0>

0000061c <.L77>:
     61c:	00092783          	lw	a5,0(s2) # 4000 <outputAddr>
     620:	02e00713          	li	a4,46
     624:	00098513          	mv	a0,s3
     628:	00e78023          	sb	a4,0(a5)
     62c:	6bf000ef          	jal	ra,14ea <__floatsidf>
     630:	00050613          	mv	a2,a0
     634:	00058693          	mv	a3,a1
     638:	00048513          	mv	a0,s1
     63c:	00040593          	mv	a1,s0
     640:	02f000ef          	jal	ra,e6e <__subdf3>
     644:	00000613          	li	a2,0
     648:	00000693          	li	a3,0
     64c:	00050493          	mv	s1,a0
     650:	00058413          	mv	s0,a1
     654:	2cc000ef          	jal	ra,920 <__eqdf2>
     658:	0c051663          	bnez	a0,724 <.L85>
     65c:	00092703          	lw	a4,0(s2)
     660:	03000793          	li	a5,48
     664:	00f70023          	sb	a5,0(a4)
     668:	00092703          	lw	a4,0(s2)
     66c:	00f70023          	sb	a5,0(a4)
     670:	00092703          	lw	a4,0(s2)
     674:	00f70023          	sb	a5,0(a4)
     678:	00092703          	lw	a4,0(s2)
     67c:	00f70023          	sb	a5,0(a4)
     680:	00092703          	lw	a4,0(s2)
     684:	00f70023          	sb	a5,0(a4)
     688:	00092703          	lw	a4,0(s2)
     68c:	00f70023          	sb	a5,0(a4)
     690:	01c12083          	lw	ra,28(sp)
     694:	01812403          	lw	s0,24(sp)
     698:	01412483          	lw	s1,20(sp)
     69c:	01012903          	lw	s2,16(sp)
     6a0:	00c12983          	lw	s3,12(sp)
     6a4:	02010113          	addi	sp,sp,32
     6a8:	00008067          	ret

000006ac <.L82>:
     6ac:	00092783          	lw	a5,0(s2)
     6b0:	02d00713          	li	a4,45
     6b4:	00048613          	mv	a2,s1
     6b8:	00040693          	mv	a3,s0
     6bc:	00e78023          	sb	a4,0(a5)
     6c0:	00000513          	li	a0,0
     6c4:	00000593          	li	a1,0
     6c8:	7a6000ef          	jal	ra,e6e <__subdf3>
     6cc:	00050493          	mv	s1,a0
     6d0:	00058413          	mv	s0,a1
     6d4:	00048513          	mv	a0,s1
     6d8:	00040593          	mv	a1,s0
     6dc:	5ab000ef          	jal	ra,1486 <__fixdfsi>
     6e0:	00050993          	mv	s3,a0
     6e4:	f2051ae3          	bnez	a0,618 <.L76>

000006e8 <.L88>:
     6e8:	00092783          	lw	a5,0(s2)
     6ec:	03000713          	li	a4,48
     6f0:	00e78023          	sb	a4,0(a5)
     6f4:	f29ff06f          	j	61c <.L77>

000006f8 <.L87>:
     6f8:	000047b7          	lui	a5,0x4
     6fc:	0007a783          	lw	a5,0(a5) # 4000 <outputAddr>
     700:	03000713          	li	a4,48
     704:	00e78023          	sb	a4,0(a5)
     708:	01c12083          	lw	ra,28(sp)
     70c:	01812403          	lw	s0,24(sp)
     710:	01412483          	lw	s1,20(sp)
     714:	01012903          	lw	s2,16(sp)
     718:	00c12983          	lw	s3,12(sp)
     71c:	02010113          	addi	sp,sp,32
     720:	00008067          	ret

00000724 <.L85>:
     724:	000047b7          	lui	a5,0x4
     728:	1507a603          	lw	a2,336(a5) # 4150 <.LC0>
     72c:	1547a683          	lw	a3,340(a5)
     730:	00048513          	mv	a0,s1
     734:	00040593          	mv	a1,s0
     738:	2f8000ef          	jal	ra,a30 <__muldf3>
     73c:	54b000ef          	jal	ra,1486 <__fixdfsi>
     740:	02050063          	beqz	a0,760 <.L89>
     744:	01812403          	lw	s0,24(sp)
     748:	01c12083          	lw	ra,28(sp)
     74c:	01412483          	lw	s1,20(sp)
     750:	01012903          	lw	s2,16(sp)
     754:	00c12983          	lw	s3,12(sp)
     758:	02010113          	addi	sp,sp,32
     75c:	999ff06f          	j	f4 <printf_deci.part.0>

00000760 <.L89>:
     760:	00092783          	lw	a5,0(s2)
     764:	03000713          	li	a4,48
     768:	00e78023          	sb	a4,0(a5)
     76c:	01c12083          	lw	ra,28(sp)
     770:	01812403          	lw	s0,24(sp)
     774:	01412483          	lw	s1,20(sp)
     778:	01012903          	lw	s2,16(sp)
     77c:	00c12983          	lw	s3,12(sp)
     780:	02010113          	addi	sp,sp,32
     784:	00008067          	ret

00000788 <my_printf>:
     788:	fa010113          	addi	sp,sp,-96
     78c:	02112e23          	sw	ra,60(sp)
     790:	02812c23          	sw	s0,56(sp)
     794:	02912a23          	sw	s1,52(sp)
     798:	03212823          	sw	s2,48(sp)
     79c:	03312623          	sw	s3,44(sp)
     7a0:	03412423          	sw	s4,40(sp)
     7a4:	03512223          	sw	s5,36(sp)
     7a8:	03612023          	sw	s6,32(sp)
     7ac:	01712e23          	sw	s7,28(sp)
     7b0:	01812c23          	sw	s8,24(sp)
     7b4:	01912a23          	sw	s9,20(sp)
     7b8:	00054303          	lbu	t1,0(a0)
     7bc:	04f12a23          	sw	a5,84(sp)
     7c0:	04410793          	addi	a5,sp,68
     7c4:	04b12223          	sw	a1,68(sp)
     7c8:	04c12423          	sw	a2,72(sp)
     7cc:	04d12623          	sw	a3,76(sp)
     7d0:	04e12823          	sw	a4,80(sp)
     7d4:	05012c23          	sw	a6,88(sp)
     7d8:	05112e23          	sw	a7,92(sp)
     7dc:	00f12623          	sw	a5,12(sp)
     7e0:	08030463          	beqz	t1,868 <.L90>
     7e4:	00050913          	mv	s2,a0
     7e8:	00000413          	li	s0,0
     7ec:	02500b13          	li	s6,37
     7f0:	06600a93          	li	s5,102
     7f4:	07300c93          	li	s9,115
     7f8:	000049b7          	lui	s3,0x4
     7fc:	06300c13          	li	s8,99
     800:	06400b93          	li	s7,100
     804:	03000a13          	li	s4,48
     808:	0180006f          	j	820 <.L91>

0000080c <.L110>:
     80c:	0009a703          	lw	a4,0(s3) # 4000 <outputAddr>
     810:	00078413          	mv	s0,a5
     814:	00670023          	sb	t1,0(a4)

00000818 <.L93>:
     818:	0004c303          	lbu	t1,0(s1)
     81c:	04030663          	beqz	t1,868 <.L90>

00000820 <.L91>:
     820:	00140793          	addi	a5,s0,1
     824:	00f904b3          	add	s1,s2,a5
     828:	ff6312e3          	bne	t1,s6,80c <.L110>
     82c:	0004c783          	lbu	a5,0(s1)
     830:	00240413          	addi	s0,s0,2
     834:	008904b3          	add	s1,s2,s0
     838:	09578e63          	beq	a5,s5,8d4 <.L94>
     83c:	06fae063          	bltu	s5,a5,89c <.L95>
     840:	0b878c63          	beq	a5,s8,8f8 <.L96>
     844:	fd779ae3          	bne	a5,s7,818 <.L93>
     848:	00c12783          	lw	a5,12(sp)
     84c:	0007a503          	lw	a0,0(a5)
     850:	00478793          	addi	a5,a5,4
     854:	00f12623          	sw	a5,12(sp)
     858:	0a050e63          	beqz	a0,914 <.L111>
     85c:	899ff0ef          	jal	ra,f4 <printf_deci.part.0>
     860:	0004c303          	lbu	t1,0(s1)
     864:	fa031ee3          	bnez	t1,820 <.L91>

00000868 <.L90>:
     868:	03c12083          	lw	ra,60(sp)
     86c:	03812403          	lw	s0,56(sp)
     870:	03412483          	lw	s1,52(sp)
     874:	03012903          	lw	s2,48(sp)
     878:	02c12983          	lw	s3,44(sp)
     87c:	02812a03          	lw	s4,40(sp)
     880:	02412a83          	lw	s5,36(sp)
     884:	02012b03          	lw	s6,32(sp)
     888:	01c12b83          	lw	s7,28(sp)
     88c:	01812c03          	lw	s8,24(sp)
     890:	01412c83          	lw	s9,20(sp)
     894:	06010113          	addi	sp,sp,96
     898:	00008067          	ret

0000089c <.L95>:
     89c:	f7979ee3          	bne	a5,s9,818 <.L93>
     8a0:	00c12703          	lw	a4,12(sp)
     8a4:	00072783          	lw	a5,0(a4)
     8a8:	00470713          	addi	a4,a4,4
     8ac:	00e12623          	sw	a4,12(sp)
     8b0:	0007c703          	lbu	a4,0(a5)
     8b4:	f60702e3          	beqz	a4,818 <.L93>
     8b8:	00178793          	addi	a5,a5,1

000008bc <.L100>:
     8bc:	0009a683          	lw	a3,0(s3)
     8c0:	00178793          	addi	a5,a5,1
     8c4:	00e68023          	sb	a4,0(a3)
     8c8:	fff7c703          	lbu	a4,-1(a5)
     8cc:	fe0718e3          	bnez	a4,8bc <.L100>
     8d0:	f49ff06f          	j	818 <.L93>

000008d4 <.L94>:
     8d4:	00c12783          	lw	a5,12(sp)
     8d8:	00778793          	addi	a5,a5,7
     8dc:	ff87f793          	andi	a5,a5,-8
     8e0:	0007a503          	lw	a0,0(a5)
     8e4:	0047a583          	lw	a1,4(a5)
     8e8:	00878793          	addi	a5,a5,8
     8ec:	00f12623          	sw	a5,12(sp)
     8f0:	cc9ff0ef          	jal	ra,5b8 <printf_float>
     8f4:	f25ff06f          	j	818 <.L93>

000008f8 <.L96>:
     8f8:	00c12783          	lw	a5,12(sp)
     8fc:	0009a703          	lw	a4,0(s3)
     900:	0007c683          	lbu	a3,0(a5)
     904:	00478793          	addi	a5,a5,4
     908:	00f12623          	sw	a5,12(sp)
     90c:	00d70023          	sb	a3,0(a4)
     910:	f09ff06f          	j	818 <.L93>

00000914 <.L111>:
     914:	0009a783          	lw	a5,0(s3)
     918:	01478023          	sb	s4,0(a5)
     91c:	efdff06f          	j	818 <.L93>

00000920 <__eqdf2>:
     920:	0145d713          	srli	a4,a1,0x14
     924:	001007b7          	lui	a5,0x100
     928:	17fd                	addi	a5,a5,-1

0000092a <.LBB3>:
     92a:	0146d813          	srli	a6,a3,0x14

0000092e <.LBE3>:
     92e:	832a                	mv	t1,a0
     930:	8eaa                	mv	t4,a0

00000932 <.LBB4>:
     932:	7ff77713          	andi	a4,a4,2047

00000936 <.LBE4>:
     936:	7ff00513          	li	a0,2047

0000093a <.LBB5>:
     93a:	00b7f8b3          	and	a7,a5,a1
     93e:	8f32                	mv	t5,a2

00000940 <.LBB6>:
     940:	8ff5                	and	a5,a5,a3

00000942 <.LBB7>:
     942:	81fd                	srli	a1,a1,0x1f

00000944 <.LBB8>:
     944:	7ff87813          	andi	a6,a6,2047
     948:	82fd                	srli	a3,a3,0x1f

0000094a <.LBE8>:
     94a:	00a71a63          	bne	a4,a0,95e <.L2>
     94e:	0068ee33          	or	t3,a7,t1
     952:	4505                	li	a0,1
     954:	000e1463          	bnez	t3,95c <.L1>
     958:	00e80563          	beq	a6,a4,962 <.L6>

0000095c <.L1>:
     95c:	8082                	ret

0000095e <.L2>:
     95e:	00a81563          	bne	a6,a0,968 <.L5>

00000962 <.L6>:
     962:	8e5d                	or	a2,a2,a5

00000964 <.LVL9>:
     964:	4505                	li	a0,1
     966:	fa7d                	bnez	a2,95c <.L1>

00000968 <.L5>:
     968:	4505                	li	a0,1
     96a:	ff0719e3          	bne	a4,a6,95c <.L1>
     96e:	fef897e3          	bne	a7,a5,95c <.L1>
     972:	ffee95e3          	bne	t4,t5,95c <.L1>
     976:	00d58863          	beq	a1,a3,986 <.L12>
     97a:	f36d                	bnez	a4,95c <.L1>
     97c:	0068e533          	or	a0,a7,t1
     980:	00a03533          	snez	a0,a0
     984:	8082                	ret

00000986 <.L12>:
     986:	4501                	li	a0,0
     988:	8082                	ret

0000098a <__ledf2>:
     98a:	00100737          	lui	a4,0x100
     98e:	177d                	addi	a4,a4,-1
     990:	0145d813          	srli	a6,a1,0x14
     994:	00b778b3          	and	a7,a4,a1

00000998 <.LBE2>:
     998:	87aa                	mv	a5,a0
     99a:	832a                	mv	t1,a0

0000099c <.LBB3>:
     99c:	7ff87813          	andi	a6,a6,2047
     9a0:	01f5d513          	srli	a0,a1,0x1f

000009a4 <.LBB4>:
     9a4:	7ff00e93          	li	t4,2047

000009a8 <.LBB5>:
     9a8:	0146d593          	srli	a1,a3,0x14
     9ac:	8f75                	and	a4,a4,a3
     9ae:	8e32                	mv	t3,a2

000009b0 <.LVL4>:
     9b0:	7ff5f593          	andi	a1,a1,2047
     9b4:	82fd                	srli	a3,a3,0x1f

000009b6 <.LBE5>:
     9b6:	01d81863          	bne	a6,t4,9c6 <.L2>
     9ba:	00f8eeb3          	or	t4,a7,a5
     9be:	060e8463          	beqz	t4,a26 <.L34>

000009c2 <.L23>:
     9c2:	4509                	li	a0,2

000009c4 <.LVL7>:
     9c4:	8082                	ret

000009c6 <.L2>:
     9c6:	01d59663          	bne	a1,t4,9d2 <.L5>

000009ca <.L21>:
     9ca:	00c76eb3          	or	t4,a4,a2
     9ce:	fe0e9ae3          	bnez	t4,9c2 <.L23>

000009d2 <.L5>:
     9d2:	04081c63          	bnez	a6,a2a <.L6>
     9d6:	00f8e7b3          	or	a5,a7,a5
     9da:	0017b793          	seqz	a5,a5

000009de <.LVL9>:
     9de:	e199                	bnez	a1,9e4 <.L7>

000009e0 <.L20>:
     9e0:	8e59                	or	a2,a2,a4

000009e2 <.LVL11>:
     9e2:	ce0d                	beqz	a2,a1c <.L8>

000009e4 <.L7>:
     9e4:	eb81                	bnez	a5,9f4 <.L16>

000009e6 <.L17>:
     9e6:	00d51463          	bne	a0,a3,9ee <.L13>
     9ea:	0105d963          	bge	a1,a6,9fc <.L11>

000009ee <.L13>:
     9ee:	c50d                	beqz	a0,a18 <.L29>

000009f0 <.L31>:
     9f0:	557d                	li	a0,-1

000009f2 <.LVL15>:
     9f2:	8082                	ret

000009f4 <.L16>:
     9f4:	557d                	li	a0,-1

000009f6 <.LVL17>:
     9f6:	c691                	beqz	a3,a02 <.L1>
     9f8:	8536                	mv	a0,a3
     9fa:	8082                	ret

000009fc <.L11>:
     9fc:	00b85463          	bge	a6,a1,a04 <.L12>

00000a00 <.L19>:
     a00:	d965                	beqz	a0,9f0 <.L31>

00000a02 <.L1>:
     a02:	8082                	ret

00000a04 <.L12>:
     a04:	ff1765e3          	bltu	a4,a7,9ee <.L13>
     a08:	00e89c63          	bne	a7,a4,a20 <.L14>
     a0c:	fe6e61e3          	bltu	t3,t1,9ee <.L13>
     a10:	ffc368e3          	bltu	t1,t3,a00 <.L19>

00000a14 <.L39>:
     a14:	4501                	li	a0,0

00000a16 <.LVL22>:
     a16:	8082                	ret

00000a18 <.L29>:
     a18:	4505                	li	a0,1

00000a1a <.LVL24>:
     a1a:	8082                	ret

00000a1c <.L8>:
     a1c:	ffe5                	bnez	a5,a14 <.L39>
     a1e:	bfc1                	j	9ee <.L13>

00000a20 <.L14>:
     a20:	fee8e0e3          	bltu	a7,a4,a00 <.L19>
     a24:	bfc5                	j	a14 <.L39>

00000a26 <.L34>:
     a26:	fb0582e3          	beq	a1,a6,9ca <.L21>

00000a2a <.L6>:
     a2a:	fdd5                	bnez	a1,9e6 <.L17>
     a2c:	4781                	li	a5,0
     a2e:	bf4d                	j	9e0 <.L20>

00000a30 <__muldf3>:
     a30:	7179                	addi	sp,sp,-48
     a32:	ce4e                	sw	s3,28(sp)

00000a34 <.LBB3>:
     a34:	0145d993          	srli	s3,a1,0x14

00000a38 <.LBE3>:
     a38:	d422                	sw	s0,40(sp)
     a3a:	d226                	sw	s1,36(sp)
     a3c:	cc52                	sw	s4,24(sp)
     a3e:	ca56                	sw	s5,20(sp)
     a40:	c65e                	sw	s7,12(sp)

00000a42 <.LBB4>:
     a42:	00c59493          	slli	s1,a1,0xc

00000a46 <.LBE4>:
     a46:	d606                	sw	ra,44(sp)
     a48:	d04a                	sw	s2,32(sp)
     a4a:	c85a                	sw	s6,16(sp)

00000a4c <.LBB5>:
     a4c:	7ff9f993          	andi	s3,s3,2047

00000a50 <.LBE5>:
     a50:	842a                	mv	s0,a0
     a52:	8bb2                	mv	s7,a2
     a54:	8ab6                	mv	s5,a3

00000a56 <.LBB6>:
     a56:	80b1                	srli	s1,s1,0xc

00000a58 <.LVL1>:
     a58:	01f5da13          	srli	s4,a1,0x1f

00000a5c <.LBE6>:
     a5c:	06098f63          	beqz	s3,ada <.L2>
     a60:	7ff00793          	li	a5,2047
     a64:	0cf98363          	beq	s3,a5,b2a <.L3>

00000a68 <.LVL3>:
     a68:	01d55793          	srli	a5,a0,0x1d
     a6c:	048e                	slli	s1,s1,0x3

00000a6e <.LVL4>:
     a6e:	8cdd                	or	s1,s1,a5
     a70:	008007b7          	lui	a5,0x800
     a74:	8cdd                	or	s1,s1,a5

00000a76 <.LVL5>:
     a76:	00351913          	slli	s2,a0,0x3

00000a7a <.LVL6>:
     a7a:	c0198993          	addi	s3,s3,-1023

00000a7e <.L58>:
     a7e:	4b01                	li	s6,0

00000a80 <.L4>:
     a80:	014ad513          	srli	a0,s5,0x14
     a84:	00ca9413          	slli	s0,s5,0xc
     a88:	7ff57513          	andi	a0,a0,2047
     a8c:	8031                	srli	s0,s0,0xc

00000a8e <.LVL9>:
     a8e:	01fada93          	srli	s5,s5,0x1f

00000a92 <.LBE11>:
     a92:	cd55                	beqz	a0,b4e <.L9>
     a94:	7ff00793          	li	a5,2047
     a98:	10f50363          	beq	a0,a5,b9e <.L10>

00000a9c <.LVL11>:
     a9c:	01dbd793          	srli	a5,s7,0x1d
     aa0:	040e                	slli	s0,s0,0x3

00000aa2 <.LVL12>:
     aa2:	8c5d                	or	s0,s0,a5
     aa4:	008007b7          	lui	a5,0x800
     aa8:	8c5d                	or	s0,s0,a5

00000aaa <.LVL13>:
     aaa:	c0150513          	addi	a0,a0,-1023

00000aae <.LVL14>:
     aae:	003b9793          	slli	a5,s7,0x3

00000ab2 <.L59>:
     ab2:	4701                	li	a4,0

00000ab4 <.L11>:
     ab4:	002b1693          	slli	a3,s6,0x2
     ab8:	8ed9                	or	a3,a3,a4
     aba:	954e                	add	a0,a0,s3

00000abc <.LVL17>:
     abc:	16fd                	addi	a3,a3,-1
     abe:	4839                	li	a6,14
     ac0:	015a4633          	xor	a2,s4,s5

00000ac4 <.LVL18>:
     ac4:	00150593          	addi	a1,a0,1

00000ac8 <.LVL19>:
     ac8:	0ed86c63          	bltu	a6,a3,bc0 <.L16>
     acc:	6511                	lui	a0,0x4
     ace:	068a                	slli	a3,a3,0x2
     ad0:	00450513          	addi	a0,a0,4 # 4004 <.L18>
     ad4:	96aa                	add	a3,a3,a0
     ad6:	4294                	lw	a3,0(a3)
     ad8:	8682                	jr	a3

00000ada <.L2>:
     ada:	00a4e933          	or	s2,s1,a0
     ade:	04090f63          	beqz	s2,b3c <.L35>

00000ae2 <.LBB17>:
     ae2:	c88d                	beqz	s1,b14 <.L5>
     ae4:	8526                	mv	a0,s1

00000ae6 <.LVL21>:
     ae6:	2e9000ef          	jal	ra,15ce <__clzsi2>

00000aea <.L6>:
     aea:	ff550713          	addi	a4,a0,-11

00000aee <.LVL23>:
     aee:	47f1                	li	a5,28
     af0:	02e7c763          	blt	a5,a4,b1e <.L7>
     af4:	47f5                	li	a5,29
     af6:	ff850913          	addi	s2,a0,-8
     afa:	8f99                	sub	a5,a5,a4
     afc:	012494b3          	sll	s1,s1,s2

00000b00 <.LVL24>:
     b00:	00f457b3          	srl	a5,s0,a5
     b04:	8cdd                	or	s1,s1,a5

00000b06 <.LVL25>:
     b06:	01241933          	sll	s2,s0,s2

00000b0a <.L8>:
     b0a:	c0d00993          	li	s3,-1011

00000b0e <.LVL27>:
     b0e:	40a989b3          	sub	s3,s3,a0
     b12:	b7b5                	j	a7e <.L58>

00000b14 <.L5>:
     b14:	2bb000ef          	jal	ra,15ce <__clzsi2>

00000b18 <.LVL29>:
     b18:	02050513          	addi	a0,a0,32
     b1c:	b7f9                	j	aea <.L6>

00000b1e <.L7>:
     b1e:	fd850493          	addi	s1,a0,-40

00000b22 <.LVL32>:
     b22:	009414b3          	sll	s1,s0,s1

00000b26 <.LVL33>:
     b26:	4901                	li	s2,0
     b28:	b7cd                	j	b0a <.L8>

00000b2a <.L3>:
     b2a:	00a4e933          	or	s2,s1,a0
     b2e:	00090b63          	beqz	s2,b44 <.L36>
     b32:	892a                	mv	s2,a0
     b34:	7ff00993          	li	s3,2047

00000b38 <.LVL35>:
     b38:	4b0d                	li	s6,3
     b3a:	b799                	j	a80 <.L4>

00000b3c <.L35>:
     b3c:	4481                	li	s1,0

00000b3e <.LVL37>:
     b3e:	4981                	li	s3,0

00000b40 <.LVL38>:
     b40:	4b05                	li	s6,1
     b42:	bf3d                	j	a80 <.L4>

00000b44 <.L36>:
     b44:	4481                	li	s1,0

00000b46 <.LVL40>:
     b46:	7ff00993          	li	s3,2047

00000b4a <.LVL41>:
     b4a:	4b09                	li	s6,2
     b4c:	bf15                	j	a80 <.L4>

00000b4e <.L9>:
     b4e:	017467b3          	or	a5,s0,s7
     b52:	cfb1                	beqz	a5,bae <.L37>

00000b54 <.LBB18>:
     b54:	c80d                	beqz	s0,b86 <.L12>
     b56:	8522                	mv	a0,s0

00000b58 <.LVL43>:
     b58:	277000ef          	jal	ra,15ce <__clzsi2>

00000b5c <.L13>:
     b5c:	ff550693          	addi	a3,a0,-11

00000b60 <.LVL45>:
     b60:	47f1                	li	a5,28
     b62:	02d7c863          	blt	a5,a3,b92 <.L14>
     b66:	4775                	li	a4,29
     b68:	ff850793          	addi	a5,a0,-8
     b6c:	8f15                	sub	a4,a4,a3
     b6e:	00f41433          	sll	s0,s0,a5

00000b72 <.LVL46>:
     b72:	00ebd733          	srl	a4,s7,a4
     b76:	8c59                	or	s0,s0,a4

00000b78 <.LVL47>:
     b78:	00fb97b3          	sll	a5,s7,a5

00000b7c <.L15>:
     b7c:	c0d00713          	li	a4,-1011
     b80:	40a70533          	sub	a0,a4,a0
     b84:	b73d                	j	ab2 <.L59>

00000b86 <.L12>:
     b86:	855e                	mv	a0,s7

00000b88 <.LVL50>:
     b88:	247000ef          	jal	ra,15ce <__clzsi2>

00000b8c <.LVL51>:
     b8c:	02050513          	addi	a0,a0,32
     b90:	b7f1                	j	b5c <.L13>

00000b92 <.L14>:
     b92:	fd850413          	addi	s0,a0,-40

00000b96 <.LVL54>:
     b96:	008b9433          	sll	s0,s7,s0

00000b9a <.LVL55>:
     b9a:	4781                	li	a5,0
     b9c:	b7c5                	j	b7c <.L15>

00000b9e <.L10>:
     b9e:	017467b3          	or	a5,s0,s7
     ba2:	cb91                	beqz	a5,bb6 <.L38>
     ba4:	87de                	mv	a5,s7
     ba6:	7ff00513          	li	a0,2047

00000baa <.LVL57>:
     baa:	470d                	li	a4,3
     bac:	b721                	j	ab4 <.L11>

00000bae <.L37>:
     bae:	4401                	li	s0,0

00000bb0 <.LVL59>:
     bb0:	4501                	li	a0,0

00000bb2 <.LVL60>:
     bb2:	4705                	li	a4,1
     bb4:	b701                	j	ab4 <.L11>

00000bb6 <.L38>:
     bb6:	4401                	li	s0,0

00000bb8 <.LVL62>:
     bb8:	7ff00513          	li	a0,2047

00000bbc <.LVL63>:
     bbc:	4709                	li	a4,2
     bbe:	bddd                	j	ab4 <.L11>

00000bc0 <.L16>:
     bc0:	6f41                	lui	t5,0x10
     bc2:	ffff0e93          	addi	t4,t5,-1 # ffff <.LC0+0xbeaf>
     bc6:	01095713          	srli	a4,s2,0x10

00000bca <.LVL65>:
     bca:	0107d893          	srli	a7,a5,0x10

00000bce <.LVL66>:
     bce:	01d97933          	and	s2,s2,t4

00000bd2 <.LVL67>:
     bd2:	01d7f7b3          	and	a5,a5,t4

00000bd6 <.LVL68>:
     bd6:	03288833          	mul	a6,a7,s2
     bda:	02f906b3          	mul	a3,s2,a5

00000bde <.LVL69>:
     bde:	02f70fb3          	mul	t6,a4,a5

00000be2 <.LVL70>:
     be2:	01f80333          	add	t1,a6,t6
     be6:	0106d813          	srli	a6,a3,0x10

00000bea <.LVL71>:
     bea:	981a                	add	a6,a6,t1
     bec:	03170e33          	mul	t3,a4,a7

00000bf0 <.LVL72>:
     bf0:	01f87363          	bgeu	a6,t6,bf6 <.L23>
     bf4:	9e7a                	add	t3,t3,t5

00000bf6 <.L23>:
     bf6:	01085393          	srli	t2,a6,0x10
     bfa:	01d87833          	and	a6,a6,t4

00000bfe <.LVL74>:
     bfe:	01d6f6b3          	and	a3,a3,t4

00000c02 <.LBB22>:
     c02:	01045f13          	srli	t5,s0,0x10
     c06:	01d472b3          	and	t0,s0,t4

00000c0a <.LBB23>:
     c0a:	0842                	slli	a6,a6,0x10
     c0c:	9836                	add	a6,a6,a3

00000c0e <.LBB24>:
     c0e:	02570eb3          	mul	t4,a4,t0
     c12:	025906b3          	mul	a3,s2,t0

00000c16 <.LVL77>:
     c16:	032f0933          	mul	s2,t5,s2

00000c1a <.LVL78>:
     c1a:	01d90333          	add	t1,s2,t4
     c1e:	0106d913          	srli	s2,a3,0x10

00000c22 <.LVL79>:
     c22:	991a                	add	s2,s2,t1
     c24:	03e70733          	mul	a4,a4,t5

00000c28 <.LVL80>:
     c28:	01d97463          	bgeu	s2,t4,c30 <.L24>
     c2c:	6341                	lui	t1,0x10
     c2e:	971a                	add	a4,a4,t1

00000c30 <.L24>:
     c30:	01095e93          	srli	t4,s2,0x10

00000c34 <.LVL82>:
     c34:	69c1                	lui	s3,0x10

00000c36 <.LVL83>:
     c36:	9eba                	add	t4,t4,a4

00000c38 <.LVL84>:
     c38:	fff98713          	addi	a4,s3,-1 # ffff <.LC0+0xbeaf>

00000c3c <.LVL85>:
     c3c:	00e97933          	and	s2,s2,a4

00000c40 <.LVL86>:
     c40:	8ef9                	and	a3,a3,a4

00000c42 <.LBB25>:
     c42:	0104d413          	srli	s0,s1,0x10

00000c46 <.LBB26>:
     c46:	0942                	slli	s2,s2,0x10
     c48:	8cf9                	and	s1,s1,a4

00000c4a <.LBB27>:
     c4a:	02978733          	mul	a4,a5,s1

00000c4e <.LBB28>:
     c4e:	9936                	add	s2,s2,a3
     c50:	93ca                	add	t2,t2,s2

00000c52 <.LBB29>:
     c52:	02f40333          	mul	t1,s0,a5

00000c56 <.LVL91>:
     c56:	029886b3          	mul	a3,a7,s1

00000c5a <.LVL92>:
     c5a:	028887b3          	mul	a5,a7,s0

00000c5e <.LVL93>:
     c5e:	006688b3          	add	a7,a3,t1

00000c62 <.LVL94>:
     c62:	01075693          	srli	a3,a4,0x10

00000c66 <.LVL95>:
     c66:	96c6                	add	a3,a3,a7

00000c68 <.LVL96>:
     c68:	0066f363          	bgeu	a3,t1,c6e <.L25>
     c6c:	97ce                	add	a5,a5,s3

00000c6e <.L25>:
     c6e:	0106d893          	srli	a7,a3,0x10
     c72:	69c1                	lui	s3,0x10
     c74:	00f88fb3          	add	t6,a7,a5

00000c78 <.LVL98>:
     c78:	fff98793          	addi	a5,s3,-1 # ffff <.LC0+0xbeaf>

00000c7c <.LBB30>:
     c7c:	029288b3          	mul	a7,t0,s1

00000c80 <.LBB31>:
     c80:	8efd                	and	a3,a3,a5

00000c82 <.LVL100>:
     c82:	8f7d                	and	a4,a4,a5

00000c84 <.LVL101>:
     c84:	06c2                	slli	a3,a3,0x10
     c86:	96ba                	add	a3,a3,a4

00000c88 <.LBB32>:
     c88:	025407b3          	mul	a5,s0,t0

00000c8c <.LVL103>:
     c8c:	029f04b3          	mul	s1,t5,s1

00000c90 <.LVL104>:
     c90:	028f0333          	mul	t1,t5,s0

00000c94 <.LVL105>:
     c94:	94be                	add	s1,s1,a5

00000c96 <.LVL106>:
     c96:	0108d413          	srli	s0,a7,0x10

00000c9a <.LVL107>:
     c9a:	94a2                	add	s1,s1,s0

00000c9c <.LVL108>:
     c9c:	00f4f363          	bgeu	s1,a5,ca2 <.L26>
     ca0:	934e                	add	t1,t1,s3

00000ca2 <.L26>:
     ca2:	67c1                	lui	a5,0x10

00000ca4 <.LVL110>:
     ca4:	17fd                	addi	a5,a5,-1
     ca6:	00f4f733          	and	a4,s1,a5
     caa:	00f8f8b3          	and	a7,a7,a5

00000cae <.LVL111>:
     cae:	0742                	slli	a4,a4,0x10

00000cb0 <.LBB35>:
     cb0:	9e1e                	add	t3,t3,t2

00000cb2 <.LBB36>:
     cb2:	9746                	add	a4,a4,a7

00000cb4 <.LBB37>:
     cb4:	012e3933          	sltu	s2,t3,s2

00000cb8 <.LVL113>:
     cb8:	9776                	add	a4,a4,t4

00000cba <.LVL114>:
     cba:	01270433          	add	s0,a4,s2

00000cbe <.LBB38>:
     cbe:	9e36                	add	t3,t3,a3
     cc0:	00de36b3          	sltu	a3,t3,a3

00000cc4 <.LVL116>:
     cc4:	01f408b3          	add	a7,s0,t6

00000cc8 <.LVL117>:
     cc8:	00d88f33          	add	t5,a7,a3

00000ccc <.LBB39>:
     ccc:	01d73733          	sltu	a4,a4,t4

00000cd0 <.LVL119>:
     cd0:	01243433          	sltu	s0,s0,s2
     cd4:	8c59                	or	s0,s0,a4

00000cd6 <.LBB40>:
     cd6:	80c1                	srli	s1,s1,0x10

00000cd8 <.LBB41>:
     cd8:	01f8b8b3          	sltu	a7,a7,t6

00000cdc <.LVL121>:
     cdc:	00df36b3          	sltu	a3,t5,a3

00000ce0 <.LVL122>:
     ce0:	9426                	add	s0,s0,s1
     ce2:	00d8e6b3          	or	a3,a7,a3
     ce6:	9436                	add	s0,s0,a3
     ce8:	941a                	add	s0,s0,t1

00000cea <.LBB44>:
     cea:	017f5793          	srli	a5,t5,0x17
     cee:	0426                	slli	s0,s0,0x9
     cf0:	8c5d                	or	s0,s0,a5

00000cf2 <.LBB45>:
     cf2:	009e1793          	slli	a5,t3,0x9
     cf6:	0107e7b3          	or	a5,a5,a6

00000cfa <.LVL124>:
     cfa:	00f037b3          	snez	a5,a5

00000cfe <.LVL125>:
     cfe:	017e5e13          	srli	t3,t3,0x17

00000d02 <.LVL126>:
     d02:	009f1713          	slli	a4,t5,0x9

00000d06 <.LBE45>:
     d06:	01c7e7b3          	or	a5,a5,t3
     d0a:	8fd9                	or	a5,a5,a4

00000d0c <.LBE19>:
     d0c:	01000737          	lui	a4,0x1000
     d10:	8f61                	and	a4,a4,s0
     d12:	cb4d                	beqz	a4,dc4 <.L40>
     d14:	0017d713          	srli	a4,a5,0x1
     d18:	8b85                	andi	a5,a5,1

00000d1a <.LVL128>:
     d1a:	8fd9                	or	a5,a5,a4
     d1c:	01f41713          	slli	a4,s0,0x1f
     d20:	8fd9                	or	a5,a5,a4

00000d22 <.LVL129>:
     d22:	8005                	srli	s0,s0,0x1

00000d24 <.L27>:
     d24:	3ff58693          	addi	a3,a1,1023

00000d28 <.LVL131>:
     d28:	0ad05063          	blez	a3,dc8 <.L28>
     d2c:	0077f713          	andi	a4,a5,7
     d30:	cf01                	beqz	a4,d48 <.L29>
     d32:	00f7f713          	andi	a4,a5,15
     d36:	4511                	li	a0,4
     d38:	00a70863          	beq	a4,a0,d48 <.L29>

00000d3c <.LBB49>:
     d3c:	00478713          	addi	a4,a5,4 # 10004 <.LC0+0xbeb4>

00000d40 <.LVL132>:
     d40:	00f737b3          	sltu	a5,a4,a5

00000d44 <.LVL133>:
     d44:	943e                	add	s0,s0,a5

00000d46 <.LVL134>:
     d46:	87ba                	mv	a5,a4

00000d48 <.L29>:
     d48:	01000737          	lui	a4,0x1000
     d4c:	8f61                	and	a4,a4,s0
     d4e:	c719                	beqz	a4,d5c <.L30>
     d50:	ff000737          	lui	a4,0xff000
     d54:	177d                	addi	a4,a4,-1
     d56:	8c79                	and	s0,s0,a4
     d58:	40058693          	addi	a3,a1,1024

00000d5c <.L30>:
     d5c:	7fe00713          	li	a4,2046
     d60:	0ed74e63          	blt	a4,a3,e5c <.L44>
     d64:	0037d713          	srli	a4,a5,0x3

00000d68 <.LVL138>:
     d68:	01d41793          	slli	a5,s0,0x1d

00000d6c <.LVL139>:
     d6c:	8fd9                	or	a5,a5,a4

00000d6e <.LVL140>:
     d6e:	800d                	srli	s0,s0,0x3

00000d70 <.L17>:
     d70:	01469713          	slli	a4,a3,0x14
     d74:	0432                	slli	s0,s0,0xc

00000d76 <.LVL142>:
     d76:	7ff006b7          	lui	a3,0x7ff00

00000d7a <.LVL143>:
     d7a:	8f75                	and	a4,a4,a3
     d7c:	8031                	srli	s0,s0,0xc
     d7e:	8c59                	or	s0,s0,a4
     d80:	067e                	slli	a2,a2,0x1f

00000d82 <.LBE52>:
     d82:	50b2                	lw	ra,44(sp)

00000d84 <.LBB53>:
     d84:	00c46733          	or	a4,s0,a2

00000d88 <.LBE53>:
     d88:	5422                	lw	s0,40(sp)
     d8a:	5492                	lw	s1,36(sp)
     d8c:	5902                	lw	s2,32(sp)
     d8e:	49f2                	lw	s3,28(sp)
     d90:	4a62                	lw	s4,24(sp)

00000d92 <.LVL146>:
     d92:	4ad2                	lw	s5,20(sp)

00000d94 <.LVL147>:
     d94:	4b42                	lw	s6,16(sp)

00000d96 <.LVL148>:
     d96:	4bb2                	lw	s7,12(sp)
     d98:	853e                	mv	a0,a5
     d9a:	85ba                	mv	a1,a4
     d9c:	6145                	addi	sp,sp,48
     d9e:	8082                	ret

00000da0 <.L19>:
     da0:	8652                	mv	a2,s4

00000da2 <.L60>:
     da2:	8426                	mv	s0,s1

00000da4 <.LVL151>:
     da4:	87ca                	mv	a5,s2

00000da6 <.LVL152>:
     da6:	875a                	mv	a4,s6

00000da8 <.L22>:
     da8:	4689                	li	a3,2
     daa:	0ad70963          	beq	a4,a3,e5c <.L44>
     dae:	468d                	li	a3,3
     db0:	08d70f63          	beq	a4,a3,e4e <.L42>
     db4:	4685                	li	a3,1
     db6:	f6d717e3          	bne	a4,a3,d24 <.L27>

00000dba <.L45>:
     dba:	4401                	li	s0,0

00000dbc <.LVL155>:
     dbc:	4781                	li	a5,0

00000dbe <.LVL156>:
     dbe:	a09d                	j	e24 <.L61>

00000dc0 <.L20>:
     dc0:	8656                	mv	a2,s5

00000dc2 <.LBE60>:
     dc2:	b7dd                	j	da8 <.L22>

00000dc4 <.L40>:
     dc4:	85aa                	mv	a1,a0

00000dc6 <.LVL160>:
     dc6:	bfb9                	j	d24 <.L27>

00000dc8 <.L28>:
     dc8:	4505                	li	a0,1
     dca:	8d15                	sub	a0,a0,a3

00000dcc <.LVL162>:
     dcc:	03800713          	li	a4,56
     dd0:	fea745e3          	blt	a4,a0,dba <.L45>
     dd4:	477d                	li	a4,31
     dd6:	04a74963          	blt	a4,a0,e28 <.L31>
     dda:	41e58593          	addi	a1,a1,1054
     dde:	00b41733          	sll	a4,s0,a1
     de2:	00a7d6b3          	srl	a3,a5,a0
     de6:	00b797b3          	sll	a5,a5,a1

00000dea <.LVL163>:
     dea:	8f55                	or	a4,a4,a3
     dec:	00f037b3          	snez	a5,a5
     df0:	8fd9                	or	a5,a5,a4

00000df2 <.LVL164>:
     df2:	00a45433          	srl	s0,s0,a0

00000df6 <.L32>:
     df6:	0077f713          	andi	a4,a5,7
     dfa:	cf01                	beqz	a4,e12 <.L34>
     dfc:	00f7f713          	andi	a4,a5,15
     e00:	4691                	li	a3,4
     e02:	00d70863          	beq	a4,a3,e12 <.L34>

00000e06 <.LBB57>:
     e06:	00478713          	addi	a4,a5,4

00000e0a <.LVL166>:
     e0a:	00f737b3          	sltu	a5,a4,a5

00000e0e <.LVL167>:
     e0e:	943e                	add	s0,s0,a5

00000e10 <.LVL168>:
     e10:	87ba                	mv	a5,a4

00000e12 <.L34>:
     e12:	00800737          	lui	a4,0x800
     e16:	8f61                	and	a4,a4,s0
     e18:	e739                	bnez	a4,e66 <.L47>

00000e1a <.LVL170>:
     e1a:	01d41713          	slli	a4,s0,0x1d
     e1e:	838d                	srli	a5,a5,0x3

00000e20 <.LVL171>:
     e20:	8fd9                	or	a5,a5,a4

00000e22 <.LVL172>:
     e22:	800d                	srli	s0,s0,0x3

00000e24 <.L61>:
     e24:	4681                	li	a3,0
     e26:	b7a9                	j	d70 <.L17>

00000e28 <.L31>:
     e28:	5705                	li	a4,-31
     e2a:	8f15                	sub	a4,a4,a3
     e2c:	02000813          	li	a6,32
     e30:	00e45733          	srl	a4,s0,a4
     e34:	4681                	li	a3,0
     e36:	01050663          	beq	a0,a6,e42 <.L33>
     e3a:	43e58593          	addi	a1,a1,1086
     e3e:	00b416b3          	sll	a3,s0,a1

00000e42 <.L33>:
     e42:	8fd5                	or	a5,a5,a3

00000e44 <.LVL175>:
     e44:	00f037b3          	snez	a5,a5
     e48:	8fd9                	or	a5,a5,a4

00000e4a <.LVL176>:
     e4a:	4401                	li	s0,0
     e4c:	b76d                	j	df6 <.L32>

00000e4e <.L42>:
     e4e:	00080437          	lui	s0,0x80
     e52:	4781                	li	a5,0
     e54:	7ff00693          	li	a3,2047
     e58:	4601                	li	a2,0

00000e5a <.LVL178>:
     e5a:	bf19                	j	d70 <.L17>

00000e5c <.L44>:
     e5c:	4401                	li	s0,0
     e5e:	4781                	li	a5,0
     e60:	7ff00693          	li	a3,2047
     e64:	b731                	j	d70 <.L17>

00000e66 <.L47>:
     e66:	4401                	li	s0,0

00000e68 <.LVL181>:
     e68:	4781                	li	a5,0

00000e6a <.LVL182>:
     e6a:	4685                	li	a3,1
     e6c:	b711                	j	d70 <.L17>

00000e6e <__subdf3>:
     e6e:	00100837          	lui	a6,0x100
     e72:	187d                	addi	a6,a6,-1

00000e74 <.LBE2>:
     e74:	1101                	addi	sp,sp,-32

00000e76 <.LBB3>:
     e76:	00b877b3          	and	a5,a6,a1

00000e7a <.LVL1>:
     e7a:	0145d713          	srli	a4,a1,0x14

00000e7e <.LBB4>:
     e7e:	00d87833          	and	a6,a6,a3
     e82:	0146d313          	srli	t1,a3,0x14

00000e86 <.LBE4>:
     e86:	cc22                	sw	s0,24(sp)
     e88:	078e                	slli	a5,a5,0x3

00000e8a <.LBB6>:
     e8a:	7ff77413          	andi	s0,a4,2047

00000e8e <.LBE6>:
     e8e:	01d55713          	srli	a4,a0,0x1d
     e92:	ca26                	sw	s1,20(sp)
     e94:	8fd9                	or	a5,a5,a4

00000e96 <.LBB9>:
     e96:	01f5d493          	srli	s1,a1,0x1f

00000e9a <.LBE9>:
     e9a:	01d65713          	srli	a4,a2,0x1d
     e9e:	00351593          	slli	a1,a0,0x3

00000ea2 <.LBB13>:
     ea2:	080e                	slli	a6,a6,0x3

00000ea4 <.LVL6>:
     ea4:	ce06                	sw	ra,28(sp)
     ea6:	c84a                	sw	s2,16(sp)
     ea8:	c64e                	sw	s3,12(sp)

00000eaa <.LBB15>:
     eaa:	7ff37313          	andi	t1,t1,2047

00000eae <.LBE15>:
     eae:	7ff00513          	li	a0,2047

00000eb2 <.LBB16>:
     eb2:	82fd                	srli	a3,a3,0x1f

00000eb4 <.LBE16>:
     eb4:	01076733          	or	a4,a4,a6

00000eb8 <.LVL10>:
     eb8:	060e                	slli	a2,a2,0x3

00000eba <.LVL11>:
     eba:	00a31563          	bne	t1,a0,ec4 <.L2>
     ebe:	00c76533          	or	a0,a4,a2
     ec2:	e119                	bnez	a0,ec8 <.L3>

00000ec4 <.L2>:
     ec4:	0016c693          	xori	a3,a3,1

00000ec8 <.L3>:
     ec8:	40640833          	sub	a6,s0,t1

00000ecc <.LBE18>:
     ecc:	22969863          	bne	a3,s1,10fc <.L4>

00000ed0 <.LBB39>:
     ed0:	0f005363          	blez	a6,fb6 <.L5>

00000ed4 <.LVL14>:
     ed4:	02031863          	bnez	t1,f04 <.L6>
     ed8:	00c766b3          	or	a3,a4,a2

00000edc <.LVL15>:
     edc:	58068163          	beqz	a3,145e <.L73>
     ee0:	fff80513          	addi	a0,a6,-1 # fffff <.LC0+0xfbeaf>

00000ee4 <.LVL16>:
     ee4:	e909                	bnez	a0,ef6 <.L8>

00000ee6 <.LBB19>:
     ee6:	962e                	add	a2,a2,a1

00000ee8 <.LVL17>:
     ee8:	00b63533          	sltu	a0,a2,a1

00000eec <.LVL18>:
     eec:	97ba                	add	a5,a5,a4

00000eee <.LVL19>:
     eee:	97aa                	add	a5,a5,a0

00000ef0 <.LBB20>:
     ef0:	85b2                	mv	a1,a2

00000ef2 <.L114>:
     ef2:	4405                	li	s0,1

00000ef4 <.LBB41>:
     ef4:	a8b9                	j	f52 <.L9>

00000ef6 <.L8>:
     ef6:	7ff00693          	li	a3,2047
     efa:	00d81d63          	bne	a6,a3,f14 <.L10>

00000efe <.L83>:
     efe:	7ff00413          	li	s0,2047

00000f02 <.LVL25>:
     f02:	a24d                	j	10a4 <.L56>

00000f04 <.L6>:
     f04:	7ff00693          	li	a3,2047

00000f08 <.LVL27>:
     f08:	18d40e63          	beq	s0,a3,10a4 <.L56>
     f0c:	008006b7          	lui	a3,0x800
     f10:	8f55                	or	a4,a4,a3
     f12:	8542                	mv	a0,a6

00000f14 <.L10>:
     f14:	03800693          	li	a3,56
     f18:	08a6cb63          	blt	a3,a0,fae <.L11>
     f1c:	46fd                	li	a3,31
     f1e:	06a6c263          	blt	a3,a0,f82 <.L12>
     f22:	02000813          	li	a6,32
     f26:	40a80833          	sub	a6,a6,a0
     f2a:	010716b3          	sll	a3,a4,a6
     f2e:	00a658b3          	srl	a7,a2,a0
     f32:	01061633          	sll	a2,a2,a6

00000f36 <.LVL30>:
     f36:	0116e6b3          	or	a3,a3,a7
     f3a:	00c03633          	snez	a2,a2
     f3e:	8e55                	or	a2,a2,a3

00000f40 <.LVL31>:
     f40:	00a75733          	srl	a4,a4,a0

00000f44 <.L13>:
     f44:	962e                	add	a2,a2,a1

00000f46 <.LVL33>:
     f46:	00b63533          	sltu	a0,a2,a1
     f4a:	973e                	add	a4,a4,a5

00000f4c <.LVL34>:
     f4c:	00a707b3          	add	a5,a4,a0

00000f50 <.LBB24>:
     f50:	85b2                	mv	a1,a2

00000f52 <.L9>:
     f52:	00800737          	lui	a4,0x800
     f56:	8f7d                	and	a4,a4,a5
     f58:	14070663          	beqz	a4,10a4 <.L56>

00000f5c <.LVL37>:
     f5c:	0405                	addi	s0,s0,1

00000f5e <.LVL38>:
     f5e:	7ff00713          	li	a4,2047
     f62:	48e40b63          	beq	s0,a4,13f8 <.L72>
     f66:	ff800737          	lui	a4,0xff800
     f6a:	177d                	addi	a4,a4,-1
     f6c:	8ff9                	and	a5,a5,a4

00000f6e <.LVL39>:
     f6e:	0015f513          	andi	a0,a1,1
     f72:	0015d713          	srli	a4,a1,0x1
     f76:	8d59                	or	a0,a0,a4
     f78:	01f79593          	slli	a1,a5,0x1f
     f7c:	8dc9                	or	a1,a1,a0
     f7e:	8385                	srli	a5,a5,0x1
     f80:	a215                	j	10a4 <.L56>

00000f82 <.L12>:
     f82:	fe050693          	addi	a3,a0,-32
     f86:	02000893          	li	a7,32
     f8a:	00d756b3          	srl	a3,a4,a3
     f8e:	4801                	li	a6,0
     f90:	01150863          	beq	a0,a7,fa0 <.L14>
     f94:	04000813          	li	a6,64
     f98:	40a80533          	sub	a0,a6,a0

00000f9c <.LVL41>:
     f9c:	00a71833          	sll	a6,a4,a0

00000fa0 <.L14>:
     fa0:	00c86633          	or	a2,a6,a2

00000fa4 <.LVL42>:
     fa4:	00c03633          	snez	a2,a2
     fa8:	8e55                	or	a2,a2,a3

00000faa <.L112>:
     faa:	4701                	li	a4,0
     fac:	bf61                	j	f44 <.L13>

00000fae <.L11>:
     fae:	8e59                	or	a2,a2,a4

00000fb0 <.LVL45>:
     fb0:	00c03633          	snez	a2,a2
     fb4:	bfdd                	j	faa <.L112>

00000fb6 <.L5>:
     fb6:	0a080b63          	beqz	a6,106c <.L15>
     fba:	40830533          	sub	a0,t1,s0

00000fbe <.LVL47>:
     fbe:	e40d                	bnez	s0,fe8 <.L16>
     fc0:	00b7e6b3          	or	a3,a5,a1

00000fc4 <.LVL48>:
     fc4:	42068163          	beqz	a3,13e6 <.L63>
     fc8:	fff50693          	addi	a3,a0,-1

00000fcc <.LVL49>:
     fcc:	e699                	bnez	a3,fda <.L17>

00000fce <.LBB28>:
     fce:	95b2                	add	a1,a1,a2

00000fd0 <.LVL50>:
     fd0:	97ba                	add	a5,a5,a4

00000fd2 <.LVL51>:
     fd2:	00c5b633          	sltu	a2,a1,a2

00000fd6 <.LVL52>:
     fd6:	97b2                	add	a5,a5,a2
     fd8:	bf29                	j	ef2 <.L114>

00000fda <.L17>:
     fda:	7ff00813          	li	a6,2047
     fde:	01051d63          	bne	a0,a6,ff8 <.L18>

00000fe2 <.L69>:
     fe2:	87ba                	mv	a5,a4

00000fe4 <.LVL55>:
     fe4:	85b2                	mv	a1,a2

00000fe6 <.LVL56>:
     fe6:	bf21                	j	efe <.L83>

00000fe8 <.L16>:
     fe8:	7ff00693          	li	a3,2047

00000fec <.LVL58>:
     fec:	fed30be3          	beq	t1,a3,fe2 <.L69>
     ff0:	008006b7          	lui	a3,0x800
     ff4:	8fd5                	or	a5,a5,a3
     ff6:	86aa                	mv	a3,a0

00000ff8 <.L18>:
     ff8:	03800513          	li	a0,56
     ffc:	06d54363          	blt	a0,a3,1062 <.L19>
    1000:	457d                	li	a0,31
    1002:	02d54b63          	blt	a0,a3,1038 <.L20>
    1006:	02000813          	li	a6,32
    100a:	40d80833          	sub	a6,a6,a3
    100e:	01079533          	sll	a0,a5,a6
    1012:	00d5d8b3          	srl	a7,a1,a3
    1016:	010595b3          	sll	a1,a1,a6

0000101a <.LVL61>:
    101a:	01156533          	or	a0,a0,a7
    101e:	00b035b3          	snez	a1,a1
    1022:	8d4d                	or	a0,a0,a1

00001024 <.LVL62>:
    1024:	00d7d7b3          	srl	a5,a5,a3

00001028 <.L21>:
    1028:	00c505b3          	add	a1,a0,a2

0000102c <.LVL64>:
    102c:	97ba                	add	a5,a5,a4

0000102e <.LVL65>:
    102e:	00c5b633          	sltu	a2,a1,a2

00001032 <.LVL66>:
    1032:	97b2                	add	a5,a5,a2

00001034 <.LBB70>:
    1034:	841a                	mv	s0,t1

00001036 <.LBB71>:
    1036:	bf31                	j	f52 <.L9>

00001038 <.L20>:
    1038:	fe068513          	addi	a0,a3,-32 # 7fffe0 <.LC0+0x7fbe90>
    103c:	02000893          	li	a7,32
    1040:	00a7d833          	srl	a6,a5,a0
    1044:	4501                	li	a0,0
    1046:	01168763          	beq	a3,a7,1054 <.L22>
    104a:	04000513          	li	a0,64
    104e:	8d15                	sub	a0,a0,a3
    1050:	00a79533          	sll	a0,a5,a0

00001054 <.L22>:
    1054:	8d4d                	or	a0,a0,a1
    1056:	00a03533          	snez	a0,a0
    105a:	00a86533          	or	a0,a6,a0

0000105e <.L113>:
    105e:	4781                	li	a5,0
    1060:	b7e1                	j	1028 <.L21>

00001062 <.L19>:
    1062:	00b7e533          	or	a0,a5,a1
    1066:	00a03533          	snez	a0,a0
    106a:	bfd5                	j	105e <.L113>

0000106c <.L15>:
    106c:	00140693          	addi	a3,s0,1 # 80001 <.LC0+0x7beb1>

00001070 <.LVL73>:
    1070:	7fe6f513          	andi	a0,a3,2046
    1074:	e13d                	bnez	a0,10da <.L23>
    1076:	00b7e6b3          	or	a3,a5,a1
    107a:	e429                	bnez	s0,10c4 <.L24>

0000107c <.LVL74>:
    107c:	36068963          	beqz	a3,13ee <.L67>
    1080:	00c766b3          	or	a3,a4,a2
    1084:	c285                	beqz	a3,10a4 <.L56>

00001086 <.LBB32>:
    1086:	962e                	add	a2,a2,a1

00001088 <.LVL75>:
    1088:	97ba                	add	a5,a5,a4

0000108a <.LVL76>:
    108a:	00b63533          	sltu	a0,a2,a1
    108e:	97aa                	add	a5,a5,a0

00001090 <.LBE32>:
    1090:	00800737          	lui	a4,0x800

00001094 <.LVL78>:
    1094:	8f7d                	and	a4,a4,a5

00001096 <.LBB33>:
    1096:	85b2                	mv	a1,a2

00001098 <.LBE33>:
    1098:	c711                	beqz	a4,10a4 <.L56>
    109a:	ff800737          	lui	a4,0xff800
    109e:	177d                	addi	a4,a4,-1
    10a0:	8ff9                	and	a5,a5,a4

000010a2 <.LVL80>:
    10a2:	4405                	li	s0,1

000010a4 <.L56>:
    10a4:	0075f713          	andi	a4,a1,7
    10a8:	34070a63          	beqz	a4,13fc <.L57>
    10ac:	00f5f713          	andi	a4,a1,15
    10b0:	4691                	li	a3,4
    10b2:	34d70563          	beq	a4,a3,13fc <.L57>

000010b6 <.LBB74>:
    10b6:	00458713          	addi	a4,a1,4

000010ba <.LVL82>:
    10ba:	00b73533          	sltu	a0,a4,a1
    10be:	97aa                	add	a5,a5,a0

000010c0 <.LVL83>:
    10c0:	85ba                	mv	a1,a4
    10c2:	ae2d                	j	13fc <.L57>

000010c4 <.L24>:
    10c4:	de99                	beqz	a3,fe2 <.L69>
    10c6:	8e59                	or	a2,a2,a4

000010c8 <.LVL85>:
    10c8:	e2060be3          	beqz	a2,efe <.L83>

000010cc <.L122>:
    10cc:	4481                	li	s1,0

000010ce <.LVL87>:
    10ce:	004007b7          	lui	a5,0x400

000010d2 <.LVL88>:
    10d2:	4581                	li	a1,0

000010d4 <.L120>:
    10d4:	7ff00413          	li	s0,2047

000010d8 <.LVL90>:
    10d8:	a615                	j	13fc <.L57>

000010da <.L23>:
    10da:	7ff00513          	li	a0,2047
    10de:	30a68b63          	beq	a3,a0,13f4 <.L71>

000010e2 <.LBB37>:
    10e2:	962e                	add	a2,a2,a1

000010e4 <.LVL92>:
    10e4:	00b63533          	sltu	a0,a2,a1
    10e8:	97ba                	add	a5,a5,a4

000010ea <.LVL93>:
    10ea:	97aa                	add	a5,a5,a0

000010ec <.LBE37>:
    10ec:	01f79513          	slli	a0,a5,0x1f
    10f0:	8205                	srli	a2,a2,0x1

000010f2 <.LVL95>:
    10f2:	00c565b3          	or	a1,a0,a2

000010f6 <.LVL96>:
    10f6:	8385                	srli	a5,a5,0x1
    10f8:	8436                	mv	s0,a3

000010fa <.LVL97>:
    10fa:	b76d                	j	10a4 <.L56>

000010fc <.L4>:
    10fc:	0d005663          	blez	a6,11c8 <.L25>

00001100 <.LVL99>:
    1100:	08031163          	bnez	t1,1182 <.L26>
    1104:	00c766b3          	or	a3,a4,a2

00001108 <.LVL100>:
    1108:	34068b63          	beqz	a3,145e <.L73>
    110c:	fff80513          	addi	a0,a6,-1

00001110 <.LVL101>:
    1110:	e911                	bnez	a0,1124 <.L27>

00001112 <.LBB43>:
    1112:	40c58633          	sub	a2,a1,a2

00001116 <.LVL102>:
    1116:	00c5b533          	sltu	a0,a1,a2

0000111a <.LVL103>:
    111a:	8f99                	sub	a5,a5,a4

0000111c <.LVL104>:
    111c:	8f89                	sub	a5,a5,a0

0000111e <.LBB44>:
    111e:	85b2                	mv	a1,a2

00001120 <.L117>:
    1120:	4405                	li	s0,1

00001122 <.LBB82>:
    1122:	a0b1                	j	116e <.L28>

00001124 <.L27>:
    1124:	7ff00693          	li	a3,2047
    1128:	dcd80be3          	beq	a6,a3,efe <.L83>

0000112c <.L29>:
    112c:	03800693          	li	a3,56
    1130:	08a6c863          	blt	a3,a0,11c0 <.L30>
    1134:	46fd                	li	a3,31
    1136:	04a6cf63          	blt	a3,a0,1194 <.L31>
    113a:	02000813          	li	a6,32
    113e:	40a80833          	sub	a6,a6,a0
    1142:	010716b3          	sll	a3,a4,a6
    1146:	00a658b3          	srl	a7,a2,a0
    114a:	01061633          	sll	a2,a2,a6

0000114e <.LVL110>:
    114e:	0116e6b3          	or	a3,a3,a7
    1152:	00c03633          	snez	a2,a2
    1156:	8e55                	or	a2,a2,a3

00001158 <.LVL111>:
    1158:	00a75733          	srl	a4,a4,a0

0000115c <.L32>:
    115c:	40c58633          	sub	a2,a1,a2

00001160 <.LVL113>:
    1160:	00c5b533          	sltu	a0,a1,a2
    1164:	40e78733          	sub	a4,a5,a4

00001168 <.LVL114>:
    1168:	40a707b3          	sub	a5,a4,a0

0000116c <.LBB47>:
    116c:	85b2                	mv	a1,a2

0000116e <.L28>:
    116e:	00800937          	lui	s2,0x800
    1172:	0127f733          	and	a4,a5,s2
    1176:	d71d                	beqz	a4,10a4 <.L56>

00001178 <.LBB48>:
    1178:	197d                	addi	s2,s2,-1
    117a:	0127f933          	and	s2,a5,s2

0000117e <.LVL117>:
    117e:	89ae                	mv	s3,a1
    1180:	aa5d                	j	1336 <.L48>

00001182 <.L26>:
    1182:	7ff00693          	li	a3,2047

00001186 <.LVL119>:
    1186:	f0d40fe3          	beq	s0,a3,10a4 <.L56>
    118a:	008006b7          	lui	a3,0x800
    118e:	8f55                	or	a4,a4,a3
    1190:	8542                	mv	a0,a6
    1192:	bf69                	j	112c <.L29>

00001194 <.L31>:
    1194:	fe050693          	addi	a3,a0,-32
    1198:	02000893          	li	a7,32
    119c:	00d756b3          	srl	a3,a4,a3
    11a0:	4801                	li	a6,0
    11a2:	01150863          	beq	a0,a7,11b2 <.L33>
    11a6:	04000813          	li	a6,64
    11aa:	40a80533          	sub	a0,a6,a0

000011ae <.LVL122>:
    11ae:	00a71833          	sll	a6,a4,a0

000011b2 <.L33>:
    11b2:	00c86633          	or	a2,a6,a2

000011b6 <.LVL123>:
    11b6:	00c03633          	snez	a2,a2
    11ba:	8e55                	or	a2,a2,a3

000011bc <.L115>:
    11bc:	4701                	li	a4,0
    11be:	bf79                	j	115c <.L32>

000011c0 <.L30>:
    11c0:	8e59                	or	a2,a2,a4

000011c2 <.LVL126>:
    11c2:	00c03633          	snez	a2,a2
    11c6:	bfdd                	j	11bc <.L115>

000011c8 <.L25>:
    11c8:	0c080563          	beqz	a6,1292 <.L34>
    11cc:	40830533          	sub	a0,t1,s0

000011d0 <.LVL128>:
    11d0:	e81d                	bnez	s0,1206 <.L35>
    11d2:	00b7e833          	or	a6,a5,a1
    11d6:	28080663          	beqz	a6,1462 <.L76>
    11da:	fff50813          	addi	a6,a0,-1

000011de <.LVL129>:
    11de:	00081b63          	bnez	a6,11f4 <.L36>

000011e2 <.LBB54>:
    11e2:	40b605b3          	sub	a1,a2,a1

000011e6 <.LVL130>:
    11e6:	40f707b3          	sub	a5,a4,a5

000011ea <.LVL131>:
    11ea:	00b63633          	sltu	a2,a2,a1

000011ee <.LVL132>:
    11ee:	8f91                	sub	a5,a5,a2

000011f0 <.LBE54>:
    11f0:	84b6                	mv	s1,a3

000011f2 <.LVL134>:
    11f2:	b73d                	j	1120 <.L117>

000011f4 <.L36>:
    11f4:	7ff00893          	li	a7,2047
    11f8:	03151063          	bne	a0,a7,1218 <.L37>

000011fc <.L78>:
    11fc:	87ba                	mv	a5,a4

000011fe <.LVL137>:
    11fe:	85b2                	mv	a1,a2

00001200 <.LBB84>:
    1200:	7ff00413          	li	s0,2047

00001204 <.LVL139>:
    1204:	a07d                	j	12b2 <.L118>

00001206 <.L35>:
    1206:	7ff00813          	li	a6,2047
    120a:	ff0309e3          	beq	t1,a6,11fc <.L78>
    120e:	00800837          	lui	a6,0x800
    1212:	0107e7b3          	or	a5,a5,a6
    1216:	882a                	mv	a6,a0

00001218 <.L37>:
    1218:	03800513          	li	a0,56
    121c:	07054663          	blt	a0,a6,1288 <.L38>
    1220:	457d                	li	a0,31
    1222:	03054d63          	blt	a0,a6,125c <.L39>
    1226:	02000893          	li	a7,32
    122a:	410888b3          	sub	a7,a7,a6
    122e:	01179533          	sll	a0,a5,a7
    1232:	0105de33          	srl	t3,a1,a6
    1236:	011595b3          	sll	a1,a1,a7

0000123a <.LVL143>:
    123a:	01c56533          	or	a0,a0,t3
    123e:	00b035b3          	snez	a1,a1
    1242:	8d4d                	or	a0,a0,a1

00001244 <.LVL144>:
    1244:	0107d7b3          	srl	a5,a5,a6

00001248 <.L40>:
    1248:	40a605b3          	sub	a1,a2,a0

0000124c <.LVL146>:
    124c:	40f707b3          	sub	a5,a4,a5

00001250 <.LVL147>:
    1250:	00b63633          	sltu	a2,a2,a1

00001254 <.LVL148>:
    1254:	8f91                	sub	a5,a5,a2

00001256 <.LBB85>:
    1256:	841a                	mv	s0,t1

00001258 <.LBB86>:
    1258:	84b6                	mv	s1,a3

0000125a <.LVL151>:
    125a:	bf11                	j	116e <.L28>

0000125c <.L39>:
    125c:	fe080513          	addi	a0,a6,-32 # 7fffe0 <.LC0+0x7fbe90>
    1260:	02000e13          	li	t3,32
    1264:	00a7d8b3          	srl	a7,a5,a0
    1268:	4501                	li	a0,0
    126a:	01c80863          	beq	a6,t3,127a <.L41>
    126e:	04000513          	li	a0,64
    1272:	41050533          	sub	a0,a0,a6
    1276:	00a79533          	sll	a0,a5,a0

0000127a <.L41>:
    127a:	8d4d                	or	a0,a0,a1
    127c:	00a03533          	snez	a0,a0
    1280:	00a8e533          	or	a0,a7,a0

00001284 <.L116>:
    1284:	4781                	li	a5,0
    1286:	b7c9                	j	1248 <.L40>

00001288 <.L38>:
    1288:	00b7e533          	or	a0,a5,a1
    128c:	00a03533          	snez	a0,a0
    1290:	bfd5                	j	1284 <.L116>

00001292 <.L34>:
    1292:	00140513          	addi	a0,s0,1
    1296:	7fe57513          	andi	a0,a0,2046
    129a:	e925                	bnez	a0,130a <.L42>

0000129c <.LBB87>:
    129c:	00b7e833          	or	a6,a5,a1

000012a0 <.LBE87>:
    12a0:	00c76533          	or	a0,a4,a2

000012a4 <.LBB88>:
    12a4:	e821                	bnez	s0,12f4 <.L43>

000012a6 <.LVL156>:
    12a6:	00081863          	bnez	a6,12b6 <.L44>

000012aa <.LVL157>:
    12aa:	1c050063          	beqz	a0,146a <.L80>

000012ae <.LBE88>:
    12ae:	87ba                	mv	a5,a4

000012b0 <.LVL158>:
    12b0:	85b2                	mv	a1,a2

000012b2 <.L118>:
    12b2:	84b6                	mv	s1,a3

000012b4 <.LVL160>:
    12b4:	bbc5                	j	10a4 <.L56>

000012b6 <.L44>:
    12b6:	de0507e3          	beqz	a0,10a4 <.L56>

000012ba <.LBB58>:
    12ba:	40c58833          	sub	a6,a1,a2

000012be <.LVL162>:
    12be:	0105b8b3          	sltu	a7,a1,a6
    12c2:	40e78533          	sub	a0,a5,a4
    12c6:	41150533          	sub	a0,a0,a7

000012ca <.LBE58>:
    12ca:	008008b7          	lui	a7,0x800
    12ce:	011578b3          	and	a7,a0,a7
    12d2:	00088a63          	beqz	a7,12e6 <.L45>

000012d6 <.LBB59>:
    12d6:	40b605b3          	sub	a1,a2,a1

000012da <.LVL164>:
    12da:	40f707b3          	sub	a5,a4,a5

000012de <.LVL165>:
    12de:	00b63633          	sltu	a2,a2,a1

000012e2 <.LVL166>:
    12e2:	8f91                	sub	a5,a5,a2

000012e4 <.LBE59>:
    12e4:	b7f9                	j	12b2 <.L118>

000012e6 <.L45>:
    12e6:	00a865b3          	or	a1,a6,a0

000012ea <.LVL169>:
    12ea:	18058463          	beqz	a1,1472 <.L81>
    12ee:	87aa                	mv	a5,a0

000012f0 <.LBB60>:
    12f0:	85c2                	mv	a1,a6
    12f2:	bb4d                	j	10a4 <.L56>

000012f4 <.L43>:
    12f4:	00081863          	bnez	a6,1304 <.L46>
    12f8:	16050f63          	beqz	a0,1476 <.L82>

000012fc <.LBE90>:
    12fc:	87ba                	mv	a5,a4

000012fe <.LVL172>:
    12fe:	85b2                	mv	a1,a2

00001300 <.LBB92>:
    1300:	84b6                	mv	s1,a3

00001302 <.LVL174>:
    1302:	bef5                	j	efe <.L83>

00001304 <.L46>:
    1304:	be050de3          	beqz	a0,efe <.L83>
    1308:	b3d1                	j	10cc <.L122>

0000130a <.L42>:
    130a:	40c589b3          	sub	s3,a1,a2

0000130e <.LVL177>:
    130e:	0135b533          	sltu	a0,a1,s3
    1312:	40e78933          	sub	s2,a5,a4
    1316:	40a90933          	sub	s2,s2,a0

0000131a <.LBE61>:
    131a:	00800537          	lui	a0,0x800
    131e:	00a97533          	and	a0,s2,a0
    1322:	c53d                	beqz	a0,1390 <.L47>

00001324 <.LBB62>:
    1324:	40b609b3          	sub	s3,a2,a1

00001328 <.LVL179>:
    1328:	40f707b3          	sub	a5,a4,a5

0000132c <.LVL180>:
    132c:	01363633          	sltu	a2,a2,s3

00001330 <.LVL181>:
    1330:	40c78933          	sub	s2,a5,a2

00001334 <.LBE62>:
    1334:	84b6                	mv	s1,a3

00001336 <.L48>:
    1336:	06090363          	beqz	s2,139c <.L49>
    133a:	854a                	mv	a0,s2
    133c:	2c49                	jal	15ce <__clzsi2>

0000133e <.L50>:
    133e:	ff850713          	addi	a4,a0,-8 # 7ffff8 <.LC0+0x7fbea8>

00001342 <.LVL185>:
    1342:	47fd                	li	a5,31
    1344:	06e7c163          	blt	a5,a4,13a6 <.L51>
    1348:	02000793          	li	a5,32
    134c:	8f99                	sub	a5,a5,a4
    134e:	00e91933          	sll	s2,s2,a4

00001352 <.LVL186>:
    1352:	00f9d7b3          	srl	a5,s3,a5
    1356:	0127e7b3          	or	a5,a5,s2

0000135a <.LVL187>:
    135a:	00e995b3          	sll	a1,s3,a4

0000135e <.L52>:
    135e:	06874e63          	blt	a4,s0,13da <.L53>
    1362:	8f01                	sub	a4,a4,s0

00001364 <.LVL189>:
    1364:	00170693          	addi	a3,a4,1 # ff800001 <.LC0+0xff7fbeb1>

00001368 <.LVL190>:
    1368:	467d                	li	a2,31
    136a:	04d64463          	blt	a2,a3,13b2 <.L54>
    136e:	02000713          	li	a4,32
    1372:	8f15                	sub	a4,a4,a3
    1374:	00e79633          	sll	a2,a5,a4
    1378:	00d5d533          	srl	a0,a1,a3
    137c:	00e595b3          	sll	a1,a1,a4

00001380 <.LVL191>:
    1380:	8e49                	or	a2,a2,a0
    1382:	00b035b3          	snez	a1,a1
    1386:	8dd1                	or	a1,a1,a2

00001388 <.LVL192>:
    1388:	00d7d7b3          	srl	a5,a5,a3

0000138c <.L119>:
    138c:	4401                	li	s0,0

0000138e <.LVL194>:
    138e:	bb19                	j	10a4 <.L56>

00001390 <.L47>:
    1390:	0129e5b3          	or	a1,s3,s2

00001394 <.LVL196>:
    1394:	f1cd                	bnez	a1,1336 <.L48>
    1396:	4781                	li	a5,0

00001398 <.LVL197>:
    1398:	4401                	li	s0,0

0000139a <.LVL198>:
    139a:	a8d1                	j	146e <.L121>

0000139c <.L49>:
    139c:	854e                	mv	a0,s3
    139e:	2c05                	jal	15ce <__clzsi2>

000013a0 <.LVL200>:
    13a0:	02050513          	addi	a0,a0,32
    13a4:	bf69                	j	133e <.L50>

000013a6 <.L51>:
    13a6:	fd850793          	addi	a5,a0,-40
    13aa:	00f997b3          	sll	a5,s3,a5

000013ae <.LVL203>:
    13ae:	4581                	li	a1,0
    13b0:	b77d                	j	135e <.L52>

000013b2 <.L54>:
    13b2:	1705                	addi	a4,a4,-31
    13b4:	02000613          	li	a2,32
    13b8:	00e7d733          	srl	a4,a5,a4
    13bc:	4501                	li	a0,0
    13be:	00c68763          	beq	a3,a2,13cc <.L55>
    13c2:	04000513          	li	a0,64
    13c6:	8d15                	sub	a0,a0,a3
    13c8:	00a79533          	sll	a0,a5,a0

000013cc <.L55>:
    13cc:	8d4d                	or	a0,a0,a1
    13ce:	00a03533          	snez	a0,a0
    13d2:	00a765b3          	or	a1,a4,a0

000013d6 <.LVL205>:
    13d6:	4781                	li	a5,0
    13d8:	bf55                	j	138c <.L119>

000013da <.L53>:
    13da:	8c19                	sub	s0,s0,a4
    13dc:	ff800737          	lui	a4,0xff800

000013e0 <.LVL208>:
    13e0:	177d                	addi	a4,a4,-1
    13e2:	8ff9                	and	a5,a5,a4
    13e4:	b1c1                	j	10a4 <.L56>

000013e6 <.L63>:
    13e6:	87ba                	mv	a5,a4

000013e8 <.LVL211>:
    13e8:	85b2                	mv	a1,a2

000013ea <.LBB94>:
    13ea:	842a                	mv	s0,a0

000013ec <.LVL213>:
    13ec:	b965                	j	10a4 <.L56>

000013ee <.L67>:
    13ee:	87ba                	mv	a5,a4

000013f0 <.LVL215>:
    13f0:	85b2                	mv	a1,a2

000013f2 <.LVL216>:
    13f2:	b94d                	j	10a4 <.L56>

000013f4 <.L71>:
    13f4:	7ff00413          	li	s0,2047

000013f8 <.L72>:
    13f8:	4781                	li	a5,0
    13fa:	4581                	li	a1,0

000013fc <.L57>:
    13fc:	00800737          	lui	a4,0x800
    1400:	8f7d                	and	a4,a4,a5
    1402:	cb11                	beqz	a4,1416 <.L58>

00001404 <.LVL220>:
    1404:	0405                	addi	s0,s0,1

00001406 <.LVL221>:
    1406:	7ff00713          	li	a4,2047
    140a:	06e40b63          	beq	s0,a4,1480 <.L86>
    140e:	ff800737          	lui	a4,0xff800
    1412:	177d                	addi	a4,a4,-1
    1414:	8ff9                	and	a5,a5,a4

00001416 <.L58>:
    1416:	01d79713          	slli	a4,a5,0x1d
    141a:	0035d513          	srli	a0,a1,0x3
    141e:	8d59                	or	a0,a0,a4

00001420 <.LVL223>:
    1420:	7ff00713          	li	a4,2047
    1424:	838d                	srli	a5,a5,0x3
    1426:	00e41963          	bne	s0,a4,1438 <.L59>

0000142a <.LVL225>:
    142a:	8d5d                	or	a0,a0,a5

0000142c <.LVL226>:
    142c:	4781                	li	a5,0

0000142e <.LVL227>:
    142e:	c509                	beqz	a0,1438 <.L59>
    1430:	000807b7          	lui	a5,0x80
    1434:	4501                	li	a0,0
    1436:	4481                	li	s1,0

00001438 <.L59>:
    1438:	01441713          	slli	a4,s0,0x14
    143c:	7ff006b7          	lui	a3,0x7ff00
    1440:	07b2                	slli	a5,a5,0xc

00001442 <.LBE98>:
    1442:	40f2                	lw	ra,28(sp)
    1444:	4462                	lw	s0,24(sp)

00001446 <.LBB99>:
    1446:	8f75                	and	a4,a4,a3
    1448:	83b1                	srli	a5,a5,0xc
    144a:	04fe                	slli	s1,s1,0x1f

0000144c <.LVL230>:
    144c:	8fd9                	or	a5,a5,a4
    144e:	0097e733          	or	a4,a5,s1

00001452 <.LBE99>:
    1452:	4942                	lw	s2,16(sp)
    1454:	44d2                	lw	s1,20(sp)
    1456:	49b2                	lw	s3,12(sp)
    1458:	85ba                	mv	a1,a4
    145a:	6105                	addi	sp,sp,32
    145c:	8082                	ret

0000145e <.L73>:
    145e:	8442                	mv	s0,a6

00001460 <.LVL233>:
    1460:	b191                	j	10a4 <.L56>

00001462 <.L76>:
    1462:	87ba                	mv	a5,a4

00001464 <.LVL235>:
    1464:	85b2                	mv	a1,a2

00001466 <.LBB102>:
    1466:	842a                	mv	s0,a0

00001468 <.LVL237>:
    1468:	b5a9                	j	12b2 <.L118>

0000146a <.L80>:
    146a:	4781                	li	a5,0

0000146c <.LVL239>:
    146c:	4581                	li	a1,0

0000146e <.L121>:
    146e:	4481                	li	s1,0

00001470 <.LVL241>:
    1470:	b771                	j	13fc <.L57>

00001472 <.L81>:
    1472:	4781                	li	a5,0

00001474 <.LVL243>:
    1474:	bfed                	j	146e <.L121>

00001476 <.L82>:
    1476:	4581                	li	a1,0

00001478 <.LVL245>:
    1478:	4481                	li	s1,0

0000147a <.LVL246>:
    147a:	004007b7          	lui	a5,0x400

0000147e <.LVL247>:
    147e:	b999                	j	10d4 <.L120>

00001480 <.L86>:
    1480:	4781                	li	a5,0

00001482 <.LVL249>:
    1482:	4581                	li	a1,0

00001484 <.LVL250>:
    1484:	bf49                	j	1416 <.L58>

00001486 <__fixdfsi>:
    1486:	0145d713          	srli	a4,a1,0x14
    148a:	001006b7          	lui	a3,0x100
    148e:	fff68793          	addi	a5,a3,-1 # fffff <.LC0+0xfbeaf>
    1492:	7ff77713          	andi	a4,a4,2047

00001496 <.LBE2>:
    1496:	3fe00613          	li	a2,1022

0000149a <.LBB3>:
    149a:	8fed                	and	a5,a5,a1

0000149c <.LVL1>:
    149c:	81fd                	srli	a1,a1,0x1f

0000149e <.LBE3>:
    149e:	04e65463          	bge	a2,a4,14e6 <.L6>
    14a2:	41d00613          	li	a2,1053
    14a6:	00e65863          	bge	a2,a4,14b6 <.L3>

000014aa <.LVL3>:
    14aa:	80000537          	lui	a0,0x80000

000014ae <.LVL4>:
    14ae:	fff54513          	not	a0,a0
    14b2:	952e                	add	a0,a0,a1

000014b4 <.LVL5>:
    14b4:	8082                	ret

000014b6 <.L3>:
    14b6:	8fd5                	or	a5,a5,a3
    14b8:	43300693          	li	a3,1075
    14bc:	8e99                	sub	a3,a3,a4
    14be:	467d                	li	a2,31
    14c0:	00d64d63          	blt	a2,a3,14da <.L4>

000014c4 <.LVL8>:
    14c4:	bed70713          	addi	a4,a4,-1043 # ff7ffbed <.LC0+0xff7fba9d>

000014c8 <.LVL9>:
    14c8:	00e797b3          	sll	a5,a5,a4

000014cc <.LVL10>:
    14cc:	00d55533          	srl	a0,a0,a3

000014d0 <.LVL11>:
    14d0:	8d5d                	or	a0,a0,a5

000014d2 <.L5>:
    14d2:	c999                	beqz	a1,14e8 <.L2>
    14d4:	40a00533          	neg	a0,a0

000014d8 <.LVL13>:
    14d8:	8082                	ret

000014da <.L4>:
    14da:	41300513          	li	a0,1043

000014de <.LVL15>:
    14de:	8d19                	sub	a0,a0,a4
    14e0:	00a7d533          	srl	a0,a5,a0

000014e4 <.LVL16>:
    14e4:	b7fd                	j	14d2 <.L5>

000014e6 <.L6>:
    14e6:	4501                	li	a0,0

000014e8 <.L2>:
    14e8:	8082                	ret

000014ea <__floatsidf>:
    14ea:	1141                	addi	sp,sp,-16
    14ec:	c606                	sw	ra,12(sp)
    14ee:	c422                	sw	s0,8(sp)
    14f0:	c226                	sw	s1,4(sp)

000014f2 <.LBB10>:
    14f2:	cd21                	beqz	a0,154a <.L5>

000014f4 <.LBB3>:
    14f4:	41f55793          	srai	a5,a0,0x1f
    14f8:	00a7c433          	xor	s0,a5,a0
    14fc:	8c1d                	sub	s0,s0,a5
    14fe:	01f55493          	srli	s1,a0,0x1f

00001502 <.LBB4>:
    1502:	8522                	mv	a0,s0

00001504 <.LVL3>:
    1504:	20e9                	jal	15ce <__clzsi2>

00001506 <.LVL4>:
    1506:	41e00713          	li	a4,1054

0000150a <.LBE4>:
    150a:	47a9                	li	a5,10

0000150c <.LBB5>:
    150c:	8f09                	sub	a4,a4,a0

0000150e <.LBE5>:
    150e:	02a7c863          	blt	a5,a0,153e <.L4>
    1512:	47ad                	li	a5,11
    1514:	8f89                	sub	a5,a5,a0
    1516:	0555                	addi	a0,a0,21

00001518 <.LVL6>:
    1518:	00f457b3          	srl	a5,s0,a5

0000151c <.LVL7>:
    151c:	00a41433          	sll	s0,s0,a0

00001520 <.LVL8>:
    1520:	8526                	mv	a0,s1

00001522 <.L2>:
    1522:	07b2                	slli	a5,a5,0xc

00001524 <.LVL10>:
    1524:	0752                	slli	a4,a4,0x14

00001526 <.LVL11>:
    1526:	83b1                	srli	a5,a5,0xc
    1528:	057e                	slli	a0,a0,0x1f

0000152a <.LVL12>:
    152a:	8fd9                	or	a5,a5,a4

0000152c <.LBE11>:
    152c:	40b2                	lw	ra,12(sp)

0000152e <.LBB12>:
    152e:	00a7e733          	or	a4,a5,a0

00001532 <.LBE12>:
    1532:	8522                	mv	a0,s0
    1534:	4422                	lw	s0,8(sp)

00001536 <.LVL14>:
    1536:	4492                	lw	s1,4(sp)
    1538:	85ba                	mv	a1,a4
    153a:	0141                	addi	sp,sp,16
    153c:	8082                	ret

0000153e <.L4>:
    153e:	1555                	addi	a0,a0,-11

00001540 <.LVL16>:
    1540:	00a417b3          	sll	a5,s0,a0

00001544 <.LVL17>:
    1544:	8526                	mv	a0,s1

00001546 <.L7>:
    1546:	4401                	li	s0,0
    1548:	bfe9                	j	1522 <.L2>

0000154a <.L5>:
    154a:	4701                	li	a4,0
    154c:	4781                	li	a5,0
    154e:	bfe5                	j	1546 <.L7>

00001550 <__divsi3>:
    1550:	02054e63          	bltz	a0,158c <.L10>
    1554:	0405c363          	bltz	a1,159a <.L11>

00001558 <__udivsi3>:
    1558:	862e                	mv	a2,a1
    155a:	85aa                	mv	a1,a0
    155c:	557d                	li	a0,-1
    155e:	c215                	beqz	a2,1582 <.L5>
    1560:	4685                	li	a3,1
    1562:	00b67863          	bgeu	a2,a1,1572 <.L2>

00001566 <.L1>:
    1566:	00c05663          	blez	a2,1572 <.L2>
    156a:	0606                	slli	a2,a2,0x1
    156c:	0686                	slli	a3,a3,0x1
    156e:	feb66ce3          	bltu	a2,a1,1566 <.L1>

00001572 <.L2>:
    1572:	4501                	li	a0,0

00001574 <.L3>:
    1574:	00c5e463          	bltu	a1,a2,157c <.L4>
    1578:	8d91                	sub	a1,a1,a2
    157a:	8d55                	or	a0,a0,a3

0000157c <.L4>:
    157c:	8285                	srli	a3,a3,0x1
    157e:	8205                	srli	a2,a2,0x1
    1580:	faf5                	bnez	a3,1574 <.L3>

00001582 <.L5>:
    1582:	8082                	ret

00001584 <__umodsi3>:
    1584:	8286                	mv	t0,ra
    1586:	3fc9                	jal	1558 <__udivsi3>
    1588:	852e                	mv	a0,a1
    158a:	8282                	jr	t0

0000158c <.L10>:
    158c:	40a00533          	neg	a0,a0
    1590:	00b04763          	bgtz	a1,159e <.L12>
    1594:	40b005b3          	neg	a1,a1
    1598:	b7c1                	j	1558 <__udivsi3>

0000159a <.L11>:
    159a:	40b005b3          	neg	a1,a1

0000159e <.L12>:
    159e:	8286                	mv	t0,ra
    15a0:	3f65                	jal	1558 <__udivsi3>
    15a2:	40a00533          	neg	a0,a0
    15a6:	8282                	jr	t0

000015a8 <__modsi3>:
    15a8:	8286                	mv	t0,ra
    15aa:	0005c763          	bltz	a1,15b8 <.L31>
    15ae:	00054963          	bltz	a0,15c0 <.L32>

000015b2 <.L30>:
    15b2:	375d                	jal	1558 <__udivsi3>
    15b4:	852e                	mv	a0,a1
    15b6:	8282                	jr	t0

000015b8 <.L31>:
    15b8:	40b005b3          	neg	a1,a1
    15bc:	fe055be3          	bgez	a0,15b2 <.L30>

000015c0 <.L32>:
    15c0:	40a00533          	neg	a0,a0
    15c4:	3f51                	jal	1558 <__udivsi3>
    15c6:	40b00533          	neg	a0,a1
    15ca:	8282                	jr	t0
	...

000015ce <__clzsi2>:
    15ce:	67c1                	lui	a5,0x10
    15d0:	02f57563          	bgeu	a0,a5,15fa <.L2>
    15d4:	0ff00793          	li	a5,255
    15d8:	00a7b7b3          	sltu	a5,a5,a0
    15dc:	078e                	slli	a5,a5,0x3

000015de <.L3>:
    15de:	6711                	lui	a4,0x4
    15e0:	02000693          	li	a3,32
    15e4:	8e9d                	sub	a3,a3,a5
    15e6:	00f55533          	srl	a0,a0,a5

000015ea <.LVL2>:
    15ea:	04070793          	addi	a5,a4,64 # 4040 <__clz_tab>

000015ee <.LVL3>:
    15ee:	953e                	add	a0,a0,a5
    15f0:	00054503          	lbu	a0,0(a0) # 80000000 <.LC0+0x7fffbeb0>

000015f4 <.LBE3>:
    15f4:	40a68533          	sub	a0,a3,a0
    15f8:	8082                	ret

000015fa <.L2>:
    15fa:	01000737          	lui	a4,0x1000
    15fe:	47c1                	li	a5,16
    1600:	fce56fe3          	bltu	a0,a4,15de <.L3>
    1604:	47e1                	li	a5,24
    1606:	bfe1                	j	15de <.L3>

Disassembly of section .text.startup:

00001608 <main>:
    1608:	00004537          	lui	a0,0x4
    160c:	ff010113          	addi	sp,sp,-16
    1610:	14050513          	addi	a0,a0,320 # 4140 <.LC1>
    1614:	00112623          	sw	ra,12(sp)
    1618:	970ff0ef          	jal	ra,788 <my_printf>
    161c:	00c12083          	lw	ra,12(sp)
    1620:	00000513          	li	a0,0
    1624:	01010113          	addi	sp,sp,16
    1628:	00008067          	ret

Disassembly of section .riscv.attributes:

00000000 <.riscv.attributes>:
   0:	2541                	jal	680 <.LASF16+0xf>
   2:	0000                	unimp
   4:	7200                	flw	fs0,32(a2)
   6:	7369                	lui	t1,0xffffa
   8:	01007663          	bgeu	zero,a6,14 <.LASF43>
   c:	0000001b          	0x1b
  10:	1004                	addi	s1,sp,32
  12:	7205                	lui	tp,0xfffe1
  14:	3376                	fld	ft6,376(sp)
  16:	6932                	flw	fs2,12(sp)
  18:	7032                	flw	ft0,44(sp)
  1a:	5f30                	lw	a2,120(a4)
  1c:	326d                	jal	fffff9c6 <.LC0+0xffffb876>
  1e:	3070                	fld	fa2,224(s0)
  20:	635f 7032 0030      	0x307032635f

Disassembly of section .comment:

00000000 <.comment>:
   0:	3a434347          	fmsub.d	ft6,ft6,ft4,ft7,rmm
   4:	2820                	fld	fs0,80(s0)
   6:	29554e47          	fmsub.s	ft8,fa0,fs5,ft5,rmm
   a:	3120                	fld	fs0,96(a0)
   c:	2e30                	fld	fa2,88(a2)
   e:	2e32                	fld	ft8,264(sp)
  10:	0030                	addi	a2,sp,8

Disassembly of section .debug_info:

00000000 <.Ldebug_info0>:
       0:	0251                	addi	tp,tp,20
       2:	0000                	unimp
       4:	0004                	0x4
       6:	0000                	unimp
       8:	0000                	unimp
       a:	0104                	addi	s1,sp,128
       c:	0000009b          	0x9b
      10:	290c                	fld	fa1,16(a0)
      12:	0000                	unimp
      14:	8200                	0x8200
      16:	0001                	nop
      18:	2000                	fld	fs0,0(s0)
      1a:	0009                	c.nop	2
      1c:	6a00                	flw	fs0,16(a2)
      1e:	0000                	unimp
      20:	0000                	unimp
      22:	0000                	unimp
      24:	0200                	addi	s0,sp,256
      26:	0408                	addi	a0,sp,512
      28:	0729                	addi	a4,a4,10
      2a:	0000                	unimp
      2c:	00005503          	lhu	a0,0(zero) # 0 <.Ldebug_info0>
      30:	0200                	addi	s0,sp,256
      32:	0d50                	addi	a2,sp,660
      34:	0038                	addi	a4,sp,8
      36:	0000                	unimp
      38:	0404                	addi	s1,sp,512
      3a:	6905                	lui	s2,0x1
      3c:	746e                	flw	fs0,248(sp)
      3e:	0200                	addi	s0,sp,256
      40:	0601                	addi	a2,a2,0
      42:	001d                	c.nop	7
      44:	0000                	unimp
      46:	0802                	c.slli64	a6
      48:	ed05                	bnez	a0,80 <.LASF11>
      4a:	0001                	nop
      4c:	0200                	addi	s0,sp,256
      4e:	0801                	addi	a6,a6,0
      50:	0000001b          	0x1b
      54:	0402                	c.slli64	s0
      56:	00017507          	0x17507
      5a:	0200                	addi	s0,sp,256
      5c:	0708                	addi	a0,sp,896
      5e:	0000016b          	0x16b
      62:	0202                	c.slli64	tp
      64:	00006807          	0x6807
      68:	0300                	addi	s0,sp,384
      6a:	0014                	0x14
      6c:	0000                	unimp
      6e:	250f4803          	lbu	a6,592(t5)
      72:	0000                	unimp
      74:	0500                	addi	s0,sp,640
      76:	0308                	addi	a0,sp,384
      78:	00bf034f          	fnmadd.s	ft6,ft10,fa1,ft0,rne
      7c:	0000                	unimp
      7e:	0806                	slli	a6,a6,0x1
      80:	0000                	unimp
      82:	0300                	addi	s0,sp,384
      84:	00540e57          	0x540e57
      88:	0000                	unimp
      8a:	2004                	fld	fs1,0(s0)
      8c:	0000                	unimp
      8e:	0e06                	slli	t3,t3,0x1
      90:	0000                	unimp
      92:	0300                	addi	s0,sp,384
      94:	0e58                	addi	a4,sp,788
      96:	0054                	addi	a3,sp,4
      98:	0000                	unimp
      9a:	1404                	addi	s1,sp,544
      9c:	040c                	addi	a1,sp,512
      9e:	70786507          	0x70786507
      a2:	0300                	addi	s0,sp,384
      a4:	0e59                	addi	t3,t3,22
      a6:	0054                	addi	a3,sp,4
      a8:	0000                	unimp
      aa:	0b04                	addi	s1,sp,400
      ac:	0401                	addi	s0,s0,0
      ae:	6306                	flw	ft6,64(sp)
      b0:	0000                	unimp
      b2:	0300                	addi	s0,sp,384
      b4:	0e5a                	slli	t3,t3,0x16
      b6:	0054                	addi	a3,sp,4
      b8:	0000                	unimp
      ba:	0104                	addi	s1,sp,128
      bc:	0400                	addi	s0,sp,512
      be:	0800                	addi	s0,sp,16
      c0:	000001fb          	0x1fb
      c4:	0308                	addi	a0,sp,384
      c6:	074c                	addi	a1,sp,900
      c8:	00e5                	addi	ra,ra,25
      ca:	0000                	unimp
      cc:	6609                	lui	a2,0x2
      ce:	746c                	flw	fa1,108(s0)
      d0:	0300                	addi	s0,sp,384
      d2:	0a4e                	slli	s4,s4,0x13
      d4:	0069                	c.nop	26
      d6:	0000                	unimp
      d8:	070a                	slli	a4,a4,0x2
      da:	0002                	c.slli64	zero
      dc:	0300                	addi	s0,sp,384
      de:	055c                	addi	a5,sp,644
      e0:	0075                	c.nop	29
      e2:	0000                	unimp
      e4:	0b00                	addi	s0,sp,400
      e6:	0000                	unimp
      e8:	0000                	unimp
      ea:	2301                	jal	5ea <.LASF23+0x9>
      ec:	2c01                	jal	2fc <.L27>
      ee:	0000                	unimp
      f0:	2000                	fld	fs0,0(s0)
      f2:	0009                	c.nop	2
      f4:	6a00                	flw	fs0,16(a2)
      f6:	0000                	unimp
      f8:	0100                	addi	s0,sp,128
      fa:	469c                	lw	a5,8(a3)
      fc:	0002                	c.slli64	zero
      fe:	0c00                	addi	s0,sp,528
     100:	0061                	c.nop	24
     102:	2301                	jal	602 <.LASF23+0x21>
     104:	6911                	lui	s2,0x4
     106:	0000                	unimp
     108:	0000                	unimp
     10a:	0000                	unimp
     10c:	0c00                	addi	s0,sp,528
     10e:	0062                	c.slli	zero,0x18
     110:	2301                	jal	610 <.LASF19+0x1>
     112:	0000691b          	0x691b
     116:	2800                	fld	fs0,16(s0)
     118:	0000                	unimp
     11a:	0d00                	addi	s0,sp,656
     11c:	0080                	addi	s0,sp,64
     11e:	0000                	unimp
     120:	2501                	jal	720 <.LASF15+0x4>
     122:	00003803          	0x3803
     126:	0000                	unimp
     128:	0c0d                	addi	s8,s8,3
     12a:	0002                	c.slli64	zero
     12c:	0100                	addi	s0,sp,128
     12e:	0325                	addi	t1,t1,9
     130:	0038                	addi	a4,sp,8
     132:	0000                	unimp
     134:	0e00                	addi	s0,sp,784
     136:	5f41                	li	t5,-16
     138:	26010063          	beqz	sp,398 <.LASF46+0x9>
     13c:	00024603          	lbu	a2,0(tp) # fffe1000 <.LC0+0xfffdceb0>
     140:	0f00                	addi	s0,sp,912
     142:	5f41                	li	t5,-16
     144:	26010073          	0x26010073
     148:	00024603          	lbu	a2,0(tp) # 0 <.Ldebug_info0>
     14c:	0600                	addi	s0,sp,768
     14e:	ff08007b          	0xff08007b
     152:	9f1a                	add	t5,t5,t1
     154:	655f410f          	0x655f410f
     158:	0100                	addi	s0,sp,128
     15a:	0326                	slli	t1,t1,0x9
     15c:	0246                	slli	tp,tp,0x11
     15e:	0000                	unimp
     160:	5e01                	li	t3,-32
     162:	9610                	0x9610
     164:	0000                	unimp
     166:	0100                	addi	s0,sp,128
     168:	0326                	slli	t1,t1,0x9
     16a:	024d                	addi	tp,tp,19
     16c:	0000                	unimp
     16e:	5601                	li	a2,-32
     170:	7b10                	flw	fa2,48(a4)
     172:	0000                	unimp
     174:	0100                	addi	s0,sp,128
     176:	0326                	slli	t1,t1,0x9
     178:	024d                	addi	tp,tp,19
     17a:	0000                	unimp
     17c:	6101                	0x6101
     17e:	420e                	lw	tp,192(sp)
     180:	635f 0100 0327      	0x3270100635f
     186:	0246                	slli	tp,tp,0x11
     188:	0000                	unimp
     18a:	735f420f          	0x735f420f
     18e:	0100                	addi	s0,sp,128
     190:	02460327          	0x2460327
     194:	0000                	unimp
     196:	7d06                	flw	fs10,96(sp)
     198:	0800                	addi	s0,sp,16
     19a:	1aff                	0x1aff
     19c:	0f9f 5f42 0065      	0x655f420f9f
     1a2:	2701                	jal	8a2 <.L95+0x6>
     1a4:	00024603          	lbu	a2,0(tp) # 0 <.Ldebug_info0>
     1a8:	0100                	addi	s0,sp,128
     1aa:	1160                	addi	s0,sp,172
     1ac:	0161                	addi	sp,sp,24
     1ae:	0000                	unimp
     1b0:	2701                	jal	8b0 <.L95+0x14>
     1b2:	00024d03          	lbu	s10,0(tp) # 0 <.Ldebug_info0>
     1b6:	7000                	flw	fs0,32(s0)
     1b8:	0000                	unimp
     1ba:	1000                	addi	s0,sp,32
     1bc:	0166                	slli	sp,sp,0x19
     1be:	0000                	unimp
     1c0:	2701                	jal	8c0 <.L100+0x4>
     1c2:	00024d03          	lbu	s10,0(tp) # 0 <.Ldebug_info0>
     1c6:	0100                	addi	s0,sp,128
     1c8:	0f5f 0072 2801      	0x280100720f5f
     1ce:	00002c0b          	0x2c0b
     1d2:	0100                	addi	s0,sp,128
     1d4:	125a                	slli	tp,tp,0x36
     1d6:	0000                	unimp
     1d8:	0000                	unimp
     1da:	000001eb          	0x1eb
     1de:	00014c13          	xori	s8,sp,0
     1e2:	0100                	addi	s0,sp,128
     1e4:	00bf032b          	0xbf032b
     1e8:	0000                	unimp
     1ea:	1200                	addi	s0,sp,288
     1ec:	0028                	addi	a0,sp,8
     1ee:	0000                	unimp
     1f0:	0201                	addi	tp,tp,0
     1f2:	0000                	unimp
     1f4:	00014c13          	xori	s8,sp,0
     1f8:	0100                	addi	s0,sp,128
     1fa:	032c                	addi	a1,sp,392
     1fc:	000000bf 02131400 	0x2131400000000bf
     204:	0000                	unimp
     206:	00008513          	mv	a0,ra
     20a:	0100                	addi	s0,sp,128
     20c:	032d                	addi	t1,t1,11
     20e:	0038                	addi	a4,sp,8
     210:	0000                	unimp
     212:	1400                	addi	s0,sp,544
     214:	0225                	addi	tp,tp,9
     216:	0000                	unimp
     218:	00008513          	mv	a0,ra
     21c:	0100                	addi	s0,sp,128
     21e:	032d                	addi	t1,t1,11
     220:	0038                	addi	a4,sp,8
     222:	0000                	unimp
     224:	1400                	addi	s0,sp,544
     226:	00000237          	lui	tp,0x0
     22a:	00008513          	mv	a0,ra
     22e:	0100                	addi	s0,sp,128
     230:	032d                	addi	t1,t1,11
     232:	0038                	addi	a4,sp,8
     234:	0000                	unimp
     236:	1500                	addi	s0,sp,672
     238:	00008513          	mv	a0,ra
     23c:	0100                	addi	s0,sp,128
     23e:	032d                	addi	t1,t1,11
     240:	0038                	addi	a4,sp,8
     242:	0000                	unimp
     244:	0000                	unimp
     246:	0402                	c.slli64	s0
     248:	f205                	bnez	a2,168 <.LASF16+0x2>
     24a:	0001                	nop
     24c:	0200                	addi	s0,sp,256
     24e:	0704                	addi	s1,sp,896
     250:	0170                	addi	a2,sp,140
     252:	0000                	unimp
	...

00000255 <.Ldebug_info0>:
     255:	0000024f          	fnmadd.s	ft4,ft0,ft0,ft0,rne
     259:	0004                	0x4
     25b:	0000014b          	fnmsub.s	ft2,ft0,ft0,ft0,rne
     25f:	0104                	addi	s1,sp,128
     261:	0000009b          	0x9b
     265:	190c                	addi	a1,sp,176
     267:	0002                	c.slli64	zero
     269:	8200                	0x8200
     26b:	0001                	nop
     26d:	8a00                	0x8a00
     26f:	0009                	c.nop	2
     271:	a600                	fsd	fs0,8(a2)
     273:	0000                	unimp
     275:	4a00                	lw	s0,16(a2)
     277:	0002                	c.slli64	zero
     279:	0200                	addi	s0,sp,256
     27b:	0408                	addi	a0,sp,512
     27d:	0729                	addi	a4,a4,10
     27f:	0000                	unimp
     281:	00005503          	lhu	a0,0(zero) # 0 <.Ldebug_info0>
     285:	0200                	addi	s0,sp,256
     287:	0d50                	addi	a2,sp,660
     289:	0038                	addi	a4,sp,8
     28b:	0000                	unimp
     28d:	0404                	addi	s1,sp,512
     28f:	6905                	lui	s2,0x1
     291:	746e                	flw	fs0,248(sp)
     293:	0200                	addi	s0,sp,256
     295:	0601                	addi	a2,a2,0
     297:	001d                	c.nop	7
     299:	0000                	unimp
     29b:	0802                	c.slli64	a6
     29d:	ed05                	bnez	a0,2d5 <.L26+0x11>
     29f:	0001                	nop
     2a1:	0200                	addi	s0,sp,256
     2a3:	0801                	addi	a6,a6,0
     2a5:	0000001b          	0x1b
     2a9:	0402                	c.slli64	s0
     2ab:	00017507          	0x17507
     2af:	0200                	addi	s0,sp,256
     2b1:	0708                	addi	a0,sp,896
     2b3:	0000016b          	0x16b
     2b7:	0202                	c.slli64	tp
     2b9:	00006807          	0x6807
     2bd:	0300                	addi	s0,sp,384
     2bf:	0014                	0x14
     2c1:	0000                	unimp
     2c3:	250f4803          	lbu	a6,592(t5)
     2c7:	0000                	unimp
     2c9:	0500                	addi	s0,sp,640
     2cb:	0308                	addi	a0,sp,384
     2cd:	00bf034f          	fnmadd.s	ft6,ft10,fa1,ft0,rne
     2d1:	0000                	unimp
     2d3:	0806                	slli	a6,a6,0x1
     2d5:	0000                	unimp
     2d7:	0300                	addi	s0,sp,384
     2d9:	00540e57          	0x540e57
     2dd:	0000                	unimp
     2df:	2004                	fld	fs1,0(s0)
     2e1:	0000                	unimp
     2e3:	0e06                	slli	t3,t3,0x1
     2e5:	0000                	unimp
     2e7:	0300                	addi	s0,sp,384
     2e9:	0e58                	addi	a4,sp,788
     2eb:	0054                	addi	a3,sp,4
     2ed:	0000                	unimp
     2ef:	1404                	addi	s1,sp,544
     2f1:	040c                	addi	a1,sp,512
     2f3:	70786507          	0x70786507
     2f7:	0300                	addi	s0,sp,384
     2f9:	0e59                	addi	t3,t3,22
     2fb:	0054                	addi	a3,sp,4
     2fd:	0000                	unimp
     2ff:	0b04                	addi	s1,sp,400
     301:	0401                	addi	s0,s0,0
     303:	6306                	flw	ft6,64(sp)
     305:	0000                	unimp
     307:	0300                	addi	s0,sp,384
     309:	0e5a                	slli	t3,t3,0x16
     30b:	0054                	addi	a3,sp,4
     30d:	0000                	unimp
     30f:	0104                	addi	s1,sp,128
     311:	0400                	addi	s0,sp,512
     313:	0800                	addi	s0,sp,16
     315:	000001fb          	0x1fb
     319:	0308                	addi	a0,sp,384
     31b:	074c                	addi	a1,sp,900
     31d:	00e5                	addi	ra,ra,25
     31f:	0000                	unimp
     321:	6609                	lui	a2,0x2
     323:	746c                	flw	fa1,108(s0)
     325:	0300                	addi	s0,sp,384
     327:	0a4e                	slli	s4,s4,0x13
     329:	0069                	c.nop	26
     32b:	0000                	unimp
     32d:	070a                	slli	a4,a4,0x2
     32f:	0002                	c.slli64	zero
     331:	0300                	addi	s0,sp,384
     333:	055c                	addi	a5,sp,644
     335:	0075                	c.nop	29
     337:	0000                	unimp
     339:	0b00                	addi	s0,sp,400
     33b:	0211                	addi	tp,tp,4
     33d:	0000                	unimp
     33f:	2301                	jal	83f <.L91+0x1f>
     341:	2c01                	jal	551 <.Ldebug_ranges0+0x9>
     343:	0000                	unimp
     345:	8a00                	0x8a00
     347:	0009                	c.nop	2
     349:	a600                	fsd	fs0,8(a2)
     34b:	0000                	unimp
     34d:	0100                	addi	s0,sp,128
     34f:	449c                	lw	a5,8(s1)
     351:	0002                	c.slli64	zero
     353:	0c00                	addi	s0,sp,528
     355:	0061                	c.nop	24
     357:	2301                	jal	857 <.L91+0x37>
     359:	6911                	lui	s2,0x4
     35b:	0000                	unimp
     35d:	a400                	fsd	fs0,8(s0)
     35f:	0000                	unimp
     361:	0c00                	addi	s0,sp,528
     363:	0062                	c.slli	zero,0x18
     365:	2301                	jal	865 <.L91+0x45>
     367:	0000691b          	0x691b
     36b:	cc00                	sw	s0,24(s0)
     36d:	0000                	unimp
     36f:	0d00                	addi	s0,sp,656
     371:	0080                	addi	s0,sp,64
     373:	0000                	unimp
     375:	2501                	jal	975 <.L5+0xd>
     377:	00003803          	0x3803
     37b:	0000                	unimp
     37d:	0c0d                	addi	s8,s8,3
     37f:	0002                	c.slli64	zero
     381:	0100                	addi	s0,sp,128
     383:	0325                	addi	t1,t1,9
     385:	0038                	addi	a4,sp,8
     387:	0000                	unimp
     389:	0e00                	addi	s0,sp,784
     38b:	5f41                	li	t5,-16
     38d:	26010063          	beqz	sp,5ed <.LASF23+0xc>
     391:	00024403          	lbu	s0,0(tp) # 0 <.Ldebug_info0>
     395:	0f00                	addi	s0,sp,912
     397:	5f41                	li	t5,-16
     399:	26010073          	0x26010073
     39d:	00024403          	lbu	s0,0(tp) # 0 <.Ldebug_info0>
     3a1:	0400                	addi	s0,sp,512
     3a3:	0001                	nop
     3a5:	1000                	addi	s0,sp,32
     3a7:	5f41                	li	t5,-16
     3a9:	0065                	c.nop	25
     3ab:	2601                	jal	6ab <.LASF31+0x1a>
     3ad:	00024403          	lbu	s0,0(tp) # 0 <.Ldebug_info0>
     3b1:	0100                	addi	s0,sp,128
     3b3:	1160                	addi	s0,sp,172
     3b5:	0096                	slli	ra,ra,0x5
     3b7:	0000                	unimp
     3b9:	2601                	jal	6b9 <.L82+0xd>
     3bb:	00024b03          	lbu	s6,0(tp) # 0 <.Ldebug_info0>
     3bf:	0100                	addi	s0,sp,128
     3c1:	1156                	slli	sp,sp,0x35
     3c3:	0000007b          	0x7b
     3c7:	2601                	jal	6c7 <.L82+0x1b>
     3c9:	00024b03          	lbu	s6,0(tp) # 0 <.Ldebug_info0>
     3cd:	0100                	addi	s0,sp,128
     3cf:	0e61                	addi	t3,t3,24
     3d1:	5f42                	lw	t5,48(sp)
     3d3:	27010063          	beq	sp,a6,633 <.LASF12+0x6>
     3d7:	00024403          	lbu	s0,0(tp) # 0 <.Ldebug_info0>
     3db:	1000                	addi	s0,sp,32
     3dd:	5f42                	lw	t5,48(sp)
     3df:	27010073          	0x27010073
     3e3:	00024403          	lbu	s0,0(tp) # 0 <.Ldebug_info0>
     3e7:	0100                	addi	s0,sp,128
     3e9:	105d                	c.nop	-9
     3eb:	5f42                	lw	t5,48(sp)
     3ed:	0065                	c.nop	25
     3ef:	2701                	jal	aef <.LVL23+0x1>
     3f1:	00024403          	lbu	s0,0(tp) # 0 <.Ldebug_info0>
     3f5:	0100                	addi	s0,sp,128
     3f7:	0161125b          	0x161125b
     3fb:	0000                	unimp
     3fd:	2701                	jal	afd <.LVL23+0xf>
     3ff:	00024b03          	lbu	s6,0(tp) # 0 <.Ldebug_info0>
     403:	5900                	lw	s0,48(a0)
     405:	0001                	nop
     407:	1100                	addi	s0,sp,160
     409:	0166                	slli	sp,sp,0x19
     40b:	0000                	unimp
     40d:	2701                	jal	b0d <.L8+0x3>
     40f:	00024b03          	lbu	s6,0(tp) # 0 <.Ldebug_info0>
     413:	0100                	addi	s0,sp,128
     415:	105e                	c.slli	zero,0x37
     417:	0072                	c.slli	zero,0x1c
     419:	2801                	jal	429 <.LASF27>
     41b:	00002c0b          	0x2c0b
     41f:	0100                	addi	s0,sp,128
     421:	135a                	slli	t1,t1,0x36
     423:	0048                	addi	a0,sp,4
     425:	0000                	unimp
     427:	000001e3          	beqz	zero,c29 <.LVL80+0x1>
     42b:	4c14                	lw	a3,24(s0)
     42d:	0001                	nop
     42f:	0100                	addi	s0,sp,128
     431:	00bf032b          	0xbf032b
     435:	0000                	unimp
     437:	1300                	addi	s0,sp,416
     439:	0060                	addi	s0,sp,12
     43b:	0000                	unimp
     43d:	01f9                	addi	gp,gp,30
     43f:	0000                	unimp
     441:	4c14                	lw	a3,24(s0)
     443:	0001                	nop
     445:	0100                	addi	s0,sp,128
     447:	032c                	addi	a1,sp,392
     449:	000000bf 020b1500 	0x20b1500000000bf
     451:	0000                	unimp
     453:	8514                	0x8514
     455:	0000                	unimp
     457:	0100                	addi	s0,sp,128
     459:	032d                	addi	t1,t1,11
     45b:	0038                	addi	a4,sp,8
     45d:	0000                	unimp
     45f:	1500                	addi	s0,sp,672
     461:	021d                	addi	tp,tp,7
     463:	0000                	unimp
     465:	8514                	0x8514
     467:	0000                	unimp
     469:	0100                	addi	s0,sp,128
     46b:	032d                	addi	t1,t1,11
     46d:	0038                	addi	a4,sp,8
     46f:	0000                	unimp
     471:	1600                	addi	s0,sp,800
     473:	0078                	addi	a4,sp,12
     475:	0000                	unimp
     477:	4512                	lw	a0,4(sp)
     479:	0002                	c.slli64	zero
     47b:	0100                	addi	s0,sp,128
     47d:	032d                	addi	t1,t1,11
     47f:	0038                	addi	a4,sp,8
     481:	0000                	unimp
     483:	0182                	c.slli64	gp
     485:	0000                	unimp
     487:	5712                	lw	a4,36(sp)
     489:	0002                	c.slli64	zero
     48b:	0100                	addi	s0,sp,128
     48d:	032d                	addi	t1,t1,11
     48f:	0038                	addi	a4,sp,8
     491:	0000                	unimp
     493:	01a1                	addi	gp,gp,8
     495:	0000                	unimp
     497:	0000                	unimp
     499:	0402                	c.slli64	s0
     49b:	f205                	bnez	a2,3bb <.LASF26+0x15>
     49d:	0001                	nop
     49f:	0200                	addi	s0,sp,256
     4a1:	0704                	addi	s1,sp,896
     4a3:	0170                	addi	a2,sp,140
     4a5:	0000                	unimp
	...

000004a8 <.Ldebug_info0>:
     4a8:	0762                	slli	a4,a4,0x18
     4aa:	0000                	unimp
     4ac:	0004                	0x4
     4ae:	02a9                	addi	t0,t0,10
     4b0:	0000                	unimp
     4b2:	0104                	addi	s1,sp,128
     4b4:	0000009b          	0x9b
     4b8:	0f0c                	addi	a1,sp,912
     4ba:	82000003          	lb	zero,-2016(zero) # fffff820 <.LC0+0xffffb6d0>
     4be:	0001                	nop
     4c0:	3000                	fld	fs0,32(s0)
     4c2:	000a                	c.slli	zero,0x2
     4c4:	3e00                	fld	fs0,56(a2)
     4c6:	0004                	0x4
     4c8:	2900                	fld	fs0,16(a0)
     4ca:	0005                	c.nop	1
     4cc:	0200                	addi	s0,sp,256
     4ce:	0408                	addi	a0,sp,512
     4d0:	0729                	addi	a4,a4,10
     4d2:	0000                	unimp
     4d4:	69050403          	lb	s0,1680(a0)
     4d8:	746e                	flw	fs0,248(sp)
     4da:	0200                	addi	s0,sp,256
     4dc:	0601                	addi	a2,a2,0
     4de:	001d                	c.nop	7
     4e0:	0000                	unimp
     4e2:	0802                	c.slli64	a6
     4e4:	ed05                	bnez	a0,51c <.LASF30+0x7>
     4e6:	0001                	nop
     4e8:	0200                	addi	s0,sp,256
     4ea:	0801                	addi	a6,a6,0
     4ec:	0000001b          	0x1b
     4f0:	0402                	c.slli64	s0
     4f2:	00017507          	0x17507
     4f6:	0200                	addi	s0,sp,256
     4f8:	0708                	addi	a0,sp,896
     4fa:	0000016b          	0x16b
     4fe:	a304                	fsd	fs1,0(a4)
     500:	0002                	c.slli64	zero
     502:	0200                	addi	s0,sp,256
     504:	014e                	slli	sp,sp,0x13
     506:	6316                	flw	ft6,68(sp)
     508:	0000                	unimp
     50a:	0200                	addi	s0,sp,256
     50c:	0702                	c.slli64	a4
     50e:	0068                	addi	a0,sp,12
     510:	0000                	unimp
     512:	1405                	addi	s0,s0,-31
     514:	0000                	unimp
     516:	0300                	addi	s0,sp,384
     518:	0f48                	addi	a0,sp,916
     51a:	0025                	c.nop	9
     51c:	0000                	unimp
     51e:	0806                	slli	a6,a6,0x1
     520:	c0034f03          	lbu	t5,-1024(t1) # ffff9c00 <.LC0+0xffff5ab0>
     524:	0000                	unimp
     526:	0700                	addi	s0,sp,896
     528:	0008                	0x8
     52a:	0000                	unimp
     52c:	480e5703          	lhu	a4,1152(t3)
     530:	0000                	unimp
     532:	0400                	addi	s0,sp,512
     534:	0020                	addi	s0,sp,8
     536:	0700                	addi	s0,sp,896
     538:	000e                	c.slli	zero,0x3
     53a:	0000                	unimp
     53c:	480e5803          	lhu	a6,1152(t3)
     540:	0000                	unimp
     542:	0400                	addi	s0,sp,512
     544:	0c14                	addi	a3,sp,528
     546:	0804                	addi	s1,sp,16
     548:	7865                	lui	a6,0xffff9
     54a:	0070                	addi	a2,sp,12
     54c:	480e5903          	lhu	s2,1152(t3)
     550:	0000                	unimp
     552:	0400                	addi	s0,sp,512
     554:	0704010b          	0x704010b
     558:	00000063          	beqz	zero,558 <.Ldebug_ranges0+0x10>
     55c:	480e5a03          	lhu	s4,1152(t3)
     560:	0000                	unimp
     562:	0400                	addi	s0,sp,512
     564:	0001                	nop
     566:	0004                	0x4
     568:	fb09                	bnez	a4,47a <.LASF36+0x5>
     56a:	0001                	nop
     56c:	0800                	addi	s0,sp,16
     56e:	e6074c03          	lbu	s8,-416(a4) # fffe60 <.LC0+0xffbd10>
     572:	0000                	unimp
     574:	0a00                	addi	s0,sp,272
     576:	6c66                	flw	fs8,88(sp)
     578:	0074                	addi	a3,sp,12
     57a:	6a0a4e03          	lbu	t3,1696(s4)
     57e:	0000                	unimp
     580:	0b00                	addi	s0,sp,400
     582:	00000207          	0x207
     586:	76055c03          	lhu	s8,1888(a0)
     58a:	0000                	unimp
     58c:	0000                	unimp
     58e:	200c                	fld	fa1,0(s0)
     590:	0004                	0x4
     592:	0100                	addi	s0,sp,128
     594:	006a0123          	sb	t1,2(s4)
     598:	0000                	unimp
     59a:	0a30                	addi	a2,sp,280
     59c:	0000                	unimp
     59e:	043e                	slli	s0,s0,0xf
     5a0:	0000                	unimp
     5a2:	9c01                	0x9c01
     5a4:	073e                	slli	a4,a4,0xf
     5a6:	0000                	unimp
     5a8:	610d                	addi	sp,sp,160
     5aa:	0100                	addi	s0,sp,128
     5ac:	006a1223          	sh	t1,4(s4)
     5b0:	0000                	unimp
     5b2:	01d9                	addi	gp,gp,22
     5b4:	0000                	unimp
     5b6:	620d                	lui	tp,0x3
     5b8:	0100                	addi	s0,sp,128
     5ba:	006a1c23          	sh	t1,24(s4)
     5be:	0000                	unimp
     5c0:	0261                	addi	tp,tp,24
     5c2:	0000                	unimp
     5c4:	800e                	c.mv	zero,gp
     5c6:	0000                	unimp
     5c8:	0100                	addi	s0,sp,128
     5ca:	0325                	addi	t1,t1,9
     5cc:	002c                	addi	a1,sp,8
     5ce:	0000                	unimp
     5d0:	02e9                	addi	t0,t0,26
     5d2:	0000                	unimp
     5d4:	00020c0f          	0x20c0f
     5d8:	0100                	addi	s0,sp,128
     5da:	0325                	addi	t1,t1,9
     5dc:	002c                	addi	a1,sp,8
     5de:	0000                	unimp
     5e0:	1000                	addi	s0,sp,32
     5e2:	5f41                	li	t5,-16
     5e4:	26010063          	beqz	sp,844 <.L91+0x24>
     5e8:	00073e03          	0x73e03
     5ec:	0900                	addi	s0,sp,144
     5ee:	10000003          	lb	zero,256(zero) # 100 <printf_deci.part.0+0xc>
     5f2:	5f41                	li	t5,-16
     5f4:	26010073          	0x26010073
     5f8:	00073e03          	0x73e03
     5fc:	3e00                	fld	fs0,56(a2)
     5fe:	10000003          	lb	zero,256(zero) # 100 <printf_deci.part.0+0xc>
     602:	5f41                	li	t5,-16
     604:	0065                	c.nop	25
     606:	2601                	jal	906 <.L96+0xe>
     608:	00073e03          	0x73e03
     60c:	6600                	flw	fs0,8(a2)
     60e:	0e000003          	lb	zero,224(zero) # e0 <.LLST1+0x14>
     612:	0096                	slli	ra,ra,0x5
     614:	0000                	unimp
     616:	2601                	jal	916 <.L111+0x2>
     618:	00074503          	lbu	a0,0(a4)
     61c:	3300                	fld	fs0,32(a4)
     61e:	0004                	0x4
     620:	0e00                	addi	s0,sp,784
     622:	0000007b          	0x7b
     626:	2601                	jal	926 <__eqdf2+0x6>
     628:	00074503          	lbu	a0,0(a4)
     62c:	b500                	fsd	fs0,40(a0)
     62e:	0004                	0x4
     630:	1000                	addi	s0,sp,32
     632:	5f42                	lw	t5,48(sp)
     634:	27010063          	beq	sp,a6,894 <.LLST16+0x12>
     638:	00073e03          	0x73e03
     63c:	6800                	flw	fs0,16(s0)
     63e:	0005                	c.nop	1
     640:	1000                	addi	s0,sp,32
     642:	5f42                	lw	t5,48(sp)
     644:	27010073          	0x27010073
     648:	00073e03          	0x73e03
     64c:	a800                	fsd	fs0,16(s0)
     64e:	0005                	c.nop	1
     650:	1000                	addi	s0,sp,32
     652:	5f42                	lw	t5,48(sp)
     654:	0065                	c.nop	25
     656:	2701                	jal	d56 <.LLST49+0x6>
     658:	00073e03          	0x73e03
     65c:	e000                	fsw	fs0,0(s0)
     65e:	0005                	c.nop	1
     660:	0e00                	addi	s0,sp,784
     662:	0161                	addi	sp,sp,24
     664:	0000                	unimp
     666:	2701                	jal	d66 <.LLST50+0x3>
     668:	00074503          	lbu	a0,0(a4)
     66c:	6b00                	flw	fs0,16(a4)
     66e:	0006                	c.slli	zero,0x1
     670:	0e00                	addi	s0,sp,784
     672:	0166                	slli	sp,sp,0x19
     674:	0000                	unimp
     676:	2701                	jal	d76 <.LLST51>
     678:	00074503          	lbu	a0,0(a4)
     67c:	e200                	fsw	fs0,0(a2)
     67e:	0006                	c.slli	zero,0x1
     680:	1000                	addi	s0,sp,32
     682:	5f52                	lw	t5,52(sp)
     684:	28010063          	beqz	sp,904 <.L96+0xc>
     688:	00073e03          	0x73e03
     68c:	5e00                	lw	s0,56(a2)
     68e:	10000007          	0x10000007
     692:	5f52                	lw	t5,52(sp)
     694:	28010073          	0x28010073
     698:	00073e03          	0x73e03
     69c:	8900                	0x8900
     69e:	10000007          	0x10000007
     6a2:	5f52                	lw	t5,52(sp)
     6a4:	0065                	c.nop	25
     6a6:	2801                	jal	6b6 <.L82+0xa>
     6a8:	00073e03          	0x73e03
     6ac:	f300                	fsw	fs0,32(a4)
     6ae:	0e000007          	0xe000007
     6b2:	03f5                	addi	t2,t2,29
     6b4:	0000                	unimp
     6b6:	2801                	jal	6c6 <.L82+0x1a>
     6b8:	00074503          	lbu	a0,0(a4)
     6bc:	8200                	0x8200
     6be:	0008                	0x8
     6c0:	0e00                	addi	s0,sp,784
     6c2:	04c0                	addi	s0,sp,580
     6c4:	0000                	unimp
     6c6:	2801                	jal	6d6 <.L82+0x2a>
     6c8:	00074503          	lbu	a0,0(a4)
     6cc:	8600                	0x8600
     6ce:	0009                	c.nop	2
     6d0:	1100                	addi	s0,sp,160
     6d2:	0072                	c.slli	zero,0x1c
     6d4:	2901                	jal	ae4 <.LBB17+0x2>
     6d6:	6a0a                	flw	fs4,128(sp)
     6d8:	0000                	unimp
     6da:	1200                	addi	s0,sp,288
     6dc:	0098                	addi	a4,sp,64
     6de:	0000                	unimp
     6e0:	0249                	addi	tp,tp,18
     6e2:	0000                	unimp
     6e4:	00014c13          	xori	s8,sp,0
     6e8:	0100                	addi	s0,sp,128
     6ea:	032c                	addi	a1,sp,392
     6ec:	00c0                	addi	s0,sp,68
     6ee:	0000                	unimp
     6f0:	1200                	addi	s0,sp,288
     6f2:	00d0                	addi	a2,sp,68
     6f4:	0000                	unimp
     6f6:	0275                	addi	tp,tp,29
     6f8:	0000                	unimp
     6fa:	e10e                	fsw	ft3,128(sp)
     6fc:	0002                	c.slli64	zero
     6fe:	0100                	addi	s0,sp,128
     700:	032c                	addi	a1,sp,392
     702:	073e                	slli	a4,a4,0xf
     704:	0000                	unimp
     706:	000009eb          	0x9eb
     70a:	ea14                	fsw	fa3,16(a2)
     70c:	000a                	c.slli	zero,0x2
     70e:	5c00                	lw	s0,56(s0)
     710:	14000007          	0x14000007
     714:	0b18                	addi	a4,sp,400
     716:	0000                	unimp
     718:	075c                	addi	a5,sp,900
     71a:	0000                	unimp
     71c:	1200                	addi	s0,sp,288
     71e:	00e8                	addi	a0,sp,76
     720:	0000                	unimp
     722:	0000028b          	0x28b
     726:	00014c13          	xori	s8,sp,0
     72a:	0100                	addi	s0,sp,128
     72c:	032d                	addi	t1,t1,11
     72e:	00c0                	addi	s0,sp,68
     730:	0000                	unimp
     732:	1200                	addi	s0,sp,288
     734:	0100                	addi	s0,sp,128
     736:	0000                	unimp
     738:	000002b7          	lui	t0,0x0
     73c:	e10e                	fsw	ft3,128(sp)
     73e:	0002                	c.slli64	zero
     740:	0100                	addi	s0,sp,128
     742:	032d                	addi	t1,t1,11
     744:	073e                	slli	a4,a4,0xf
     746:	0000                	unimp
     748:	0a1f 0000 5c14      	0x5c1400000a1f
     74e:	5c00000b          	0x5c00000b
     752:	14000007          	0x14000007
     756:	0b8c                	addi	a1,sp,464
     758:	0000                	unimp
     75a:	075c                	addi	a5,sp,900
     75c:	0000                	unimp
     75e:	1500                	addi	s0,sp,672
     760:	0bc0                	addi	s0,sp,468
     762:	0000                	unimp
     764:	014c                	addi	a1,sp,132
     766:	0000                	unimp
     768:	000005eb          	0x5eb
     76c:	00045813          	srli	a6,s0,0x0
     770:	0100                	addi	s0,sp,128
     772:	032e                	slli	t1,t1,0xb
     774:	074c                	addi	a1,sp,900
     776:	0000                	unimp
     778:	1812                	slli	a6,a6,0x24
     77a:	0001                	nop
     77c:	7e00                	flw	fs0,56(a2)
     77e:	0005                	c.nop	1
     780:	0e00                	addi	s0,sp,784
     782:	0488                	addi	a0,sp,576
     784:	0000                	unimp
     786:	2e01                	jal	a96 <.LBE11+0x4>
     788:	00074503          	lbu	a0,0(a4)
     78c:	5300                	lw	s0,32(a4)
     78e:	000a                	c.slli	zero,0x2
     790:	0e00                	addi	s0,sp,784
     792:	04a4                	addi	s1,sp,584
     794:	0000                	unimp
     796:	2e01                	jal	aa6 <.LVL12+0x4>
     798:	00074503          	lbu	a0,0(a4)
     79c:	6600                	flw	fs0,8(a2)
     79e:	000a                	c.slli	zero,0x2
     7a0:	0e00                	addi	s0,sp,784
     7a2:	03a6                	slli	t2,t2,0x9
     7a4:	0000                	unimp
     7a6:	2e01                	jal	ab6 <.LLST24+0x1>
     7a8:	00074503          	lbu	a0,0(a4)
     7ac:	8400                	0x8400
     7ae:	000a                	c.slli	zero,0x2
     7b0:	0e00                	addi	s0,sp,784
     7b2:	0429                	addi	s0,s0,10
     7b4:	0000                	unimp
     7b6:	2e01                	jal	ac6 <.LVL18+0x2>
     7b8:	00074503          	lbu	a0,0(a4)
     7bc:	9700                	0x9700
     7be:	000a                	c.slli	zero,0x2
     7c0:	1200                	addi	s0,sp,288
     7c2:	0130                	addi	a2,sp,136
     7c4:	0000                	unimp
     7c6:	000003a3          	sb	zero,7(zero) # 7 <.Ldebug_info0+0x7>
     7ca:	700e                	flw	ft0,224(sp)
     7cc:	0004                	0x4
     7ce:	0100                	addi	s0,sp,128
     7d0:	032e                	slli	t1,t1,0xb
     7d2:	0745                	addi	a4,a4,17
     7d4:	0000                	unimp
     7d6:	0ab5                	addi	s5,s5,13
     7d8:	0000                	unimp
     7da:	eb0e                	fsw	ft3,148(sp)
     7dc:	01000003          	lb	zero,16(zero) # 10 <.LASF10+0x2>
     7e0:	032e                	slli	t1,t1,0xb
     7e2:	0745                	addi	a4,a4,17
     7e4:	0000                	unimp
     7e6:	0ad8                	addi	a4,sp,340
     7e8:	0000                	unimp
     7ea:	dc0e                	sw	gp,56(sp)
     7ec:	0002                	c.slli64	zero
     7ee:	0100                	addi	s0,sp,128
     7f0:	032e                	slli	t1,t1,0xb
     7f2:	0745                	addi	a4,a4,17
     7f4:	0000                	unimp
     7f6:	0b2d                	addi	s6,s6,11
     7f8:	0000                	unimp
     7fa:	f00e                	fsw	ft3,32(sp)
     7fc:	01000003          	lb	zero,16(zero) # 10 <.LASF10+0x2>
     800:	032e                	slli	t1,t1,0xb
     802:	0745                	addi	a4,a4,17
     804:	0000                	unimp
     806:	0b40                	addi	s0,sp,404
     808:	0000                	unimp
     80a:	9e0e                	add	t3,t3,gp
     80c:	0002                	c.slli64	zero
     80e:	0100                	addi	s0,sp,128
     810:	032e                	slli	t1,t1,0xb
     812:	0056                	c.slli	zero,0x15
     814:	0000                	unimp
     816:	00000b53          	fadd.s	fs6,ft0,ft0,rne
     81a:	120e                	slli	tp,tp,0x23
     81c:	0004                	0x4
     81e:	0100                	addi	s0,sp,128
     820:	032e                	slli	t1,t1,0xb
     822:	0056                	c.slli	zero,0x15
     824:	0000                	unimp
     826:	0b66                	slli	s6,s6,0x19
     828:	0000                	unimp
     82a:	990e                	add	s2,s2,gp
     82c:	0002                	c.slli64	zero
     82e:	0100                	addi	s0,sp,128
     830:	032e                	slli	t1,t1,0xb
     832:	0056                	c.slli	zero,0x15
     834:	0000                	unimp
     836:	0b79                	addi	s6,s6,30
     838:	0000                	unimp
     83a:	fa0e                	fsw	ft3,52(sp)
     83c:	01000003          	lb	zero,16(zero) # 10 <.LASF10+0x2>
     840:	032e                	slli	t1,t1,0xb
     842:	0056                	c.slli	zero,0x15
     844:	0000                	unimp
     846:	0b8c                	addi	a1,sp,464
     848:	0000                	unimp
     84a:	1200                	addi	s0,sp,288
     84c:	0148                	addi	a0,sp,132
     84e:	0000                	unimp
     850:	0429                	addi	s0,s0,10
     852:	0000                	unimp
     854:	700e                	flw	ft0,224(sp)
     856:	0004                	0x4
     858:	0100                	addi	s0,sp,128
     85a:	032e                	slli	t1,t1,0xb
     85c:	0745                	addi	a4,a4,17
     85e:	0000                	unimp
     860:	0b9f 0000 eb0e      	0xeb0e00000b9f
     866:	01000003          	lb	zero,16(zero) # 10 <.LASF10+0x2>
     86a:	032e                	slli	t1,t1,0xb
     86c:	0745                	addi	a4,a4,17
     86e:	0000                	unimp
     870:	0bb2                	slli	s7,s7,0xc
     872:	0000                	unimp
     874:	dc0e                	sw	gp,56(sp)
     876:	0002                	c.slli64	zero
     878:	0100                	addi	s0,sp,128
     87a:	032e                	slli	t1,t1,0xb
     87c:	0745                	addi	a4,a4,17
     87e:	0000                	unimp
     880:	0be0                	addi	s0,sp,476
     882:	0000                	unimp
     884:	f00e                	fsw	ft3,32(sp)
     886:	01000003          	lb	zero,16(zero) # 10 <.LASF10+0x2>
     88a:	032e                	slli	t1,t1,0xb
     88c:	0745                	addi	a4,a4,17
     88e:	0000                	unimp
     890:	00000bf3          	0xbf3
     894:	00029e13          	slli	t3,t0,0x0
     898:	0100                	addi	s0,sp,128
     89a:	032e                	slli	t1,t1,0xb
     89c:	0056                	c.slli	zero,0x15
     89e:	0000                	unimp
     8a0:	120e                	slli	tp,tp,0x23
     8a2:	0004                	0x4
     8a4:	0100                	addi	s0,sp,128
     8a6:	032e                	slli	t1,t1,0xb
     8a8:	0056                	c.slli	zero,0x15
     8aa:	0000                	unimp
     8ac:	0c06                	slli	s8,s8,0x1
     8ae:	0000                	unimp
     8b0:	990e                	add	s2,s2,gp
     8b2:	0002                	c.slli64	zero
     8b4:	0100                	addi	s0,sp,128
     8b6:	032e                	slli	t1,t1,0xb
     8b8:	0056                	c.slli	zero,0x15
     8ba:	0000                	unimp
     8bc:	0c19                	addi	s8,s8,6
     8be:	0000                	unimp
     8c0:	fa0e                	fsw	ft3,52(sp)
     8c2:	01000003          	lb	zero,16(zero) # 10 <.LASF10+0x2>
     8c6:	032e                	slli	t1,t1,0xb
     8c8:	0056                	c.slli	zero,0x15
     8ca:	0000                	unimp
     8cc:	0c2c                	addi	a1,sp,536
     8ce:	0000                	unimp
     8d0:	1200                	addi	s0,sp,288
     8d2:	0170                	addi	a2,sp,140
     8d4:	0000                	unimp
     8d6:	000004ab          	0x4ab
     8da:	700e                	flw	ft0,224(sp)
     8dc:	0004                	0x4
     8de:	0100                	addi	s0,sp,128
     8e0:	032e                	slli	t1,t1,0xb
     8e2:	0745                	addi	a4,a4,17
     8e4:	0000                	unimp
     8e6:	00000c3f 0003eb0e 	0x3eb0e00000c3f
     8ee:	0100                	addi	s0,sp,128
     8f0:	032e                	slli	t1,t1,0xb
     8f2:	0745                	addi	a4,a4,17
     8f4:	0000                	unimp
     8f6:	0c52                	slli	s8,s8,0x14
     8f8:	0000                	unimp
     8fa:	dc0e                	sw	gp,56(sp)
     8fc:	0002                	c.slli64	zero
     8fe:	0100                	addi	s0,sp,128
     900:	032e                	slli	t1,t1,0xb
     902:	0745                	addi	a4,a4,17
     904:	0000                	unimp
     906:	0c92                	slli	s9,s9,0x4
     908:	0000                	unimp
     90a:	f00e                	fsw	ft3,32(sp)
     90c:	01000003          	lb	zero,16(zero) # 10 <.LASF10+0x2>
     910:	032e                	slli	t1,t1,0xb
     912:	0745                	addi	a4,a4,17
     914:	0000                	unimp
     916:	0ca5                	addi	s9,s9,9
     918:	0000                	unimp
     91a:	00029e13          	slli	t3,t0,0x0
     91e:	0100                	addi	s0,sp,128
     920:	032e                	slli	t1,t1,0xb
     922:	0056                	c.slli	zero,0x15
     924:	0000                	unimp
     926:	00041213          	slli	tp,s0,0x0
     92a:	0100                	addi	s0,sp,128
     92c:	032e                	slli	t1,t1,0xb
     92e:	0056                	c.slli	zero,0x15
     930:	0000                	unimp
     932:	990e                	add	s2,s2,gp
     934:	0002                	c.slli64	zero
     936:	0100                	addi	s0,sp,128
     938:	032e                	slli	t1,t1,0xb
     93a:	0056                	c.slli	zero,0x15
     93c:	0000                	unimp
     93e:	0cb8                	addi	a4,sp,600
     940:	0000                	unimp
     942:	fa0e                	fsw	ft3,52(sp)
     944:	01000003          	lb	zero,16(zero) # 10 <.LASF10+0x2>
     948:	032e                	slli	t1,t1,0xb
     94a:	0056                	c.slli	zero,0x15
     94c:	0000                	unimp
     94e:	00000ccb          	fnmsub.s	fs9,ft0,ft0,ft0,rne
     952:	1200                	addi	s0,sp,288
     954:	0198                	addi	a4,sp,192
     956:	0000                	unimp
     958:	052d                	addi	a0,a0,11
     95a:	0000                	unimp
     95c:	700e                	flw	ft0,224(sp)
     95e:	0004                	0x4
     960:	0100                	addi	s0,sp,128
     962:	032e                	slli	t1,t1,0xb
     964:	0745                	addi	a4,a4,17
     966:	0000                	unimp
     968:	0cde                	slli	s9,s9,0x17
     96a:	0000                	unimp
     96c:	eb0e                	fsw	ft3,148(sp)
     96e:	01000003          	lb	zero,16(zero) # 10 <.LASF10+0x2>
     972:	032e                	slli	t1,t1,0xb
     974:	0745                	addi	a4,a4,17
     976:	0000                	unimp
     978:	0cf1                	addi	s9,s9,28
     97a:	0000                	unimp
     97c:	dc0e                	sw	gp,56(sp)
     97e:	0002                	c.slli64	zero
     980:	0100                	addi	s0,sp,128
     982:	032e                	slli	t1,t1,0xb
     984:	0745                	addi	a4,a4,17
     986:	0000                	unimp
     988:	0d1f 0000 f00e      	0xf00e00000d1f
     98e:	01000003          	lb	zero,16(zero) # 10 <.LASF10+0x2>
     992:	032e                	slli	t1,t1,0xb
     994:	0745                	addi	a4,a4,17
     996:	0000                	unimp
     998:	0d32                	slli	s10,s10,0xc
     99a:	0000                	unimp
     99c:	00029e13          	slli	t3,t0,0x0
     9a0:	0100                	addi	s0,sp,128
     9a2:	032e                	slli	t1,t1,0xb
     9a4:	0056                	c.slli	zero,0x15
     9a6:	0000                	unimp
     9a8:	00041213          	slli	tp,s0,0x0
     9ac:	0100                	addi	s0,sp,128
     9ae:	032e                	slli	t1,t1,0xb
     9b0:	0056                	c.slli	zero,0x15
     9b2:	0000                	unimp
     9b4:	990e                	add	s2,s2,gp
     9b6:	0002                	c.slli64	zero
     9b8:	0100                	addi	s0,sp,128
     9ba:	032e                	slli	t1,t1,0xb
     9bc:	0056                	c.slli	zero,0x15
     9be:	0000                	unimp
     9c0:	0d50                	addi	a2,sp,660
     9c2:	0000                	unimp
     9c4:	fa0e                	fsw	ft3,52(sp)
     9c6:	01000003          	lb	zero,16(zero) # 10 <.LASF10+0x2>
     9ca:	032e                	slli	t1,t1,0xb
     9cc:	0056                	c.slli	zero,0x15
     9ce:	0000                	unimp
     9d0:	00000d63          	beqz	zero,9ea <.L17+0x4>
     9d4:	1200                	addi	s0,sp,288
     9d6:	01c8                	addi	a0,sp,196
     9d8:	0000                	unimp
     9da:	00000557          	0x557
     9de:	750e                	flw	fa0,224(sp)
     9e0:	0004                	0x4
     9e2:	0100                	addi	s0,sp,128
     9e4:	032e                	slli	t1,t1,0xb
     9e6:	0745                	addi	a4,a4,17
     9e8:	0000                	unimp
     9ea:	0d76                	slli	s10,s10,0x1d
     9ec:	0000                	unimp
     9ee:	450e                	lw	a0,192(sp)
     9f0:	0004                	0x4
     9f2:	0100                	addi	s0,sp,128
     9f4:	032e                	slli	t1,t1,0xb
     9f6:	0745                	addi	a4,a4,17
     9f8:	0000                	unimp
     9fa:	0d94                	addi	a3,sp,720
     9fc:	0000                	unimp
     9fe:	1600                	addi	s0,sp,800
     a00:	01f0                	addi	a2,sp,204
     a02:	0000                	unimp
     a04:	750e                	flw	fa0,224(sp)
     a06:	0004                	0x4
     a08:	0100                	addi	s0,sp,128
     a0a:	032e                	slli	t1,t1,0xb
     a0c:	0745                	addi	a4,a4,17
     a0e:	0000                	unimp
     a10:	0de0                	addi	s0,sp,732
     a12:	0000                	unimp
     a14:	450e                	lw	a0,192(sp)
     a16:	0004                	0x4
     a18:	0100                	addi	s0,sp,128
     a1a:	032e                	slli	t1,t1,0xb
     a1c:	0745                	addi	a4,a4,17
     a1e:	0000                	unimp
     a20:	00000df3          	0xdf3
     a24:	0000                	unimp
     a26:	0816                	slli	a6,a6,0x5
     a28:	0002                	c.slli64	zero
     a2a:	0e00                	addi	s0,sp,784
     a2c:	000002ab          	0x2ab
     a30:	2e01                	jal	d40 <.LVL132>
     a32:	00002c03          	lw	s8,0(zero) # 0 <.Ldebug_info0>
     a36:	3f00                	fld	fs0,56(a4)
     a38:	000e                	c.slli	zero,0x3
     a3a:	1600                	addi	s0,sp,800
     a3c:	0220                	addi	s0,sp,264
     a3e:	0000                	unimp
     a40:	ff0e                	fsw	ft3,188(sp)
     a42:	01000003          	lb	zero,16(zero) # 10 <.LASF10+0x2>
     a46:	032e                	slli	t1,t1,0xb
     a48:	073e                	slli	a4,a4,0xf
     a4a:	0000                	unimp
     a4c:	0e5e                	slli	t3,t3,0x17
     a4e:	0000                	unimp
     a50:	3c0e                	fld	fs8,224(sp)
     a52:	01000003          	lb	zero,16(zero) # 10 <.LASF10+0x2>
     a56:	032e                	slli	t1,t1,0xb
     a58:	073e                	slli	a4,a4,0xf
     a5a:	0000                	unimp
     a5c:	0e7e                	slli	t3,t3,0x1f
     a5e:	0000                	unimp
     a60:	7a0e                	flw	fs4,224(sp)
     a62:	01000003          	lb	zero,16(zero) # 10 <.LASF10+0x2>
     a66:	032e                	slli	t1,t1,0xb
     a68:	073e                	slli	a4,a4,0xf
     a6a:	0000                	unimp
     a6c:	0e9e                	slli	t4,t4,0x7
     a6e:	0000                	unimp
     a70:	680e                	flw	fa6,192(sp)
     a72:	01000003          	lb	zero,16(zero) # 10 <.LASF10+0x2>
     a76:	032e                	slli	t1,t1,0xb
     a78:	073e                	slli	a4,a4,0xf
     a7a:	0000                	unimp
     a7c:	0ebe                	slli	t4,t4,0xf
     a7e:	0000                	unimp
     a80:	c20e                	sw	gp,4(sp)
     a82:	01000003          	lb	zero,16(zero) # 10 <.LASF10+0x2>
     a86:	032e                	slli	t1,t1,0xb
     a88:	0745                	addi	a4,a4,17
     a8a:	0000                	unimp
     a8c:	0ed2                	slli	t4,t4,0x14
     a8e:	0000                	unimp
     a90:	0000                	unimp
     a92:	1500                	addi	s0,sp,672
     a94:	0d3c                	addi	a5,sp,664
     a96:	0000                	unimp
     a98:	000c                	0xc
     a9a:	0000                	unimp
     a9c:	0609                	addi	a2,a2,2
     a9e:	0000                	unimp
     aa0:	5f10                	lw	a2,56(a4)
     aa2:	785f 0100 032f      	0x32f0100785f
     aa8:	0745                	addi	a4,a4,17
     aaa:	0000                	unimp
     aac:	0f09                	addi	t5,t5,2
     aae:	0000                	unimp
     ab0:	1700                	addi	s0,sp,928
     ab2:	0000061b          	0x61b
     ab6:	5f11                	li	t5,-28
     ab8:	785f 0100 032f      	0x32f0100785f
     abe:	0745                	addi	a4,a4,17
     ac0:	0000                	unimp
     ac2:	1700                	addi	s0,sp,928
     ac4:	062d                	addi	a2,a2,11
     ac6:	0000                	unimp
     ac8:	5f11                	li	t5,-28
     aca:	785f 0100 032f      	0x32f0100785f
     ad0:	0745                	addi	a4,a4,17
     ad2:	0000                	unimp
     ad4:	1200                	addi	s0,sp,288
     ad6:	0258                	addi	a4,sp,260
     ad8:	0000                	unimp
     ada:	0000072b          	0x72b
     ade:	0002c113          	xori	sp,t0,0
     ae2:	0100                	addi	s0,sp,128
     ae4:	002c032f          	0x2c032f
     ae8:	0000                	unimp
     aea:	0006b617          	auipc	a2,0x6b
     aee:	1300                	addi	s0,sp,416
     af0:	03d4                	addi	a3,sp,452
     af2:	0000                	unimp
     af4:	2f01                	jal	1204 <.LVL139>
     af6:	00073e03          	0x73e03
     afa:	1300                	addi	s0,sp,416
     afc:	0000038f          	0x38f
     b00:	2f01                	jal	1210 <.L35+0xa>
     b02:	00073e03          	0x73e03
     b06:	1300                	addi	s0,sp,416
     b08:	0351                	addi	t1,t1,20
     b0a:	0000                	unimp
     b0c:	2f01                	jal	121c <.L37+0x4>
     b0e:	00073e03          	0x73e03
     b12:	1300                	addi	s0,sp,416
     b14:	0269                	addi	tp,tp,26
     b16:	0000                	unimp
     b18:	2f01                	jal	1228 <.L37+0x10>
     b1a:	00074503          	lbu	a0,0(a4)
     b1e:	1300                	addi	s0,sp,416
     b20:	0281                	addi	t0,t0,0
     b22:	0000                	unimp
     b24:	2f01                	jal	1234 <.L37+0x1c>
     b26:	00074503          	lbu	a0,0(a4)
     b2a:	1700                	addi	s0,sp,928
     b2c:	0695                	addi	a3,a3,5
     b2e:	0000                	unimp
     b30:	5f11                	li	t5,-28
     b32:	785f 0100 032f      	0x32f0100785f
     b38:	0745                	addi	a4,a4,17
     b3a:	0000                	unimp
     b3c:	1700                	addi	s0,sp,928
     b3e:	000006a7          	0x6a7
     b42:	5f11                	li	t5,-28
     b44:	785f 0100 032f      	0x32f0100785f
     b4a:	0745                	addi	a4,a4,17
     b4c:	0000                	unimp
     b4e:	1800                	addi	s0,sp,48
     b50:	5f11                	li	t5,-28
     b52:	785f 0100 032f      	0x32f0100785f
     b58:	0745                	addi	a4,a4,17
     b5a:	0000                	unimp
     b5c:	0000                	unimp
     b5e:	0615                	addi	a2,a2,5
     b60:	000e                	c.slli	zero,0x3
     b62:	0c00                	addi	s0,sp,528
     b64:	0000                	unimp
     b66:	d400                	sw	s0,40(s0)
     b68:	0006                	c.slli	zero,0x1
     b6a:	1000                	addi	s0,sp,32
     b6c:	5f5f 0078 2f01      	0x2f0100785f5f
     b72:	00074503          	lbu	a0,0(a4)
     b76:	1c00                	addi	s0,sp,560
     b78:	0000000f          	fence	unknown,unknown
     b7c:	0006e617          	auipc	a2,0x6e
     b80:	1100                	addi	s0,sp,160
     b82:	5f5f 0078 2f01      	0x2f0100785f5f
     b88:	00074503          	lbu	a0,0(a4)
     b8c:	0000                	unimp
     b8e:	0006f817          	auipc	a6,0x6f
     b92:	1100                	addi	s0,sp,160
     b94:	5f5f 0078 2f01      	0x2f0100785f5f
     b9a:	00074503          	lbu	a0,0(a4)
     b9e:	0000                	unimp
     ba0:	00070a17          	auipc	s4,0x70
     ba4:	1100                	addi	s0,sp,160
     ba6:	5f5f 0078 2f01      	0x2f0100785f5f
     bac:	00074503          	lbu	a0,0(a4)
     bb0:	0000                	unimp
     bb2:	00071c17          	auipc	s8,0x71
     bb6:	1100                	addi	s0,sp,160
     bb8:	5f5f 0078 2f01      	0x2f0100785f5f
     bbe:	00074503          	lbu	a0,0(a4)
     bc2:	0000                	unimp
     bc4:	1118                	addi	a4,sp,160
     bc6:	5f5f 0078 2f01      	0x2f0100785f5f
     bcc:	00074503          	lbu	a0,0(a4)
     bd0:	0000                	unimp
     bd2:	1600                	addi	s0,sp,800
     bd4:	0240                	addi	s0,sp,260
     bd6:	0000                	unimp
     bd8:	0002fc13          	andi	s8,t0,0
     bdc:	0100                	addi	s0,sp,128
     bde:	00c0032f          	0xc0032f
     be2:	0000                	unimp
     be4:	0000                	unimp
     be6:	0402                	c.slli64	s0
     be8:	f205                	bnez	a2,b08 <.LVL25+0x2>
     bea:	0001                	nop
     bec:	0200                	addi	s0,sp,256
     bee:	0704                	addi	s1,sp,896
     bf0:	0170                	addi	a2,sp,140
     bf2:	0000                	unimp
     bf4:	4519                	li	a0,6
     bf6:	5c000007          	0x5c000007
     bfa:	1a000007          	0x1a000007
     bfe:	0048                	addi	a0,sp,4
     c00:	0000                	unimp
     c02:	171b0003          	lb	zero,369(s6)
     c06:	0004                	0x4
     c08:	1700                	addi	s0,sp,928
     c0a:	0004                	0x4
	...

00000c0e <.Ldebug_info0>:
     c0e:	057d                	addi	a0,a0,31
     c10:	0000                	unimp
     c12:	0004                	0x4
     c14:	042e                	slli	s0,s0,0xb
     c16:	0000                	unimp
     c18:	0104                	addi	s1,sp,128
     c1a:	0000009b          	0x9b
     c1e:	b40c                	fsd	fa1,40(s0)
     c20:	0005                	c.nop	1
     c22:	8200                	0x8200
     c24:	0001                	nop
     c26:	6e00                	flw	fs0,24(a2)
     c28:	000e                	c.slli	zero,0x3
     c2a:	1800                	addi	s0,sp,48
     c2c:	0006                	c.slli	zero,0x1
     c2e:	c800                	sw	s0,16(s0)
     c30:	0012                	c.slli	zero,0x4
     c32:	0200                	addi	s0,sp,256
     c34:	0408                	addi	a0,sp,512
     c36:	0729                	addi	a4,a4,10
     c38:	0000                	unimp
     c3a:	69050403          	lb	s0,1680(a0)
     c3e:	746e                	flw	fs0,248(sp)
     c40:	0200                	addi	s0,sp,256
     c42:	0601                	addi	a2,a2,0
     c44:	001d                	c.nop	7
     c46:	0000                	unimp
     c48:	0802                	c.slli64	a6
     c4a:	ed05                	bnez	a0,c82 <.LVL100>
     c4c:	0001                	nop
     c4e:	0200                	addi	s0,sp,256
     c50:	0801                	addi	a6,a6,0
     c52:	0000001b          	0x1b
     c56:	0402                	c.slli64	s0
     c58:	00017507          	0x17507
     c5c:	0200                	addi	s0,sp,256
     c5e:	0708                	addi	a0,sp,896
     c60:	0000016b          	0x16b
     c64:	0202                	c.slli64	tp
     c66:	00006807          	0x6807
     c6a:	0400                	addi	s0,sp,512
     c6c:	0014                	0x14
     c6e:	0000                	unimp
     c70:	4802                	lw	a6,0(sp)
     c72:	0000250f          	0x250f
     c76:	0500                	addi	s0,sp,640
     c78:	0208                	addi	a0,sp,256
     c7a:	00b3034f          	fnmadd.s	ft6,ft6,fa1,ft0,rne
     c7e:	0000                	unimp
     c80:	0806                	slli	a6,a6,0x1
     c82:	0000                	unimp
     c84:	0200                	addi	s0,sp,256
     c86:	00480e57          	0x480e57
     c8a:	0000                	unimp
     c8c:	2004                	fld	fs1,0(s0)
     c8e:	0000                	unimp
     c90:	0e06                	slli	t3,t3,0x1
     c92:	0000                	unimp
     c94:	0200                	addi	s0,sp,256
     c96:	0e58                	addi	a4,sp,788
     c98:	0048                	addi	a0,sp,4
     c9a:	0000                	unimp
     c9c:	1404                	addi	s1,sp,544
     c9e:	040c                	addi	a1,sp,512
     ca0:	70786507          	0x70786507
     ca4:	0200                	addi	s0,sp,256
     ca6:	0e59                	addi	t3,t3,22
     ca8:	0048                	addi	a0,sp,4
     caa:	0000                	unimp
     cac:	0b04                	addi	s1,sp,400
     cae:	0401                	addi	s0,s0,0
     cb0:	6306                	flw	ft6,64(sp)
     cb2:	0000                	unimp
     cb4:	0200                	addi	s0,sp,256
     cb6:	0e5a                	slli	t3,t3,0x16
     cb8:	0048                	addi	a0,sp,4
     cba:	0000                	unimp
     cbc:	0104                	addi	s1,sp,128
     cbe:	0400                	addi	s0,sp,512
     cc0:	0800                	addi	s0,sp,16
     cc2:	000001fb          	0x1fb
     cc6:	0208                	addi	a0,sp,256
     cc8:	074c                	addi	a1,sp,900
     cca:	00d9                	addi	ra,ra,22
     ccc:	0000                	unimp
     cce:	6609                	lui	a2,0x2
     cd0:	746c                	flw	fa1,108(s0)
     cd2:	0200                	addi	s0,sp,256
     cd4:	0a4e                	slli	s4,s4,0x13
     cd6:	005d                	c.nop	23
     cd8:	0000                	unimp
     cda:	070a                	slli	a4,a4,0x2
     cdc:	0002                	c.slli64	zero
     cde:	0200                	addi	s0,sp,256
     ce0:	055c                	addi	a5,sp,644
     ce2:	0069                	c.nop	26
     ce4:	0000                	unimp
     ce6:	0b00                	addi	s0,sp,400
     ce8:	050c                	addi	a1,sp,640
     cea:	0000                	unimp
     cec:	2301                	jal	11ec <.LVL131+0x2>
     cee:	5d01                	li	s10,-32
     cf0:	0000                	unimp
     cf2:	6e00                	flw	fs0,24(a2)
     cf4:	000e                	c.slli	zero,0x3
     cf6:	1800                	addi	s0,sp,48
     cf8:	0006                	c.slli	zero,0x1
     cfa:	0100                	addi	s0,sp,128
     cfc:	699c                	flw	fa5,16(a1)
     cfe:	0005                	c.nop	1
     d00:	0c00                	addi	s0,sp,528
     d02:	0061                	c.nop	24
     d04:	2301                	jal	1204 <.LVL139>
     d06:	5d12                	lw	s10,36(sp)
     d08:	0000                	unimp
     d0a:	2f00                	fld	fs0,24(a4)
     d0c:	0c00000f          	fence	io,unknown
     d10:	0062                	c.slli	zero,0x18
     d12:	2301                	jal	1212 <.L35+0xc>
     d14:	5d1c                	lw	a5,56(a0)
     d16:	0000                	unimp
     d18:	5700                	lw	s0,40(a4)
     d1a:	0d00000f          	fence	iow,unknown
     d1e:	0080                	addi	s0,sp,64
     d20:	0000                	unimp
     d22:	2501                	jal	1322 <.LBE61+0x8>
     d24:	00002c03          	lw	s8,0(zero) # 0 <.Ldebug_info0>
     d28:	7f00                	flw	fs0,56(a4)
     d2a:	0e00000f          	fence	ior,unknown
     d2e:	020c                	addi	a1,sp,256
     d30:	0000                	unimp
     d32:	2501                	jal	1332 <.LVL181+0x2>
     d34:	00002c03          	lw	s8,0(zero) # 0 <.Ldebug_info0>
     d38:	0000                	unimp
     d3a:	635f410f          	0x635f410f
     d3e:	0100                	addi	s0,sp,128
     d40:	0326                	slli	t1,t1,0x9
     d42:	0569                	addi	a0,a0,26
     d44:	0000                	unimp
     d46:	4110                	lw	a2,0(a0)
     d48:	735f 0100 0326      	0x3260100735f
     d4e:	0569                	addi	a0,a0,26
     d50:	0000                	unimp
     d52:	00000fcf          	fnmadd.s	ft11,ft0,ft0,ft0,rne
     d56:	4110                	lw	a2,0(a0)
     d58:	655f 0100 0326      	0x3260100655f
     d5e:	0569                	addi	a0,a0,26
     d60:	0000                	unimp
     d62:	1071                	c.nop	-4
     d64:	0000                	unimp
     d66:	960d                	srai	a2,a2,0x23
     d68:	0000                	unimp
     d6a:	0100                	addi	s0,sp,128
     d6c:	0326                	slli	t1,t1,0x9
     d6e:	0570                	addi	a2,sp,652
     d70:	0000                	unimp
     d72:	1162                	slli	sp,sp,0x38
     d74:	0000                	unimp
     d76:	7b0d                	lui	s6,0xfffe3
     d78:	0000                	unimp
     d7a:	0100                	addi	s0,sp,128
     d7c:	0326                	slli	t1,t1,0x9
     d7e:	0570                	addi	a2,sp,652
     d80:	0000                	unimp
     d82:	000012bf 635f420f 	0x635f420f000012bf
     d8a:	0100                	addi	s0,sp,128
     d8c:	05690327          	0x5690327
     d90:	0000                	unimp
     d92:	4210                	lw	a2,0(a2)
     d94:	735f 0100 0327      	0x3270100735f
     d9a:	0569                	addi	a0,a0,26
     d9c:	0000                	unimp
     d9e:	1424                	addi	s1,sp,552
     da0:	0000                	unimp
     da2:	4210                	lw	a2,0(a2)
     da4:	655f 0100 0327      	0x3270100655f
     daa:	0569                	addi	a0,a0,26
     dac:	0000                	unimp
     dae:	14aa                	slli	s1,s1,0x2a
     db0:	0000                	unimp
     db2:	610d                	addi	sp,sp,160
     db4:	0001                	nop
     db6:	0100                	addi	s0,sp,128
     db8:	05700327          	0x5700327
     dbc:	0000                	unimp
     dbe:	14e9                	addi	s1,s1,-6
     dc0:	0000                	unimp
     dc2:	660d                	lui	a2,0x3
     dc4:	0001                	nop
     dc6:	0100                	addi	s0,sp,128
     dc8:	05700327          	0x5700327
     dcc:	0000                	unimp
     dce:	15f9                	addi	a1,a1,-2
     dd0:	0000                	unimp
     dd2:	635f520f          	0x635f520f
     dd6:	0100                	addi	s0,sp,128
     dd8:	0328                	addi	a0,sp,392
     dda:	0569                	addi	a0,a0,26
     ddc:	0000                	unimp
     dde:	5210                	lw	a2,32(a2)
     de0:	735f 0100 0328      	0x3280100735f
     de6:	0569                	addi	a0,a0,26
     de8:	0000                	unimp
     dea:	1682                	slli	a3,a3,0x20
     dec:	0000                	unimp
     dee:	5210                	lw	a2,32(a2)
     df0:	655f 0100 0328      	0x3280100655f
     df6:	0569                	addi	a0,a0,26
     df8:	0000                	unimp
     dfa:	0000172f          	0x172f
     dfe:	f50d                	bnez	a0,d28 <.LVL131>
     e00:	01000003          	lb	zero,16(zero) # 10 <.LASF10+0x2>
     e04:	0328                	addi	a0,sp,392
     e06:	0570                	addi	a2,sp,652
     e08:	0000                	unimp
     e0a:	1894                	addi	a3,sp,112
     e0c:	0000                	unimp
     e0e:	c00d                	beqz	s0,e30 <.L31+0x8>
     e10:	0004                	0x4
     e12:	0100                	addi	s0,sp,128
     e14:	0328                	addi	a0,sp,392
     e16:	0570                	addi	a2,sp,652
     e18:	0000                	unimp
     e1a:	1aca                	slli	s5,s5,0x32
     e1c:	0000                	unimp
     e1e:	0100720f          	0x100720f
     e22:	0a29                	addi	s4,s4,10
     e24:	005d                	c.nop	23
     e26:	0000                	unimp
     e28:	7811                	lui	a6,0xfffe4
     e2a:	0002                	c.slli64	zero
     e2c:	3000                	fld	fs0,32(s0)
     e2e:	0002                	c.slli64	zero
     e30:	1200                	addi	s0,sp,288
     e32:	014c                	addi	a1,sp,132
     e34:	0000                	unimp
     e36:	2c01                	jal	1046 <.L20+0xe>
     e38:	0000b303          	0xb303
     e3c:	0000                	unimp
     e3e:	a011                	j	e42 <.L33>
     e40:	0002                	c.slli64	zero
     e42:	4600                	lw	s0,8(a2)
     e44:	0002                	c.slli64	zero
     e46:	1200                	addi	s0,sp,288
     e48:	014c                	addi	a1,sp,132
     e4a:	0000                	unimp
     e4c:	2d01                	jal	145c <.LBE99+0xa>
     e4e:	0000b303          	0xb303
     e52:	0000                	unimp
     e54:	e811                	bnez	s0,e68 <.LVL181>
     e56:	0002                	c.slli64	zero
     e58:	2c00                	fld	fs0,24(s0)
     e5a:	13000003          	lb	zero,304(zero) # 130 <.LLST2+0x2c>
     e5e:	05a5                	addi	a1,a1,9
     e60:	0000                	unimp
     e62:	2e01                	jal	1172 <.L28+0x4>
     e64:	000f1403          	lh	s0,0(t5)
     e68:	1300                	addi	s0,sp,416
     e6a:	05aa                	slli	a1,a1,0xa
     e6c:	0000                	unimp
     e6e:	2e01                	jal	117e <.LVL117>
     e70:	000ff803          	0xff803
     e74:	1300                	addi	s0,sp,416
     e76:	000005af          	0x5af
     e7a:	2e01                	jal	118a <.LVL119+0x4>
     e7c:	000f5203          	lhu	tp,0(t5)
     e80:	1300                	addi	s0,sp,416
     e82:	04ca                	slli	s1,s1,0x12
     e84:	0000                	unimp
     e86:	2e01                	jal	1196 <.L31+0x2>
     e88:	0010a403          	lw	s0,1(ra)
     e8c:	0d00                	addi	s0,sp,656
     e8e:	0570                	addi	a2,sp,652
     e90:	0000                	unimp
     e92:	2e01                	jal	11a2 <.L31+0xe>
     e94:	00002c03          	lw	s8,0(zero) # 0 <.Ldebug_info0>
     e98:	b800                	fsd	fs0,48(s0)
     e9a:	001c                	0x1c
     e9c:	1100                	addi	s0,sp,160
     e9e:	0348                	addi	a0,sp,388
     ea0:	0000                	unimp
     ea2:	02a9                	addi	t0,t0,10
     ea4:	0000                	unimp
     ea6:	5f10                	lw	a2,56(a4)
     ea8:	785f 0100 032e      	0x32e0100785f
     eae:	0570                	addi	a2,sp,652
     eb0:	0000                	unimp
     eb2:	1db2                	slli	s11,s11,0x2c
     eb4:	0000                	unimp
     eb6:	1100                	addi	s0,sp,160
     eb8:	0378                	addi	a4,sp,396
     eba:	0000                	unimp
     ebc:	000002c3          	fmadd.s	ft5,ft0,ft0,ft0,rne
     ec0:	5f10                	lw	a2,56(a4)
     ec2:	785f 0100 032e      	0x32e0100785f
     ec8:	0570                	addi	a2,sp,652
     eca:	0000                	unimp
     ecc:	1dc5                	addi	s11,s11,-15
     ece:	0000                	unimp
     ed0:	1100                	addi	s0,sp,160
     ed2:	0360                	addi	s0,sp,396
     ed4:	0000                	unimp
     ed6:	02dd                	addi	t0,t0,23
     ed8:	0000                	unimp
     eda:	5f10                	lw	a2,56(a4)
     edc:	785f 0100 032e      	0x32e0100785f
     ee2:	0570                	addi	a2,sp,652
     ee4:	0000                	unimp
     ee6:	1dd8                	addi	a4,sp,756
     ee8:	0000                	unimp
     eea:	1400                	addi	s0,sp,544
     eec:	1028                	addi	a0,sp,40
     eee:	0000                	unimp
     ef0:	000c                	0xc
     ef2:	0000                	unimp
     ef4:	000002fb          	0x2fb
     ef8:	5f10                	lw	a2,56(a4)
     efa:	785f 0100 032e      	0x32e0100785f
     f00:	0570                	addi	a2,sp,652
     f02:	0000                	unimp
     f04:	00001deb          	0x1deb
     f08:	1100                	addi	s0,sp,160
     f0a:	0390                	addi	a2,sp,448
     f0c:	0000                	unimp
     f0e:	0315                	addi	t1,t1,5
     f10:	0000                	unimp
     f12:	5f10                	lw	a2,56(a4)
     f14:	785f 0100 032e      	0x32e0100785f
     f1a:	0570                	addi	a2,sp,652
     f1c:	0000                	unimp
     f1e:	1dfe                	slli	s11,s11,0x3f
     f20:	0000                	unimp
     f22:	1500                	addi	s0,sp,672
     f24:	03a8                	addi	a0,sp,456
     f26:	0000                	unimp
     f28:	5f10                	lw	a2,56(a4)
     f2a:	785f 0100 032e      	0x32e0100785f
     f30:	0570                	addi	a2,sp,652
     f32:	0000                	unimp
     f34:	1e11                	addi	t3,t3,-28
     f36:	0000                	unimp
     f38:	0000                	unimp
     f3a:	c011                	beqz	s0,f3e <.LVL30+0x8>
     f3c:	8e000003          	lb	zero,-1824(zero) # fffff8e0 <.LC0+0xffffb790>
     f40:	0004                	0x4
     f42:	1300                	addi	s0,sp,416
     f44:	04e8                	addi	a0,sp,588
     f46:	0000                	unimp
     f48:	2e01                	jal	1258 <.LBB86>
     f4a:	00112c03          	lw	s8,1(sp)
     f4e:	1300                	addi	s0,sp,416
     f50:	04c5                	addi	s1,s1,17
     f52:	0000                	unimp
     f54:	2e01                	jal	1264 <.L39+0x8>
     f56:	00121803          	lh	a6,1(tp) # 3001 <.Ldebug_line0+0x62a>
     f5a:	1300                	addi	s0,sp,416
     f5c:	04ed                	addi	s1,s1,27
     f5e:	0000                	unimp
     f60:	2e01                	jal	1270 <.L39+0x14>
     f62:	00116e03          	0x116e03
     f66:	1300                	addi	s0,sp,416
     f68:	00000507          	0x507
     f6c:	2e01                	jal	127c <.L41+0x2>
     f6e:	00133603          	0x133603
     f72:	1300                	addi	s0,sp,416
     f74:	059c                	addi	a5,sp,704
     f76:	0000                	unimp
     f78:	2e01                	jal	1288 <.L38>
     f7a:	0010a403          	lw	s0,1(ra)
     f7e:	0d00                	addi	s0,sp,656
     f80:	0570                	addi	a2,sp,652
     f82:	0000                	unimp
     f84:	2e01                	jal	1294 <.L34+0x2>
     f86:	00002c03          	lw	s8,0(zero) # 0 <.Ldebug_info0>
     f8a:	4400                	lw	s0,8(s0)
     f8c:	001e                	c.slli	zero,0x7
     f8e:	1100                	addi	s0,sp,160
     f90:	0428                	addi	a0,sp,520
     f92:	0000                	unimp
     f94:	0000039b          	0x39b
     f98:	5f10                	lw	a2,56(a4)
     f9a:	785f 0100 032e      	0x32e0100785f
     fa0:	0570                	addi	a2,sp,652
     fa2:	0000                	unimp
     fa4:	1f3c                	addi	a5,sp,952
     fa6:	0000                	unimp
     fa8:	1100                	addi	s0,sp,160
     faa:	0440                	addi	s0,sp,516
     fac:	0000                	unimp
     fae:	03b5                	addi	t2,t2,13
     fb0:	0000                	unimp
     fb2:	5f10                	lw	a2,56(a4)
     fb4:	785f 0100 032e      	0x32e0100785f
     fba:	0570                	addi	a2,sp,652
     fbc:	0000                	unimp
     fbe:	00001f4f          	fnmadd.s	ft10,ft0,ft0,ft0,rtz
     fc2:	1400                	addi	s0,sp,544
     fc4:	11e2                	slli	gp,gp,0x38
     fc6:	0000                	unimp
     fc8:	000e                	c.slli	zero,0x3
     fca:	0000                	unimp
     fcc:	000003d3          	fadd.s	ft7,ft0,ft0,rne
     fd0:	5f10                	lw	a2,56(a4)
     fd2:	785f 0100 032e      	0x32e0100785f
     fd8:	0570                	addi	a2,sp,652
     fda:	0000                	unimp
     fdc:	1f62                	slli	t5,t5,0x38
     fde:	0000                	unimp
     fe0:	1400                	addi	s0,sp,544
     fe2:	1248                	addi	a0,sp,292
     fe4:	0000                	unimp
     fe6:	000e                	c.slli	zero,0x3
     fe8:	0000                	unimp
     fea:	03f1                	addi	t2,t2,28
     fec:	0000                	unimp
     fee:	5f10                	lw	a2,56(a4)
     ff0:	785f 0100 032e      	0x32e0100785f
     ff6:	0570                	addi	a2,sp,652
     ff8:	0000                	unimp
     ffa:	1f75                	addi	t5,t5,-3
     ffc:	0000                	unimp
     ffe:	1100                	addi	s0,sp,160
    1000:	0478                	addi	a4,sp,524
    1002:	0000                	unimp
    1004:	0000040b          	0x40b
    1008:	5f10                	lw	a2,56(a4)
    100a:	785f 0100 032e      	0x32e0100785f
    1010:	0570                	addi	a2,sp,652
    1012:	0000                	unimp
    1014:	1f88                	addi	a0,sp,1008
    1016:	0000                	unimp
    1018:	1400                	addi	s0,sp,544
    101a:	12d6                	slli	t0,t0,0x35
    101c:	0000                	unimp
    101e:	000e                	c.slli	zero,0x3
    1020:	0000                	unimp
    1022:	0429                	addi	s0,s0,10
    1024:	0000                	unimp
    1026:	5f10                	lw	a2,56(a4)
    1028:	785f 0100 032e      	0x32e0100785f
    102e:	0570                	addi	a2,sp,652
    1030:	0000                	unimp
    1032:	1fa6                	slli	t6,t6,0x29
    1034:	0000                	unimp
    1036:	1400                	addi	s0,sp,544
    1038:	130a                	slli	t1,t1,0x22
    103a:	0000                	unimp
    103c:	0010                	0x10
    103e:	0000                	unimp
    1040:	00000447          	fmsub.s	fs0,ft0,ft0,ft0,rne
    1044:	5f10                	lw	a2,56(a4)
    1046:	785f 0100 032e      	0x32e0100785f
    104c:	0570                	addi	a2,sp,652
    104e:	0000                	unimp
    1050:	1fb9                	addi	t6,t6,-18
    1052:	0000                	unimp
    1054:	1400                	addi	s0,sp,544
    1056:	1324                	addi	s1,sp,424
    1058:	0000                	unimp
    105a:	0010                	0x10
    105c:	0000                	unimp
    105e:	0465                	addi	s0,s0,25
    1060:	0000                	unimp
    1062:	5f10                	lw	a2,56(a4)
    1064:	785f 0100 032e      	0x32e0100785f
    106a:	0570                	addi	a2,sp,652
    106c:	0000                	unimp
    106e:	00001fe7          	0x1fe7
    1072:	1500                	addi	s0,sp,672
    1074:	0458                	addi	a4,sp,516
    1076:	0000                	unimp
    1078:	150d                	addi	a0,a0,-29
    107a:	0005                	c.nop	1
    107c:	0100                	addi	s0,sp,128
    107e:	032e                	slli	t1,t1,0xb
    1080:	002c                	addi	a1,sp,8
    1082:	0000                	unimp
    1084:	1ffa                	slli	t6,t6,0x3e
    1086:	0000                	unimp
    1088:	3e16                	fld	ft8,352(sp)
    108a:	77000013          	li	zero,1904
    108e:	0005                	c.nop	1
    1090:	1600                	addi	s0,sp,800
    1092:	13a0                	addi	s0,sp,488
    1094:	0000                	unimp
    1096:	00000577          	0x577
    109a:	0000                	unimp
    109c:	9011                	srli	s0,s0,0x24
    109e:	0004                	0x4
    10a0:	5600                	lw	s0,40(a2)
    10a2:	0005                	c.nop	1
    10a4:	1200                	addi	s0,sp,288
    10a6:	0000052b          	0x52b
    10aa:	2f01                	jal	17ba <.Ldebug_info0+0x3f>
    10ac:	00002c03          	lw	s8,0(zero) # 0 <.Ldebug_info0>
    10b0:	1700                	addi	s0,sp,928
    10b2:	00000517          	auipc	a0,0x0
    10b6:	8712                	mv	a4,tp
    10b8:	0005                	c.nop	1
    10ba:	0100                	addi	s0,sp,128
    10bc:	0569032f          	0x569032f
    10c0:	0000                	unimp
    10c2:	d312                	sw	tp,164(sp)
    10c4:	0004                	0x4
    10c6:	0100                	addi	s0,sp,128
    10c8:	0569032f          	0x569032f
    10cc:	0000                	unimp
    10ce:	f212                	fsw	ft4,36(sp)
    10d0:	0004                	0x4
    10d2:	0100                	addi	s0,sp,128
    10d4:	0569032f          	0x569032f
    10d8:	0000                	unimp
    10da:	4412                	lw	s0,4(sp)
    10dc:	0005                	c.nop	1
    10de:	0100                	addi	s0,sp,128
    10e0:	0570032f          	0x570032f
    10e4:	0000                	unimp
    10e6:	5a12                	lw	s4,36(sp)
    10e8:	0005                	c.nop	1
    10ea:	0100                	addi	s0,sp,128
    10ec:	0570032f          	0x570032f
    10f0:	0000                	unimp
    10f2:	0004f617          	auipc	a2,0x4f
    10f6:	0f00                	addi	s0,sp,912
    10f8:	5f5f 0078 2f01      	0x2f0100785f5f
    10fe:	00057003          	0x57003
    1102:	0000                	unimp
    1104:	00050817          	auipc	a6,0x50
    1108:	0f00                	addi	s0,sp,912
    110a:	5f5f 0078 2f01      	0x2f0100785f5f
    1110:	00057003          	0x57003
    1114:	0000                	unimp
    1116:	0f18                	addi	a4,sp,912
    1118:	5f5f 0078 2f01      	0x2f0100785f5f
    111e:	00057003          	0x57003
    1122:	0000                	unimp
    1124:	1400                	addi	s0,sp,544
    1126:	10b6                	slli	ra,ra,0x2d
    1128:	0000                	unimp
    112a:	000e                	c.slli	zero,0x3
    112c:	0000                	unimp
    112e:	0535                	addi	a0,a0,13
    1130:	0000                	unimp
    1132:	5f10                	lw	a2,56(a4)
    1134:	785f 0100 032f      	0x32f0100785f
    113a:	0570                	addi	a2,sp,652
    113c:	0000                	unimp
    113e:	2069                	jal	11c8 <.L25>
    1140:	0000                	unimp
    1142:	1700                	addi	s0,sp,928
    1144:	00000547          	fmsub.s	fa0,ft0,ft0,ft0,rne
    1148:	785f5f0f          	0x785f5f0f
    114c:	0100                	addi	s0,sp,128
    114e:	0570032f          	0x570032f
    1152:	0000                	unimp
    1154:	1800                	addi	s0,sp,48
    1156:	785f5f0f          	0x785f5f0f
    115a:	0100                	addi	s0,sp,128
    115c:	0570032f          	0x570032f
    1160:	0000                	unimp
    1162:	0000                	unimp
    1164:	b015                	j	988 <.L12+0x2>
    1166:	0004                	0x4
    1168:	1200                	addi	s0,sp,288
    116a:	02fc                	addi	a5,sp,332
    116c:	0000                	unimp
    116e:	2f01                	jal	187e <.Ldebug_info0+0x103>
    1170:	0000b303          	0xb303
    1174:	0000                	unimp
    1176:	0200                	addi	s0,sp,256
    1178:	0504                	addi	s1,sp,640
    117a:	01f2                	slli	gp,gp,0x1c
    117c:	0000                	unimp
    117e:	0402                	c.slli64	s0
    1180:	00017007          	0x17007
    1184:	1900                	addi	s0,sp,176
    1186:	00000417          	auipc	s0,0x0
    118a:	00000417          	auipc	s0,0x0
	...

0000118f <.Ldebug_info0>:
    118f:	000001e3          	beqz	zero,1991 <.LLST13+0xfd>
    1193:	0004                	0x4
    1195:	05a1                	addi	a1,a1,8
    1197:	0000                	unimp
    1199:	0104                	addi	s1,sp,128
    119b:	0000009b          	0x9b
    119f:	e10c                	fsw	fa1,0(a0)
    11a1:	0005                	c.nop	1
    11a3:	8200                	0x8200
    11a5:	0001                	nop
    11a7:	8600                	0x8600
    11a9:	0014                	0x14
    11ab:	6400                	flw	fs0,8(s0)
    11ad:	0000                	unimp
    11af:	3a00                	fld	fs0,48(a2)
    11b1:	02000023          	sb	zero,32(zero) # 20 <printf_num>
    11b5:	0408                	addi	a0,sp,512
    11b7:	0729                	addi	a4,a4,10
    11b9:	0000                	unimp
    11bb:	69050403          	lb	s0,1680(a0) # 1742 <.LLST12+0x13>
    11bf:	746e                	flw	fs0,248(sp)
    11c1:	0200                	addi	s0,sp,256
    11c3:	0601                	addi	a2,a2,0
    11c5:	001d                	c.nop	7
    11c7:	0000                	unimp
    11c9:	2d04                	fld	fs1,24(a0)
    11cb:	0006                	c.slli	zero,0x1
    11cd:	0200                	addi	s0,sp,256
    11cf:	0148                	addi	a0,sp,132
    11d1:	2c0d                	jal	1403 <.L57+0x7>
    11d3:	0000                	unimp
    11d5:	0200                	addi	s0,sp,256
    11d7:	0508                	addi	a0,sp,640
    11d9:	01ed                	addi	gp,gp,27
    11db:	0000                	unimp
    11dd:	0102                	c.slli64	sp
    11df:	1b08                	addi	a0,sp,432
    11e1:	0000                	unimp
    11e3:	0400                	addi	s0,sp,512
    11e5:	062c                	addi	a1,sp,776
    11e7:	0000                	unimp
    11e9:	4b02                	lw	s6,0(sp)
    11eb:	1601                	addi	a2,a2,-32
    11ed:	0062                	c.slli	zero,0x18
    11ef:	0000                	unimp
    11f1:	0402                	c.slli64	s0
    11f3:	00017507          	0x17507
    11f7:	0200                	addi	s0,sp,256
    11f9:	0708                	addi	a0,sp,896
    11fb:	0000016b          	0x16b
    11ff:	0202                	c.slli64	tp
    1201:	00006807          	0x6807
    1205:	0500                	addi	s0,sp,640
    1207:	0014                	0x14
    1209:	0000                	unimp
    120b:	250f4803          	lbu	a6,592(t5)
    120f:	0000                	unimp
    1211:	0600                	addi	s0,sp,768
    1213:	0308                	addi	a0,sp,384
    1215:	00cd034f          	fnmadd.s	ft6,fs10,fa2,ft0,rne
    1219:	0000                	unimp
    121b:	00000807          	0x807
    121f:	0300                	addi	s0,sp,384
    1221:	00620e57          	0x620e57
    1225:	0000                	unimp
    1227:	2004                	fld	fs1,0(s0)
    1229:	0000                	unimp
    122b:	00000e07          	0xe07
    122f:	0300                	addi	s0,sp,384
    1231:	0e58                	addi	a4,sp,788
    1233:	0062                	c.slli	zero,0x18
    1235:	0000                	unimp
    1237:	1404                	addi	s1,sp,544
    1239:	040c                	addi	a1,sp,512
    123b:	6508                	flw	fa0,8(a0)
    123d:	7078                	flw	fa4,100(s0)
    123f:	0300                	addi	s0,sp,384
    1241:	0e59                	addi	t3,t3,22
    1243:	0062                	c.slli	zero,0x18
    1245:	0000                	unimp
    1247:	0b04                	addi	s1,sp,400
    1249:	0401                	addi	s0,s0,0
    124b:	00006307          	0x6307
    124f:	0300                	addi	s0,sp,384
    1251:	0e5a                	slli	t3,t3,0x16
    1253:	0062                	c.slli	zero,0x18
    1255:	0000                	unimp
    1257:	0104                	addi	s1,sp,128
    1259:	0400                	addi	s0,sp,512
    125b:	0900                	addi	s0,sp,144
    125d:	000001fb          	0x1fb
    1261:	0308                	addi	a0,sp,384
    1263:	074c                	addi	a1,sp,900
    1265:	000000f3          	0xf3
    1269:	660a                	flw	fa2,128(sp)
    126b:	746c                	flw	fa1,108(s0)
    126d:	0300                	addi	s0,sp,384
    126f:	0a4e                	slli	s4,s4,0x13
    1271:	00000077          	0x77
    1275:	0002070b          	0x2070b
    1279:	0300                	addi	s0,sp,384
    127b:	055c                	addi	a5,sp,644
    127d:	00000083          	lb	ra,0(zero) # 0 <.Ldebug_info0>
    1281:	0c00                	addi	s0,sp,528
    1283:	0622                	slli	a2,a2,0x8
    1285:	0000                	unimp
    1287:	2301                	jal	1787 <.Ldebug_info0+0xc>
    1289:	3a01                	jal	b99 <.LVL54+0x3>
    128b:	0000                	unimp
    128d:	8600                	0x8600
    128f:	0014                	0x14
    1291:	6400                	flw	fs0,8(s0)
    1293:	0000                	unimp
    1295:	0100                	addi	s0,sp,128
    1297:	d89c                	sw	a5,48(s1)
    1299:	0001                	nop
    129b:	0d00                	addi	s0,sp,656
    129d:	0061                	c.nop	24
    129f:	2301                	jal	179f <.Ldebug_info0+0x24>
    12a1:	00007713          	andi	a4,zero,0
    12a5:	7c00                	flw	fs0,56(s0)
    12a7:	0020                	addi	s0,sp,8
    12a9:	0e00                	addi	s0,sp,784
    12ab:	0080                	addi	s0,sp,64
    12ad:	0000                	unimp
    12af:	2501                	jal	18af <.LLST13+0x1b>
    12b1:	00002c03          	lw	s8,0(zero) # 0 <.Ldebug_info0>
    12b5:	0400                	addi	s0,sp,512
    12b7:	0021                	c.nop	8
    12b9:	0f00                	addi	s0,sp,912
    12bb:	020c                	addi	a1,sp,256
    12bd:	0000                	unimp
    12bf:	2501                	jal	18bf <.LLST13+0x2b>
    12c1:	00002c03          	lw	s8,0(zero) # 0 <.Ldebug_info0>
    12c5:	0000                	unimp
    12c7:	4110                	lw	a2,0(a0)
    12c9:	635f 0100 0326      	0x3260100635f
    12cf:	01d8                	addi	a4,sp,196
    12d1:	0000                	unimp
    12d3:	4111                	li	sp,4
    12d5:	735f 0100 0326      	0x3260100735f
    12db:	01d8                	addi	a4,sp,196
    12dd:	0000                	unimp
    12df:	7b06                	flw	fs6,96(sp)
    12e1:	0800                	addi	s0,sp,16
    12e3:	1aff                	0x1aff
    12e5:	129f 5f41 0065      	0x655f41129f
    12eb:	2601                	jal	15eb <.LVL2+0x1>
    12ed:	0001d803          	lhu	a6,0(gp)
    12f1:	1800                	addi	s0,sp,48
    12f3:	0021                	c.nop	8
    12f5:	0e00                	addi	s0,sp,784
    12f7:	0096                	slli	ra,ra,0x5
    12f9:	0000                	unimp
    12fb:	2601                	jal	15fb <.L2+0x1>
    12fd:	0001df03          	lhu	t5,0(gp)
    1301:	4400                	lw	s0,8(s0)
    1303:	0021                	c.nop	8
    1305:	0e00                	addi	s0,sp,784
    1307:	0000007b          	0x7b
    130b:	2601                	jal	160b <main+0x3>
    130d:	0001df03          	lhu	t5,0(gp)
    1311:	7000                	flw	fs0,32(s0)
    1313:	0021                	c.nop	8
    1315:	1200                	addi	s0,sp,288
    1317:	0072                	c.slli	zero,0x1c
    1319:	2701                	jal	1a19 <.LLST13+0x185>
    131b:	0000550b          	0x550b
    131f:	b100                	fsd	fs0,32(a0)
    1321:	0021                	c.nop	8
    1323:	1300                	addi	s0,sp,416
    1325:	04c8                	addi	a0,sp,580
    1327:	0000                	unimp
    1329:	000001ab          	0x1ab
    132d:	4c14                	lw	a3,24(s0)
    132f:	0001                	nop
    1331:	0100                	addi	s0,sp,128
    1333:	032a                	slli	t1,t1,0xa
    1335:	00cd                	addi	ra,ra,19
    1337:	0000                	unimp
    1339:	1500                	addi	s0,sp,672
    133b:	01bd                	addi	gp,gp,15
    133d:	0000                	unimp
    133f:	0f14                	addi	a3,sp,912
    1341:	0006                	c.slli	zero,0x1
    1343:	0100                	addi	s0,sp,128
    1345:	002c032b          	0x2c032b
    1349:	0000                	unimp
    134b:	1600                	addi	s0,sp,800
    134d:	14b6                	slli	s1,s1,0x2d
    134f:	0000                	unimp
    1351:	0030                	addi	a2,sp,8
    1353:	0000                	unimp
    1355:	0f0e                	slli	t5,t5,0x3
    1357:	0006                	c.slli	zero,0x1
    1359:	0100                	addi	s0,sp,128
    135b:	002c032b          	0x2c032b
    135f:	0000                	unimp
    1361:	21e9                	jal	182b <.Ldebug_info0+0xb0>
    1363:	0000                	unimp
    1365:	0000                	unimp
    1367:	0402                	c.slli64	s0
    1369:	f205                	bnez	a2,1289 <.L38+0x1>
    136b:	0001                	nop
    136d:	0200                	addi	s0,sp,256
    136f:	0704                	addi	s1,sp,896
    1371:	0170                	addi	a2,sp,140
    1373:	0000                	unimp
	...

00001376 <.Ldebug_info0>:
    1376:	00000297          	auipc	t0,0x0
    137a:	0004                	0x4
    137c:	06ff                	0x6ff
    137e:	0000                	unimp
    1380:	0104                	addi	s1,sp,128
    1382:	0000009b          	0x9b
    1386:	340c                	fld	fa1,40(s0)
    1388:	0006                	c.slli	zero,0x1
    138a:	8200                	0x8200
    138c:	0001                	nop
    138e:	ea00                	fsw	fs0,16(a2)
    1390:	0014                	0x14
    1392:	6600                	flw	fs0,8(a2)
    1394:	0000                	unimp
    1396:	4800                	lw	s0,16(s0)
    1398:	0025                	c.nop	9
    139a:	0200                	addi	s0,sp,256
    139c:	0504                	addi	s1,sp,640
    139e:	6e69                	lui	t3,0x1a
    13a0:	0074                	addi	a3,sp,12
    13a2:	1d060103          	lb	sp,464(a2) # 502c2 <.LC0+0x4c172>
    13a6:	0000                	unimp
    13a8:	0400                	addi	s0,sp,512
    13aa:	062d                	addi	a2,a2,11
    13ac:	0000                	unimp
    13ae:	4802                	lw	a6,0(sp)
    13b0:	0d01                	addi	s10,s10,0
    13b2:	0025                	c.nop	9
    13b4:	0000                	unimp
    13b6:	ed050803          	lb	a6,-304(a0)
    13ba:	0001                	nop
    13bc:	0300                	addi	s0,sp,384
    13be:	0801                	addi	a6,a6,0
    13c0:	0000001b          	0x1b
    13c4:	2c04                	fld	fs1,24(s0)
    13c6:	0006                	c.slli	zero,0x1
    13c8:	0200                	addi	s0,sp,256
    13ca:	5b16014b          	fnmsub.d	ft2,fa2,fa7,fa1,rne
    13ce:	0000                	unimp
    13d0:	0300                	addi	s0,sp,384
    13d2:	0704                	addi	s1,sp,896
    13d4:	0175                	addi	sp,sp,29
    13d6:	0000                	unimp
    13d8:	6b070803          	lb	a6,1712(a4)
    13dc:	0001                	nop
    13de:	0300                	addi	s0,sp,384
    13e0:	0702                	c.slli64	a4
    13e2:	0068                	addi	a0,sp,12
    13e4:	0000                	unimp
    13e6:	1405                	addi	s0,s0,-31
    13e8:	0000                	unimp
    13ea:	0300                	addi	s0,sp,384
    13ec:	0f48                	addi	a0,sp,916
    13ee:	007c                	addi	a5,sp,12
    13f0:	0000                	unimp
    13f2:	29040803          	lb	a6,656(s0) # 141a <.L58+0x4>
    13f6:	06000007          	0x6000007
    13fa:	0308                	addi	a0,sp,384
    13fc:	00cd034f          	fnmadd.s	ft6,fs10,fa2,ft0,rne
    1400:	0000                	unimp
    1402:	00000807          	0x807
    1406:	0300                	addi	s0,sp,384
    1408:	005b0e57          	0x5b0e57
    140c:	0000                	unimp
    140e:	2004                	fld	fs1,0(s0)
    1410:	0000                	unimp
    1412:	00000e07          	0xe07
    1416:	0300                	addi	s0,sp,384
    1418:	0e58                	addi	a4,sp,788
    141a:	0000005b          	0x5b
    141e:	1404                	addi	s1,sp,544
    1420:	040c                	addi	a1,sp,512
    1422:	6508                	flw	fa0,8(a0)
    1424:	7078                	flw	fa4,100(s0)
    1426:	0300                	addi	s0,sp,384
    1428:	0e59                	addi	t3,t3,22
    142a:	0000005b          	0x5b
    142e:	0b04                	addi	s1,sp,400
    1430:	0401                	addi	s0,s0,0
    1432:	00006307          	0x6307
    1436:	0300                	addi	s0,sp,384
    1438:	0e5a                	slli	t3,t3,0x16
    143a:	0000005b          	0x5b
    143e:	0104                	addi	s1,sp,128
    1440:	0400                	addi	s0,sp,512
    1442:	0900                	addi	s0,sp,144
    1444:	000001fb          	0x1fb
    1448:	0308                	addi	a0,sp,384
    144a:	074c                	addi	a1,sp,900
    144c:	000000f3          	0xf3
    1450:	660a                	flw	fa2,128(sp)
    1452:	746c                	flw	fa1,108(s0)
    1454:	0300                	addi	s0,sp,384
    1456:	0a4e                	slli	s4,s4,0x13
    1458:	0070                	addi	a2,sp,12
    145a:	0000                	unimp
    145c:	0002070b          	0x2070b
    1460:	0300                	addi	s0,sp,384
    1462:	055c                	addi	a5,sp,644
    1464:	00000083          	lb	ra,0(zero) # 0 <.Ldebug_info0>
    1468:	0c00                	addi	s0,sp,528
    146a:	0691                	addi	a3,a3,4
    146c:	0000                	unimp
    146e:	2401                	jal	166e <.Ldebug_info0+0x37>
    1470:	7001                	c.lui	zero,0xfffe0
    1472:	0000                	unimp
    1474:	ea00                	fsw	fs0,16(a2)
    1476:	0014                	0x14
    1478:	6600                	flw	fs0,8(a2)
    147a:	0000                	unimp
    147c:	0100                	addi	s0,sp,128
    147e:	839c                	0x839c
    1480:	0002                	c.slli64	zero
    1482:	0d00                	addi	s0,sp,656
    1484:	0069                	c.nop	26
    1486:	2401                	jal	1686 <.LLST11+0x4>
    1488:	3315                	jal	11ac <.L31+0x18>
    148a:	0000                	unimp
    148c:	fd00                	fsw	fs0,56(a0)
    148e:	0021                	c.nop	8
    1490:	0e00                	addi	s0,sp,784
    1492:	5f41                	li	t5,-16
    1494:	26010063          	beqz	sp,16f4 <.LLST11+0x72>
    1498:	00028303          	lb	t1,0(t0) # 1376 <.Ldebug_info0>
    149c:	0f00                	addi	s0,sp,912
    149e:	5f41                	li	t5,-16
    14a0:	26010073          	0x26010073
    14a4:	00028303          	lb	t1,0(t0)
    14a8:	2900                	fld	fs0,16(a0)
    14aa:	0022                	c.slli	zero,0x8
    14ac:	0f00                	addi	s0,sp,912
    14ae:	5f41                	li	t5,-16
    14b0:	0065                	c.nop	25
    14b2:	2601                	jal	17b2 <.Ldebug_info0+0x37>
    14b4:	00028303          	lb	t1,0(t0)
    14b8:	5200                	lw	s0,32(a2)
    14ba:	0022                	c.slli	zero,0x8
    14bc:	1000                	addi	s0,sp,32
    14be:	0096                	slli	ra,ra,0x5
    14c0:	0000                	unimp
    14c2:	2601                	jal	17c2 <.Ldebug_info0+0x47>
    14c4:	00028a03          	lb	s4,0(t0)
    14c8:	7000                	flw	fs0,32(s0)
    14ca:	0022                	c.slli	zero,0x8
    14cc:	1000                	addi	s0,sp,32
    14ce:	0000007b          	0x7b
    14d2:	2601                	jal	17d2 <.Ldebug_info0+0x57>
    14d4:	00028a03          	lb	s4,0(t0)
    14d8:	a500                	fsd	fs0,8(a0)
    14da:	0022                	c.slli	zero,0x8
    14dc:	0e00                	addi	s0,sp,784
    14de:	0061                	c.nop	24
    14e0:	2701                	jal	1be0 <.LLST14+0x116>
    14e2:	700a                	flw	ft0,160(sp)
    14e4:	0000                	unimp
    14e6:	1100                	addi	s0,sp,160
    14e8:	04e0                	addi	s0,sp,588
    14ea:	0000                	unimp
    14ec:	0270                	addi	a2,sp,268
    14ee:	0000                	unimp
    14f0:	6412                	flw	fs0,4(sp)
    14f2:	0006                	c.slli	zero,0x1
    14f4:	0100                	addi	s0,sp,128
    14f6:	0329                	addi	t1,t1,10
    14f8:	00050013          	mv	zero,a0
    14fc:	1000                	addi	s0,sp,32
    14fe:	0671                	addi	a2,a2,28
    1500:	0000                	unimp
    1502:	2901                	jal	1912 <.LLST13+0x7e>
    1504:	00004e03          	lbu	t3,0(zero) # 0 <.Ldebug_info0>
    1508:	db00                	sw	s0,48(a4)
    150a:	0022                	c.slli	zero,0x8
    150c:	1100                	addi	s0,sp,160
    150e:	0518                	addi	a4,sp,640
    1510:	0000                	unimp
    1512:	01ba                	slli	gp,gp,0xe
    1514:	0000                	unimp
    1516:	8110                	0x8110
    1518:	0006                	c.slli	zero,0x1
    151a:	0100                	addi	s0,sp,128
    151c:	0329                	addi	t1,t1,10
    151e:	0025                	c.nop	9
    1520:	0000                	unimp
    1522:	231e                	fld	ft6,448(sp)
    1524:	0000                	unimp
    1526:	0614                	addi	a3,sp,768
    1528:	0015                	c.nop	5
    152a:	9100                	0x9100
    152c:	0002                	c.slli64	zero
    152e:	0000                	unimp
    1530:	1615                	addi	a2,a2,-27
    1532:	0000052b          	0x52b
    1536:	2901                	jal	1946 <.LLST13+0xb2>
    1538:	00002503          	lw	a0,0(zero) # 0 <.Ldebug_info0>
    153c:	1700                	addi	s0,sp,928
    153e:	0000023b          	0x23b
    1542:	8716                	mv	a4,t0
    1544:	0005                	c.nop	1
    1546:	0100                	addi	s0,sp,128
    1548:	0329                	addi	t1,t1,10
    154a:	00000283          	lb	t0,0(zero) # 0 <.Ldebug_info0>
    154e:	d316                	sw	t0,164(sp)
    1550:	0004                	0x4
    1552:	0100                	addi	s0,sp,128
    1554:	0329                	addi	t1,t1,10
    1556:	00000283          	lb	t0,0(zero) # 0 <.Ldebug_info0>
    155a:	f216                	fsw	ft5,36(sp)
    155c:	0004                	0x4
    155e:	0100                	addi	s0,sp,128
    1560:	0329                	addi	t1,t1,10
    1562:	00000283          	lb	t0,0(zero) # 0 <.Ldebug_info0>
    1566:	4416                	lw	s0,68(sp)
    1568:	0005                	c.nop	1
    156a:	0100                	addi	s0,sp,128
    156c:	0329                	addi	t1,t1,10
    156e:	028a                	slli	t0,t0,0x2
    1570:	0000                	unimp
    1572:	5a16                	lw	s4,100(sp)
    1574:	0005                	c.nop	1
    1576:	0100                	addi	s0,sp,128
    1578:	0329                	addi	t1,t1,10
    157a:	028a                	slli	t0,t0,0x2
    157c:	0000                	unimp
    157e:	00021a17          	auipc	s4,0x21
    1582:	0e00                	addi	s0,sp,784
    1584:	5f5f 0078 2901      	0x290100785f5f
    158a:	00028a03          	lb	s4,0(t0)
    158e:	0000                	unimp
    1590:	00022c17          	auipc	s8,0x22
    1594:	0e00                	addi	s0,sp,784
    1596:	5f5f 0078 2901      	0x290100785f5f
    159c:	00028a03          	lb	s4,0(t0)
    15a0:	0000                	unimp
    15a2:	0e15                	addi	t3,t3,5
    15a4:	5f5f 0078 2901      	0x290100785f5f
    15aa:	00028a03          	lb	s4,0(t0)
    15ae:	0000                	unimp
    15b0:	1700                	addi	s0,sp,928
    15b2:	024d                	addi	tp,tp,19
    15b4:	0000                	unimp
    15b6:	5f0e                	lw	t5,224(sp)
    15b8:	785f 0100 0329      	0x3290100785f
    15be:	028a                	slli	t0,t0,0x2
    15c0:	0000                	unimp
    15c2:	1700                	addi	s0,sp,928
    15c4:	025f 0000 5f0e      	0x5f0e0000025f
    15ca:	785f 0100 0329      	0x3290100785f
    15d0:	028a                	slli	t0,t0,0x2
    15d2:	0000                	unimp
    15d4:	1500                	addi	s0,sp,672
    15d6:	5f0e                	lw	t5,224(sp)
    15d8:	785f 0100 0329      	0x3290100785f
    15de:	028a                	slli	t0,t0,0x2
    15e0:	0000                	unimp
    15e2:	0000                	unimp
    15e4:	0000                	unimp
    15e6:	00053013          	sltiu	zero,a0,0
    15ea:	1600                	addi	s0,sp,800
    15ec:	02fc                	addi	a5,sp,332
    15ee:	0000                	unimp
    15f0:	2a01                	jal	1700 <.LLST11+0x7e>
    15f2:	0000cd03          	lbu	s10,0(ra)
    15f6:	0000                	unimp
    15f8:	0300                	addi	s0,sp,384
    15fa:	0504                	addi	s1,sp,640
    15fc:	01f2                	slli	gp,gp,0x1c
    15fe:	0000                	unimp
    1600:	70070403          	lb	s0,1792(a4)
    1604:	0001                	nop
    1606:	1800                	addi	s0,sp,48
    1608:	00000417          	auipc	s0,0x0
    160c:	00000417          	auipc	s0,0x0
    1610:	2200                	fld	fs0,0(a2)
    1612:	0000                	unimp
    1614:	0200                	addi	s0,sp,256
    1616:	6300                	flw	fs0,0(a4)
    1618:	0008                	0x8
    161a:	0400                	addi	s0,sp,512
    161c:	9001                	srli	s0,s0,0x20
    161e:	50000027          	0x50000027
    1622:	0015                	c.nop	5
    1624:	cc00                	sw	s0,24(s0)
    1626:	0015                	c.nop	5
    1628:	9d00                	0x9d00
    162a:	0006                	c.slli	zero,0x1
    162c:	8200                	0x8200
    162e:	0001                	nop
    1630:	cc00                	sw	s0,24(s0)
    1632:	0006                	c.slli	zero,0x1
    1634:	0100                	addi	s0,sp,128
    1636:	                	lw	s0,0(s1)

00001637 <.Ldebug_info0>:
    1637:	0140                	addi	s0,sp,132
    1639:	0000                	unimp
    163b:	0004                	0x4
    163d:	00000877          	0x877
    1641:	0104                	addi	s1,sp,128
    1643:	0000009b          	0x9b
    1647:	ec0c                	fsw	fa1,24(s0)
    1649:	0006                	c.slli	zero,0x1
    164b:	8200                	0x8200
    164d:	0001                	nop
    164f:	ce00                	sw	s0,24(a2)
    1651:	0015                	c.nop	5
    1653:	3a00                	fld	fs0,48(a2)
    1655:	0000                	unimp
    1657:	f800                	fsw	fs0,48(s0)
    1659:	0028                	addi	a0,sp,8
    165b:	0200                	addi	s0,sp,256
    165d:	0504                	addi	s1,sp,640
    165f:	6e69                	lui	t3,0x1a
    1661:	0074                	addi	a3,sp,12
    1663:	75070403          	lb	s0,1872(a4)
    1667:	0001                	nop
    1669:	0300                	addi	s0,sp,384
    166b:	0508                	addi	a0,sp,640
    166d:	01ed                	addi	gp,gp,27
    166f:	0000                	unimp
    1671:	24041003          	lh	zero,576(s0) # 184c <.Ldebug_info0+0xd1>
    1675:	03000007          	0x3000007
    1679:	0601                	addi	a2,a2,0
    167b:	001d                	c.nop	7
    167d:	0000                	unimp
    167f:	1b080103          	lb	sp,432(a6) # 512b4 <.LC0+0x4d164>
    1683:	0000                	unimp
    1685:	0300                	addi	s0,sp,384
    1687:	0502                	c.slli64	a0
    1689:	0746                	slli	a4,a4,0x11
    168b:	0000                	unimp
    168d:	68070203          	lb	tp,1664(a4)
    1691:	0000                	unimp
    1693:	0300                	addi	s0,sp,384
    1695:	0504                	addi	s1,sp,640
    1697:	01f2                	slli	gp,gp,0x1c
    1699:	0000                	unimp
    169b:	70070403          	lb	s0,1792(a4)
    169f:	0001                	nop
    16a1:	0300                	addi	s0,sp,384
    16a3:	0708                	addi	a0,sp,896
    16a5:	0000016b          	0x16b
    16a9:	24080103          	lb	sp,576(a6)
    16ad:	0000                	unimp
    16af:	0400                	addi	s0,sp,512
    16b1:	073e                	slli	a4,a4,0xf
    16b3:	0000                	unimp
    16b5:	7b02                	flw	fs6,32(sp)
    16b7:	4816                	lw	a6,68(sp)
    16b9:	0000                	unimp
    16bb:	0500                	addi	s0,sp,640
    16bd:	0079                	c.nop	30
    16bf:	0000                	unimp
    16c1:	2d04                	fld	fs1,24(a0)
    16c3:	0006                	c.slli	zero,0x1
    16c5:	0200                	addi	s0,sp,256
    16c7:	0f80                	addi	s0,sp,976
    16c9:	0025                	c.nop	9
    16cb:	0000                	unimp
    16cd:	2c04                	fld	fs1,24(s0)
    16cf:	0006                	c.slli	zero,0x1
    16d1:	0200                	addi	s0,sp,256
    16d3:	1681                	addi	a3,a3,-32
    16d5:	002c                	addi	a1,sp,8
    16d7:	0000                	unimp
    16d9:	38040403          	lb	s0,896(s0)
    16dd:	03000007          	0x3000007
    16e1:	0308                	addi	a0,sp,384
    16e3:	0730                	addi	a2,sp,904
    16e5:	0000                	unimp
    16e7:	29040803          	lb	a6,656(s0)
    16eb:	03000007          	0x3000007
    16ef:	0310                	addi	a2,sp,384
    16f1:	06d8                	addi	a4,sp,836
    16f3:	0000                	unimp
    16f5:	1c032003          	lw	zero,448(t1)
    16f9:	06000007          	0x6000007
    16fd:	0085                	addi	ra,ra,1
    16ff:	0000                	unimp
    1701:	00d5                	addi	ra,ra,21
    1703:	0000                	unimp
    1705:	00002c07          	flw	fs8,0(zero) # 0 <.Ldebug_info0>
    1709:	ff00                	fsw	fs0,56(a4)
    170b:	0500                	addi	s0,sp,640
    170d:	00c5                	addi	ra,ra,17
    170f:	0000                	unimp
    1711:	1208                	addi	a0,sp,288
    1713:	02000007          	0x2000007
    1717:	0202                	c.slli64	tp
    1719:	d516                	sw	t0,168(sp)
    171b:	0000                	unimp
    171d:	0900                	addi	s0,sp,144
    171f:	00000417          	auipc	s0,0x0
    1723:	c201                	beqz	a2,1723 <.LLST11+0xa1>
    1725:	0102                	c.slli64	sp
    1727:	0025                	c.nop	9
    1729:	0000                	unimp
    172b:	15ce                	slli	a1,a1,0x33
    172d:	0000                	unimp
    172f:	003a                	c.slli	zero,0xe
    1731:	0000                	unimp
    1733:	9c01                	0x9c01
    1735:	780a                	flw	fa6,160(sp)
    1737:	0100                	addi	s0,sp,128
    1739:	02c2                	slli	t0,t0,0x10
    173b:	9612                	add	a2,a2,tp
    173d:	0000                	unimp
    173f:	5600                	lw	s0,40(a2)
    1741:	0b000023          	sb	a6,160(zero) # a0 <.L4+0x4>
    1745:	6572                	flw	fa0,28(sp)
    1747:	0074                	addi	a3,sp,12
    1749:	c401                	beqz	s0,1751 <.LLST12+0x22>
    174b:	0902                	c.slli64	s2
    174d:	008a                	slli	ra,ra,0x2
    174f:	0000                	unimp
    1751:	480c                	lw	a1,16(s0)
    1753:	0005                	c.nop	1
    1755:	0d00                	addi	s0,sp,656
    1757:	000006e7          	jalr	a3,zero # 0 <.Ldebug_info0>
    175b:	c601                	beqz	a2,1763 <.LLST12+0x34>
    175d:	0302                	c.slli64	t1
    175f:	0096                	slli	ra,ra,0x5
    1761:	0000                	unimp
    1763:	2382                	fld	ft7,0(sp)
    1765:	0000                	unimp
    1767:	5f0e                	lw	t5,224(sp)
    1769:	615f 0100 02c6      	0x2c60100615f
    176f:	00009603          	lh	a2,0(ra)
    1773:	ae00                	fsd	fs0,24(a2)
    1775:	00000023          	sb	zero,0(zero) # 0 <.Ldebug_info0>
	...

0000177b <.Ldebug_info0>:
    177b:	000000d3          	fadd.s	ft1,ft0,ft0,rne
    177f:	0004                	0x4
    1781:	0941                	addi	s2,s2,16
    1783:	0000                	unimp
    1785:	0104                	addi	s1,sp,128
    1787:	0000009b          	0x9b
    178b:	ec0c                	fsw	fa1,24(s0)
    178d:	0006                	c.slli	zero,0x1
    178f:	8200                	0x8200
    1791:	0001                	nop
    1793:	d700                	sw	s0,40(a4)
    1795:	0029                	c.nop	10
    1797:	0200                	addi	s0,sp,256
    1799:	0504                	addi	s1,sp,640
    179b:	6e69                	lui	t3,0x1a
    179d:	0074                	addi	a3,sp,12
    179f:	75070403          	lb	s0,1872(a4)
    17a3:	0001                	nop
    17a5:	0300                	addi	s0,sp,384
    17a7:	0508                	addi	a0,sp,640
    17a9:	01ed                	addi	gp,gp,27
    17ab:	0000                	unimp
    17ad:	24041003          	lh	zero,576(s0) # 195f <.LLST13+0xcb>
    17b1:	03000007          	0x3000007
    17b5:	0601                	addi	a2,a2,0
    17b7:	001d                	c.nop	7
    17b9:	0000                	unimp
    17bb:	1b080103          	lb	sp,432(a6)
    17bf:	0000                	unimp
    17c1:	0300                	addi	s0,sp,384
    17c3:	0502                	c.slli64	a0
    17c5:	0746                	slli	a4,a4,0x11
    17c7:	0000                	unimp
    17c9:	68070203          	lb	tp,1664(a4)
    17cd:	0000                	unimp
    17cf:	0300                	addi	s0,sp,384
    17d1:	0504                	addi	s1,sp,640
    17d3:	01f2                	slli	gp,gp,0x1c
    17d5:	0000                	unimp
    17d7:	70070403          	lb	s0,1792(a4)
    17db:	0001                	nop
    17dd:	0300                	addi	s0,sp,384
    17df:	0708                	addi	a0,sp,896
    17e1:	0000016b          	0x16b
    17e5:	24080103          	lb	sp,576(a6)
    17e9:	0000                	unimp
    17eb:	0400                	addi	s0,sp,512
    17ed:	073e                	slli	a4,a4,0xf
    17ef:	0000                	unimp
    17f1:	7b01                	lui	s6,0xfffe0
    17f3:	4016                	0x4016
    17f5:	0000                	unimp
    17f7:	0500                	addi	s0,sp,640
    17f9:	0071                	c.nop	28
    17fb:	0000                	unimp
    17fd:	38040403          	lb	s0,896(s0)
    1801:	03000007          	0x3000007
    1805:	0308                	addi	a0,sp,384
    1807:	0730                	addi	a2,sp,904
    1809:	0000                	unimp
    180b:	29040803          	lb	a6,656(s0)
    180f:	03000007          	0x3000007
    1813:	0310                	addi	a2,sp,384
    1815:	06d8                	addi	a4,sp,836
    1817:	0000                	unimp
    1819:	1c032003          	lw	zero,448(t1)
    181d:	06000007          	0x6000007
    1821:	007d                	c.nop	31
    1823:	0000                	unimp
    1825:	00b5                	addi	ra,ra,13
    1827:	0000                	unimp
    1829:	00002407          	flw	fs0,0(zero) # 0 <.Ldebug_info0>
    182d:	ff00                	fsw	fs0,56(a4)
    182f:	0500                	addi	s0,sp,640
    1831:	00a5                	addi	ra,ra,9
    1833:	0000                	unimp
    1835:	1208                	addi	a0,sp,288
    1837:	01000007          	0x1000007
    183b:	0202                	c.slli64	tp
    183d:	b516                	fsd	ft5,168(sp)
    183f:	0000                	unimp
    1841:	0900                	addi	s0,sp,144
    1843:	00ba                	slli	ra,ra,0xe
    1845:	0000                	unimp
    1847:	b202                	fsd	ft0,288(sp)
    1849:	0f02                	c.slli64	t5
    184b:	0305                	addi	t1,t1,1
    184d:	4040                	lw	s0,4(s0)
    184f:	0000                	unimp
	...

Disassembly of section .debug_abbrev:

00000000 <.Ldebug_abbrev0>:
   0:	1101                	addi	sp,sp,-32
   2:	2501                	jal	602 <.LASF23+0x21>
   4:	130e                	slli	t1,t1,0x23
   6:	1b0e030b          	0x1b0e030b
   a:	110e                	slli	sp,sp,0x23
   c:	1201                	addi	tp,tp,-32
   e:	1006                	c.slli	zero,0x21
  10:	02000017          	auipc	zero,0x2000
  14:	0024                	addi	s1,sp,8
  16:	0b3e0b0b          	0xb3e0b0b
  1a:	00000e03          	lb	t3,0(zero) # 0 <.Ldebug_abbrev0>
  1e:	03001603          	lh	a2,48(zero) # 30 <.LASF24+0x7>
  22:	3a0e                	fld	fs4,224(sp)
  24:	390b3b0b          	0x390b3b0b
  28:	0013490b          	0x13490b
  2c:	0400                	addi	s0,sp,512
  2e:	0024                	addi	s1,sp,8
  30:	0b3e0b0b          	0xb3e0b0b
  34:	00000803          	lb	a6,0(zero) # 0 <.Ldebug_abbrev0>
  38:	1305                	addi	t1,t1,-31
  3a:	0b01                	addi	s6,s6,0
  3c:	3b0b3a0b          	0x3b0b3a0b
  40:	010b390b          	0x10b390b
  44:	06000013          	li	zero,96
  48:	000d                	c.nop	3
  4a:	0b3a0e03          	lb	t3,179(s4) # 22631 <.LC0+0x1e4e1>
  4e:	0b390b3b          	0xb390b3b
  52:	1349                	addi	t1,t1,-14
  54:	0b0d0b0b          	0xb0d0b0b
  58:	0b0c                	addi	a1,sp,400
  5a:	0b38                	addi	a4,sp,408
  5c:	0000                	unimp
  5e:	03000d07          	0x3000d07
  62:	3a08                	fld	fa0,48(a2)
  64:	390b3b0b          	0x390b3b0b
  68:	0b13490b          	0xb13490b
  6c:	0c0b0d0b          	0xc0b0d0b
  70:	000b380b          	0xb380b
  74:	0800                	addi	s0,sp,16
  76:	0e030117          	auipc	sp,0xe030
  7a:	0b3a0b0b          	0xb3a0b0b
  7e:	0b390b3b          	0xb390b3b
  82:	1301                	addi	t1,t1,-32
  84:	0000                	unimp
  86:	0d09                	addi	s10,s10,2
  88:	0300                	addi	s0,sp,384
  8a:	3a08                	fld	fa0,48(a2)
  8c:	390b3b0b          	0x390b3b0b
  90:	0013490b          	0x13490b
  94:	0a00                	addi	s0,sp,272
  96:	000d                	c.nop	3
  98:	0b3a0e03          	lb	t3,179(s4)
  9c:	0b390b3b          	0xb390b3b
  a0:	1349                	addi	t1,t1,-14
  a2:	0000                	unimp
  a4:	3f012e0b          	0x3f012e0b
  a8:	0319                	addi	t1,t1,6
  aa:	3a0e                	fld	fs4,224(sp)
  ac:	390b3b0b          	0x390b3b0b
  b0:	4919270b          	0x4919270b
  b4:	12011113          	0x12011113
  b8:	4006                	0x4006
  ba:	9718                	0x9718
  bc:	1942                	slli	s2,s2,0x30
  be:	1301                	addi	t1,t1,-32
  c0:	0000                	unimp
  c2:	050c                	addi	a1,sp,640
  c4:	0300                	addi	s0,sp,384
  c6:	3a08                	fld	fa0,48(a2)
  c8:	390b3b0b          	0x390b3b0b
  cc:	0213490b          	0x213490b
  d0:	0d000017          	auipc	zero,0xd000
  d4:	0034                	addi	a3,sp,8
  d6:	0b3a0e03          	lb	t3,179(s4)
  da:	0b390b3b          	0xb390b3b
  de:	1349                	addi	t1,t1,-14
  e0:	0b1c                	addi	a5,sp,400
  e2:	0000                	unimp
  e4:	340e                	fld	fs0,224(sp)
  e6:	0300                	addi	s0,sp,384
  e8:	3a08                	fld	fa0,48(a2)
  ea:	390b3b0b          	0x390b3b0b
  ee:	0013490b          	0x13490b
  f2:	0f00                	addi	s0,sp,912
  f4:	0034                	addi	a3,sp,8
  f6:	0b3a0803          	lb	a6,179(s4)
  fa:	0b390b3b          	0xb390b3b
  fe:	1349                	addi	t1,t1,-14
 100:	1802                	slli	a6,a6,0x20
 102:	0000                	unimp
 104:	3410                	fld	fa2,40(s0)
 106:	0300                	addi	s0,sp,384
 108:	3a0e                	fld	fs4,224(sp)
 10a:	390b3b0b          	0x390b3b0b
 10e:	0213490b          	0x213490b
 112:	0018                	0x18
 114:	1100                	addi	s0,sp,160
 116:	0034                	addi	a3,sp,8
 118:	0b3a0e03          	lb	t3,179(s4)
 11c:	0b390b3b          	0xb390b3b
 120:	1349                	addi	t1,t1,-14
 122:	1702                	slli	a4,a4,0x20
 124:	0000                	unimp
 126:	0b12                	slli	s6,s6,0x4
 128:	5501                	li	a0,-32
 12a:	00130117          	auipc	sp,0x130
 12e:	1300                	addi	s0,sp,416
 130:	0034                	addi	a3,sp,8
 132:	0b3a0e03          	lb	t3,179(s4)
 136:	0b390b3b          	0xb390b3b
 13a:	1349                	addi	t1,t1,-14
 13c:	0000                	unimp
 13e:	0b14                	addi	a3,sp,400
 140:	0101                	addi	sp,sp,0
 142:	15000013          	li	zero,336
 146:	0000010b          	0x10b
	...

0000014b <.Ldebug_abbrev0>:
 14b:	1101                	addi	sp,sp,-32
 14d:	2501                	jal	74d <.LASF5+0x7>
 14f:	130e                	slli	t1,t1,0x23
 151:	1b0e030b          	0x1b0e030b
 155:	110e                	slli	sp,sp,0x23
 157:	1201                	addi	tp,tp,-32
 159:	1006                	c.slli	zero,0x21
 15b:	02000017          	auipc	zero,0x2000
 15f:	0024                	addi	s1,sp,8
 161:	0b3e0b0b          	0xb3e0b0b
 165:	00000e03          	lb	t3,0(zero) # 0 <.Ldebug_abbrev0>
 169:	03001603          	lh	a2,48(zero) # 30 <.LASF24+0x7>
 16d:	3a0e                	fld	fs4,224(sp)
 16f:	390b3b0b          	0x390b3b0b
 173:	0013490b          	0x13490b
 177:	0400                	addi	s0,sp,512
 179:	0024                	addi	s1,sp,8
 17b:	0b3e0b0b          	0xb3e0b0b
 17f:	00000803          	lb	a6,0(zero) # 0 <.Ldebug_abbrev0>
 183:	1305                	addi	t1,t1,-31
 185:	0b01                	addi	s6,s6,0
 187:	3b0b3a0b          	0x3b0b3a0b
 18b:	010b390b          	0x10b390b
 18f:	06000013          	li	zero,96
 193:	000d                	c.nop	3
 195:	0b3a0e03          	lb	t3,179(s4)
 199:	0b390b3b          	0xb390b3b
 19d:	1349                	addi	t1,t1,-14
 19f:	0b0d0b0b          	0xb0d0b0b
 1a3:	0b0c                	addi	a1,sp,400
 1a5:	0b38                	addi	a4,sp,408
 1a7:	0000                	unimp
 1a9:	03000d07          	0x3000d07
 1ad:	3a08                	fld	fa0,48(a2)
 1af:	390b3b0b          	0x390b3b0b
 1b3:	0b13490b          	0xb13490b
 1b7:	0c0b0d0b          	0xc0b0d0b
 1bb:	000b380b          	0xb380b
 1bf:	0800                	addi	s0,sp,16
 1c1:	0e030117          	auipc	sp,0xe030
 1c5:	0b3a0b0b          	0xb3a0b0b
 1c9:	0b390b3b          	0xb390b3b
 1cd:	1301                	addi	t1,t1,-32
 1cf:	0000                	unimp
 1d1:	0d09                	addi	s10,s10,2
 1d3:	0300                	addi	s0,sp,384
 1d5:	3a08                	fld	fa0,48(a2)
 1d7:	390b3b0b          	0x390b3b0b
 1db:	0013490b          	0x13490b
 1df:	0a00                	addi	s0,sp,272
 1e1:	000d                	c.nop	3
 1e3:	0b3a0e03          	lb	t3,179(s4)
 1e7:	0b390b3b          	0xb390b3b
 1eb:	1349                	addi	t1,t1,-14
 1ed:	0000                	unimp
 1ef:	3f012e0b          	0x3f012e0b
 1f3:	0319                	addi	t1,t1,6
 1f5:	3a0e                	fld	fs4,224(sp)
 1f7:	390b3b0b          	0x390b3b0b
 1fb:	4919270b          	0x4919270b
 1ff:	12011113          	0x12011113
 203:	4006                	0x4006
 205:	9718                	0x9718
 207:	1942                	slli	s2,s2,0x30
 209:	1301                	addi	t1,t1,-32
 20b:	0000                	unimp
 20d:	050c                	addi	a1,sp,640
 20f:	0300                	addi	s0,sp,384
 211:	3a08                	fld	fa0,48(a2)
 213:	390b3b0b          	0x390b3b0b
 217:	0213490b          	0x213490b
 21b:	0d000017          	auipc	zero,0xd000
 21f:	0034                	addi	a3,sp,8
 221:	0b3a0e03          	lb	t3,179(s4)
 225:	0b390b3b          	0xb390b3b
 229:	1349                	addi	t1,t1,-14
 22b:	0b1c                	addi	a5,sp,400
 22d:	0000                	unimp
 22f:	340e                	fld	fs0,224(sp)
 231:	0300                	addi	s0,sp,384
 233:	3a08                	fld	fa0,48(a2)
 235:	390b3b0b          	0x390b3b0b
 239:	0013490b          	0x13490b
 23d:	0f00                	addi	s0,sp,912
 23f:	0034                	addi	a3,sp,8
 241:	0b3a0803          	lb	a6,179(s4)
 245:	0b390b3b          	0xb390b3b
 249:	1349                	addi	t1,t1,-14
 24b:	1702                	slli	a4,a4,0x20
 24d:	0000                	unimp
 24f:	3410                	fld	fa2,40(s0)
 251:	0300                	addi	s0,sp,384
 253:	3a08                	fld	fa0,48(a2)
 255:	390b3b0b          	0x390b3b0b
 259:	0213490b          	0x213490b
 25d:	0018                	0x18
 25f:	1100                	addi	s0,sp,160
 261:	0034                	addi	a3,sp,8
 263:	0b3a0e03          	lb	t3,179(s4)
 267:	0b390b3b          	0xb390b3b
 26b:	1349                	addi	t1,t1,-14
 26d:	1802                	slli	a6,a6,0x20
 26f:	0000                	unimp
 271:	3412                	fld	fs0,288(sp)
 273:	0300                	addi	s0,sp,384
 275:	3a0e                	fld	fs4,224(sp)
 277:	390b3b0b          	0x390b3b0b
 27b:	0213490b          	0x213490b
 27f:	13000017          	auipc	zero,0x13000
 283:	1755010b          	0x1755010b
 287:	1301                	addi	t1,t1,-32
 289:	0000                	unimp
 28b:	3414                	fld	fa3,40(s0)
 28d:	0300                	addi	s0,sp,384
 28f:	3a0e                	fld	fs4,224(sp)
 291:	390b3b0b          	0x390b3b0b
 295:	0013490b          	0x13490b
 299:	1500                	addi	s0,sp,672
 29b:	1301010b          	0x1301010b
 29f:	0000                	unimp
 2a1:	0b16                	slli	s6,s6,0x5
 2a3:	5501                	li	a0,-32
 2a5:	00000017          	auipc	zero,0x0

000002a9 <.Ldebug_abbrev0>:
 2a9:	1101                	addi	sp,sp,-32
 2ab:	2501                	jal	8ab <.L95+0xf>
 2ad:	130e                	slli	t1,t1,0x23
 2af:	1b0e030b          	0x1b0e030b
 2b3:	110e                	slli	sp,sp,0x23
 2b5:	1201                	addi	tp,tp,-32
 2b7:	1006                	c.slli	zero,0x21
 2b9:	02000017          	auipc	zero,0x2000
 2bd:	0024                	addi	s1,sp,8
 2bf:	0b3e0b0b          	0xb3e0b0b
 2c3:	00000e03          	lb	t3,0(zero) # 0 <.Ldebug_abbrev0>
 2c7:	0b002403          	lw	s0,176(zero) # b0 <.LLST0+0xc>
 2cb:	030b3e0b          	0x30b3e0b
 2cf:	0008                	0x8
 2d1:	0400                	addi	s0,sp,512
 2d3:	0016                	c.slli	zero,0x5
 2d5:	0b3a0e03          	lb	t3,179(s4)
 2d9:	0b39053b          	0xb39053b
 2dd:	1349                	addi	t1,t1,-14
 2df:	0000                	unimp
 2e1:	1605                	addi	a2,a2,-31
 2e3:	0300                	addi	s0,sp,384
 2e5:	3a0e                	fld	fs4,224(sp)
 2e7:	390b3b0b          	0x390b3b0b
 2eb:	0013490b          	0x13490b
 2ef:	0600                	addi	s0,sp,768
 2f1:	0b0b0113          	addi	sp,s6,176 # fffe00b0 <.LC0+0xfffdbf60>
 2f5:	0b3a                	slli	s6,s6,0xe
 2f7:	0b390b3b          	0xb390b3b
 2fb:	1301                	addi	t1,t1,-32
 2fd:	0000                	unimp
 2ff:	03000d07          	0x3000d07
 303:	3a0e                	fld	fs4,224(sp)
 305:	390b3b0b          	0x390b3b0b
 309:	0b13490b          	0xb13490b
 30d:	0c0b0d0b          	0xc0b0d0b
 311:	000b380b          	0xb380b
 315:	0800                	addi	s0,sp,16
 317:	000d                	c.nop	3
 319:	0b3a0803          	lb	a6,179(s4)
 31d:	0b390b3b          	0xb390b3b
 321:	1349                	addi	t1,t1,-14
 323:	0b0d0b0b          	0xb0d0b0b
 327:	0b0c                	addi	a1,sp,400
 329:	0b38                	addi	a4,sp,408
 32b:	0000                	unimp
 32d:	1709                	addi	a4,a4,-30
 32f:	0301                	addi	t1,t1,0
 331:	0b0e                	slli	s6,s6,0x3
 333:	3b0b3a0b          	0x3b0b3a0b
 337:	010b390b          	0x10b390b
 33b:	0a000013          	li	zero,160
 33f:	000d                	c.nop	3
 341:	0b3a0803          	lb	a6,179(s4)
 345:	0b390b3b          	0xb390b3b
 349:	1349                	addi	t1,t1,-14
 34b:	0000                	unimp
 34d:	03000d0b          	0x3000d0b
 351:	3a0e                	fld	fs4,224(sp)
 353:	390b3b0b          	0x390b3b0b
 357:	0013490b          	0x13490b
 35b:	0c00                	addi	s0,sp,528
 35d:	012e                	slli	sp,sp,0xb
 35f:	0e03193f 0b3b0b3a 	0xb3b0b3a0e03193f
 367:	0b39                	addi	s6,s6,14
 369:	13491927          	0x13491927
 36d:	0111                	addi	sp,sp,4
 36f:	0612                	slli	a2,a2,0x4
 371:	1840                	addi	s0,sp,52
 373:	01194297          	auipc	t0,0x1194
 377:	0d000013          	li	zero,208
 37b:	0005                	c.nop	1
 37d:	0b3a0803          	lb	a6,179(s4)
 381:	0b390b3b          	0xb390b3b
 385:	1349                	addi	t1,t1,-14
 387:	1702                	slli	a4,a4,0x20
 389:	0000                	unimp
 38b:	340e                	fld	fs0,224(sp)
 38d:	0300                	addi	s0,sp,384
 38f:	3a0e                	fld	fs4,224(sp)
 391:	390b3b0b          	0x390b3b0b
 395:	0213490b          	0x213490b
 399:	0f000017          	auipc	zero,0xf000
 39d:	0034                	addi	a3,sp,8
 39f:	0b3a0e03          	lb	t3,179(s4)
 3a3:	0b390b3b          	0xb390b3b
 3a7:	1349                	addi	t1,t1,-14
 3a9:	0b1c                	addi	a5,sp,400
 3ab:	0000                	unimp
 3ad:	3410                	fld	fa2,40(s0)
 3af:	0300                	addi	s0,sp,384
 3b1:	3a08                	fld	fa0,48(a2)
 3b3:	390b3b0b          	0x390b3b0b
 3b7:	0213490b          	0x213490b
 3bb:	11000017          	auipc	zero,0x11000
 3bf:	0034                	addi	a3,sp,8
 3c1:	0b3a0803          	lb	a6,179(s4)
 3c5:	0b390b3b          	0xb390b3b
 3c9:	1349                	addi	t1,t1,-14
 3cb:	0000                	unimp
 3cd:	0b12                	slli	s6,s6,0x4
 3cf:	5501                	li	a0,-32
 3d1:	00130117          	auipc	sp,0x130
 3d5:	1300                	addi	s0,sp,416
 3d7:	0034                	addi	a3,sp,8
 3d9:	0b3a0e03          	lb	t3,179(s4)
 3dd:	0b390b3b          	0xb390b3b
 3e1:	1349                	addi	t1,t1,-14
 3e3:	0000                	unimp
 3e5:	8914                	0x8914
 3e7:	0182                	c.slli64	gp
 3e9:	1100                	addi	s0,sp,160
 3eb:	3101                	jal	ffffffeb <.LC0+0xffffbe9b>
 3ed:	15000013          	li	zero,336
 3f1:	0111010b          	0x111010b
 3f5:	0612                	slli	a2,a2,0x4
 3f7:	1301                	addi	t1,t1,-32
 3f9:	0000                	unimp
 3fb:	0b16                	slli	s6,s6,0x5
 3fd:	5501                	li	a0,-32
 3ff:	17000017          	auipc	zero,0x17000
 403:	1301010b          	0x1301010b
 407:	0000                	unimp
 409:	0b18                	addi	a4,sp,400
 40b:	0001                	nop
 40d:	1900                	addi	s0,sp,176
 40f:	0101                	addi	sp,sp,0
 411:	1349                	addi	t1,t1,-14
 413:	1301                	addi	t1,t1,-32
 415:	0000                	unimp
 417:	211a                	fld	ft2,384(sp)
 419:	4900                	lw	s0,16(a0)
 41b:	000b2f13          	slti	t5,s6,0
 41f:	1b00                	addi	s0,sp,432
 421:	002e                	c.slli	zero,0xb
 423:	193c193f 0e030e6e 	0xe030e6e193c193f
 42b:	0000                	unimp
	...

0000042e <.Ldebug_abbrev0>:
 42e:	1101                	addi	sp,sp,-32
 430:	2501                	jal	a30 <__muldf3>
 432:	130e                	slli	t1,t1,0x23
 434:	1b0e030b          	0x1b0e030b
 438:	110e                	slli	sp,sp,0x23
 43a:	1201                	addi	tp,tp,-32
 43c:	1006                	c.slli	zero,0x21
 43e:	02000017          	auipc	zero,0x2000
 442:	0024                	addi	s1,sp,8
 444:	0b3e0b0b          	0xb3e0b0b
 448:	00000e03          	lb	t3,0(zero) # 0 <.Ldebug_abbrev0>
 44c:	0b002403          	lw	s0,176(zero) # b0 <.LLST0+0xc>
 450:	030b3e0b          	0x30b3e0b
 454:	0008                	0x8
 456:	0400                	addi	s0,sp,512
 458:	0016                	c.slli	zero,0x5
 45a:	0b3a0e03          	lb	t3,179(s4)
 45e:	0b390b3b          	0xb390b3b
 462:	1349                	addi	t1,t1,-14
 464:	0000                	unimp
 466:	1305                	addi	t1,t1,-31
 468:	0b01                	addi	s6,s6,0
 46a:	3b0b3a0b          	0x3b0b3a0b
 46e:	010b390b          	0x10b390b
 472:	06000013          	li	zero,96
 476:	000d                	c.nop	3
 478:	0b3a0e03          	lb	t3,179(s4)
 47c:	0b390b3b          	0xb390b3b
 480:	1349                	addi	t1,t1,-14
 482:	0b0d0b0b          	0xb0d0b0b
 486:	0b0c                	addi	a1,sp,400
 488:	0b38                	addi	a4,sp,408
 48a:	0000                	unimp
 48c:	03000d07          	0x3000d07
 490:	3a08                	fld	fa0,48(a2)
 492:	390b3b0b          	0x390b3b0b
 496:	0b13490b          	0xb13490b
 49a:	0c0b0d0b          	0xc0b0d0b
 49e:	000b380b          	0xb380b
 4a2:	0800                	addi	s0,sp,16
 4a4:	0e030117          	auipc	sp,0xe030
 4a8:	0b3a0b0b          	0xb3a0b0b
 4ac:	0b390b3b          	0xb390b3b
 4b0:	1301                	addi	t1,t1,-32
 4b2:	0000                	unimp
 4b4:	0d09                	addi	s10,s10,2
 4b6:	0300                	addi	s0,sp,384
 4b8:	3a08                	fld	fa0,48(a2)
 4ba:	390b3b0b          	0x390b3b0b
 4be:	0013490b          	0x13490b
 4c2:	0a00                	addi	s0,sp,272
 4c4:	000d                	c.nop	3
 4c6:	0b3a0e03          	lb	t3,179(s4)
 4ca:	0b390b3b          	0xb390b3b
 4ce:	1349                	addi	t1,t1,-14
 4d0:	0000                	unimp
 4d2:	3f012e0b          	0x3f012e0b
 4d6:	0319                	addi	t1,t1,6
 4d8:	3a0e                	fld	fs4,224(sp)
 4da:	390b3b0b          	0x390b3b0b
 4de:	4919270b          	0x4919270b
 4e2:	12011113          	0x12011113
 4e6:	4006                	0x4006
 4e8:	9718                	0x9718
 4ea:	1942                	slli	s2,s2,0x30
 4ec:	1301                	addi	t1,t1,-32
 4ee:	0000                	unimp
 4f0:	050c                	addi	a1,sp,640
 4f2:	0300                	addi	s0,sp,384
 4f4:	3a08                	fld	fa0,48(a2)
 4f6:	390b3b0b          	0x390b3b0b
 4fa:	0213490b          	0x213490b
 4fe:	0d000017          	auipc	zero,0xd000
 502:	0034                	addi	a3,sp,8
 504:	0b3a0e03          	lb	t3,179(s4)
 508:	0b390b3b          	0xb390b3b
 50c:	1349                	addi	t1,t1,-14
 50e:	1702                	slli	a4,a4,0x20
 510:	0000                	unimp
 512:	340e                	fld	fs0,224(sp)
 514:	0300                	addi	s0,sp,384
 516:	3a0e                	fld	fs4,224(sp)
 518:	390b3b0b          	0x390b3b0b
 51c:	1c13490b          	0x1c13490b
 520:	0f00000b          	0xf00000b
 524:	0034                	addi	a3,sp,8
 526:	0b3a0803          	lb	a6,179(s4)
 52a:	0b390b3b          	0xb390b3b
 52e:	1349                	addi	t1,t1,-14
 530:	0000                	unimp
 532:	3410                	fld	fa2,40(s0)
 534:	0300                	addi	s0,sp,384
 536:	3a08                	fld	fa0,48(a2)
 538:	390b3b0b          	0x390b3b0b
 53c:	0213490b          	0x213490b
 540:	11000017          	auipc	zero,0x11000
 544:	1755010b          	0x1755010b
 548:	1301                	addi	t1,t1,-32
 54a:	0000                	unimp
 54c:	3412                	fld	fs0,288(sp)
 54e:	0300                	addi	s0,sp,384
 550:	3a0e                	fld	fs4,224(sp)
 552:	390b3b0b          	0x390b3b0b
 556:	0013490b          	0x13490b
 55a:	1300                	addi	s0,sp,416
 55c:	000a                	c.slli	zero,0x2
 55e:	0b3a0e03          	lb	t3,179(s4)
 562:	0b390b3b          	0xb390b3b
 566:	0111                	addi	sp,sp,4
 568:	0000                	unimp
 56a:	0b14                	addi	a3,sp,400
 56c:	1101                	addi	sp,sp,-32
 56e:	1201                	addi	tp,tp,-32
 570:	0106                	slli	sp,sp,0x1
 572:	15000013          	li	zero,336
 576:	1755010b          	0x1755010b
 57a:	0000                	unimp
 57c:	8916                	mv	s2,t0
 57e:	0182                	c.slli64	gp
 580:	1100                	addi	s0,sp,160
 582:	3101                	jal	182 <.LASF18>
 584:	17000013          	li	zero,368
 588:	1301010b          	0x1301010b
 58c:	0000                	unimp
 58e:	0b18                	addi	a4,sp,400
 590:	0001                	nop
 592:	1900                	addi	s0,sp,176
 594:	002e                	c.slli	zero,0xb
 596:	193c193f 0e030e6e 	0xe030e6e193c193f
 59e:	0000                	unimp
	...

000005a1 <.Ldebug_abbrev0>:
 5a1:	1101                	addi	sp,sp,-32
 5a3:	2501                	jal	ba3 <.LLST32+0x4>
 5a5:	130e                	slli	t1,t1,0x23
 5a7:	1b0e030b          	0x1b0e030b
 5ab:	110e                	slli	sp,sp,0x23
 5ad:	1201                	addi	tp,tp,-32
 5af:	1006                	c.slli	zero,0x21
 5b1:	02000017          	auipc	zero,0x2000
 5b5:	0024                	addi	s1,sp,8
 5b7:	0b3e0b0b          	0xb3e0b0b
 5bb:	00000e03          	lb	t3,0(zero) # 0 <.Ldebug_abbrev0>
 5bf:	0b002403          	lw	s0,176(zero) # b0 <.LLST0+0xc>
 5c3:	030b3e0b          	0x30b3e0b
 5c7:	0008                	0x8
 5c9:	0400                	addi	s0,sp,512
 5cb:	0016                	c.slli	zero,0x5
 5cd:	0b3a0e03          	lb	t3,179(s4)
 5d1:	0b39053b          	0xb39053b
 5d5:	1349                	addi	t1,t1,-14
 5d7:	0000                	unimp
 5d9:	1605                	addi	a2,a2,-31
 5db:	0300                	addi	s0,sp,384
 5dd:	3a0e                	fld	fs4,224(sp)
 5df:	390b3b0b          	0x390b3b0b
 5e3:	0013490b          	0x13490b
 5e7:	0600                	addi	s0,sp,768
 5e9:	0b0b0113          	addi	sp,s6,176
 5ed:	0b3a                	slli	s6,s6,0xe
 5ef:	0b390b3b          	0xb390b3b
 5f3:	1301                	addi	t1,t1,-32
 5f5:	0000                	unimp
 5f7:	03000d07          	0x3000d07
 5fb:	3a0e                	fld	fs4,224(sp)
 5fd:	390b3b0b          	0x390b3b0b
 601:	0b13490b          	0xb13490b
 605:	0c0b0d0b          	0xc0b0d0b
 609:	000b380b          	0xb380b
 60d:	0800                	addi	s0,sp,16
 60f:	000d                	c.nop	3
 611:	0b3a0803          	lb	a6,179(s4)
 615:	0b390b3b          	0xb390b3b
 619:	1349                	addi	t1,t1,-14
 61b:	0b0d0b0b          	0xb0d0b0b
 61f:	0b0c                	addi	a1,sp,400
 621:	0b38                	addi	a4,sp,408
 623:	0000                	unimp
 625:	1709                	addi	a4,a4,-30
 627:	0301                	addi	t1,t1,0
 629:	0b0e                	slli	s6,s6,0x3
 62b:	3b0b3a0b          	0x3b0b3a0b
 62f:	010b390b          	0x10b390b
 633:	0a000013          	li	zero,160
 637:	000d                	c.nop	3
 639:	0b3a0803          	lb	a6,179(s4)
 63d:	0b390b3b          	0xb390b3b
 641:	1349                	addi	t1,t1,-14
 643:	0000                	unimp
 645:	03000d0b          	0x3000d0b
 649:	3a0e                	fld	fs4,224(sp)
 64b:	390b3b0b          	0x390b3b0b
 64f:	0013490b          	0x13490b
 653:	0c00                	addi	s0,sp,528
 655:	012e                	slli	sp,sp,0xb
 657:	0e03193f 0b3b0b3a 	0xb3b0b3a0e03193f
 65f:	0b39                	addi	s6,s6,14
 661:	13491927          	0x13491927
 665:	0111                	addi	sp,sp,4
 667:	0612                	slli	a2,a2,0x4
 669:	1840                	addi	s0,sp,52
 66b:	01194297          	auipc	t0,0x1194
 66f:	0d000013          	li	zero,208
 673:	0005                	c.nop	1
 675:	0b3a0803          	lb	a6,179(s4)
 679:	0b390b3b          	0xb390b3b
 67d:	1349                	addi	t1,t1,-14
 67f:	1702                	slli	a4,a4,0x20
 681:	0000                	unimp
 683:	340e                	fld	fs0,224(sp)
 685:	0300                	addi	s0,sp,384
 687:	3a0e                	fld	fs4,224(sp)
 689:	390b3b0b          	0x390b3b0b
 68d:	0213490b          	0x213490b
 691:	0f000017          	auipc	zero,0xf000
 695:	0034                	addi	a3,sp,8
 697:	0b3a0e03          	lb	t3,179(s4)
 69b:	0b390b3b          	0xb390b3b
 69f:	1349                	addi	t1,t1,-14
 6a1:	0b1c                	addi	a5,sp,400
 6a3:	0000                	unimp
 6a5:	3410                	fld	fa2,40(s0)
 6a7:	0300                	addi	s0,sp,384
 6a9:	3a08                	fld	fa0,48(a2)
 6ab:	390b3b0b          	0x390b3b0b
 6af:	0013490b          	0x13490b
 6b3:	1100                	addi	s0,sp,160
 6b5:	0034                	addi	a3,sp,8
 6b7:	0b3a0803          	lb	a6,179(s4)
 6bb:	0b390b3b          	0xb390b3b
 6bf:	1349                	addi	t1,t1,-14
 6c1:	1802                	slli	a6,a6,0x20
 6c3:	0000                	unimp
 6c5:	3412                	fld	fs0,288(sp)
 6c7:	0300                	addi	s0,sp,384
 6c9:	3a08                	fld	fa0,48(a2)
 6cb:	390b3b0b          	0x390b3b0b
 6cf:	0213490b          	0x213490b
 6d3:	13000017          	auipc	zero,0x13000
 6d7:	1755010b          	0x1755010b
 6db:	1301                	addi	t1,t1,-32
 6dd:	0000                	unimp
 6df:	3414                	fld	fa3,40(s0)
 6e1:	0300                	addi	s0,sp,384
 6e3:	3a0e                	fld	fs4,224(sp)
 6e5:	390b3b0b          	0x390b3b0b
 6e9:	0013490b          	0x13490b
 6ed:	1500                	addi	s0,sp,672
 6ef:	1301010b          	0x1301010b
 6f3:	0000                	unimp
 6f5:	0b16                	slli	s6,s6,0x5
 6f7:	1101                	addi	sp,sp,-32
 6f9:	1201                	addi	tp,tp,-32
 6fb:	0006                	c.slli	zero,0x1
	...

000006ff <.Ldebug_abbrev0>:
 6ff:	1101                	addi	sp,sp,-32
 701:	2501                	jal	d01 <.LVL125+0x3>
 703:	130e                	slli	t1,t1,0x23
 705:	1b0e030b          	0x1b0e030b
 709:	110e                	slli	sp,sp,0x23
 70b:	1201                	addi	tp,tp,-32
 70d:	1006                	c.slli	zero,0x21
 70f:	02000017          	auipc	zero,0x2000
 713:	0024                	addi	s1,sp,8
 715:	0b3e0b0b          	0xb3e0b0b
 719:	00000803          	lb	a6,0(zero) # 0 <.Ldebug_abbrev0>
 71d:	0b002403          	lw	s0,176(zero) # b0 <.LLST0+0xc>
 721:	030b3e0b          	0x30b3e0b
 725:	000e                	c.slli	zero,0x3
 727:	0400                	addi	s0,sp,512
 729:	0016                	c.slli	zero,0x5
 72b:	0b3a0e03          	lb	t3,179(s4)
 72f:	0b39053b          	0xb39053b
 733:	1349                	addi	t1,t1,-14
 735:	0000                	unimp
 737:	1605                	addi	a2,a2,-31
 739:	0300                	addi	s0,sp,384
 73b:	3a0e                	fld	fs4,224(sp)
 73d:	390b3b0b          	0x390b3b0b
 741:	0013490b          	0x13490b
 745:	0600                	addi	s0,sp,768
 747:	0b0b0113          	addi	sp,s6,176
 74b:	0b3a                	slli	s6,s6,0xe
 74d:	0b390b3b          	0xb390b3b
 751:	1301                	addi	t1,t1,-32
 753:	0000                	unimp
 755:	03000d07          	0x3000d07
 759:	3a0e                	fld	fs4,224(sp)
 75b:	390b3b0b          	0x390b3b0b
 75f:	0b13490b          	0xb13490b
 763:	0c0b0d0b          	0xc0b0d0b
 767:	000b380b          	0xb380b
 76b:	0800                	addi	s0,sp,16
 76d:	000d                	c.nop	3
 76f:	0b3a0803          	lb	a6,179(s4)
 773:	0b390b3b          	0xb390b3b
 777:	1349                	addi	t1,t1,-14
 779:	0b0d0b0b          	0xb0d0b0b
 77d:	0b0c                	addi	a1,sp,400
 77f:	0b38                	addi	a4,sp,408
 781:	0000                	unimp
 783:	1709                	addi	a4,a4,-30
 785:	0301                	addi	t1,t1,0
 787:	0b0e                	slli	s6,s6,0x3
 789:	3b0b3a0b          	0x3b0b3a0b
 78d:	010b390b          	0x10b390b
 791:	0a000013          	li	zero,160
 795:	000d                	c.nop	3
 797:	0b3a0803          	lb	a6,179(s4)
 79b:	0b390b3b          	0xb390b3b
 79f:	1349                	addi	t1,t1,-14
 7a1:	0000                	unimp
 7a3:	03000d0b          	0x3000d0b
 7a7:	3a0e                	fld	fs4,224(sp)
 7a9:	390b3b0b          	0x390b3b0b
 7ad:	0013490b          	0x13490b
 7b1:	0c00                	addi	s0,sp,528
 7b3:	012e                	slli	sp,sp,0xb
 7b5:	0e03193f 0b3b0b3a 	0xb3b0b3a0e03193f
 7bd:	0b39                	addi	s6,s6,14
 7bf:	13491927          	0x13491927
 7c3:	0111                	addi	sp,sp,4
 7c5:	0612                	slli	a2,a2,0x4
 7c7:	1840                	addi	s0,sp,52
 7c9:	01194297          	auipc	t0,0x1194
 7cd:	0d000013          	li	zero,208
 7d1:	0005                	c.nop	1
 7d3:	0b3a0803          	lb	a6,179(s4)
 7d7:	0b390b3b          	0xb390b3b
 7db:	1349                	addi	t1,t1,-14
 7dd:	1702                	slli	a4,a4,0x20
 7df:	0000                	unimp
 7e1:	340e                	fld	fs0,224(sp)
 7e3:	0300                	addi	s0,sp,384
 7e5:	3a08                	fld	fa0,48(a2)
 7e7:	390b3b0b          	0x390b3b0b
 7eb:	0013490b          	0x13490b
 7ef:	0f00                	addi	s0,sp,912
 7f1:	0034                	addi	a3,sp,8
 7f3:	0b3a0803          	lb	a6,179(s4)
 7f7:	0b390b3b          	0xb390b3b
 7fb:	1349                	addi	t1,t1,-14
 7fd:	1702                	slli	a4,a4,0x20
 7ff:	0000                	unimp
 801:	3410                	fld	fa2,40(s0)
 803:	0300                	addi	s0,sp,384
 805:	3a0e                	fld	fs4,224(sp)
 807:	390b3b0b          	0x390b3b0b
 80b:	0213490b          	0x213490b
 80f:	11000017          	auipc	zero,0x11000
 813:	1755010b          	0x1755010b
 817:	1301                	addi	t1,t1,-32
 819:	0000                	unimp
 81b:	0a12                	slli	s4,s4,0x4
 81d:	0300                	addi	s0,sp,384
 81f:	3a0e                	fld	fs4,224(sp)
 821:	390b3b0b          	0x390b3b0b
 825:	1300000b          	0x1300000b
 829:	1755010b          	0x1755010b
 82d:	0000                	unimp
 82f:	8914                	0x8914
 831:	0182                	c.slli64	gp
 833:	1100                	addi	s0,sp,160
 835:	3101                	jal	435 <.L45+0x1>
 837:	15000013          	li	zero,336
 83b:	0000010b          	0x10b
 83f:	3416                	fld	fs0,352(sp)
 841:	0300                	addi	s0,sp,384
 843:	3a0e                	fld	fs4,224(sp)
 845:	390b3b0b          	0x390b3b0b
 849:	0013490b          	0x13490b
 84d:	1700                	addi	s0,sp,928
 84f:	1301010b          	0x1301010b
 853:	0000                	unimp
 855:	2e18                	fld	fa4,24(a2)
 857:	3f00                	fld	fs0,56(a4)
 859:	3c19                	jal	26f <.LASF48+0x6>
 85b:	6e19                	lui	t3,0x6
 85d:	030e                	slli	t1,t1,0x3
 85f:	000e                	c.slli	zero,0x3
 861:	0000                	unimp
 863:	1101                	addi	sp,sp,-32
 865:	1000                	addi	s0,sp,32
 867:	1106                	slli	sp,sp,0x21
 869:	1201                	addi	tp,tp,-32
 86b:	0301                	addi	t1,t1,0
 86d:	1b0e                	slli	s6,s6,0x23
 86f:	250e                	fld	fa0,192(sp)
 871:	130e                	slli	t1,t1,0x23
 873:	0005                	c.nop	1
	...

00000877 <.Ldebug_abbrev0>:
 877:	1101                	addi	sp,sp,-32
 879:	2501                	jal	e79 <.LBB3+0x3>
 87b:	130e                	slli	t1,t1,0x23
 87d:	1b0e030b          	0x1b0e030b
 881:	110e                	slli	sp,sp,0x23
 883:	1201                	addi	tp,tp,-32
 885:	1006                	c.slli	zero,0x21
 887:	02000017          	auipc	zero,0x2000
 88b:	0024                	addi	s1,sp,8
 88d:	0b3e0b0b          	0xb3e0b0b
 891:	00000803          	lb	a6,0(zero) # 0 <.Ldebug_abbrev0>
 895:	0b002403          	lw	s0,176(zero) # b0 <.LLST0+0xc>
 899:	030b3e0b          	0x30b3e0b
 89d:	000e                	c.slli	zero,0x3
 89f:	0400                	addi	s0,sp,512
 8a1:	0016                	c.slli	zero,0x5
 8a3:	0b3a0e03          	lb	t3,179(s4)
 8a7:	0b390b3b          	0xb390b3b
 8ab:	1349                	addi	t1,t1,-14
 8ad:	0000                	unimp
 8af:	2605                	jal	bcf <.LVL66+0x1>
 8b1:	4900                	lw	s0,16(a0)
 8b3:	06000013          	li	zero,96
 8b7:	0101                	addi	sp,sp,0
 8b9:	1349                	addi	t1,t1,-14
 8bb:	1301                	addi	t1,t1,-32
 8bd:	0000                	unimp
 8bf:	49002107          	flw	ft2,1168(zero) # 490 <.LASF24+0x8>
 8c3:	000b2f13          	slti	t5,s6,0
 8c7:	0800                	addi	s0,sp,16
 8c9:	0034                	addi	a3,sp,8
 8cb:	0b3a0e03          	lb	t3,179(s4)
 8cf:	0b39053b          	0xb39053b
 8d3:	1349                	addi	t1,t1,-14
 8d5:	193c193f 2e090000 	0x2e090000193c193f
 8dd:	3f01                	jal	7ed <.LLST14+0x64>
 8df:	0319                	addi	t1,t1,6
 8e1:	3a0e                	fld	fs4,224(sp)
 8e3:	39053b0b          	0x39053b0b
 8e7:	4919270b          	0x4919270b
 8eb:	12011113          	0x12011113
 8ef:	4006                	0x4006
 8f1:	9718                	0x9718
 8f3:	1942                	slli	s2,s2,0x30
 8f5:	0000                	unimp
 8f7:	050a                	slli	a0,a0,0x2
 8f9:	0300                	addi	s0,sp,384
 8fb:	3a08                	fld	fa0,48(a2)
 8fd:	39053b0b          	0x39053b0b
 901:	0213490b          	0x213490b
 905:	0b000017          	auipc	zero,0xb000
 909:	0034                	addi	a3,sp,8
 90b:	0b3a0803          	lb	a6,179(s4)
 90f:	0b39053b          	0xb39053b
 913:	1349                	addi	t1,t1,-14
 915:	0000                	unimp
 917:	0b0c                	addi	a1,sp,400
 919:	5501                	li	a0,-32
 91b:	0d000017          	auipc	zero,0xd000
 91f:	0034                	addi	a3,sp,8
 921:	0b3a0e03          	lb	t3,179(s4)
 925:	0b39053b          	0xb39053b
 929:	1349                	addi	t1,t1,-14
 92b:	1702                	slli	a4,a4,0x20
 92d:	0000                	unimp
 92f:	340e                	fld	fs0,224(sp)
 931:	0300                	addi	s0,sp,384
 933:	3a08                	fld	fa0,48(a2)
 935:	39053b0b          	0x39053b0b
 939:	0213490b          	0x213490b
 93d:	00000017          	auipc	zero,0x0

00000941 <.Ldebug_abbrev0>:
 941:	1101                	addi	sp,sp,-32
 943:	2501                	jal	f43 <.LVL31+0x3>
 945:	130e                	slli	t1,t1,0x23
 947:	1b0e030b          	0x1b0e030b
 94b:	100e                	c.slli	zero,0x23
 94d:	02000017          	auipc	zero,0x2000
 951:	0024                	addi	s1,sp,8
 953:	0b3e0b0b          	0xb3e0b0b
 957:	00000803          	lb	a6,0(zero) # 0 <.Ldebug_abbrev0>
 95b:	0b002403          	lw	s0,176(zero) # b0 <.LLST0+0xc>
 95f:	030b3e0b          	0x30b3e0b
 963:	000e                	c.slli	zero,0x3
 965:	0400                	addi	s0,sp,512
 967:	0016                	c.slli	zero,0x5
 969:	0b3a0e03          	lb	t3,179(s4)
 96d:	0b390b3b          	0xb390b3b
 971:	1349                	addi	t1,t1,-14
 973:	0000                	unimp
 975:	2605                	jal	c95 <.LVL105+0x1>
 977:	4900                	lw	s0,16(a0)
 979:	06000013          	li	zero,96
 97d:	0101                	addi	sp,sp,0
 97f:	1349                	addi	t1,t1,-14
 981:	1301                	addi	t1,t1,-32
 983:	0000                	unimp
 985:	49002107          	flw	ft2,1168(zero) # 490 <.LASF24+0x8>
 989:	000b2f13          	slti	t5,s6,0
 98d:	0800                	addi	s0,sp,16
 98f:	0034                	addi	a3,sp,8
 991:	0b3a0e03          	lb	t3,179(s4)
 995:	0b39053b          	0xb39053b
 999:	1349                	addi	t1,t1,-14
 99b:	193c193f 34090000 	0x34090000193c193f
 9a3:	4700                	lw	s0,8(a4)
 9a5:	3b0b3a13          	sltiu	s4,s6,944
 9a9:	3905                	jal	5d9 <printf_float+0x21>
 9ab:	0018020b          	0x18020b
	...

Disassembly of section .debug_loc:

00000000 <.LLST0>:
       0:	0000                	unimp
       2:	0000                	unimp
       4:	001a                	c.slli	zero,0x6
       6:	0000                	unimp
       8:	0006                	c.slli	zero,0x1
       a:	935a                	add	t1,t1,s6
       c:	5b04                	lw	s1,48(a4)
       e:	001a0493          	addi	s1,s4,1
      12:	0000                	unimp
      14:	006a                	c.slli	zero,0x1a
      16:	0000                	unimp
      18:	0006                	c.slli	zero,0x1
      1a:	0af503f3          	0xaf503f3
      1e:	9f25                	0x9f25
	...

00000028 <.LLST1>:
      28:	0000                	unimp
      2a:	0000                	unimp
      2c:	003c                	addi	a5,sp,8
      2e:	0000                	unimp
      30:	0006                	c.slli	zero,0x1
      32:	935c                	0x935c
      34:	5d04                	lw	s1,56(a0)
      36:	003c0493          	addi	s1,s8,3 # 23593 <.LC0+0x1f443>
      3a:	0000                	unimp
      3c:	003e                	c.slli	zero,0xf
      3e:	0000                	unimp
      40:	0006                	c.slli	zero,0x1
      42:	0cf503f3          	0xcf503f3
      46:	9f25                	0x9f25
      48:	003e                	c.slli	zero,0xf
      4a:	0000                	unimp
      4c:	0044                	addi	s1,sp,4
      4e:	0000                	unimp
      50:	0006                	c.slli	zero,0x1
      52:	935c                	0x935c
      54:	5d04                	lw	s1,56(a0)
      56:	00440493          	addi	s1,s0,4
      5a:	0000                	unimp
      5c:	006a                	c.slli	zero,0x1a
      5e:	0000                	unimp
      60:	0006                	c.slli	zero,0x1
      62:	0cf503f3          	0xcf503f3
      66:	9f25                	0x9f25
	...

00000070 <.LLST2>:
      70:	0024                	addi	s1,sp,8
      72:	0000                	unimp
      74:	003c                	addi	a5,sp,8
      76:	0000                	unimp
      78:	0001                	nop
      7a:	3c5c                	fld	fa5,184(s0)
      7c:	0000                	unimp
      7e:	3e00                	fld	fs0,56(a2)
      80:	0000                	unimp
      82:	0100                	addi	s0,sp,128
      84:	6e00                	flw	fs0,24(a2)
      86:	003e                	c.slli	zero,0xf
      88:	0000                	unimp
      8a:	0044                	addi	s1,sp,4
      8c:	0000                	unimp
      8e:	0001                	nop
      90:	445c                	lw	a5,12(s0)
      92:	0000                	unimp
      94:	6a00                	flw	fs0,16(a2)
      96:	0000                	unimp
      98:	0100                	addi	s0,sp,128
      9a:	6e00                	flw	fs0,24(a2)
	...

000000a4 <.LLST0>:
      a4:	0000                	unimp
      a6:	0000                	unimp
      a8:	001a                	c.slli	zero,0x6
      aa:	0000                	unimp
      ac:	0006                	c.slli	zero,0x1
      ae:	935a                	add	t1,t1,s6
      b0:	5b04                	lw	s1,48(a4)
      b2:	001a0493          	addi	s1,s4,1
      b6:	0000                	unimp
      b8:	00a6                	slli	ra,ra,0x9
      ba:	0000                	unimp
      bc:	0006                	c.slli	zero,0x1
      be:	0af503f3          	0xaf503f3
      c2:	9f25                	0x9f25
	...

000000cc <.LLST1>:
      cc:	0000                	unimp
      ce:	0000                	unimp
      d0:	0058                	addi	a4,sp,4
      d2:	0000                	unimp
      d4:	0006                	c.slli	zero,0x1
      d6:	935c                	0x935c
      d8:	5d04                	lw	s1,56(a0)
      da:	00580493          	addi	s1,a6,5
      de:	0000                	unimp
      e0:	009c                	addi	a5,sp,64
      e2:	0000                	unimp
      e4:	0006                	c.slli	zero,0x1
      e6:	0cf503f3          	0xcf503f3
      ea:	9f25                	0x9f25
      ec:	009c                	addi	a5,sp,64
      ee:	0000                	unimp
      f0:	00a6                	slli	ra,ra,0x9
      f2:	0000                	unimp
      f4:	0006                	c.slli	zero,0x1
      f6:	935c                	0x935c
      f8:	5d04                	lw	s1,56(a0)
      fa:	00000493          	li	s1,0
      fe:	0000                	unimp
     100:	0000                	unimp
	...

00000104 <.LLST2>:
     104:	001a                	c.slli	zero,0x6
     106:	0000                	unimp
     108:	003a                	c.slli	zero,0xe
     10a:	0000                	unimp
     10c:	0001                	nop
     10e:	3c5a                	fld	fs8,432(sp)
     110:	0000                	unimp
     112:	6800                	flw	fs0,16(s0)
     114:	0000                	unimp
     116:	0100                	addi	s0,sp,128
     118:	5a00                	lw	s0,48(a2)
     11a:	006a                	c.slli	zero,0x1a
     11c:	0000                	unimp
     11e:	006c                	addi	a1,sp,12
     120:	0000                	unimp
     122:	0001                	nop
     124:	725a                	flw	ft4,180(sp)
     126:	0000                	unimp
     128:	7800                	flw	fs0,48(s0)
     12a:	0000                	unimp
     12c:	0100                	addi	s0,sp,128
     12e:	5a00                	lw	s0,48(a2)
     130:	007a                	c.slli	zero,0x1e
     132:	0000                	unimp
     134:	008c                	addi	a1,sp,64
     136:	0000                	unimp
     138:	0001                	nop
     13a:	8e5a                	mv	t3,s6
     13c:	0000                	unimp
     13e:	9000                	0x9000
     140:	0000                	unimp
     142:	0100                	addi	s0,sp,128
     144:	5a00                	lw	s0,48(a2)
     146:	0092                	slli	ra,ra,0x4
     148:	0000                	unimp
     14a:	00a6                	slli	ra,ra,0x9
     14c:	0000                	unimp
     14e:	0001                	nop
     150:	005a                	c.slli	zero,0x16
     152:	0000                	unimp
     154:	0000                	unimp
     156:	0000                	unimp
	...

00000159 <.LLST3>:
     159:	0026                	c.slli	zero,0x9
     15b:	0000                	unimp
     15d:	0058                	addi	a4,sp,4
     15f:	0000                	unimp
     161:	0001                	nop
     163:	585c                	lw	a5,52(s0)
     165:	0000                	unimp
     167:	9c00                	0x9c00
     169:	0000                	unimp
     16b:	0100                	addi	s0,sp,128
     16d:	6c00                	flw	fs0,24(s0)
     16f:	009c                	addi	a5,sp,64
     171:	0000                	unimp
     173:	00a6                	slli	ra,ra,0x9
     175:	0000                	unimp
     177:	0001                	nop
     179:	005c                	addi	a5,sp,4
     17b:	0000                	unimp
     17d:	0000                	unimp
     17f:	0000                	unimp
	...

00000182 <.LLST4>:
     182:	0054                	addi	a3,sp,4
     184:	0000                	unimp
     186:	0056                	c.slli	zero,0x15
     188:	0000                	unimp
     18a:	0001                	nop
     18c:	a05f 0000 a600      	0xa6000000a05f
     192:	0000                	unimp
     194:	0200                	addi	s0,sp,256
     196:	3000                	fld	fs0,32(s0)
     198:	009f 0000 0000      	0x9f
     19e:	0000                	unimp
	...

000001a1 <.LLST5>:
     1a1:	005a                	c.slli	zero,0x16
     1a3:	0000                	unimp
     1a5:	0064                	addi	s1,sp,12
     1a7:	0000                	unimp
     1a9:	0002                	c.slli64	zero
     1ab:	9f30                	0x9f30
     1ad:	006a                	c.slli	zero,0x1a
     1af:	0000                	unimp
     1b1:	008a                	slli	ra,ra,0x2
     1b3:	0000                	unimp
     1b5:	0002                	c.slli64	zero
     1b7:	9f30                	0x9f30
     1b9:	0092                	slli	ra,ra,0x4
     1bb:	0000                	unimp
     1bd:	0096                	slli	ra,ra,0x5
     1bf:	0000                	unimp
     1c1:	0002                	c.slli64	zero
     1c3:	9f31                	0x9f31
     1c5:	0096                	slli	ra,ra,0x5
     1c7:	0000                	unimp
     1c9:	009c                	addi	a5,sp,64
     1cb:	0000                	unimp
     1cd:	0002                	c.slli64	zero
     1cf:	9f30                	0x9f30
	...

000001d9 <.LLST0>:
     1d9:	0000                	unimp
     1db:	0000                	unimp
     1dd:	004e                	c.slli	zero,0x13
     1df:	0000                	unimp
     1e1:	0006                	c.slli	zero,0x1
     1e3:	935a                	add	t1,t1,s6
     1e5:	5b04                	lw	s1,48(a4)
     1e7:	004e0493          	addi	s1,t3,4 # 6004 <.LC0+0x1eb4>
     1eb:	0000                	unimp
     1ed:	00aa                	slli	ra,ra,0xa
     1ef:	0000                	unimp
     1f1:	0006                	c.slli	zero,0x1
     1f3:	0af503f3          	0xaf503f3
     1f7:	9f25                	0x9f25
     1f9:	00aa                	slli	ra,ra,0xa
     1fb:	0000                	unimp
     1fd:	00b6                	slli	ra,ra,0xd
     1ff:	0000                	unimp
     201:	0006                	c.slli	zero,0x1
     203:	935a                	add	t1,t1,s6
     205:	5b04                	lw	s1,48(a4)
     207:	00b60493          	addi	s1,a2,11
     20b:	0000                	unimp
     20d:	00e4                	addi	s1,sp,76
     20f:	0000                	unimp
     211:	0006                	c.slli	zero,0x1
     213:	0af503f3          	0xaf503f3
     217:	9f25                	0x9f25
     219:	00e4                	addi	s1,sp,76
     21b:	0000                	unimp
     21d:	000000e7          	jalr	zero # 0 <.LLST0>
     221:	0006                	c.slli	zero,0x1
     223:	935a                	add	t1,t1,s6
     225:	5b04                	lw	s1,48(a4)
     227:	00e70493          	addi	s1,a4,14
     22b:	0000                	unimp
     22d:	00fa                	slli	ra,ra,0x1e
     22f:	0000                	unimp
     231:	0006                	c.slli	zero,0x1
     233:	0af503f3          	0xaf503f3
     237:	9f25                	0x9f25
     239:	00fa                	slli	ra,ra,0x1e
     23b:	0000                	unimp
     23d:	011e                	slli	sp,sp,0x7
     23f:	0000                	unimp
     241:	0006                	c.slli	zero,0x1
     243:	935a                	add	t1,t1,s6
     245:	5b04                	lw	s1,48(a4)
     247:	011e0493          	addi	s1,t3,17
     24b:	0000                	unimp
     24d:	043e                	slli	s0,s0,0xf
     24f:	0000                	unimp
     251:	0006                	c.slli	zero,0x1
     253:	0af503f3          	0xaf503f3
     257:	9f25                	0x9f25
	...

00000261 <.LLST1>:
     261:	0000                	unimp
     263:	0000                	unimp
     265:	004e                	c.slli	zero,0x13
     267:	0000                	unimp
     269:	0006                	c.slli	zero,0x1
     26b:	935c                	0x935c
     26d:	5d04                	lw	s1,56(a0)
     26f:	004e0493          	addi	s1,t3,4
     273:	0000                	unimp
     275:	00aa                	slli	ra,ra,0xa
     277:	0000                	unimp
     279:	0006                	c.slli	zero,0x1
     27b:	0cf503f3          	0xcf503f3
     27f:	9f25                	0x9f25
     281:	00aa                	slli	ra,ra,0xa
     283:	0000                	unimp
     285:	00b9                	addi	ra,ra,14
     287:	0000                	unimp
     289:	0006                	c.slli	zero,0x1
     28b:	935c                	0x935c
     28d:	5d04                	lw	s1,56(a0)
     28f:	00b90493          	addi	s1,s2,11 # 400b <.L18+0x7>
     293:	0000                	unimp
     295:	00e4                	addi	s1,sp,76
     297:	0000                	unimp
     299:	0006                	c.slli	zero,0x1
     29b:	0cf503f3          	0xcf503f3
     29f:	9f25                	0x9f25
     2a1:	00e4                	addi	s1,sp,76
     2a3:	0000                	unimp
     2a5:	000000e7          	jalr	zero # 0 <.LLST0>
     2a9:	0006                	c.slli	zero,0x1
     2ab:	935c                	0x935c
     2ad:	5d04                	lw	s1,56(a0)
     2af:	00e70493          	addi	s1,a4,14
     2b3:	0000                	unimp
     2b5:	00fa                	slli	ra,ra,0x1e
     2b7:	0000                	unimp
     2b9:	0006                	c.slli	zero,0x1
     2bb:	0cf503f3          	0xcf503f3
     2bf:	9f25                	0x9f25
     2c1:	00fa                	slli	ra,ra,0x1e
     2c3:	0000                	unimp
     2c5:	011e                	slli	sp,sp,0x7
     2c7:	0000                	unimp
     2c9:	0006                	c.slli	zero,0x1
     2cb:	935c                	0x935c
     2cd:	5d04                	lw	s1,56(a0)
     2cf:	011e0493          	addi	s1,t3,17
     2d3:	0000                	unimp
     2d5:	043e                	slli	s0,s0,0xf
     2d7:	0000                	unimp
     2d9:	0006                	c.slli	zero,0x1
     2db:	0cf503f3          	0xcf503f3
     2df:	9f25                	0x9f25
	...

000002e9 <.LLST2>:
     2e9:	0000                	unimp
     2eb:	0000                	unimp
     2ed:	0050                	addi	a2,sp,4
     2ef:	0000                	unimp
     2f1:	0002                	c.slli64	zero
     2f3:	9f30                	0x9f30
     2f5:	00aa                	slli	ra,ra,0xa
     2f7:	0000                	unimp
     2f9:	011e                	slli	sp,sp,0x7
     2fb:	0000                	unimp
     2fd:	0002                	c.slli64	zero
     2ff:	9f30                	0x9f30
	...

00000309 <.LLST3>:
     309:	004e                	c.slli	zero,0x13
     30b:	0000                	unimp
     30d:	0050                	addi	a2,sp,4
     30f:	0000                	unimp
     311:	0002                	c.slli64	zero
     313:	9f30                	0x9f30
     315:	0050                	addi	a2,sp,4
     317:	0000                	unimp
     319:	00aa                	slli	ra,ra,0xa
     31b:	0000                	unimp
     31d:	0001                	nop
     31f:	1e66                	slli	t3,t3,0x39
     321:	0001                	nop
     323:	6600                	flw	fs0,8(a2)
     325:	01000003          	lb	zero,16(zero) # 10 <.LASF10+0x2>
     329:	6600                	flw	fs0,8(a2)
     32b:	0370                	addi	a2,sp,396
     32d:	0000                	unimp
     32f:	043e                	slli	s0,s0,0xf
     331:	0000                	unimp
     333:	0001                	nop
     335:	0066                	c.slli	zero,0x19
     337:	0000                	unimp
     339:	0000                	unimp
     33b:	0000                	unimp
	...

0000033e <.LLST4>:
     33e:	002c                	addi	a1,sp,8
     340:	0000                	unimp
     342:	0362                	slli	t1,t1,0x18
     344:	0000                	unimp
     346:	0006                	c.slli	zero,0x1
     348:	0084                	addi	s1,sp,64
     34a:	ff08                	fsw	fa0,56(a4)
     34c:	9f1a                	add	t5,t5,t1
     34e:	0370                	addi	a2,sp,396
     350:	0000                	unimp
     352:	043e                	slli	s0,s0,0xf
     354:	0000                	unimp
     356:	0006                	c.slli	zero,0x1
     358:	0084                	addi	s1,sp,64
     35a:	ff08                	fsw	fa0,56(a4)
     35c:	9f1a                	add	t5,t5,t1
	...

00000366 <.LLST5>:
     366:	0028                	addi	a0,sp,8
     368:	0000                	unimp
     36a:	004e                	c.slli	zero,0x13
     36c:	0000                	unimp
     36e:	00830007          	0x830007
     372:	ff0a                	fsw	ft2,188(sp)
     374:	1aff                	0x1aff
     376:	4e9f 0000 aa00      	0xaa0000004e9f
     37c:	0000                	unimp
     37e:	0100                	addi	s0,sp,128
     380:	6300                	flw	fs0,0(a4)
     382:	00aa                	slli	ra,ra,0xa
     384:	0000                	unimp
     386:	00de                	slli	ra,ra,0x17
     388:	0000                	unimp
     38a:	00830007          	0x830007
     38e:	ff0a                	fsw	ft2,188(sp)
     390:	1aff                	0x1aff
     392:	e49f 0000 0800      	0x8000000e49f
     398:	0001                	nop
     39a:	0700                	addi	s0,sp,896
     39c:	8300                	0x8300
     39e:	0a00                	addi	s0,sp,272
     3a0:	ffff                	0xffff
     3a2:	9f1a                	add	t5,t5,t1
     3a4:	0108                	addi	a0,sp,128
     3a6:	0000                	unimp
     3a8:	010c                	addi	a1,sp,128
     3aa:	0000                	unimp
     3ac:	0009                	c.nop	2
     3ae:	2544007b          	0x2544007b
     3b2:	ff0a                	fsw	ft2,188(sp)
     3b4:	0c9f1a07          	0xc9f1a07
     3b8:	0001                	nop
     3ba:	1000                	addi	s0,sp,32
     3bc:	0001                	nop
     3be:	0700                	addi	s0,sp,896
     3c0:	8300                	0x8300
     3c2:	0a00                	addi	s0,sp,272
     3c4:	ffff                	0xffff
     3c6:	9f1a                	add	t5,t5,t1
     3c8:	0110                	addi	a2,sp,128
     3ca:	0000                	unimp
     3cc:	0114                	addi	a3,sp,128
     3ce:	0000                	unimp
     3d0:	0009                	c.nop	2
     3d2:	2544007b          	0x2544007b
     3d6:	ff0a                	fsw	ft2,188(sp)
     3d8:	149f1a07          	0x149f1a07
     3dc:	0001                	nop
     3de:	1a00                	addi	s0,sp,304
     3e0:	0001                	nop
     3e2:	0700                	addi	s0,sp,896
     3e4:	8300                	0x8300
     3e6:	0a00                	addi	s0,sp,272
     3e8:	ffff                	0xffff
     3ea:	9f1a                	add	t5,t5,t1
     3ec:	011a                	slli	sp,sp,0x6
     3ee:	0000                	unimp
     3f0:	011e                	slli	sp,sp,0x7
     3f2:	0000                	unimp
     3f4:	0009                	c.nop	2
     3f6:	2544007b          	0x2544007b
     3fa:	ff0a                	fsw	ft2,188(sp)
     3fc:	1e9f1a07          	0x1e9f1a07
     400:	0001                	nop
     402:	0600                	addi	s0,sp,768
     404:	0002                	c.slli64	zero
     406:	0100                	addi	s0,sp,128
     408:	6300                	flw	fs0,0(a4)
     40a:	0370                	addi	a2,sp,396
     40c:	0000                	unimp
     40e:	038a                	slli	t2,t2,0x2
     410:	0000                	unimp
     412:	0001                	nop
     414:	00039063          	bnez	t2,414 <.LASF33+0x2>
     418:	9400                	0x9400
     41a:	01000003          	lb	zero,16(zero) # 10 <.LASF10+0x2>
     41e:	6300                	flw	fs0,0(a4)
     420:	041e                	slli	s0,s0,0x7
     422:	0000                	unimp
     424:	042c                	addi	a1,sp,520
     426:	0000                	unimp
     428:	0001                	nop
     42a:	00000063          	beqz	zero,42a <.LASF27+0x1>
     42e:	0000                	unimp
     430:	0000                	unimp
	...

00000433 <.LLST6>:
     433:	0000                	unimp
     435:	0000                	unimp
     437:	004a                	c.slli	zero,0x12
     439:	0000                	unimp
     43b:	0001                	nop
     43d:	4a5a                	lw	s4,148(sp)
     43f:	0000                	unimp
     441:	aa00                	fsd	fs0,16(a2)
     443:	0000                	unimp
     445:	0100                	addi	s0,sp,128
     447:	6200                	flw	fs0,0(a2)
     449:	00aa                	slli	ra,ra,0xa
     44b:	0000                	unimp
     44d:	00da                	slli	ra,ra,0x16
     44f:	0000                	unimp
     451:	0001                	nop
     453:	da58                	sw	a4,52(a2)
     455:	0000                	unimp
     457:	e400                	fsw	fs0,8(s0)
     459:	0000                	unimp
     45b:	0100                	addi	s0,sp,128
     45d:	6200                	flw	fs0,0(a2)
     45f:	00e4                	addi	s1,sp,76
     461:	0000                	unimp
     463:	00f6                	slli	ra,ra,0x1d
     465:	0000                	unimp
     467:	0001                	nop
     469:	f658                	fsw	fa4,44(a2)
     46b:	0000                	unimp
     46d:	fa00                	fsw	fs0,48(a2)
     46f:	0000                	unimp
     471:	0200                	addi	s0,sp,256
     473:	3000                	fld	fs0,32(s0)
     475:	fa9f 0000 1e00      	0x1e000000fa9f
     47b:	0001                	nop
     47d:	0100                	addi	s0,sp,128
     47f:	5800                	lw	s0,48(s0)
     481:	011e                	slli	sp,sp,0x7
     483:	0000                	unimp
     485:	01a2                	slli	gp,gp,0x8
     487:	0000                	unimp
     489:	0001                	nop
     48b:	7062                	flw	ft0,56(sp)
     48d:	8a000003          	lb	zero,-1888(zero) # fffff8a0 <.LC0+0xffffb750>
     491:	01000003          	lb	zero,16(zero) # 10 <.LASF10+0x2>
     495:	6200                	flw	fs0,0(a2)
     497:	0390                	addi	a2,sp,448
     499:	0000                	unimp
     49b:	0394                	addi	a3,sp,448
     49d:	0000                	unimp
     49f:	0001                	nop
     4a1:	1e62                	slli	t3,t3,0x38
     4a3:	0004                	0x4
     4a5:	2c00                	fld	fs0,24(s0)
     4a7:	0004                	0x4
     4a9:	0100                	addi	s0,sp,128
     4ab:	6200                	flw	fs0,0(a2)
	...

000004b5 <.LLST7>:
     4b5:	0028                	addi	a0,sp,8
     4b7:	0000                	unimp
     4b9:	0038                	addi	a4,sp,8
     4bb:	0000                	unimp
     4bd:	0001                	nop
     4bf:	3859                	jal	fffffd55 <.LC0+0xffffbc05>
     4c1:	0000                	unimp
     4c3:	3e00                	fld	fs0,56(a2)
     4c5:	0000                	unimp
     4c7:	0700                	addi	s0,sp,896
     4c9:	7900                	flw	fs0,48(a0)
     4cb:	4000                	lw	s0,0(s0)
     4cd:	2440                	fld	fs0,136(s0)
     4cf:	9f21                	0x9f21
     4d1:	003e                	c.slli	zero,0xf
     4d3:	0000                	unimp
     4d5:	0046                	c.slli	zero,0x11
     4d7:	0000                	unimp
     4d9:	007b000b          	0x7b000b
     4dd:	243c                	fld	fa5,72(s0)
     4df:	253c                	fld	fa5,72(a0)
     4e1:	4040                	lw	s0,4(s0)
     4e3:	2124                	fld	fs1,64(a0)
     4e5:	469f 0000 d000      	0xd0000000469f
     4eb:	0000                	unimp
     4ed:	0100                	addi	s0,sp,128
     4ef:	5900                	lw	s0,48(a0)
     4f1:	00d6                	slli	ra,ra,0x15
     4f3:	0000                	unimp
     4f5:	00f2                	slli	ra,ra,0x1c
     4f7:	0000                	unimp
     4f9:	0001                	nop
     4fb:	f659                	bnez	a2,489 <.LASF24+0x1>
     4fd:	0000                	unimp
     4ff:	0e00                	addi	s0,sp,784
     501:	0001                	nop
     503:	0100                	addi	s0,sp,128
     505:	5900                	lw	s0,48(a0)
     507:	010e                	slli	sp,sp,0x3
     509:	0000                	unimp
     50b:	0114                	addi	a3,sp,128
     50d:	0000                	unimp
     50f:	007b0007          	0x7b0007
     513:	243c                	fld	fa5,72(s0)
     515:	253c                	fld	fa5,72(a0)
     517:	149f 0001 1600      	0x16000001149f
     51d:	0001                	nop
     51f:	0100                	addi	s0,sp,128
     521:	5900                	lw	s0,48(a0)
     523:	0116                	slli	sp,sp,0x5
     525:	0000                	unimp
     527:	011e                	slli	sp,sp,0x7
     529:	0000                	unimp
     52b:	007b0007          	0x7b0007
     52f:	243c                	fld	fa5,72(s0)
     531:	253c                	fld	fa5,72(a0)
     533:	1e9f 0001 1a00      	0x1a0000011e9f
     539:	0002                	c.slli64	zero
     53b:	0100                	addi	s0,sp,128
     53d:	5900                	lw	s0,48(a0)
     53f:	0370                	addi	a2,sp,396
     541:	0000                	unimp
     543:	038a                	slli	t2,t2,0x2
     545:	0000                	unimp
     547:	0001                	nop
     549:	9059                	srli	s0,s0,0x36
     54b:	94000003          	lb	zero,-1728(zero) # fffff940 <.LC0+0xffffb7f0>
     54f:	01000003          	lb	zero,16(zero) # 10 <.LASF10+0x2>
     553:	5900                	lw	s0,48(a0)
     555:	041e                	slli	s0,s0,0x7
     557:	0000                	unimp
     559:	042c                	addi	a1,sp,520
     55b:	0000                	unimp
     55d:	0001                	nop
     55f:	0059                	c.nop	22
     561:	0000                	unimp
     563:	0000                	unimp
     565:	0000                	unimp
	...

00000568 <.LLST8>:
     568:	0082                	c.slli64	ra
     56a:	0000                	unimp
     56c:	0084                	addi	s1,sp,64
     56e:	0000                	unimp
     570:	0002                	c.slli64	zero
     572:	9f30                	0x9f30
     574:	0084                	addi	s1,sp,64
     576:	0000                	unimp
     578:	00aa                	slli	ra,ra,0xa
     57a:	0000                	unimp
     57c:	0001                	nop
     57e:	905e                	c.add	zero,s7
     580:	0001                	nop
     582:	9a00                	0x9a00
     584:	0001                	nop
     586:	0100                	addi	s0,sp,128
     588:	5e00                	lw	s0,56(a2)
     58a:	0370                	addi	a2,sp,396
     58c:	0000                	unimp
     58e:	0378                	addi	a4,sp,396
     590:	0000                	unimp
     592:	0001                	nop
     594:	905e                	c.add	zero,s7
     596:	94000003          	lb	zero,-1728(zero) # fffff940 <.LC0+0xffffb7f0>
     59a:	01000003          	lb	zero,16(zero) # 10 <.LASF10+0x2>
     59e:	5e00                	lw	s0,56(a2)
	...

000005a8 <.LLST9>:
     5a8:	0062                	c.slli	zero,0x18
     5aa:	0000                	unimp
     5ac:	00aa                	slli	ra,ra,0xa
     5ae:	0000                	unimp
     5b0:	0006                	c.slli	zero,0x1
     5b2:	0085                	addi	ra,ra,1
     5b4:	ff08                	fsw	fa0,56(a4)
     5b6:	9f1a                	add	t5,t5,t1
     5b8:	011e                	slli	sp,sp,0x7
     5ba:	0000                	unimp
     5bc:	0364                	addi	s1,sp,396
     5be:	0000                	unimp
     5c0:	0006                	c.slli	zero,0x1
     5c2:	0085                	addi	ra,ra,1
     5c4:	ff08                	fsw	fa0,56(a4)
     5c6:	9f1a                	add	t5,t5,t1
     5c8:	0370                	addi	a2,sp,396
     5ca:	0000                	unimp
     5cc:	043e                	slli	s0,s0,0xf
     5ce:	0000                	unimp
     5d0:	0006                	c.slli	zero,0x1
     5d2:	0085                	addi	ra,ra,1
     5d4:	ff08                	fsw	fa0,56(a4)
     5d6:	9f1a                	add	t5,t5,t1
	...

000005e0 <.LLST10>:
     5e0:	005e                	c.slli	zero,0x17
     5e2:	0000                	unimp
     5e4:	007e                	c.slli	zero,0x1f
     5e6:	0000                	unimp
     5e8:	007a0007          	0x7a0007
     5ec:	ff0a                	fsw	ft2,188(sp)
     5ee:	1aff                	0x1aff
     5f0:	7e9f 0000 8200      	0x820000007e9f
     5f6:	0000                	unimp
     5f8:	0800                	addi	s0,sp,16
     5fa:	7a00                	flw	fs0,48(a2)
     5fc:	07ff                	0x7ff
     5fe:	ff0a                	fsw	ft2,188(sp)
     600:	1aff                	0x1aff
     602:	829f 0000 8c00      	0x8c000000829f
     608:	0000                	unimp
     60a:	0100                	addi	s0,sp,128
     60c:	5a00                	lw	s0,48(a2)
     60e:	011e                	slli	sp,sp,0x7
     610:	0000                	unimp
     612:	0128                	addi	a0,sp,136
     614:	0000                	unimp
     616:	007a0007          	0x7a0007
     61a:	ff0a                	fsw	ft2,188(sp)
     61c:	1aff                	0x1aff
     61e:	569f 0001 5800      	0x58000001569f
     624:	0001                	nop
     626:	0700                	addi	s0,sp,896
     628:	7a00                	flw	fs0,48(a2)
     62a:	0a00                	addi	s0,sp,272
     62c:	ffff                	0xffff
     62e:	9f1a                	add	t5,t5,t1
     630:	016e                	slli	sp,sp,0x1b
     632:	0000                	unimp
     634:	017a                	slli	sp,sp,0x1e
     636:	0000                	unimp
     638:	007a0007          	0x7a0007
     63c:	ff0a                	fsw	ft2,188(sp)
     63e:	1aff                	0x1aff
     640:	7e9f 0001 8200      	0x820000017e9f
     646:	0001                	nop
     648:	0700                	addi	s0,sp,896
     64a:	7a00                	flw	fs0,48(a2)
     64c:	0a00                	addi	s0,sp,272
     64e:	ffff                	0xffff
     650:	9f1a                	add	t5,t5,t1
     652:	0186                	slli	gp,gp,0x1
     654:	0000                	unimp
     656:	018c                	addi	a1,sp,192
     658:	0000                	unimp
     65a:	007a0007          	0x7a0007
     65e:	ff0a                	fsw	ft2,188(sp)
     660:	1aff                	0x1aff
     662:	009f 0000 0000      	0x9f
     668:	0000                	unimp
	...

0000066b <.LLST11>:
     66b:	0050                	addi	a2,sp,4
     66d:	0000                	unimp
     66f:	0082                	c.slli64	ra
     671:	0000                	unimp
     673:	0001                	nop
     675:	00008267          	jalr	tp,ra
     679:	aa00                	fsd	fs0,16(a2)
     67b:	0000                	unimp
     67d:	0100                	addi	s0,sp,128
     67f:	5f00                	lw	s0,56(a4)
     681:	011e                	slli	sp,sp,0x7
     683:	0000                	unimp
     685:	014c                	addi	a1,sp,132
     687:	0000                	unimp
     689:	0001                	nop
     68b:	00014c67          	0x14c67
     68f:	5600                	lw	s0,40(a2)
     691:	0001                	nop
     693:	0100                	addi	s0,sp,128
     695:	5f00                	lw	s0,56(a4)
     697:	0156                	slli	sp,sp,0x15
     699:	0000                	unimp
     69b:	016a                	slli	sp,sp,0x1a
     69d:	0000                	unimp
     69f:	0001                	nop
     6a1:	00016a67          	0x16a67
     6a5:	6e00                	flw	fs0,24(a2)
     6a7:	0001                	nop
     6a9:	0200                	addi	s0,sp,256
     6ab:	3000                	fld	fs0,32(s0)
     6ad:	6e9f 0001 9000      	0x900000016e9f
     6b3:	0001                	nop
     6b5:	0100                	addi	s0,sp,128
     6b7:	6700                	flw	fs0,8(a4)
     6b9:	0190                	addi	a2,sp,192
     6bb:	0000                	unimp
     6bd:	01a6                	slli	gp,gp,0x9
     6bf:	0000                	unimp
     6c1:	0001                	nop
     6c3:	705f 0003 7600      	0x76000003705f
     6c9:	01000003          	lb	zero,16(zero) # 10 <.LASF10+0x2>
     6cd:	5f00                	lw	s0,56(a4)
     6cf:	0390                	addi	a2,sp,448
     6d1:	0000                	unimp
     6d3:	0394                	addi	a3,sp,448
     6d5:	0000                	unimp
     6d7:	0001                	nop
     6d9:	005f 0000 0000      	0x5f
     6df:	0000                	unimp
	...

000006e2 <.LLST12>:
     6e2:	005e                	c.slli	zero,0x17
     6e4:	0000                	unimp
     6e6:	006c                	addi	a1,sp,12
     6e8:	0000                	unimp
     6ea:	0001                	nop
     6ec:	6c58                	flw	fa4,28(s0)
     6ee:	0000                	unimp
     6f0:	7200                	flw	fs0,32(a2)
     6f2:	0000                	unimp
     6f4:	0700                	addi	s0,sp,896
     6f6:	7800                	flw	fs0,48(s0)
     6f8:	4000                	lw	s0,0(s0)
     6fa:	2440                	fld	fs0,136(s0)
     6fc:	9f21                	0x9f21
     6fe:	007a                	c.slli	zero,0x1e
     700:	0000                	unimp
     702:	00aa                	slli	ra,ra,0xa
     704:	0000                	unimp
     706:	0001                	nop
     708:	1e58                	addi	a4,sp,820
     70a:	0001                	nop
     70c:	4200                	lw	s0,0(a2)
     70e:	0001                	nop
     710:	0100                	addi	s0,sp,128
     712:	5800                	lw	s0,48(s0)
     714:	0148                	addi	a0,sp,132
     716:	0000                	unimp
     718:	0166                	slli	sp,sp,0x19
     71a:	0000                	unimp
     71c:	0001                	nop
     71e:	6a58                	flw	fa4,20(a2)
     720:	0001                	nop
     722:	8000                	0x8000
     724:	0001                	nop
     726:	0100                	addi	s0,sp,128
     728:	5800                	lw	s0,48(s0)
     72a:	0186                	slli	gp,gp,0x1
     72c:	0000                	unimp
     72e:	0188                	addi	a0,sp,192
     730:	0000                	unimp
     732:	0001                	nop
     734:	9058                	0x9058
     736:	0001                	nop
     738:	1600                	addi	s0,sp,800
     73a:	0002                	c.slli64	zero
     73c:	0100                	addi	s0,sp,128
     73e:	5800                	lw	s0,48(s0)
     740:	0370                	addi	a2,sp,396
     742:	0000                	unimp
     744:	0374                	addi	a3,sp,396
     746:	0000                	unimp
     748:	0001                	nop
     74a:	9058                	0x9058
     74c:	94000003          	lb	zero,-1728(zero) # fffff940 <.LC0+0xffffb7f0>
     750:	01000003          	lb	zero,16(zero) # 10 <.LASF10+0x2>
     754:	5800                	lw	s0,48(s0)
	...

0000075e <.LLST13>:
     75e:	0190                	addi	a2,sp,192
     760:	0000                	unimp
     762:	02f4                	addi	a3,sp,332
     764:	0000                	unimp
     766:	0002                	c.slli64	zero
     768:	9f30                	0x9f30
     76a:	0378                	addi	a4,sp,396
     76c:	0000                	unimp
     76e:	038a                	slli	t2,t2,0x2
     770:	0000                	unimp
     772:	0001                	nop
     774:	945e                	add	s0,s0,s7
     776:	98000003          	lb	zero,-1664(zero) # fffff980 <.LC0+0xffffb830>
     77a:	02000003          	lb	zero,32(zero) # 20 <printf_num>
     77e:	3000                	fld	fs0,32(s0)
     780:	009f 0000 0000      	0x9f
     786:	0000                	unimp
	...

00000789 <.LLST14>:
     789:	0094                	addi	a3,sp,64
     78b:	0000                	unimp
     78d:	00aa                	slli	ra,ra,0xa
     78f:	0000                	unimp
     791:	0001                	nop
     793:	905c                	0x905c
     795:	0001                	nop
     797:	5200                	lw	s0,32(a2)
     799:	01000003          	lb	zero,16(zero) # 10 <.LASF10+0x2>
     79d:	5c00                	lw	s0,56(s0)
     79f:	0370                	addi	a2,sp,396
     7a1:	0000                	unimp
     7a3:	0372                	slli	t1,t1,0x1c
     7a5:	0000                	unimp
     7a7:	0001                	nop
     7a9:	725c                	flw	fa5,36(a2)
     7ab:	78000003          	lb	zero,1920(zero) # 780 <.L89+0x20>
     7af:	06000003          	lb	zero,96(zero) # 60 <.LASF7+0xb>
     7b3:	8400                	0x8400
     7b5:	0800                	addi	s0,sp,16
     7b7:	1aff                	0x1aff
     7b9:	789f 0003 9200      	0x92000003789f
     7bf:	01000003          	lb	zero,16(zero) # 10 <.LASF10+0x2>
     7c3:	5c00                	lw	s0,56(s0)
     7c5:	0392                	slli	t2,t2,0x4
     7c7:	0000                	unimp
     7c9:	0394                	addi	a3,sp,448
     7cb:	0000                	unimp
     7cd:	0006                	c.slli	zero,0x1
     7cf:	0085                	addi	ra,ra,1
     7d1:	ff08                	fsw	fa0,56(a4)
     7d3:	9f1a                	add	t5,t5,t1
     7d5:	0394                	addi	a3,sp,448
     7d7:	0000                	unimp
     7d9:	042a                	slli	s0,s0,0xa
     7db:	0000                	unimp
     7dd:	0001                	nop
     7df:	2c5c                	fld	fa5,152(s0)
     7e1:	0004                	0x4
     7e3:	3e00                	fld	fs0,56(a2)
     7e5:	0004                	0x4
     7e7:	0100                	addi	s0,sp,128
     7e9:	5c00                	lw	s0,56(s0)
	...

000007f3 <.LLST15>:
     7f3:	0098                	addi	a4,sp,64
     7f5:	0000                	unimp
     7f7:	00aa                	slli	ra,ra,0xa
     7f9:	0000                	unimp
     7fb:	0001                	nop
     7fd:	0001905b          	0x1905b
     801:	f800                	fsw	fs0,48(s0)
     803:	0002                	c.slli64	zero
     805:	0100                	addi	s0,sp,128
     807:	5b00                	lw	s0,48(a4)
     809:	02f8                	addi	a4,sp,332
     80b:	0000                	unimp
     80d:	034a                	slli	t1,t1,0x12
     80f:	0000                	unimp
     811:	0001                	nop
     813:	705d                	c.lui	zero,0xffff7
     815:	8a000003          	lb	zero,-1888(zero) # fffff8a0 <.LC0+0xffffb750>
     819:	01000003          	lb	zero,16(zero) # 10 <.LASF10+0x2>
     81d:	5b00                	lw	s0,48(a4)
     81f:	0390                	addi	a2,sp,448
     821:	0000                	unimp
     823:	0396                	slli	t2,t2,0x5
     825:	0000                	unimp
     827:	0001                	nop
     829:	0003965b          	0x3965b
     82d:	9800                	0x9800
     82f:	03000003          	lb	zero,48(zero) # 30 <.LASF24+0x7>
     833:	7a00                	flw	fs0,48(a2)
     835:	9f01                	0x9f01
     837:	0398                	addi	a4,sp,448
     839:	0000                	unimp
     83b:	039c                	addi	a5,sp,448
     83d:	0000                	unimp
     83f:	0001                	nop
     841:	9c5d                	0x9c5d
     843:	ea000003          	lb	zero,-352(zero) # fffffea0 <.LC0+0xffffbd50>
     847:	01000003          	lb	zero,16(zero) # 10 <.LASF10+0x2>
     84b:	5a00                	lw	s0,48(a2)
     84d:	03ea                	slli	t2,t2,0x1a
     84f:	0000                	unimp
     851:	03f4                	addi	a3,sp,460
     853:	0000                	unimp
     855:	0002                	c.slli64	zero
     857:	9f30                	0x9f30
     859:	03f8                	addi	a4,sp,460
     85b:	0000                	unimp
     85d:	041e                	slli	s0,s0,0x7
     85f:	0000                	unimp
     861:	0001                	nop
     863:	1e5a                	slli	t3,t3,0x36
     865:	0004                	0x4
     867:	2c00                	fld	fs0,24(s0)
     869:	0004                	0x4
     86b:	0100                	addi	s0,sp,128
     86d:	5b00                	lw	s0,48(a4)
     86f:	0436                	slli	s0,s0,0xd
     871:	0000                	unimp
     873:	043e                	slli	s0,s0,0xf
     875:	0000                	unimp
     877:	0001                	nop
     879:	005a                	c.slli	zero,0x16
     87b:	0000                	unimp
     87d:	0000                	unimp
     87f:	0000                	unimp
	...

00000882 <.LLST16>:
     882:	02dc                	addi	a5,sp,324
     884:	0000                	unimp
     886:	02ea                	slli	t0,t0,0x1a
     888:	0000                	unimp
     88a:	0001                	nop
     88c:	f25f 0002 1400      	0x14000002f25f
     892:	01000003          	lb	zero,16(zero) # 10 <.LASF10+0x2>
     896:	5f00                	lw	s0,56(a4)
     898:	0314                	addi	a3,sp,384
     89a:	0000                	unimp
     89c:	0316                	slli	t1,t1,0x5
     89e:	0000                	unimp
     8a0:	7c7e0003          	lb	zero,1991(t3)
     8a4:	169f 0003 1800      	0x18000003169f
     8aa:	01000003          	lb	zero,16(zero) # 10 <.LASF10+0x2>
     8ae:	5e00                	lw	s0,56(a2)
     8b0:	0318                	addi	a4,sp,384
     8b2:	0000                	unimp
     8b4:	032c                	addi	a1,sp,392
     8b6:	0000                	unimp
     8b8:	0001                	nop
     8ba:	2c5f 0003 3800      	0x380000032c5f
     8c0:	0a000003          	lb	zero,160(zero) # a0 <.L4+0x4>
     8c4:	7f00                	flw	fs0,56(a4)
     8c6:	3300                	fld	fs0,32(a4)
     8c8:	7825                	lui	a6,0xfffe9
     8ca:	4d00                	lw	s0,24(a0)
     8cc:	2124                	fld	fs1,64(a0)
     8ce:	389f 0003 3c00      	0x3c000003389f
     8d4:	08000003          	lb	zero,128(zero) # 80 <.LASF11>
     8d8:	7800                	flw	fs0,48(s0)
     8da:	4d00                	lw	s0,24(a0)
     8dc:	7e24                	flw	fs1,120(a2)
     8de:	2100                	fld	fs0,0(a0)
     8e0:	3c9f 0003 3e00      	0x3e0000033c9f
     8e6:	06000003          	lb	zero,96(zero) # 60 <.LASF7+0xb>
     8ea:	7e00                	flw	fs0,56(a2)
     8ec:	7f00                	flw	fs0,56(a4)
     8ee:	2100                	fld	fs0,0(a0)
     8f0:	3e9f 0003 4000      	0x400000033e9f
     8f6:	08000003          	lb	zero,128(zero) # 80 <.LASF11>
     8fa:	7800                	flw	fs0,48(s0)
     8fc:	4d00                	lw	s0,24(a0)
     8fe:	7e24                	flw	fs1,120(a2)
     900:	2100                	fld	fs0,0(a0)
     902:	409f 0003 7000      	0x70000003409f
     908:	01000003          	lb	zero,16(zero) # 10 <.LASF10+0x2>
     90c:	5f00                	lw	s0,56(a4)
     90e:	0378                	addi	a4,sp,396
     910:	0000                	unimp
     912:	038e                	slli	t2,t2,0x3
     914:	0000                	unimp
     916:	0001                	nop
     918:	945f 0003 ba00      	0xba000003945f
     91e:	01000003          	lb	zero,16(zero) # 10 <.LASF10+0x2>
     922:	5f00                	lw	s0,56(a4)
     924:	03c2                	slli	t2,t2,0x10
     926:	0000                	unimp
     928:	03de                	slli	t2,t2,0x17
     92a:	0000                	unimp
     92c:	0001                	nop
     92e:	de5f 0003 e000      	0xe0000003de5f
     934:	03000003          	lb	zero,48(zero) # 30 <.LASF24+0x7>
     938:	7e00                	flw	fs0,56(a2)
     93a:	9f7c                	0x9f7c
     93c:	03e0                	addi	s0,sp,460
     93e:	0000                	unimp
     940:	03e2                	slli	t2,t2,0x18
     942:	0000                	unimp
     944:	0001                	nop
     946:	e25e                	fsw	fs7,4(sp)
     948:	f0000003          	lb	zero,-256(zero) # ffffff00 <.LC0+0xffffbdb0>
     94c:	01000003          	lb	zero,16(zero) # 10 <.LASF10+0x2>
     950:	5f00                	lw	s0,56(a4)
     952:	03f2                	slli	t2,t2,0x1c
     954:	0000                	unimp
     956:	03f4                	addi	a3,sp,460
     958:	0000                	unimp
     95a:	0001                	nop
     95c:	f85f 0003 1400      	0x14000003f85f
     962:	0004                	0x4
     964:	0100                	addi	s0,sp,128
     966:	5f00                	lw	s0,56(a4)
     968:	041a                	slli	s0,s0,0x6
     96a:	0000                	unimp
     96c:	041e                	slli	s0,s0,0x7
     96e:	0000                	unimp
     970:	0001                	nop
     972:	365f 0004 3a00      	0x3a000004365f
     978:	0004                	0x4
     97a:	0100                	addi	s0,sp,128
     97c:	5f00                	lw	s0,56(a4)
	...

00000986 <.LLST17>:
     986:	02dc                	addi	a5,sp,324
     988:	0000                	unimp
     98a:	032c                	addi	a1,sp,392
     98c:	0000                	unimp
     98e:	0001                	nop
     990:	2c58                	fld	fa4,152(s0)
     992:	40000003          	lb	zero,1024(zero) # 400 <.LASF39+0x1>
     996:	05000003          	lb	zero,80(zero) # 50 <.L3>
     99a:	7800                	flw	fs0,48(s0)
     99c:	3300                	fld	fs0,32(a4)
     99e:	9f25                	0x9f25
     9a0:	0340                	addi	s0,sp,388
     9a2:	0000                	unimp
     9a4:	0346                	slli	t1,t1,0x11
     9a6:	0000                	unimp
     9a8:	0001                	nop
     9aa:	7858                	flw	fa4,52(s0)
     9ac:	8c000003          	lb	zero,-1856(zero) # fffff8c0 <.LC0+0xffffb770>
     9b0:	01000003          	lb	zero,16(zero) # 10 <.LASF10+0x2>
     9b4:	5800                	lw	s0,48(s0)
     9b6:	0394                	addi	a3,sp,448
     9b8:	0000                	unimp
     9ba:	03f4                	addi	a3,sp,460
     9bc:	0000                	unimp
     9be:	0001                	nop
     9c0:	f858                	fsw	fa4,52(s0)
     9c2:	1a000003          	lb	zero,416(zero) # 1a0 <.L31+0x8>
     9c6:	0004                	0x4
     9c8:	0100                	addi	s0,sp,128
     9ca:	5800                	lw	s0,48(s0)
     9cc:	041a                	slli	s0,s0,0x6
     9ce:	0000                	unimp
     9d0:	041e                	slli	s0,s0,0x7
     9d2:	0000                	unimp
     9d4:	0002                	c.slli64	zero
     9d6:	9f30                	0x9f30
     9d8:	0436                	slli	s0,s0,0xd
     9da:	0000                	unimp
     9dc:	0438                	addi	a4,sp,520
     9de:	0000                	unimp
     9e0:	0001                	nop
     9e2:	0058                	addi	a4,sp,4
     9e4:	0000                	unimp
     9e6:	0000                	unimp
     9e8:	0000                	unimp
	...

000009eb <.LLST18>:
     9eb:	00ba                	slli	ra,ra,0xe
     9ed:	0000                	unimp
     9ef:	00be                	slli	ra,ra,0xf
     9f1:	0000                	unimp
     9f3:	0001                	nop
     9f5:	be5a                	fsd	fs6,312(sp)
     9f7:	0000                	unimp
     9f9:	e400                	fsw	fs0,8(s0)
     9fb:	0000                	unimp
     9fd:	0100                	addi	s0,sp,128
     9ff:	5e00                	lw	s0,56(a2)
     a01:	00e8                	addi	a0,sp,76
     a03:	0000                	unimp
     a05:	00ee                	slli	ra,ra,0x1b
     a07:	0000                	unimp
     a09:	0001                	nop
     a0b:	ee5a                	fsw	fs6,28(sp)
     a0d:	0000                	unimp
     a0f:	fa00                	fsw	fs0,48(a2)
     a11:	0000                	unimp
     a13:	0100                	addi	s0,sp,128
     a15:	5e00                	lw	s0,56(a2)
	...

00000a1f <.LLST19>:
     a1f:	012c                	addi	a1,sp,136
     a21:	0000                	unimp
     a23:	0130                	addi	a2,sp,136
     a25:	0000                	unimp
     a27:	0001                	nop
     a29:	305a                	fld	ft0,432(sp)
     a2b:	0001                	nop
     a2d:	5600                	lw	s0,40(a2)
     a2f:	0001                	nop
     a31:	0100                	addi	s0,sp,128
     a33:	5d00                	lw	s0,56(a0)
     a35:	015c                	addi	a5,sp,132
     a37:	0000                	unimp
     a39:	0162                	slli	sp,sp,0x18
     a3b:	0000                	unimp
     a3d:	0001                	nop
     a3f:	625a                	flw	ft4,148(sp)
     a41:	0001                	nop
     a43:	6e00                	flw	fs0,24(a2)
     a45:	0001                	nop
     a47:	0100                	addi	s0,sp,128
     a49:	5d00                	lw	s0,56(a0)
	...

00000a53 <.LLST20>:
     a53:	0222                	slli	tp,tp,0x8
     a55:	0000                	unimp
     a57:	0288                	addi	a0,sp,320
     a59:	0000                	unimp
     a5b:	0001                	nop
     a5d:	0062                	c.slli	zero,0x18
     a5f:	0000                	unimp
     a61:	0000                	unimp
     a63:	0000                	unimp
	...

00000a66 <.LLST21>:
     a66:	0208                	addi	a0,sp,256
     a68:	0000                	unimp
     a6a:	02f4                	addi	a3,sp,332
     a6c:	0000                	unimp
     a6e:	0001                	nop
     a70:	946d                	srai	s0,s0,0x3b
     a72:	98000003          	lb	zero,-1664(zero) # fffff980 <.LC0+0xffffb830>
     a76:	01000003          	lb	zero,16(zero) # 10 <.LASF10+0x2>
     a7a:	6d00                	flw	fs0,24(a0)
	...

00000a84 <.LLST22>:
     a84:	0258                	addi	a4,sp,260
     a86:	0000                	unimp
     a88:	0294                	addi	a3,sp,320
     a8a:	0000                	unimp
     a8c:	0001                	nop
     a8e:	005d                	c.nop	23
     a90:	0000                	unimp
     a92:	0000                	unimp
     a94:	0000                	unimp
	...

00000a97 <.LLST23>:
     a97:	0248                	addi	a0,sp,260
     a99:	0000                	unimp
     a9b:	02f4                	addi	a3,sp,332
     a9d:	0000                	unimp
     a9f:	0001                	nop
     aa1:	0003946f          	jal	s0,39aa1 <.LC0+0x35951>
     aa5:	9800                	0x9800
     aa7:	01000003          	lb	zero,16(zero) # 10 <.LASF10+0x2>
     aab:	6f00                	flw	fs0,24(a4)
	...

00000ab5 <.LLST24>:
     ab5:	01ae                	slli	gp,gp,0xb
     ab7:	0000                	unimp
     ab9:	01d2                	slli	gp,gp,0x14
     abb:	0000                	unimp
     abd:	0001                	nop
     abf:	d25d                	beqz	a2,a65 <.LBE6+0x9>
     ac1:	0001                	nop
     ac3:	ea00                	fsw	fs0,16(a2)
     ac5:	0001                	nop
     ac7:	0600                	addi	s0,sp,768
     ac9:	8200                	0x8200
     acb:	7f00                	flw	fs0,56(a4)
     acd:	1e00                	addi	s0,sp,816
     acf:	009f 0000 0000      	0x9f
     ad5:	0000                	unimp
	...

00000ad8 <.LLST25>:
     ad8:	01ae                	slli	gp,gp,0xb
     ada:	0000                	unimp
     adc:	01ba                	slli	gp,gp,0xe
     ade:	0000                	unimp
     ae0:	0001                	nop
     ae2:	ba60                	fsd	fs0,240(a2)
     ae4:	0001                	nop
     ae6:	c000                	sw	s0,0(s0)
     ae8:	0001                	nop
     aea:	0600                	addi	s0,sp,768
     aec:	8100                	0x8100
     aee:	8200                	0x8200
     af0:	1e00                	addi	s0,sp,816
     af2:	c09f 0001 ce00      	0xce000001c09f
     af8:	0001                	nop
     afa:	0100                	addi	s0,sp,128
     afc:	6000                	flw	fs0,0(s0)
     afe:	01ce                	slli	gp,gp,0x13
     b00:	0000                	unimp
     b02:	01d2                	slli	gp,gp,0x14
     b04:	0000                	unimp
     b06:	0008                	0x8
     b08:	007d                	c.nop	31
     b0a:	2540                	fld	fs0,136(a0)
     b0c:	0076                	c.slli	zero,0x1d
     b0e:	9f22                	add	t5,t5,s0
     b10:	01d2                	slli	gp,gp,0x14
     b12:	0000                	unimp
     b14:	01ea                	slli	gp,gp,0x1a
     b16:	0000                	unimp
     b18:	0082000b          	0x82000b
     b1c:	007f                	0x7f
     b1e:	401e                	0x401e
     b20:	7625                	lui	a2,0xfffe9
     b22:	2200                	fld	fs0,0(a2)
     b24:	009f 0000 0000      	0x9f
     b2a:	0000                	unimp
	...

00000b2d <.LLST26>:
     b2d:	01b2                	slli	gp,gp,0xc
     b2f:	0000                	unimp
     b31:	0248                	addi	a0,sp,260
     b33:	0000                	unimp
     b35:	0001                	nop
     b37:	0000006f          	j	b37 <.LLST26+0xa>
     b3b:	0000                	unimp
     b3d:	0000                	unimp
	...

00000b40 <.LLST27>:
     b40:	01c0                	addi	s0,sp,196
     b42:	0000                	unimp
     b44:	0282                	c.slli64	t0
     b46:	0000                	unimp
     b48:	0001                	nop
     b4a:	006c                	addi	a1,sp,12
     b4c:	0000                	unimp
     b4e:	0000                	unimp
     b50:	0000                	unimp
	...

00000b53 <.LLST28>:
     b53:	0190                	addi	a2,sp,192
     b55:	0000                	unimp
     b57:	01a2                	slli	gp,gp,0x8
     b59:	0000                	unimp
     b5b:	0001                	nop
     b5d:	0062                	c.slli	zero,0x18
     b5f:	0000                	unimp
     b61:	0000                	unimp
     b63:	0000                	unimp
	...

00000b66 <.LLST29>:
     b66:	019a                	slli	gp,gp,0x6
     b68:	0000                	unimp
     b6a:	01a6                	slli	gp,gp,0x9
     b6c:	0000                	unimp
     b6e:	0001                	nop
     b70:	005f 0000 0000      	0x5f
     b76:	0000                	unimp
	...

00000b79 <.LLST30>:
     b79:	019a                	slli	gp,gp,0x6
     b7b:	0000                	unimp
     b7d:	01f8                	addi	a4,sp,204
     b7f:	0000                	unimp
     b81:	0001                	nop
     b83:	005e                	c.slli	zero,0x17
     b85:	0000                	unimp
     b87:	0000                	unimp
     b89:	0000                	unimp
	...

00000b8c <.LLST31>:
     b8c:	019e                	slli	gp,gp,0x7
     b8e:	0000                	unimp
     b90:	0232                	slli	tp,tp,0xc
     b92:	0000                	unimp
     b94:	0001                	nop
     b96:	0061                	c.nop	24
     b98:	0000                	unimp
     b9a:	0000                	unimp
     b9c:	0000                	unimp
	...

00000b9f <.LLST32>:
     b9f:	01e6                	slli	gp,gp,0x19
     ba1:	0000                	unimp
     ba3:	0212                	slli	tp,tp,0x4
     ba5:	0000                	unimp
     ba7:	0001                	nop
     ba9:	005d                	c.nop	23
     bab:	0000                	unimp
     bad:	0000                	unimp
     baf:	0000                	unimp
	...

00000bb2 <.LLST33>:
     bb2:	01e6                	slli	gp,gp,0x19
     bb4:	0000                	unimp
     bb6:	01ea                	slli	gp,gp,0x1a
     bb8:	0000                	unimp
     bba:	0006                	c.slli	zero,0x1
     bbc:	008e                	slli	ra,ra,0x3
     bbe:	0082                	c.slli64	ra
     bc0:	9f1e                	add	t5,t5,t2
     bc2:	01ea                	slli	gp,gp,0x1a
     bc4:	0000                	unimp
     bc6:	01f2                	slli	gp,gp,0x1c
     bc8:	0000                	unimp
     bca:	0001                	nop
     bcc:	f862                	fsw	fs8,48(sp)
     bce:	0001                	nop
     bd0:	1000                	addi	s0,sp,32
     bd2:	0002                	c.slli64	zero
     bd4:	0100                	addi	s0,sp,128
     bd6:	6200                	flw	fs0,0(a2)
	...

00000be0 <.LLST34>:
     be0:	01e6                	slli	gp,gp,0x19
     be2:	0000                	unimp
     be4:	0204                	addi	s1,sp,256
     be6:	0000                	unimp
     be8:	0001                	nop
     bea:	006d                	c.nop	27
     bec:	0000                	unimp
     bee:	0000                	unimp
     bf0:	0000                	unimp
	...

00000bf3 <.LLST35>:
     bf3:	01f8                	addi	a4,sp,204
     bf5:	0000                	unimp
     bf7:	020c                	addi	a1,sp,256
     bf9:	0000                	unimp
     bfb:	0001                	nop
     bfd:	005e                	c.slli	zero,0x17
     bff:	0000                	unimp
     c01:	0000                	unimp
     c03:	0000                	unimp
	...

00000c06 <.LLST36>:
     c06:	01de                	slli	gp,gp,0x17
     c08:	0000                	unimp
     c0a:	0216                	slli	tp,tp,0x5
     c0c:	0000                	unimp
     c0e:	0001                	nop
     c10:	0058                	addi	a4,sp,4
     c12:	0000                	unimp
     c14:	0000                	unimp
     c16:	0000                	unimp
	...

00000c19 <.LLST37>:
     c19:	01de                	slli	gp,gp,0x17
     c1b:	0000                	unimp
     c1d:	01f8                	addi	a4,sp,204
     c1f:	0000                	unimp
     c21:	0001                	nop
     c23:	005e                	c.slli	zero,0x17
     c25:	0000                	unimp
     c27:	0000                	unimp
     c29:	0000                	unimp
	...

00000c2c <.LLST38>:
     c2c:	01de                	slli	gp,gp,0x17
     c2e:	0000                	unimp
     c30:	029c                	addi	a5,sp,320
     c32:	0000                	unimp
     c34:	0001                	nop
     c36:	006e                	c.slli	zero,0x1b
     c38:	0000                	unimp
     c3a:	0000                	unimp
     c3c:	0000                	unimp
	...

00000c3f <.LLST39>:
     c3f:	0222                	slli	tp,tp,0x8
     c41:	0000                	unimp
     c43:	0254                	addi	a3,sp,260
     c45:	0000                	unimp
     c47:	0001                	nop
     c49:	005e                	c.slli	zero,0x17
     c4b:	0000                	unimp
     c4d:	0000                	unimp
     c4f:	0000                	unimp
	...

00000c52 <.LLST40>:
     c52:	0222                	slli	tp,tp,0x8
     c54:	0000                	unimp
     c56:	022a                	slli	tp,tp,0xa
     c58:	0000                	unimp
     c5a:	0006                	c.slli	zero,0x1
     c5c:	0081                	addi	ra,ra,0
     c5e:	0079                	c.nop	30
     c60:	9f1e                	add	t5,t5,t2
     c62:	022a                	slli	tp,tp,0xa
     c64:	0000                	unimp
     c66:	0232                	slli	tp,tp,0xc
     c68:	0000                	unimp
     c6a:	0001                	nop
     c6c:	325d                	jal	612 <.LASF19+0x3>
     c6e:	0002                	c.slli64	zero
     c70:	3600                	fld	fs0,40(a2)
     c72:	0002                	c.slli64	zero
     c74:	0800                	addi	s0,sp,16
     c76:	7e00                	flw	fs0,56(a2)
     c78:	4000                	lw	s0,0(s0)
     c7a:	7d25                	lui	s10,0xfffe9
     c7c:	2200                	fld	fs0,0(a2)
     c7e:	389f 0002 5200      	0x52000002389f
     c84:	0002                	c.slli64	zero
     c86:	0100                	addi	s0,sp,128
     c88:	5d00                	lw	s0,56(a0)
	...

00000c92 <.LLST41>:
     c92:	0226                	slli	tp,tp,0x9
     c94:	0000                	unimp
     c96:	0264                	addi	s1,sp,268
     c98:	0000                	unimp
     c9a:	0001                	nop
     c9c:	0056                	c.slli	zero,0x15
     c9e:	0000                	unimp
     ca0:	0000                	unimp
     ca2:	0000                	unimp
	...

00000ca5 <.LLST42>:
     ca5:	022e                	slli	tp,tp,0xb
     ca7:	0000                	unimp
     ca9:	024c                	addi	a1,sp,260
     cab:	0000                	unimp
     cad:	0001                	nop
     caf:	005f 0000 0000      	0x5f
     cb5:	0000                	unimp
	...

00000cb8 <.LLST43>:
     cb8:	0222                	slli	tp,tp,0x8
     cba:	0000                	unimp
     cbc:	026a                	slli	tp,tp,0x1a
     cbe:	0000                	unimp
     cc0:	0001                	nop
     cc2:	0058                	addi	a4,sp,4
     cc4:	0000                	unimp
     cc6:	0000                	unimp
     cc8:	0000                	unimp
	...

00000ccb <.LLST44>:
     ccb:	0222                	slli	tp,tp,0x8
     ccd:	0000                	unimp
     ccf:	0232                	slli	tp,tp,0xc
     cd1:	0000                	unimp
     cd3:	0001                	nop
     cd5:	0061                	c.nop	24
     cd7:	0000                	unimp
     cd9:	0000                	unimp
     cdb:	0000                	unimp
	...

00000cde <.LLST45>:
     cde:	0258                	addi	a4,sp,260
     ce0:	0000                	unimp
     ce2:	027e                	slli	tp,tp,0x1f
     ce4:	0000                	unimp
     ce6:	0001                	nop
     ce8:	0061                	c.nop	24
     cea:	0000                	unimp
     cec:	0000                	unimp
     cee:	0000                	unimp
	...

00000cf1 <.LLST46>:
     cf1:	0258                	addi	a4,sp,260
     cf3:	0000                	unimp
     cf5:	0260                	addi	s0,sp,268
     cf7:	0000                	unimp
     cf9:	0006                	c.slli	zero,0x1
     cfb:	008e                	slli	ra,ra,0x3
     cfd:	0079                	c.nop	30
     cff:	9f1e                	add	t5,t5,t2
     d01:	0260                	addi	s0,sp,268
     d03:	0000                	unimp
     d05:	0266                	slli	tp,tp,0x19
     d07:	0000                	unimp
     d09:	0001                	nop
     d0b:	6c59                	lui	s8,0x16
     d0d:	0002                	c.slli64	zero
     d0f:	a800                	fsd	fs0,16(s0)
     d11:	0002                	c.slli64	zero
     d13:	0100                	addi	s0,sp,128
     d15:	5900                	lw	s0,48(a0)
	...

00000d1f <.LLST47>:
     d1f:	025c                	addi	a5,sp,260
     d21:	0000                	unimp
     d23:	0274                	addi	a3,sp,268
     d25:	0000                	unimp
     d27:	0001                	nop
     d29:	005f 0000 0000      	0x5f
     d2f:	0000                	unimp
	...

00000d32 <.LLST48>:
     d32:	0264                	addi	s1,sp,268
     d34:	0000                	unimp
     d36:	02f4                	addi	a3,sp,332
     d38:	0000                	unimp
     d3a:	0001                	nop
     d3c:	9456                	add	s0,s0,s5
     d3e:	98000003          	lb	zero,-1664(zero) # fffff980 <.LC0+0xffffb830>
     d42:	01000003          	lb	zero,16(zero) # 10 <.LASF10+0x2>
     d46:	5600                	lw	s0,40(a2)
	...

00000d50 <.LLST49>:
     d50:	0258                	addi	a4,sp,260
     d52:	0000                	unimp
     d54:	026a                	slli	tp,tp,0x1a
     d56:	0000                	unimp
     d58:	0001                	nop
     d5a:	0058                	addi	a4,sp,4
     d5c:	0000                	unimp
     d5e:	0000                	unimp
     d60:	0000                	unimp
	...

00000d63 <.LLST50>:
     d63:	0258                	addi	a4,sp,260
     d65:	0000                	unimp
     d67:	029c                	addi	a5,sp,320
     d69:	0000                	unimp
     d6b:	0001                	nop
     d6d:	006e                	c.slli	zero,0x1b
     d6f:	0000                	unimp
     d71:	0000                	unimp
     d73:	0000                	unimp
	...

00000d76 <.LLST51>:
     d76:	0288                	addi	a0,sp,320
     d78:	0000                	unimp
     d7a:	02f4                	addi	a3,sp,332
     d7c:	0000                	unimp
     d7e:	0001                	nop
     d80:	9462                	add	s0,s0,s8
     d82:	98000003          	lb	zero,-1664(zero) # fffff980 <.LC0+0xffffb830>
     d86:	01000003          	lb	zero,16(zero) # 10 <.LASF10+0x2>
     d8a:	6200                	flw	fs0,0(a2)
	...

00000d94 <.LLST52>:
     d94:	028a                	slli	t0,t0,0x2
     d96:	0000                	unimp
     d98:	028e                	slli	t0,t0,0x3
     d9a:	0000                	unimp
     d9c:	0011                	c.nop	4
     d9e:	007e                	c.slli	zero,0x1f
     da0:	4b40                	lw	s0,20(a4)
     da2:	2224                	fld	fs1,64(a2)
     da4:	008d                	addi	ra,ra,3
     da6:	4b40                	lw	s0,20(a4)
     da8:	2224                	fld	fs1,64(a2)
     daa:	082d                	addi	a6,a6,11
     dac:	1aff                	0x1aff
     dae:	8e9f 0002 a000      	0xa00000028e9f
     db4:	0002                	c.slli64	zero
     db6:	1f00                	addi	s0,sp,944
     db8:	7e00                	flw	fs0,56(a2)
     dba:	4000                	lw	s0,0(s0)
     dbc:	8d22244b          	0x8d22244b
     dc0:	4000                	lw	s0,0(s0)
     dc2:	2d22244b          	0x2d22244b
     dc6:	0078                	addi	a4,sp,12
     dc8:	4b40                	lw	s0,20(a4)
     dca:	2224                	fld	fs1,64(a2)
     dcc:	0082                	c.slli64	ra
     dce:	4b40                	lw	s0,20(a4)
     dd0:	2224                	fld	fs1,64(a2)
     dd2:	212d                	jal	11fc <.L78>
     dd4:	ff08                	fsw	fa0,56(a4)
     dd6:	9f1a                	add	t5,t5,t1
	...

00000de0 <.LLST53>:
     de0:	0294                	addi	a3,sp,320
     de2:	0000                	unimp
     de4:	02b0                	addi	a2,sp,328
     de6:	0000                	unimp
     de8:	0001                	nop
     dea:	005d                	c.nop	23
     dec:	0000                	unimp
     dee:	0000                	unimp
     df0:	0000                	unimp
	...

00000df3 <.LLST54>:
     df3:	0298                	addi	a4,sp,320
     df5:	0000                	unimp
     df7:	029c                	addi	a5,sp,320
     df9:	0000                	unimp
     dfb:	0011                	c.nop	4
     dfd:	0081                	addi	ra,ra,0
     dff:	4b40                	lw	s0,20(a4)
     e01:	2224                	fld	fs1,64(a2)
     e03:	4b40008f          	0x4b40008f
     e07:	2224                	fld	fs1,64(a2)
     e09:	082d                	addi	a6,a6,11
     e0b:	1aff                	0x1aff
     e0d:	9c9f 0002 ac00      	0xac0000029c9f
     e13:	0002                	c.slli64	zero
     e15:	1f00                	addi	s0,sp,944
     e17:	8100                	0x8100
     e19:	4000                	lw	s0,0(s0)
     e1b:	8f22244b          	fnmsub.q	fs0,ft4,fs2,fa7,rdn
     e1f:	4000                	lw	s0,0(s0)
     e21:	2d22244b          	0x2d22244b
     e25:	008e                	slli	ra,ra,0x3
     e27:	4b40                	lw	s0,20(a4)
     e29:	2224                	fld	fs1,64(a2)
     e2b:	007d                	c.nop	31
     e2d:	4b40                	lw	s0,20(a4)
     e2f:	2224                	fld	fs1,64(a2)
     e31:	212d                	jal	125b <.LVL151+0x1>
     e33:	ff08                	fsw	fa0,56(a4)
     e35:	9f1a                	add	t5,t5,t1
	...

00000e3f <.LLST55>:
     e3f:	02c2                	slli	t0,t0,0x10
     e41:	0000                	unimp
     e43:	02d2                	slli	t0,t0,0x14
     e45:	0000                	unimp
     e47:	000d                	c.nop	3
     e49:	008c                	addi	a1,sp,64
     e4b:	2439                	jal	1059 <.L22+0x5>
     e4d:	0080                	addi	s0,sp,64
     e4f:	3021                	jal	657 <.LASF28+0x23>
     e51:	082e                	slli	a6,a6,0xb
     e53:	1aff                	0x1aff
     e55:	009f 0000 0000      	0x9f
     e5b:	0000                	unimp
	...

00000e5e <.LLST56>:
     e5e:	029c                	addi	a5,sp,320
     e60:	0000                	unimp
     e62:	02f4                	addi	a3,sp,332
     e64:	0000                	unimp
     e66:	0002                	c.slli64	zero
     e68:	9f39                	0x9f39
     e6a:	0394                	addi	a3,sp,448
     e6c:	0000                	unimp
     e6e:	0398                	addi	a4,sp,448
     e70:	0000                	unimp
     e72:	0002                	c.slli64	zero
     e74:	9f39                	0x9f39
	...

00000e7e <.LLST57>:
     e7e:	029c                	addi	a5,sp,320
     e80:	0000                	unimp
     e82:	02f4                	addi	a3,sp,332
     e84:	0000                	unimp
     e86:	0002                	c.slli64	zero
     e88:	03949f47          	fmsub.d	ft10,fs1,fs9,ft0,rtz
     e8c:	0000                	unimp
     e8e:	0398                	addi	a4,sp,448
     e90:	0000                	unimp
     e92:	0002                	c.slli64	zero
     e94:	00009f47          	fmsub.s	ft10,ft1,ft0,ft0,rtz
     e98:	0000                	unimp
     e9a:	0000                	unimp
	...

00000e9e <.LLST58>:
     e9e:	029c                	addi	a5,sp,320
     ea0:	0000                	unimp
     ea2:	02f4                	addi	a3,sp,332
     ea4:	0000                	unimp
     ea6:	0002                	c.slli64	zero
     ea8:	9f31                	0x9f31
     eaa:	0394                	addi	a3,sp,448
     eac:	0000                	unimp
     eae:	0398                	addi	a4,sp,448
     eb0:	0000                	unimp
     eb2:	0002                	c.slli64	zero
     eb4:	9f31                	0x9f31
	...

00000ebe <.LLST59>:
     ebe:	029c                	addi	a5,sp,320
     ec0:	0000                	unimp
     ec2:	02c2                	slli	t0,t0,0x10
     ec4:	0000                	unimp
     ec6:	0002                	c.slli64	zero
     ec8:	9f31                	0x9f31
	...

00000ed2 <.LLST60>:
     ed2:	029c                	addi	a5,sp,320
     ed4:	0000                	unimp
     ed6:	02ca                	slli	t0,t0,0x12
     ed8:	0000                	unimp
     eda:	0008                	0x8
     edc:	008c                	addi	a1,sp,64
     ede:	2439                	jal	10ec <.LBE37>
     ee0:	0080                	addi	s0,sp,64
     ee2:	9f21                	0x9f21
     ee4:	02ca                	slli	t0,t0,0x12
     ee6:	0000                	unimp
     ee8:	02ce                	slli	t0,t0,0x13
     eea:	0000                	unimp
     eec:	0001                	nop
     eee:	ce5f 0002 d200      	0xd2000002ce5f
     ef4:	0002                	c.slli64	zero
     ef6:	0800                	addi	s0,sp,16
     ef8:	8c00                	0x8c00
     efa:	3900                	fld	fs0,48(a0)
     efc:	8024                	0x8024
     efe:	2100                	fld	fs0,0(a0)
     f00:	009f 0000 0000      	0x9f
     f06:	0000                	unimp
	...

00000f09 <.LLST61>:
     f09:	0310                	addi	a2,sp,384
     f0b:	0000                	unimp
     f0d:	0318                	addi	a4,sp,384
     f0f:	0000                	unimp
     f11:	0001                	nop
     f13:	005e                	c.slli	zero,0x17
     f15:	0000                	unimp
     f17:	0000                	unimp
     f19:	0000                	unimp
	...

00000f1c <.LLST62>:
     f1c:	03da                	slli	t2,t2,0x16
     f1e:	0000                	unimp
     f20:	03e2                	slli	t2,t2,0x18
     f22:	0000                	unimp
     f24:	0001                	nop
     f26:	005e                	c.slli	zero,0x17
     f28:	0000                	unimp
     f2a:	0000                	unimp
     f2c:	0000                	unimp
	...

00000f2f <.LLST0>:
     f2f:	0000                	unimp
     f31:	0000                	unimp
     f33:	0044                	addi	s1,sp,4
     f35:	0000                	unimp
     f37:	0006                	c.slli	zero,0x1
     f39:	935a                	add	t1,t1,s6
     f3b:	5b04                	lw	s1,48(a4)
     f3d:	00440493          	addi	s1,s0,4
     f41:	0000                	unimp
     f43:	0618                	addi	a4,sp,768
     f45:	0000                	unimp
     f47:	0006                	c.slli	zero,0x1
     f49:	0af503f3          	0xaf503f3
     f4d:	9f25                	0x9f25
	...

00000f57 <.LLST1>:
     f57:	0000                	unimp
     f59:	0000                	unimp
     f5b:	004c                	addi	a1,sp,4
     f5d:	0000                	unimp
     f5f:	0006                	c.slli	zero,0x1
     f61:	935c                	0x935c
     f63:	5d04                	lw	s1,56(a0)
     f65:	004c0493          	addi	s1,s8,4 # 16004 <.LC0+0x11eb4>
     f69:	0000                	unimp
     f6b:	0618                	addi	a4,sp,768
     f6d:	0000                	unimp
     f6f:	0006                	c.slli	zero,0x1
     f71:	0cf503f3          	0xcf503f3
     f75:	9f25                	0x9f25
	...

00000f7f <.LLST2>:
     f7f:	0000                	unimp
     f81:	0000                	unimp
     f83:	0090                	addi	a2,sp,64
     f85:	0000                	unimp
     f87:	0002                	c.slli64	zero
     f89:	9f30                	0x9f30
     f8b:	0096                	slli	ra,ra,0x5
     f8d:	0000                	unimp
     f8f:	0174                	addi	a3,sp,140
     f91:	0000                	unimp
     f93:	0002                	c.slli64	zero
     f95:	9f30                	0x9f30
     f97:	017a                	slli	sp,sp,0x1e
     f99:	0000                	unimp
     f9b:	0236                	slli	tp,tp,0xd
     f9d:	0000                	unimp
     f9f:	0002                	c.slli64	zero
     fa1:	9f30                	0x9f30
     fa3:	026c                	addi	a1,sp,268
     fa5:	0000                	unimp
     fa7:	0486                	slli	s1,s1,0x1
     fa9:	0000                	unimp
     fab:	0002                	c.slli64	zero
     fad:	9f30                	0x9f30
     faf:	049c                	addi	a5,sp,576
     fb1:	0000                	unimp
     fb3:	058e                	slli	a1,a1,0x3
     fb5:	0000                	unimp
     fb7:	0002                	c.slli64	zero
     fb9:	9f30                	0x9f30
     fbb:	05f0                	addi	a2,sp,716
     fbd:	0000                	unimp
     fbf:	0608                	addi	a0,sp,768
     fc1:	0000                	unimp
     fc3:	0002                	c.slli64	zero
     fc5:	9f30                	0x9f30
	...

00000fcf <.LLST3>:
     fcf:	002c                	addi	a1,sp,8
     fd1:	0000                	unimp
     fd3:	0090                	addi	a2,sp,64
     fd5:	0000                	unimp
     fd7:	0001                	nop
     fd9:	9659                	srai	a2,a2,0x36
     fdb:	0000                	unimp
     fdd:	3600                	fld	fs0,40(a2)
     fdf:	0002                	c.slli64	zero
     fe1:	0100                	addi	s0,sp,128
     fe3:	5900                	lw	s0,48(a0)
     fe5:	0256                	slli	tp,tp,0x15
     fe7:	0000                	unimp
     fe9:	0260                	addi	s0,sp,268
     feb:	0000                	unimp
     fed:	0001                	nop
     fef:	6c59                	lui	s8,0x16
     ff1:	0002                	c.slli64	zero
     ff3:	b200                	fsd	fs0,32(a2)
     ff5:	0002                	c.slli64	zero
     ff7:	0100                	addi	s0,sp,128
     ff9:	5900                	lw	s0,48(a0)
     ffb:	02b6                	slli	t0,t0,0xd
     ffd:	0000                	unimp
     fff:	0300                	addi	s0,sp,384
    1001:	0000                	unimp
    1003:	0001                	nop
    1005:	1459                	addi	s0,s0,-10
    1007:	84000003          	lb	zero,-1984(zero) # fffff840 <.LC0+0xffffb6f0>
    100b:	01000003          	lb	zero,16(zero) # 10 <.LASF10+0x2>
    100f:	5900                	lw	s0,48(a0)
    1011:	0386                	slli	t2,t2,0x1
    1013:	0000                	unimp
    1015:	03ec                	addi	a1,sp,460
    1017:	0000                	unimp
    1019:	0001                	nop
    101b:	ee59                	bnez	a2,10b9 <.LBB74+0x3>
    101d:	46000003          	lb	zero,1120(zero) # 460 <.LASF23+0x8>
    1021:	0004                	0x4
    1023:	0100                	addi	s0,sp,128
    1025:	5900                	lw	s0,48(a0)
    1027:	0448                	addi	a0,sp,516
    1029:	0000                	unimp
    102b:	0494                	addi	a3,sp,576
    102d:	0000                	unimp
    102f:	0001                	nop
    1031:	9659                	srai	a2,a2,0x36
    1033:	0004                	0x4
    1035:	c800                	sw	s0,16(s0)
    1037:	0004                	0x4
    1039:	0100                	addi	s0,sp,128
    103b:	5900                	lw	s0,48(a0)
    103d:	0522                	slli	a0,a0,0x8
    103f:	0000                	unimp
    1041:	052e                	slli	a0,a0,0xb
    1043:	0000                	unimp
    1045:	0001                	nop
    1047:	7859                	lui	a6,0xffff6
    1049:	0005                	c.nop	1
    104b:	8e00                	0x8e00
    104d:	0005                	c.nop	1
    104f:	0100                	addi	s0,sp,128
    1051:	5900                	lw	s0,48(a0)
    1053:	05f0                	addi	a2,sp,716
    1055:	0000                	unimp
    1057:	0602                	c.slli64	a2
    1059:	0000                	unimp
    105b:	0001                	nop
    105d:	0459                	addi	s0,s0,22
    105f:	0006                	c.slli	zero,0x1
    1061:	0c00                	addi	s0,sp,528
    1063:	0006                	c.slli	zero,0x1
    1065:	0100                	addi	s0,sp,128
    1067:	5900                	lw	s0,48(a0)
	...

00001071 <.LLST4>:
    1071:	0020                	addi	s0,sp,8
    1073:	0000                	unimp
    1075:	0086                	slli	ra,ra,0x1
    1077:	0000                	unimp
    1079:	0001                	nop
    107b:	8858                	0x8858
    107d:	0000                	unimp
    107f:	9400                	0x9400
    1081:	0000                	unimp
    1083:	0100                	addi	s0,sp,128
    1085:	5800                	lw	s0,48(s0)
    1087:	0096                	slli	ra,ra,0x5
    1089:	0000                	unimp
    108b:	00e4                	addi	s1,sp,76
    108d:	0000                	unimp
    108f:	0001                	nop
    1091:	1458                	addi	a4,sp,548
    1093:	0001                	nop
    1095:	c800                	sw	s0,16(s0)
    1097:	0001                	nop
    1099:	0100                	addi	s0,sp,128
    109b:	5800                	lw	s0,48(s0)
    109d:	01ca                	slli	gp,gp,0x12
    109f:	0000                	unimp
    10a1:	0236                	slli	tp,tp,0xd
    10a3:	0000                	unimp
    10a5:	0001                	nop
    10a7:	5658                	lw	a4,44(a2)
    10a9:	0002                	c.slli64	zero
    10ab:	6a00                	flw	fs0,16(a2)
    10ad:	0002                	c.slli64	zero
    10af:	0100                	addi	s0,sp,128
    10b1:	5800                	lw	s0,48(s0)
    10b3:	026c                	addi	a1,sp,268
    10b5:	0000                	unimp
    10b7:	028c                	addi	a1,sp,320
    10b9:	0000                	unimp
    10bb:	0001                	nop
    10bd:	8c58                	0x8c58
    10bf:	0002                	c.slli64	zero
    10c1:	8e00                	0x8e00
    10c3:	0002                	c.slli64	zero
    10c5:	0300                	addi	s0,sp,384
    10c7:	7d00                	flw	fs0,56(a0)
    10c9:	9f7f                	0x9f7f
    10cb:	028e                	slli	t0,t0,0x3
    10cd:	0000                	unimp
    10cf:	02b4                	addi	a3,sp,328
    10d1:	0000                	unimp
    10d3:	0001                	nop
    10d5:	b658                	fsd	fa4,168(a2)
    10d7:	0002                	c.slli64	zero
    10d9:	0000                	unimp
    10db:	01000003          	lb	zero,16(zero) # 10 <.LASF10+0x2>
    10df:	5800                	lw	s0,48(s0)
    10e1:	0314                	addi	a3,sp,384
    10e3:	0000                	unimp
    10e5:	0396                	slli	t2,t2,0x5
    10e7:	0000                	unimp
    10e9:	0001                	nop
    10eb:	9858                	0x9858
    10ed:	ea000003          	lb	zero,-352(zero) # fffffea0 <.LC0+0xffffbd50>
    10f1:	01000003          	lb	zero,16(zero) # 10 <.LASF10+0x2>
    10f5:	5800                	lw	s0,48(s0)
    10f7:	03ee                	slli	t2,t2,0x1b
    10f9:	0000                	unimp
    10fb:	0444                	addi	s1,sp,516
    10fd:	0000                	unimp
    10ff:	0001                	nop
    1101:	4858                	lw	a4,20(s0)
    1103:	0004                	0x4
    1105:	c800                	sw	s0,16(s0)
    1107:	0004                	0x4
    1109:	0100                	addi	s0,sp,128
    110b:	5800                	lw	s0,48(s0)
    110d:	0522                	slli	a0,a0,0x8
    110f:	0000                	unimp
    1111:	052c                	addi	a1,sp,648
    1113:	0000                	unimp
    1115:	0001                	nop
    1117:	7858                	flw	fa4,52(s0)
    1119:	0005                	c.nop	1
    111b:	7e00                	flw	fs0,56(a2)
    111d:	0005                	c.nop	1
    111f:	0100                	addi	s0,sp,128
    1121:	5800                	lw	s0,48(s0)
    1123:	0580                	addi	s0,sp,704
    1125:	0000                	unimp
    1127:	058a                	slli	a1,a1,0x2
    1129:	0000                	unimp
    112b:	0001                	nop
    112d:	f058                	fsw	fa4,36(s0)
    112f:	0005                	c.nop	1
    1131:	f200                	fsw	fs0,32(a2)
    1133:	0005                	c.nop	1
    1135:	0100                	addi	s0,sp,128
    1137:	5800                	lw	s0,48(s0)
    1139:	05f4                	addi	a3,sp,716
    113b:	0000                	unimp
    113d:	05fa                	slli	a1,a1,0x1e
    113f:	0000                	unimp
    1141:	0001                	nop
    1143:	fc58                	fsw	fa4,60(s0)
    1145:	0005                	c.nop	1
    1147:	0000                	unimp
    1149:	0006                	c.slli	zero,0x1
    114b:	0100                	addi	s0,sp,128
    114d:	5800                	lw	s0,48(s0)
    114f:	0604                	addi	s1,sp,768
    1151:	0000                	unimp
    1153:	0612                	slli	a2,a2,0x4
    1155:	0000                	unimp
    1157:	0001                	nop
    1159:	0058                	addi	a4,sp,4
    115b:	0000                	unimp
    115d:	0000                	unimp
    115f:	0000                	unimp
	...

00001162 <.LLST5>:
    1162:	0000                	unimp
    1164:	0000                	unimp
    1166:	0034                	addi	a3,sp,8
    1168:	0000                	unimp
    116a:	0001                	nop
    116c:	345a                	fld	fs0,432(sp)
    116e:	0000                	unimp
    1170:	8400                	0x8400
    1172:	0000                	unimp
    1174:	0100                	addi	s0,sp,128
    1176:	5b00                	lw	s0,48(a4)
    1178:	0088                	addi	a0,sp,64
    117a:	0000                	unimp
    117c:	0090                	addi	a2,sp,64
    117e:	0000                	unimp
    1180:	0001                	nop
    1182:	0000965b          	0x965b
    1186:	e400                	fsw	fs0,8(s0)
    1188:	0000                	unimp
    118a:	0100                	addi	s0,sp,128
    118c:	5b00                	lw	s0,48(a4)
    118e:	0114                	addi	a3,sp,128
    1190:	0000                	unimp
    1192:	0162                	slli	sp,sp,0x18
    1194:	0000                	unimp
    1196:	0001                	nop
    1198:	00016c5b          	0x16c5b
    119c:	7800                	flw	fs0,48(s0)
    119e:	0001                	nop
    11a0:	0100                	addi	s0,sp,128
    11a2:	5b00                	lw	s0,48(a4)
    11a4:	017a                	slli	sp,sp,0x1e
    11a6:	0000                	unimp
    11a8:	01ac                	addi	a1,sp,200
    11aa:	0000                	unimp
    11ac:	0001                	nop
    11ae:	0001b65b          	0x1b65b
    11b2:	ca00                	sw	s0,16(a2)
    11b4:	0001                	nop
    11b6:	0100                	addi	s0,sp,128
    11b8:	5a00                	lw	s0,48(a2)
    11ba:	01ca                	slli	gp,gp,0x12
    11bc:	0000                	unimp
    11be:	01f0                	addi	a2,sp,204
    11c0:	0000                	unimp
    11c2:	0001                	nop
    11c4:	0001f45b          	0x1f45b
    11c8:	2a00                	fld	fs0,16(a2)
    11ca:	0002                	c.slli64	zero
    11cc:	0100                	addi	s0,sp,128
    11ce:	5b00                	lw	s0,48(a4)
    11d0:	0256                	slli	tp,tp,0x15
    11d2:	0000                	unimp
    11d4:	0266                	slli	tp,tp,0x19
    11d6:	0000                	unimp
    11d8:	0001                	nop
    11da:	00026c5b          	0x26c5b
    11de:	8800                	0x8800
    11e0:	0002                	c.slli64	zero
    11e2:	0100                	addi	s0,sp,128
    11e4:	5b00                	lw	s0,48(a4)
    11e6:	028e                	slli	t0,t0,0x3
    11e8:	0000                	unimp
    11ea:	02b2                	slli	t0,t0,0xc
    11ec:	0000                	unimp
    11ee:	0001                	nop
    11f0:	0002b65b          	0x2b65b
    11f4:	0000                	unimp
    11f6:	01000003          	lb	zero,16(zero) # 10 <.LASF10+0x2>
    11fa:	5b00                	lw	s0,48(a4)
    11fc:	0314                	addi	a3,sp,384
    11fe:	0000                	unimp
    1200:	0378                	addi	a4,sp,396
    1202:	0000                	unimp
    1204:	0001                	nop
    1206:	0003865b          	0x3865b
    120a:	9200                	0x9200
    120c:	01000003          	lb	zero,16(zero) # 10 <.LASF10+0x2>
    1210:	5b00                	lw	s0,48(a4)
    1212:	0398                	addi	a4,sp,448
    1214:	0000                	unimp
    1216:	03cc                	addi	a1,sp,452
    1218:	0000                	unimp
    121a:	0001                	nop
    121c:	0003d65b          	0x3d65b
    1220:	ee00                	fsw	fs0,24(a2)
    1222:	01000003          	lb	zero,16(zero) # 10 <.LASF10+0x2>
    1226:	5a00                	lw	s0,48(a2)
    1228:	03ee                	slli	t2,t2,0x1b
    122a:	0000                	unimp
    122c:	0416                	slli	s0,s0,0x5
    122e:	0000                	unimp
    1230:	0001                	nop
    1232:	00041a5b          	0x41a5b
    1236:	4400                	lw	s0,8(s0)
    1238:	0004                	0x4
    123a:	0100                	addi	s0,sp,128
    123c:	5b00                	lw	s0,48(a4)
    123e:	0448                	addi	a0,sp,516
    1240:	0000                	unimp
    1242:	046c                	addi	a1,sp,524
    1244:	0000                	unimp
    1246:	0001                	nop
    1248:	0004785b          	0x4785b
    124c:	7c00                	flw	fs0,56(s0)
    124e:	0004                	0x4
    1250:	0100                	addi	s0,sp,128
    1252:	5b00                	lw	s0,48(a4)
    1254:	0486                	slli	s1,s1,0x1
    1256:	0000                	unimp
    1258:	0492                	slli	s1,s1,0x4
    125a:	0000                	unimp
    125c:	0001                	nop
    125e:	0004965b          	0x4965b
    1262:	c800                	sw	s0,16(s0)
    1264:	0004                	0x4
    1266:	0100                	addi	s0,sp,128
    1268:	5b00                	lw	s0,48(a4)
    126a:	0522                	slli	a0,a0,0x8
    126c:	0000                	unimp
    126e:	0526                	slli	a0,a0,0x9
    1270:	0000                	unimp
    1272:	0001                	nop
    1274:	0005785b          	0x5785b
    1278:	7c00                	flw	fs0,56(s0)
    127a:	0005                	c.nop	1
    127c:	0100                	addi	s0,sp,128
    127e:	5b00                	lw	s0,48(a4)
    1280:	0580                	addi	s0,sp,704
    1282:	0000                	unimp
    1284:	0584                	addi	s1,sp,704
    1286:	0000                	unimp
    1288:	0001                	nop
    128a:	0005865b          	0x5865b
    128e:	8a00                	0x8a00
    1290:	0005                	c.nop	1
    1292:	0100                	addi	s0,sp,128
    1294:	5b00                	lw	s0,48(a4)
    1296:	05f0                	addi	a2,sp,716
    1298:	0000                	unimp
    129a:	05f8                	addi	a4,sp,716
    129c:	0000                	unimp
    129e:	0001                	nop
    12a0:	0005fc5b          	0x5fc5b
    12a4:	0000                	unimp
    12a6:	0006                	c.slli	zero,0x1
    12a8:	0100                	addi	s0,sp,128
    12aa:	5b00                	lw	s0,48(a4)
    12ac:	0608                	addi	a0,sp,768
    12ae:	0000                	unimp
    12b0:	060a                	slli	a2,a2,0x2
    12b2:	0000                	unimp
    12b4:	0001                	nop
    12b6:	0000005b          	0x5b
    12ba:	0000                	unimp
    12bc:	0000                	unimp
	...

000012bf <.LLST6>:
    12bf:	000c                	0xc
    12c1:	0000                	unimp
    12c3:	001c                	0x1c
    12c5:	0000                	unimp
    12c7:	0001                	nop
    12c9:	1c5f 0000 2c00      	0x2c0000001c5f
    12cf:	0000                	unimp
    12d1:	0900                	addi	s0,sp,144
    12d3:	7b00                	flw	fs0,48(a4)
    12d5:	0c00                	addi	s0,sp,528
    12d7:	ffff                	0xffff
    12d9:	9f1a000f          	0x9f1a000f
    12dd:	002c                	addi	a1,sp,8
    12df:	0000                	unimp
    12e1:	0080                	addi	s0,sp,64
    12e3:	0000                	unimp
    12e5:	0001                	nop
    12e7:	885f 0000 9000      	0x90000000885f
    12ed:	0000                	unimp
    12ef:	0100                	addi	s0,sp,128
    12f1:	5f00                	lw	s0,56(a4)
    12f3:	0096                	slli	ra,ra,0x5
    12f5:	0000                	unimp
    12f7:	00e2                	slli	ra,ra,0x18
    12f9:	0000                	unimp
    12fb:	0001                	nop
    12fd:	145f 0001 6400      	0x64000001145f
    1303:	0001                	nop
    1305:	0100                	addi	s0,sp,128
    1307:	5f00                	lw	s0,56(a4)
    1309:	016c                	addi	a1,sp,140
    130b:	0000                	unimp
    130d:	0176                	slli	sp,sp,0x1d
    130f:	0000                	unimp
    1311:	0001                	nop
    1313:	7a5f 0001 c000      	0xc00000017a5f
    1319:	0001                	nop
    131b:	0100                	addi	s0,sp,128
    131d:	5f00                	lw	s0,56(a4)
    131f:	01ca                	slli	gp,gp,0x12
    1321:	0000                	unimp
    1323:	01f0                	addi	a2,sp,204
    1325:	0000                	unimp
    1327:	0001                	nop
    1329:	f45f 0001 1c00      	0x1c000001f45f
    132f:	0002                	c.slli64	zero
    1331:	0100                	addi	s0,sp,128
    1333:	5f00                	lw	s0,56(a4)
    1335:	0256                	slli	tp,tp,0x15
    1337:	0000                	unimp
    1339:	0264                	addi	s1,sp,268
    133b:	0000                	unimp
    133d:	0001                	nop
    133f:	6c5f 0002 7c00      	0x7c0000026c5f
    1345:	0002                	c.slli64	zero
    1347:	0100                	addi	s0,sp,128
    1349:	5f00                	lw	s0,56(a4)
    134b:	028e                	slli	t0,t0,0x3
    134d:	0000                	unimp
    134f:	02ae                	slli	t0,t0,0xb
    1351:	0000                	unimp
    1353:	0001                	nop
    1355:	b65f 0002 fe00      	0xfe000002b65f
    135b:	0002                	c.slli64	zero
    135d:	0100                	addi	s0,sp,128
    135f:	5f00                	lw	s0,56(a4)
    1361:	0314                	addi	a3,sp,384
    1363:	0000                	unimp
    1365:	037c                	addi	a5,sp,396
    1367:	0000                	unimp
    1369:	0001                	nop
    136b:	865f 0003 9000      	0x90000003865f
    1371:	01000003          	lb	zero,16(zero) # 10 <.LASF10+0x2>
    1375:	5f00                	lw	s0,56(a4)
    1377:	0398                	addi	a4,sp,448
    1379:	0000                	unimp
    137b:	03e2                	slli	t2,t2,0x18
    137d:	0000                	unimp
    137f:	0001                	nop
    1381:	ee5f 0003 1600      	0x16000003ee5f
    1387:	0004                	0x4
    1389:	0100                	addi	s0,sp,128
    138b:	5f00                	lw	s0,56(a4)
    138d:	041a                	slli	s0,s0,0x6
    138f:	0000                	unimp
    1391:	0442                	slli	s0,s0,0x10
    1393:	0000                	unimp
    1395:	0001                	nop
    1397:	485f 0004 7000      	0x70000004485f
    139d:	0004                	0x4
    139f:	0100                	addi	s0,sp,128
    13a1:	5f00                	lw	s0,56(a4)
    13a3:	0478                	addi	a4,sp,524
    13a5:	0000                	unimp
    13a7:	0482                	c.slli64	s1
    13a9:	0000                	unimp
    13ab:	0001                	nop
    13ad:	865f 0004 9000      	0x90000004865f
    13b3:	0004                	0x4
    13b5:	0100                	addi	s0,sp,128
    13b7:	5f00                	lw	s0,56(a4)
    13b9:	0496                	slli	s1,s1,0x5
    13bb:	0000                	unimp
    13bd:	04be                	slli	s1,s1,0xf
    13bf:	0000                	unimp
    13c1:	0001                	nop
    13c3:	225f 0005 2a00      	0x2a000005225f
    13c9:	0005                	c.nop	1
    13cb:	0100                	addi	s0,sp,128
    13cd:	5f00                	lw	s0,56(a4)
    13cf:	0578                	addi	a4,sp,652
    13d1:	0000                	unimp
    13d3:	057a                	slli	a0,a0,0x1e
    13d5:	0000                	unimp
    13d7:	0001                	nop
    13d9:	805f 0005 8200      	0x82000005805f
    13df:	0005                	c.nop	1
    13e1:	0100                	addi	s0,sp,128
    13e3:	5f00                	lw	s0,56(a4)
    13e5:	0586                	slli	a1,a1,0x1
    13e7:	0000                	unimp
    13e9:	058a                	slli	a1,a1,0x2
    13eb:	0000                	unimp
    13ed:	0001                	nop
    13ef:	f05f 0005 f600      	0xf6000005f05f
    13f5:	0005                	c.nop	1
    13f7:	0100                	addi	s0,sp,128
    13f9:	5f00                	lw	s0,56(a4)
    13fb:	05fc                	addi	a5,sp,716
    13fd:	0000                	unimp
    13ff:	05fe                	slli	a1,a1,0x1f
    1401:	0000                	unimp
    1403:	0001                	nop
    1405:	045f 0006 0600      	0x6000006045f
    140b:	0006                	c.slli	zero,0x1
    140d:	0100                	addi	s0,sp,128
    140f:	5f00                	lw	s0,56(a4)
    1411:	0608                	addi	a0,sp,768
    1413:	0000                	unimp
    1415:	0610                	addi	a2,sp,768
    1417:	0000                	unimp
    1419:	0001                	nop
    141b:	005f 0000 0000      	0x5f
    1421:	0000                	unimp
	...

00001424 <.LLST7>:
    1424:	0046                	c.slli	zero,0x11
    1426:	0000                	unimp
    1428:	005a                	c.slli	zero,0x16
    142a:	0000                	unimp
    142c:	0006                	c.slli	zero,0x1
    142e:	007d                	c.nop	31
    1430:	ff08                	fsw	fa0,56(a4)
    1432:	9f1a                	add	t5,t5,t1
    1434:	005a                	c.slli	zero,0x16
    1436:	0000                	unimp
    1438:	006e                	c.slli	zero,0x1b
    143a:	0000                	unimp
    143c:	0001                	nop
    143e:	965d                	srai	a2,a2,0x37
    1440:	0000                	unimp
    1442:	9a00                	0x9a00
    1444:	0000                	unimp
    1446:	0100                	addi	s0,sp,128
    1448:	5d00                	lw	s0,56(a0)
    144a:	0148                	addi	a0,sp,132
    144c:	0000                	unimp
    144e:	0156                	slli	sp,sp,0x15
    1450:	0000                	unimp
    1452:	0001                	nop
    1454:	7a5d                	lui	s4,0xffff7
    1456:	0001                	nop
    1458:	7e00                	flw	fs0,56(a2)
    145a:	0001                	nop
    145c:	0100                	addi	s0,sp,128
    145e:	5d00                	lw	s0,56(a0)
    1460:	01fe                	slli	gp,gp,0x1f
    1462:	0000                	unimp
    1464:	0202                	c.slli64	tp
    1466:	0000                	unimp
    1468:	0001                	nop
    146a:	8e5d                	or	a2,a2,a5
    146c:	0002                	c.slli64	zero
    146e:	9a00                	0x9a00
    1470:	0002                	c.slli64	zero
    1472:	0100                	addi	s0,sp,128
    1474:	5d00                	lw	s0,56(a0)
    1476:	0314                	addi	a3,sp,384
    1478:	0000                	unimp
    147a:	0318                	addi	a4,sp,384
    147c:	0000                	unimp
    147e:	0001                	nop
    1480:	5a5d                	li	s4,-9
    1482:	c8000003          	lb	zero,-896(zero) # fffffc80 <.LC0+0xffffbb30>
    1486:	0004                	0x4
    1488:	0100                	addi	s0,sp,128
    148a:	5d00                	lw	s0,56(a0)
    148c:	0522                	slli	a0,a0,0x8
    148e:	0000                	unimp
    1490:	052e                	slli	a0,a0,0xb
    1492:	0000                	unimp
    1494:	0001                	nop
    1496:	f45d                	bnez	s0,1444 <.LBE98+0x2>
    1498:	0005                	c.nop	1
    149a:	1200                	addi	s0,sp,288
    149c:	0006                	c.slli	zero,0x1
    149e:	0100                	addi	s0,sp,128
    14a0:	5d00                	lw	s0,56(a0)
	...

000014aa <.LLST8>:
    14aa:	0040                	addi	s0,sp,4
    14ac:	0000                	unimp
    14ae:	0236                	slli	tp,tp,0xd
    14b0:	0000                	unimp
    14b2:	0001                	nop
    14b4:	5656                	lw	a2,116(sp)
    14b6:	0002                	c.slli64	zero
    14b8:	cf00                	sw	s0,24(a4)
    14ba:	0004                	0x4
    14bc:	0100                	addi	s0,sp,128
    14be:	5600                	lw	s0,40(a2)
    14c0:	0522                	slli	a0,a0,0x8
    14c2:	0000                	unimp
    14c4:	0531                	addi	a0,a0,12
    14c6:	0000                	unimp
    14c8:	0001                	nop
    14ca:	7856                	flw	fa6,116(sp)
    14cc:	0005                	c.nop	1
    14ce:	8e00                	0x8e00
    14d0:	0005                	c.nop	1
    14d2:	0100                	addi	s0,sp,128
    14d4:	5600                	lw	s0,40(a2)
    14d6:	05f0                	addi	a2,sp,716
    14d8:	0000                	unimp
    14da:	0612                	slli	a2,a2,0x4
    14dc:	0000                	unimp
    14de:	0001                	nop
    14e0:	0056                	c.slli	zero,0x15
    14e2:	0000                	unimp
    14e4:	0000                	unimp
    14e6:	0000                	unimp
	...

000014e9 <.LLST9>:
    14e9:	0034                	addi	a3,sp,8
    14eb:	0000                	unimp
    14ed:	007a                	c.slli	zero,0x1e
    14ef:	0000                	unimp
    14f1:	0001                	nop
    14f3:	885c                	0x885c
    14f5:	0000                	unimp
    14f7:	9000                	0x9000
    14f9:	0000                	unimp
    14fb:	0100                	addi	s0,sp,128
    14fd:	5c00                	lw	s0,56(s0)
    14ff:	0096                	slli	ra,ra,0x5
    1501:	0000                	unimp
    1503:	00c8                	addi	a0,sp,68
    1505:	0000                	unimp
    1507:	0001                	nop
    1509:	d25c                	sw	a5,36(a2)
    150b:	0000                	unimp
    150d:	d800                	sw	s0,48(s0)
    150f:	0000                	unimp
    1511:	0100                	addi	s0,sp,128
    1513:	5c00                	lw	s0,56(s0)
    1515:	0114                	addi	a3,sp,128
    1517:	0000                	unimp
    1519:	0136                	slli	sp,sp,0xd
    151b:	0000                	unimp
    151d:	0001                	nop
    151f:	405c                	lw	a5,4(s0)
    1521:	0001                	nop
    1523:	4200                	lw	s0,0(a2)
    1525:	0001                	nop
    1527:	0100                	addi	s0,sp,128
    1529:	5c00                	lw	s0,56(s0)
    152b:	0148                	addi	a0,sp,132
    152d:	0000                	unimp
    152f:	0168                	addi	a0,sp,140
    1531:	0000                	unimp
    1533:	0001                	nop
    1535:	6c5c                	flw	fa5,28(s0)
    1537:	0001                	nop
    1539:	c400                	sw	s0,8(s0)
    153b:	0001                	nop
    153d:	0100                	addi	s0,sp,128
    153f:	5c00                	lw	s0,56(s0)
    1541:	01ca                	slli	gp,gp,0x12
    1543:	0000                	unimp
    1545:	021a                	slli	tp,tp,0x6
    1547:	0000                	unimp
    1549:	0001                	nop
    154b:	565c                	lw	a5,44(a2)
    154d:	0002                	c.slli64	zero
    154f:	5a00                	lw	s0,48(a2)
    1551:	0002                	c.slli64	zero
    1553:	0100                	addi	s0,sp,128
    1555:	5c00                	lw	s0,56(s0)
    1557:	026c                	addi	a1,sp,268
    1559:	0000                	unimp
    155b:	0276                	slli	tp,tp,0x1d
    155d:	0000                	unimp
    155f:	0001                	nop
    1561:	8e5c                	0x8e5c
    1563:	0002                	c.slli64	zero
    1565:	a800                	fsd	fs0,16(s0)
    1567:	0002                	c.slli64	zero
    1569:	0100                	addi	s0,sp,128
    156b:	5c00                	lw	s0,56(s0)
    156d:	02b6                	slli	t0,t0,0xd
    156f:	0000                	unimp
    1571:	02e0                	addi	s0,sp,332
    1573:	0000                	unimp
    1575:	0001                	nop
    1577:	ea5c                	fsw	fa5,20(a2)
    1579:	0002                	c.slli64	zero
    157b:	f200                	fsw	fs0,32(a2)
    157d:	0002                	c.slli64	zero
    157f:	0100                	addi	s0,sp,128
    1581:	5c00                	lw	s0,56(s0)
    1583:	0314                	addi	a3,sp,384
    1585:	0000                	unimp
    1587:	0348                	addi	a0,sp,388
    1589:	0000                	unimp
    158b:	0001                	nop
    158d:	525c                	lw	a5,36(a2)
    158f:	54000003          	lb	zero,1344(zero) # 540 <.LASF18+0x15>
    1593:	01000003          	lb	zero,16(zero) # 10 <.LASF10+0x2>
    1597:	5c00                	lw	s0,56(s0)
    1599:	035a                	slli	t1,t1,0x16
    159b:	0000                	unimp
    159d:	0380                	addi	s0,sp,448
    159f:	0000                	unimp
    15a1:	0001                	nop
    15a3:	865c                	0x865c
    15a5:	e6000003          	lb	zero,-416(zero) # fffffe60 <.LC0+0xffffbd10>
    15a9:	01000003          	lb	zero,16(zero) # 10 <.LASF10+0x2>
    15ad:	5c00                	lw	s0,56(s0)
    15af:	03ee                	slli	t2,t2,0x1b
    15b1:	0000                	unimp
    15b3:	0444                	addi	s1,sp,516
    15b5:	0000                	unimp
    15b7:	0001                	nop
    15b9:	485c                	lw	a5,20(s0)
    15bb:	0004                	0x4
    15bd:	7400                	flw	fs0,40(s0)
    15bf:	0004                	0x4
    15c1:	0100                	addi	s0,sp,128
    15c3:	5c00                	lw	s0,56(s0)
    15c5:	0478                	addi	a4,sp,524
    15c7:	0000                	unimp
    15c9:	04c2                	slli	s1,s1,0x10
    15cb:	0000                	unimp
    15cd:	0001                	nop
    15cf:	225c                	fld	fa5,128(a2)
    15d1:	0005                	c.nop	1
    15d3:	2e00                	fld	fs0,24(a2)
    15d5:	0005                	c.nop	1
    15d7:	0100                	addi	s0,sp,128
    15d9:	5c00                	lw	s0,56(s0)
    15db:	0578                	addi	a4,sp,652
    15dd:	0000                	unimp
    15df:	058a                	slli	a1,a1,0x2
    15e1:	0000                	unimp
    15e3:	0001                	nop
    15e5:	f05c                	fsw	fa5,36(s0)
    15e7:	0005                	c.nop	1
    15e9:	1200                	addi	s0,sp,288
    15eb:	0006                	c.slli	zero,0x1
    15ed:	0100                	addi	s0,sp,128
    15ef:	5c00                	lw	s0,56(s0)
	...

000015f9 <.LLST10>:
    15f9:	0034                	addi	a3,sp,8
    15fb:	0000                	unimp
    15fd:	0036                	c.slli	zero,0xd
    15ff:	0000                	unimp
    1601:	0001                	nop
    1603:	3660                	fld	fs0,232(a2)
    1605:	0000                	unimp
    1607:	4600                	lw	s0,8(a2)
    1609:	0000                	unimp
    160b:	0900                	addi	s0,sp,144
    160d:	7d00                	flw	fs0,56(a0)
    160f:	0c00                	addi	s0,sp,528
    1611:	ffff                	0xffff
    1613:	9f1a000f          	0x9f1a000f
    1617:	004a                	c.slli	zero,0x12
    1619:	0000                	unimp
    161b:	00de                	slli	ra,ra,0x17
    161d:	0000                	unimp
    161f:	0001                	nop
    1621:	145e                	slli	s0,s0,0x37
    1623:	0001                	nop
    1625:	3c00                	fld	fs0,56(s0)
    1627:	0001                	nop
    1629:	0100                	addi	s0,sp,128
    162b:	5e00                	lw	s0,56(a2)
    162d:	0140                	addi	s0,sp,132
    162f:	0000                	unimp
    1631:	0226                	slli	tp,tp,0x9
    1633:	0000                	unimp
    1635:	0001                	nop
    1637:	565e                	lw	a2,244(sp)
    1639:	0002                	c.slli64	zero
    163b:	fa00                	fsw	fs0,48(a2)
    163d:	0002                	c.slli64	zero
    163f:	0100                	addi	s0,sp,128
    1641:	5e00                	lw	s0,56(a2)
    1643:	0314                	addi	a3,sp,384
    1645:	0000                	unimp
    1647:	034e                	slli	t1,t1,0x13
    1649:	0000                	unimp
    164b:	0001                	nop
    164d:	525e                	lw	tp,244(sp)
    164f:	c8000003          	lb	zero,-896(zero) # fffffc80 <.LC0+0xffffbb30>
    1653:	0004                	0x4
    1655:	0100                	addi	s0,sp,128
    1657:	5e00                	lw	s0,56(a2)
    1659:	0522                	slli	a0,a0,0x8
    165b:	0000                	unimp
    165d:	052e                	slli	a0,a0,0xb
    165f:	0000                	unimp
    1661:	0001                	nop
    1663:	785e                	flw	fa6,244(sp)
    1665:	0005                	c.nop	1
    1667:	8a00                	0x8a00
    1669:	0005                	c.nop	1
    166b:	0100                	addi	s0,sp,128
    166d:	5e00                	lw	s0,56(a2)
    166f:	05f0                	addi	a2,sp,716
    1671:	0000                	unimp
    1673:	0612                	slli	a2,a2,0x4
    1675:	0000                	unimp
    1677:	0001                	nop
    1679:	005e                	c.slli	zero,0x17
    167b:	0000                	unimp
    167d:	0000                	unimp
    167f:	0000                	unimp
	...

00001682 <.LLST11>:
    1682:	0062                	c.slli	zero,0x18
    1684:	0000                	unimp
    1686:	0090                	addi	a2,sp,64
    1688:	0000                	unimp
    168a:	0001                	nop
    168c:	9659                	srai	a2,a2,0x36
    168e:	0000                	unimp
    1690:	5e00                	lw	s0,56(a2)
    1692:	0002                	c.slli64	zero
    1694:	0100                	addi	s0,sp,128
    1696:	5900                	lw	s0,48(a0)
    1698:	026c                	addi	a1,sp,268
    169a:	0000                	unimp
    169c:	028e                	slli	t0,t0,0x3
    169e:	0000                	unimp
    16a0:	0001                	nop
    16a2:	9259                	srli	a2,a2,0x36
    16a4:	0002                	c.slli64	zero
    16a6:	5a00                	lw	s0,48(a2)
    16a8:	01000003          	lb	zero,16(zero) # 10 <.LASF10+0x2>
    16ac:	5900                	lw	s0,48(a0)
    16ae:	0362                	slli	t1,t1,0x18
    16b0:	0000                	unimp
    16b2:	0424                	addi	s1,sp,520
    16b4:	0000                	unimp
    16b6:	0001                	nop
    16b8:	5c5d                	li	s8,-9
    16ba:	0004                	0x4
    16bc:	7600                	flw	fs0,40(a2)
    16be:	0004                	0x4
    16c0:	0100                	addi	s0,sp,128
    16c2:	5900                	lw	s0,48(a0)
    16c4:	0476                	slli	s0,s0,0x1d
    16c6:	0000                	unimp
    16c8:	0478                	addi	a4,sp,524
    16ca:	0000                	unimp
    16cc:	0001                	nop
    16ce:	785d                	lui	a6,0xffff7
    16d0:	0004                	0x4
    16d2:	8600                	0x8600
    16d4:	0004                	0x4
    16d6:	0100                	addi	s0,sp,128
    16d8:	5900                	lw	s0,48(a0)
    16da:	04ac                	addi	a1,sp,584
    16dc:	0000                	unimp
    16de:	04c6                	slli	s1,s1,0x11
    16e0:	0000                	unimp
    16e2:	0001                	nop
    16e4:	c659                	beqz	a2,1772 <.LLST12+0x43>
    16e6:	0004                	0x4
    16e8:	c800                	sw	s0,16(s0)
    16ea:	0004                	0x4
    16ec:	0100                	addi	s0,sp,128
    16ee:	5d00                	lw	s0,56(a0)
    16f0:	04c8                	addi	a0,sp,580
    16f2:	0000                	unimp
    16f4:	058e                	slli	a1,a1,0x3
    16f6:	0000                	unimp
    16f8:	0001                	nop
    16fa:	ca59                	beqz	a2,1790 <.Ldebug_info0+0x15>
    16fc:	0005                	c.nop	1
    16fe:	de00                	sw	s0,56(a2)
    1700:	0005                	c.nop	1
    1702:	0100                	addi	s0,sp,128
    1704:	5900                	lw	s0,48(a0)
    1706:	05f0                	addi	a2,sp,716
    1708:	0000                	unimp
    170a:	05f4                	addi	a3,sp,716
    170c:	0000                	unimp
    170e:	0001                	nop
    1710:	f459                	bnez	s0,169e <.LLST11+0x1c>
    1712:	0005                	c.nop	1
    1714:	fc00                	fsw	fs0,56(s0)
    1716:	0005                	c.nop	1
    1718:	0100                	addi	s0,sp,128
    171a:	5d00                	lw	s0,56(a0)
    171c:	0604                	addi	s1,sp,768
    171e:	0000                	unimp
    1720:	0608                	addi	a0,sp,768
    1722:	0000                	unimp
    1724:	0001                	nop
    1726:	0059                	c.nop	22
    1728:	0000                	unimp
    172a:	0000                	unimp
    172c:	0000                	unimp
	...

0000172f <.LLST12>:
    172f:	0066                	c.slli	zero,0x19
    1731:	0000                	unimp
    1733:	0084                	addi	s1,sp,64
    1735:	0000                	unimp
    1737:	0001                	nop
    1739:	8858                	0x8858
    173b:	0000                	unimp
    173d:	9000                	0x9000
    173f:	0000                	unimp
    1741:	0100                	addi	s0,sp,128
    1743:	5800                	lw	s0,48(s0)
    1745:	0096                	slli	ra,ra,0x5
    1747:	0000                	unimp
    1749:	0148                	addi	a0,sp,132
    174b:	0000                	unimp
    174d:	0001                	nop
    174f:	5058                	lw	a4,36(s0)
    1751:	0001                	nop
    1753:	7400                	flw	fs0,40(s0)
    1755:	0001                	nop
    1757:	0100                	addi	s0,sp,128
    1759:	5600                	lw	s0,40(a2)
    175b:	017a                	slli	sp,sp,0x1e
    175d:	0000                	unimp
    175f:	01fe                	slli	gp,gp,0x1f
    1761:	0000                	unimp
    1763:	0001                	nop
    1765:	0e56                	slli	t3,t3,0x15
    1767:	0002                	c.slli64	zero
    1769:	3400                	fld	fs0,40(s0)
    176b:	0002                	c.slli64	zero
    176d:	0200                	addi	s0,sp,256
    176f:	3000                	fld	fs0,32(s0)
    1771:	349f 0002 3600      	0x36000002349f
    1777:	0002                	c.slli64	zero
    1779:	0200                	addi	s0,sp,256
    177b:	3100                	fld	fs0,32(a0)
    177d:	369f 0002 5600      	0x56000002369f
    1783:	0002                	c.slli64	zero
    1785:	0100                	addi	s0,sp,128
    1787:	5800                	lw	s0,48(s0)
    1789:	0256                	slli	tp,tp,0x15
    178b:	0000                	unimp
    178d:	026c                	addi	a1,sp,268
    178f:	0000                	unimp
    1791:	0004                	0x4
    1793:	ff0a                	fsw	ft2,188(sp)
    1795:	026c9f07          	0x26c9f07
    1799:	0000                	unimp
    179b:	028e                	slli	t0,t0,0x3
    179d:	0000                	unimp
    179f:	0001                	nop
    17a1:	925d                	srli	a2,a2,0x37
    17a3:	0002                	c.slli64	zero
    17a5:	b200                	fsd	fs0,32(a2)
    17a7:	0002                	c.slli64	zero
    17a9:	0100                	addi	s0,sp,128
    17ab:	5800                	lw	s0,48(s0)
    17ad:	02b6                	slli	t0,t0,0xd
    17af:	0000                	unimp
    17b1:	035a                	slli	t1,t1,0x16
    17b3:	0000                	unimp
    17b5:	0001                	nop
    17b7:	6258                	flw	fa4,4(a2)
    17b9:	24000003          	lb	zero,576(zero) # 240 <.L34+0x4>
    17bd:	0004                	0x4
    17bf:	0100                	addi	s0,sp,128
    17c1:	5600                	lw	s0,40(a2)
    17c3:	0438                	addi	a4,sp,520
    17c5:	0000                	unimp
    17c7:	0444                	addi	s1,sp,516
    17c9:	0000                	unimp
    17cb:	0002                	c.slli64	zero
    17cd:	9f30                	0x9f30
    17cf:	0448                	addi	a0,sp,516
    17d1:	0000                	unimp
    17d3:	0486                	slli	s1,s1,0x1
    17d5:	0000                	unimp
    17d7:	0002                	c.slli64	zero
    17d9:	9f30                	0x9f30
    17db:	0486                	slli	s1,s1,0x1
    17dd:	0000                	unimp
    17df:	049c                	addi	a5,sp,576
    17e1:	0000                	unimp
    17e3:	0004                	0x4
    17e5:	ff0a                	fsw	ft2,188(sp)
    17e7:	049c9f07          	0x49c9f07
    17eb:	0000                	unimp
    17ed:	0520                	addi	s0,sp,648
    17ef:	0000                	unimp
    17f1:	0001                	nop
    17f3:	2258                	fld	fa4,128(a2)
    17f5:	0005                	c.nop	1
    17f7:	2c00                	fld	fs0,24(s0)
    17f9:	0005                	c.nop	1
    17fb:	0100                	addi	s0,sp,128
    17fd:	5800                	lw	s0,48(s0)
    17ff:	052e                	slli	a0,a0,0xb
    1801:	0000                	unimp
    1803:	0578                	addi	a4,sp,652
    1805:	0000                	unimp
    1807:	0001                	nop
    1809:	7858                	flw	fa4,52(s0)
    180b:	0005                	c.nop	1
    180d:	8000                	0x8000
    180f:	0005                	c.nop	1
    1811:	0100                	addi	s0,sp,128
    1813:	5600                	lw	s0,40(a2)
    1815:	0580                	addi	s0,sp,704
    1817:	0000                	unimp
    1819:	0586                	slli	a1,a1,0x1
    181b:	0000                	unimp
    181d:	0002                	c.slli64	zero
    181f:	9f30                	0x9f30
    1821:	0586                	slli	a1,a1,0x1
    1823:	0000                	unimp
    1825:	058a                	slli	a1,a1,0x2
    1827:	0000                	unimp
    1829:	0001                	nop
    182b:	985d                	andi	s0,s0,-9
    182d:	0005                	c.nop	1
    182f:	bc00                	fsd	fs0,56(s0)
    1831:	0005                	c.nop	1
    1833:	0100                	addi	s0,sp,128
    1835:	5800                	lw	s0,48(s0)
    1837:	05bc                	addi	a5,sp,712
    1839:	0000                	unimp
    183b:	05ca                	slli	a1,a1,0x12
    183d:	0000                	unimp
    183f:	0004                	0x4
    1841:	ff0a                	fsw	ft2,188(sp)
    1843:	05f09f07          	0x5f09f07
    1847:	0000                	unimp
    1849:	05f2                	slli	a1,a1,0x1c
    184b:	0000                	unimp
    184d:	0001                	nop
    184f:	f458                	fsw	fa4,44(s0)
    1851:	0005                	c.nop	1
    1853:	fc00                	fsw	fs0,56(s0)
    1855:	0005                	c.nop	1
    1857:	0100                	addi	s0,sp,128
    1859:	5600                	lw	s0,40(a2)
    185b:	05fc                	addi	a5,sp,716
    185d:	0000                	unimp
    185f:	0600                	addi	s0,sp,768
    1861:	0000                	unimp
    1863:	0002                	c.slli64	zero
    1865:	9f30                	0x9f30
    1867:	0604                	addi	s1,sp,768
    1869:	0000                	unimp
    186b:	0608                	addi	a0,sp,768
    186d:	0000                	unimp
    186f:	0002                	c.slli64	zero
    1871:	9f30                	0x9f30
    1873:	0608                	addi	a0,sp,768
    1875:	0000                	unimp
    1877:	0612                	slli	a2,a2,0x4
    1879:	0000                	unimp
    187b:	0004                	0x4
    187d:	ff0a                	fsw	ft2,188(sp)
    187f:	06129f07          	0x6129f07
    1883:	0000                	unimp
    1885:	0618                	addi	a4,sp,768
    1887:	0000                	unimp
    1889:	0001                	nop
    188b:	0058                	addi	a4,sp,4
    188d:	0000                	unimp
    188f:	0000                	unimp
    1891:	0000                	unimp
	...

00001894 <.LLST13>:
    1894:	0082                	c.slli64	ra
    1896:	0000                	unimp
    1898:	0084                	addi	s1,sp,64
    189a:	0000                	unimp
    189c:	0001                	nop
    189e:	845c                	0x845c
    18a0:	0000                	unimp
    18a2:	8800                	0x8800
    18a4:	0000                	unimp
    18a6:	0100                	addi	s0,sp,128
    18a8:	5b00                	lw	s0,48(a4)
    18aa:	00e2                	slli	ra,ra,0x18
    18ac:	0000                	unimp
    18ae:	00e4                	addi	s1,sp,76
    18b0:	0000                	unimp
    18b2:	0001                	nop
    18b4:	e45c                	fsw	fa5,12(s0)
    18b6:	0000                	unimp
    18b8:	f000                	fsw	fs0,32(s0)
    18ba:	0000                	unimp
    18bc:	0100                	addi	s0,sp,128
    18be:	5b00                	lw	s0,48(a4)
    18c0:	00f0                	addi	a2,sp,76
    18c2:	0000                	unimp
    18c4:	0100                	addi	s0,sp,128
    18c6:	0000                	unimp
    18c8:	0015                	c.nop	5
    18ca:	1a31007b          	0x1a31007b
    18ce:	2531007b          	0x2531007b
    18d2:	7f21                	lui	t5,0xfffe8
    18d4:	1100                	addi	s0,sp,160
    18d6:	ffff                	0xffff
    18d8:	7bff                	0x7bff
    18da:	4f1a                	lw	t5,132(sp)
    18dc:	2124                	fld	fs1,64(a0)
    18de:	c69f 0001 ca00      	0xca000001c69f
    18e4:	0001                	nop
    18e6:	0100                	addi	s0,sp,128
    18e8:	5b00                	lw	s0,48(a4)
    18ea:	0222                	slli	tp,tp,0x8
    18ec:	0000                	unimp
    18ee:	0236                	slli	tp,tp,0xd
    18f0:	0000                	unimp
    18f2:	0001                	nop
    18f4:	365c                	fld	fa5,168(a2)
    18f6:	0002                	c.slli64	zero
    18f8:	5200                	lw	s0,32(a2)
    18fa:	0002                	c.slli64	zero
    18fc:	0100                	addi	s0,sp,128
    18fe:	5b00                	lw	s0,48(a4)
    1900:	0252                	slli	tp,tp,0x14
    1902:	0000                	unimp
    1904:	0256                	slli	tp,tp,0x15
    1906:	0000                	unimp
    1908:	0001                	nop
    190a:	6c5e                	flw	fs8,212(sp)
    190c:	0002                	c.slli64	zero
    190e:	7600                	flw	fs0,40(a2)
    1910:	0002                	c.slli64	zero
    1912:	2400                	fld	fs0,8(s0)
    1914:	7b00                	flw	fs0,48(a4)
    1916:	4000                	lw	s0,0(s0)
    1918:	7b22244b          	fnmsub.d	fs0,ft4,fs2,fa5,rdn
    191c:	7c00                	flw	fs0,56(s0)
    191e:	2200                	fld	fs0,0(a2)
    1920:	4b40                	lw	s0,20(a4)
    1922:	2224                	fld	fs1,64(a2)
    1924:	1aff082b          	0x1aff082b
    1928:	007e                	c.slli	zero,0x1f
    192a:	7f22                	flw	ft10,40(sp)
    192c:	2200                	fld	fs0,0(a2)
    192e:	007b244f          	fnmadd.s	fs0,fs6,ft7,ft0,rdn
    1932:	007c                	addi	a5,sp,12
    1934:	3122                	fld	ft2,40(sp)
    1936:	2125                	jal	1d5e <.LLST15+0xa6>
    1938:	769f 0002 7c00      	0x7c000002769f
    193e:	0002                	c.slli64	zero
    1940:	1e00                	addi	s0,sp,816
    1942:	7b00                	flw	fs0,48(a4)
    1944:	4000                	lw	s0,0(s0)
    1946:	7c22244b          	0x7c22244b
    194a:	4000                	lw	s0,0(s0)
    194c:	2b22244b          	fnmsub.d	fs0,ft4,fs2,ft5,rdn
    1950:	ff08                	fsw	fa0,56(a4)
    1952:	7e1a                	flw	ft8,164(sp)
    1954:	2200                	fld	fs0,0(a2)
    1956:	007f                	0x7f
    1958:	4f22                	lw	t5,8(sp)
    195a:	7c24                	flw	fs1,120(s0)
    195c:	3100                	fld	fs0,32(a0)
    195e:	2125                	jal	1d86 <.LLST15+0xce>
    1960:	7c9f 0002 7e00      	0x7e0000027c9f
    1966:	0002                	c.slli64	zero
    1968:	1b00                	addi	s0,sp,432
    196a:	7b00                	flw	fs0,48(a4)
    196c:	4000                	lw	s0,0(s0)
    196e:	7c22244b          	0x7c22244b
    1972:	4000                	lw	s0,0(s0)
    1974:	2b22244b          	fnmsub.d	fs0,ft4,fs2,ft5,rdn
    1978:	ff08                	fsw	fa0,56(a4)
    197a:	7f1a                	flw	ft10,164(sp)
    197c:	2200                	fld	fs0,0(a2)
    197e:	007c244f          	fnmadd.s	fs0,fs8,ft7,ft0,rdn
    1982:	2531                	jal	1f8e <.LLST28+0x6>
    1984:	9f21                	0x9f21
    1986:	02b0                	addi	a2,sp,328
    1988:	0000                	unimp
    198a:	02b2                	slli	t0,t0,0xc
    198c:	0000                	unimp
    198e:	0001                	nop
    1990:	b25c                	fsd	fa5,160(a2)
    1992:	0002                	c.slli64	zero
    1994:	b600                	fsd	fs0,40(a2)
    1996:	0002                	c.slli64	zero
    1998:	0100                	addi	s0,sp,128
    199a:	5b00                	lw	s0,48(a4)
    199c:	02fe                	slli	t0,t0,0x1f
    199e:	0000                	unimp
    19a0:	0300                	addi	s0,sp,384
    19a2:	0000                	unimp
    19a4:	0001                	nop
    19a6:	005c                	addi	a5,sp,4
    19a8:	14000003          	lb	zero,320(zero) # 140 <.L19>
    19ac:	01000003          	lb	zero,16(zero) # 10 <.LASF10+0x2>
    19b0:	5b00                	lw	s0,48(a4)
    19b2:	0382                	c.slli64	t2
    19b4:	0000                	unimp
    19b6:	0386                	slli	t2,t2,0x1
    19b8:	0000                	unimp
    19ba:	0001                	nop
    19bc:	0003e85b          	0x3e85b
    19c0:	ee00                	fsw	fs0,24(a2)
    19c2:	01000003          	lb	zero,16(zero) # 10 <.LASF10+0x2>
    19c6:	5b00                	lw	s0,48(a4)
    19c8:	043c                	addi	a5,sp,520
    19ca:	0000                	unimp
    19cc:	0444                	addi	s1,sp,516
    19ce:	0000                	unimp
    19d0:	0001                	nop
    19d2:	5c5c                	lw	a5,60(s0)
    19d4:	0004                	0x4
    19d6:	7600                	flw	fs0,40(a2)
    19d8:	0004                	0x4
    19da:	0100                	addi	s0,sp,128
    19dc:	6000                	flw	fs0,0(s0)
    19de:	0476                	slli	s0,s0,0x1d
    19e0:	0000                	unimp
    19e2:	0478                	addi	a4,sp,524
    19e4:	0000                	unimp
    19e6:	0001                	nop
    19e8:	0004785b          	0x4785b
    19ec:	8600                	0x8600
    19ee:	0004                	0x4
    19f0:	0100                	addi	s0,sp,128
    19f2:	6000                	flw	fs0,0(s0)
    19f4:	04ac                	addi	a1,sp,584
    19f6:	0000                	unimp
    19f8:	04ba                	slli	s1,s1,0xe
    19fa:	0000                	unimp
    19fc:	0001                	nop
    19fe:	0004ba63          	0x4ba63
    1a02:	c200                	sw	s0,0(a2)
    1a04:	0004                	0x4
    1a06:	0600                	addi	s0,sp,768
    1a08:	7b00                	flw	fs0,48(a4)
    1a0a:	7c00                	flw	fs0,56(s0)
    1a0c:	1c00                	addi	s0,sp,560
    1a0e:	c69f 0004 f000      	0xf0000004c69f
    1a14:	0004                	0x4
    1a16:	0100                	addi	s0,sp,128
    1a18:	6300                	flw	fs0,0(a4)
    1a1a:	04f0                	addi	a2,sp,588
    1a1c:	0000                	unimp
    1a1e:	0512                	slli	a0,a0,0x4
    1a20:	0000                	unimp
    1a22:	0001                	nop
    1a24:	00051a5b          	0x51a5b
    1a28:	2200                	fld	fs0,0(a2)
    1a2a:	0005                	c.nop	1
    1a2c:	0100                	addi	s0,sp,128
    1a2e:	5b00                	lw	s0,48(a4)
    1a30:	0522                	slli	a0,a0,0x8
    1a32:	0000                	unimp
    1a34:	0540                	addi	s0,sp,644
    1a36:	0000                	unimp
    1a38:	0001                	nop
    1a3a:	00054063          	bltz	a0,1a3a <.LLST13+0x1a6>
    1a3e:	4400                	lw	s0,8(s0)
    1a40:	0005                	c.nop	1
    1a42:	0200                	addi	s0,sp,256
    1a44:	3000                	fld	fs0,32(s0)
    1a46:	449f 0005 7800      	0x78000005449f
    1a4c:	0005                	c.nop	1
    1a4e:	0100                	addi	s0,sp,128
    1a50:	5b00                	lw	s0,48(a4)
    1a52:	0586                	slli	a1,a1,0x1
    1a54:	0000                	unimp
    1a56:	058a                	slli	a1,a1,0x2
    1a58:	0000                	unimp
    1a5a:	0024                	addi	s1,sp,8
    1a5c:	4b40007b          	0x4b40007b
    1a60:	2224                	fld	fs1,64(a2)
    1a62:	007c007b          	0x7c007b
    1a66:	4022                	0x4022
    1a68:	2b22244b          	fnmsub.d	fs0,ft4,fs2,ft5,rdn
    1a6c:	ff08                	fsw	fa0,56(a4)
    1a6e:	7e1a                	flw	ft8,164(sp)
    1a70:	2200                	fld	fs0,0(a2)
    1a72:	007f                	0x7f
    1a74:	4f22                	lw	t5,8(sp)
    1a76:	7b24                	flw	fs1,112(a4)
    1a78:	7c00                	flw	fs0,56(s0)
    1a7a:	2200                	fld	fs0,0(a2)
    1a7c:	2531                	jal	2088 <.LLST0+0xc>
    1a7e:	9f21                	0x9f21
    1a80:	058e                	slli	a1,a1,0x3
    1a82:	0000                	unimp
    1a84:	05b2                	slli	a1,a1,0xc
    1a86:	0000                	unimp
    1a88:	0001                	nop
    1a8a:	0005b25b          	0x5b25b
    1a8e:	be00                	fsd	fs0,56(a2)
    1a90:	0005                	c.nop	1
    1a92:	0100                	addi	s0,sp,128
    1a94:	5a00                	lw	s0,48(a2)
    1a96:	05ca                	slli	a1,a1,0x12
    1a98:	0000                	unimp
    1a9a:	05f0                	addi	a2,sp,716
    1a9c:	0000                	unimp
    1a9e:	0001                	nop
    1aa0:	fc5a                	fsw	fs6,56(sp)
    1aa2:	0005                	c.nop	1
    1aa4:	0000                	unimp
    1aa6:	0006                	c.slli	zero,0x1
    1aa8:	0100                	addi	s0,sp,128
    1aaa:	5c00                	lw	s0,56(s0)
    1aac:	0604                	addi	s1,sp,768
    1aae:	0000                	unimp
    1ab0:	0608                	addi	a0,sp,768
    1ab2:	0000                	unimp
    1ab4:	0001                	nop
    1ab6:	1260                	addi	s0,sp,300
    1ab8:	0006                	c.slli	zero,0x1
    1aba:	1600                	addi	s0,sp,800
    1abc:	0006                	c.slli	zero,0x1
    1abe:	0100                	addi	s0,sp,128
    1ac0:	5b00                	lw	s0,48(a4)
	...

00001aca <.LLST14>:
    1aca:	0082                	c.slli64	ra
    1acc:	0000                	unimp
    1ace:	0088                	addi	a0,sp,64
    1ad0:	0000                	unimp
    1ad2:	0001                	nop
    1ad4:	e25f 0000 ee00      	0xee000000e25f
    1ada:	0000                	unimp
    1adc:	0100                	addi	s0,sp,128
    1ade:	5f00                	lw	s0,56(a4)
    1ae0:	00ee                	slli	ra,ra,0x1b
    1ae2:	0000                	unimp
    1ae4:	00f0                	addi	a2,sp,76
    1ae6:	0000                	unimp
    1ae8:	0009                	c.nop	2
    1aea:	007f                	0x7f
    1aec:	ff11                	bnez	a4,1a08 <.LLST13+0x174>
    1aee:	ffff                	0xffff
    1af0:	f09f1a7b          	0xf09f1a7b
    1af4:	0000                	unimp
    1af6:	0000                	unimp
    1af8:	0001                	nop
    1afa:	0b00                	addi	s0,sp,400
    1afc:	7f00                	flw	fs0,56(a4)
    1afe:	1100                	addi	s0,sp,160
    1b00:	ffff                	0xffff
    1b02:	7bff                	0x7bff
    1b04:	311a                	fld	ft2,416(sp)
    1b06:	9f25                	0x9f25
    1b08:	01c6                	slli	gp,gp,0x11
    1b0a:	0000                	unimp
    1b0c:	01ca                	slli	gp,gp,0x12
    1b0e:	0000                	unimp
    1b10:	0001                	nop
    1b12:	225f 0002 5600      	0x56000002225f
    1b18:	0002                	c.slli64	zero
    1b1a:	0100                	addi	s0,sp,128
    1b1c:	5f00                	lw	s0,56(a4)
    1b1e:	026c                	addi	a1,sp,268
    1b20:	0000                	unimp
    1b22:	0276                	slli	tp,tp,0x1d
    1b24:	0000                	unimp
    1b26:	001c                	0x1c
    1b28:	4b40007b          	0x4b40007b
    1b2c:	2224                	fld	fs1,64(a2)
    1b2e:	007c007b          	0x7c007b
    1b32:	4022                	0x4022
    1b34:	2b22244b          	fnmsub.d	fs0,ft4,fs2,ft5,rdn
    1b38:	ff08                	fsw	fa0,56(a4)
    1b3a:	7e1a                	flw	ft8,164(sp)
    1b3c:	2200                	fld	fs0,0(a2)
    1b3e:	007f                	0x7f
    1b40:	3122                	fld	ft2,40(sp)
    1b42:	9f25                	0x9f25
    1b44:	0276                	slli	tp,tp,0x1d
    1b46:	0000                	unimp
    1b48:	027c                	addi	a5,sp,268
    1b4a:	0000                	unimp
    1b4c:	0019                	c.nop	6
    1b4e:	4b40007b          	0x4b40007b
    1b52:	2224                	fld	fs1,64(a2)
    1b54:	007c                	addi	a5,sp,12
    1b56:	4b40                	lw	s0,20(a4)
    1b58:	2224                	fld	fs1,64(a2)
    1b5a:	1aff082b          	0x1aff082b
    1b5e:	007e                	c.slli	zero,0x1f
    1b60:	7f22                	flw	ft10,40(sp)
    1b62:	2200                	fld	fs0,0(a2)
    1b64:	2531                	jal	2170 <.LLST4>
    1b66:	7c9f 0002 7e00      	0x7e0000027c9f
    1b6c:	0002                	c.slli64	zero
    1b6e:	1600                	addi	s0,sp,800
    1b70:	7b00                	flw	fs0,48(a4)
    1b72:	4000                	lw	s0,0(s0)
    1b74:	7c22244b          	0x7c22244b
    1b78:	4000                	lw	s0,0(s0)
    1b7a:	2b22244b          	fnmsub.d	fs0,ft4,fs2,ft5,rdn
    1b7e:	ff08                	fsw	fa0,56(a4)
    1b80:	7f1a                	flw	ft10,164(sp)
    1b82:	2200                	fld	fs0,0(a2)
    1b84:	2531                	jal	2190 <.LLST4+0x20>
    1b86:	b09f 0002 b600      	0xb6000002b09f
    1b8c:	0002                	c.slli64	zero
    1b8e:	0100                	addi	s0,sp,128
    1b90:	5f00                	lw	s0,56(a4)
    1b92:	02fe                	slli	t0,t0,0x1f
    1b94:	0000                	unimp
    1b96:	0310                	addi	a2,sp,384
    1b98:	0000                	unimp
    1b9a:	0001                	nop
    1b9c:	105f 0003 1400      	0x14000003105f
    1ba2:	01000003          	lb	zero,16(zero) # 10 <.LASF10+0x2>
    1ba6:	6200                	flw	fs0,0(a2)
    1ba8:	0382                	c.slli64	t2
    1baa:	0000                	unimp
    1bac:	0386                	slli	t2,t2,0x1
    1bae:	0000                	unimp
    1bb0:	0001                	nop
    1bb2:	e85f 0003 ee00      	0xee000003e85f
    1bb8:	01000003          	lb	zero,16(zero) # 10 <.LASF10+0x2>
    1bbc:	5f00                	lw	s0,56(a4)
    1bbe:	043c                	addi	a5,sp,520
    1bc0:	0000                	unimp
    1bc2:	0444                	addi	s1,sp,516
    1bc4:	0000                	unimp
    1bc6:	0001                	nop
    1bc8:	5c5e                	lw	s8,244(sp)
    1bca:	0004                	0x4
    1bcc:	7600                	flw	fs0,40(a2)
    1bce:	0004                	0x4
    1bd0:	0100                	addi	s0,sp,128
    1bd2:	5a00                	lw	s0,48(a2)
    1bd4:	0476                	slli	s0,s0,0x1d
    1bd6:	0000                	unimp
    1bd8:	0478                	addi	a4,sp,524
    1bda:	0000                	unimp
    1bdc:	0001                	nop
    1bde:	785f 0004 8600      	0x86000004785f
    1be4:	0004                	0x4
    1be6:	0100                	addi	s0,sp,128
    1be8:	5a00                	lw	s0,48(a2)
    1bea:	04ac                	addi	a1,sp,584
    1bec:	0000                	unimp
    1bee:	04e4                	addi	s1,sp,588
    1bf0:	0000                	unimp
    1bf2:	0001                	nop
    1bf4:	ec62                	fsw	fs8,24(sp)
    1bf6:	0004                	0x4
    1bf8:	1e00                	addi	s0,sp,816
    1bfa:	0005                	c.nop	1
    1bfc:	0100                	addi	s0,sp,128
    1bfe:	5f00                	lw	s0,56(a4)
    1c00:	0522                	slli	a0,a0,0x8
    1c02:	0000                	unimp
    1c04:	0540                	addi	s0,sp,644
    1c06:	0000                	unimp
    1c08:	0001                	nop
    1c0a:	4062                	0x4062
    1c0c:	0005                	c.nop	1
    1c0e:	6800                	flw	fs0,16(s0)
    1c10:	0005                	c.nop	1
    1c12:	0100                	addi	s0,sp,128
    1c14:	5f00                	lw	s0,56(a4)
    1c16:	0568                	addi	a0,sp,652
    1c18:	0000                	unimp
    1c1a:	056c                	addi	a1,sp,652
    1c1c:	0000                	unimp
    1c1e:	0002                	c.slli64	zero
    1c20:	9f30                	0x9f30
    1c22:	056c                	addi	a1,sp,652
    1c24:	0000                	unimp
    1c26:	0578                	addi	a4,sp,652
    1c28:	0000                	unimp
    1c2a:	0001                	nop
    1c2c:	865f 0005 8a00      	0x8a000005865f
    1c32:	0005                	c.nop	1
    1c34:	1c00                	addi	s0,sp,560
    1c36:	7b00                	flw	fs0,48(a4)
    1c38:	4000                	lw	s0,0(s0)
    1c3a:	7b22244b          	fnmsub.d	fs0,ft4,fs2,fa5,rdn
    1c3e:	7c00                	flw	fs0,56(s0)
    1c40:	2200                	fld	fs0,0(a2)
    1c42:	4b40                	lw	s0,20(a4)
    1c44:	2224                	fld	fs1,64(a2)
    1c46:	1aff082b          	0x1aff082b
    1c4a:	007e                	c.slli	zero,0x1f
    1c4c:	7f22                	flw	ft10,40(sp)
    1c4e:	2200                	fld	fs0,0(a2)
    1c50:	2531                	jal	225c <.LLST2+0xa>
    1c52:	8e9f 0005 9600      	0x960000058e9f
    1c58:	0005                	c.nop	1
    1c5a:	0100                	addi	s0,sp,128
    1c5c:	5f00                	lw	s0,56(a4)
    1c5e:	0596                	slli	a1,a1,0x5
    1c60:	0000                	unimp
    1c62:	05a8                	addi	a0,sp,712
    1c64:	0000                	unimp
    1c66:	0009                	c.nop	2
    1c68:	007f                	0x7f
    1c6a:	ff11                	bnez	a4,1b86 <.LLST14+0xbc>
    1c6c:	ffff                	0xffff
    1c6e:	a89f1a7b          	0xa89f1a7b
    1c72:	0005                	c.nop	1
    1c74:	c000                	sw	s0,0(s0)
    1c76:	0005                	c.nop	1
    1c78:	0100                	addi	s0,sp,128
    1c7a:	5f00                	lw	s0,56(a4)
    1c7c:	05ca                	slli	a1,a1,0x12
    1c7e:	0000                	unimp
    1c80:	05d4                	addi	a3,sp,708
    1c82:	0000                	unimp
    1c84:	0001                	nop
    1c86:	fc5f 0005 0000      	0x5fc5f
    1c8c:	0006                	c.slli	zero,0x1
    1c8e:	0100                	addi	s0,sp,128
    1c90:	5e00                	lw	s0,56(a2)
    1c92:	0604                	addi	s1,sp,768
    1c94:	0000                	unimp
    1c96:	0608                	addi	a0,sp,768
    1c98:	0000                	unimp
    1c9a:	0001                	nop
    1c9c:	125a                	slli	tp,tp,0x36
    1c9e:	0006                	c.slli	zero,0x1
    1ca0:	1400                	addi	s0,sp,544
    1ca2:	0006                	c.slli	zero,0x1
    1ca4:	0900                	addi	s0,sp,144
    1ca6:	7f00                	flw	fs0,56(a4)
    1ca8:	1100                	addi	s0,sp,160
    1caa:	ffff                	0xffff
    1cac:	7bff                	0x7bff
    1cae:	9f1a                	add	t5,t5,t1
	...

00001cb8 <.LLST15>:
    1cb8:	0062                	c.slli	zero,0x18
    1cba:	0000                	unimp
    1cbc:	0076                	c.slli	zero,0x1d
    1cbe:	0000                	unimp
    1cc0:	0001                	nop
    1cc2:	7660                	flw	fs0,108(a2)
    1cc4:	0000                	unimp
    1cc6:	7e00                	flw	fs0,56(a2)
    1cc8:	0000                	unimp
    1cca:	0100                	addi	s0,sp,128
    1ccc:	5a00                	lw	s0,48(a2)
    1cce:	007e                	c.slli	zero,0x1f
    1cd0:	0000                	unimp
    1cd2:	0084                	addi	s1,sp,64
    1cd4:	0000                	unimp
    1cd6:	7f800003          	lb	zero,2040(zero) # 7f8 <.LLST15+0x5>
    1cda:	889f 0000 9000      	0x90000000889f
    1ce0:	0000                	unimp
    1ce2:	0100                	addi	s0,sp,128
    1ce4:	5a00                	lw	s0,48(a2)
    1ce6:	0096                	slli	ra,ra,0x5
    1ce8:	0000                	unimp
    1cea:	00a6                	slli	ra,ra,0x9
    1cec:	0000                	unimp
    1cee:	0001                	nop
    1cf0:	a660                	fsd	fs0,200(a2)
    1cf2:	0000                	unimp
    1cf4:	d600                	sw	s0,40(a2)
    1cf6:	0000                	unimp
    1cf8:	0100                	addi	s0,sp,128
    1cfa:	5a00                	lw	s0,48(a2)
    1cfc:	0114                	addi	a3,sp,128
    1cfe:	0000                	unimp
    1d00:	012e                	slli	sp,sp,0xb
    1d02:	0000                	unimp
    1d04:	0001                	nop
    1d06:	405a                	0x405a
    1d08:	0001                	nop
    1d0a:	4800                	lw	s0,16(s0)
    1d0c:	0001                	nop
    1d0e:	0100                	addi	s0,sp,128
    1d10:	5a00                	lw	s0,48(a2)
    1d12:	0148                	addi	a0,sp,132
    1d14:	0000                	unimp
    1d16:	0150                	addi	a2,sp,132
    1d18:	0000                	unimp
    1d1a:	0006                	c.slli	zero,0x1
    1d1c:	0078                	addi	a4,sp,12
    1d1e:	0076                	c.slli	zero,0x1d
    1d20:	9f1c                	0x9f1c
    1d22:	0150                	addi	a2,sp,132
    1d24:	0000                	unimp
    1d26:	015e                	slli	sp,sp,0x17
    1d28:	0000                	unimp
    1d2a:	0001                	nop
    1d2c:	5e5a                	lw	t3,180(sp)
    1d2e:	0001                	nop
    1d30:	7400                	flw	fs0,40(s0)
    1d32:	0001                	nop
    1d34:	0100                	addi	s0,sp,128
    1d36:	5d00                	lw	s0,56(a0)
    1d38:	017a                	slli	sp,sp,0x1e
    1d3a:	0000                	unimp
    1d3c:	018a                	slli	gp,gp,0x2
    1d3e:	0000                	unimp
    1d40:	0001                	nop
    1d42:	8a5a                	mv	s4,s6
    1d44:	0001                	nop
    1d46:	fe00                	fsw	fs0,56(a2)
    1d48:	0001                	nop
    1d4a:	0100                	addi	s0,sp,128
    1d4c:	5d00                	lw	s0,56(a0)
    1d4e:	01fe                	slli	gp,gp,0x1f
    1d50:	0000                	unimp
    1d52:	0236                	slli	tp,tp,0xd
    1d54:	0000                	unimp
    1d56:	0006                	c.slli	zero,0x1
    1d58:	0078                	addi	a4,sp,12
    1d5a:	0076                	c.slli	zero,0x1d
    1d5c:	9f1c                	0x9f1c
    1d5e:	0256                	slli	tp,tp,0x15
    1d60:	0000                	unimp
    1d62:	025e                	slli	tp,tp,0x17
    1d64:	0000                	unimp
    1d66:	0006                	c.slli	zero,0x1
    1d68:	0078                	addi	a4,sp,12
    1d6a:	0076                	c.slli	zero,0x1d
    1d6c:	9f1c                	0x9f1c
    1d6e:	026c                	addi	a1,sp,268
    1d70:	0000                	unimp
    1d72:	028c                	addi	a1,sp,320
    1d74:	0000                	unimp
    1d76:	0006                	c.slli	zero,0x1
    1d78:	0078                	addi	a4,sp,12
    1d7a:	0076                	c.slli	zero,0x1d
    1d7c:	9f1c                	0x9f1c
    1d7e:	028c                	addi	a1,sp,320
    1d80:	0000                	unimp
    1d82:	028e                	slli	t0,t0,0x3
    1d84:	0000                	unimp
    1d86:	00760007          	0x760007
    1d8a:	7d20                	flw	fs0,120(a0)
    1d8c:	2200                	fld	fs0,0(a2)
    1d8e:	789f 0005 8000      	0x80000005789f
    1d94:	0005                	c.nop	1
    1d96:	0100                	addi	s0,sp,128
    1d98:	5a00                	lw	s0,48(a2)
    1d9a:	0580                	addi	s0,sp,704
    1d9c:	0000                	unimp
    1d9e:	058a                	slli	a1,a1,0x2
    1da0:	0000                	unimp
    1da2:	0006                	c.slli	zero,0x1
    1da4:	0078                	addi	a4,sp,12
    1da6:	0076                	c.slli	zero,0x1d
    1da8:	9f1c                	0x9f1c
	...

00001db2 <.LLST16>:
    1db2:	007a                	c.slli	zero,0x1e
    1db4:	0000                	unimp
    1db6:	0084                	addi	s1,sp,64
    1db8:	0000                	unimp
    1dba:	0001                	nop
    1dbc:	005c                	addi	a5,sp,4
    1dbe:	0000                	unimp
    1dc0:	0000                	unimp
    1dc2:	0000                	unimp
	...

00001dc5 <.LLST18>:
    1dc5:	00d8                	addi	a4,sp,68
    1dc7:	0000                	unimp
    1dc9:	00e4                	addi	s1,sp,76
    1dcb:	0000                	unimp
    1dcd:	0001                	nop
    1dcf:	005c                	addi	a5,sp,4
    1dd1:	0000                	unimp
    1dd3:	0000                	unimp
    1dd5:	0000                	unimp
	...

00001dd8 <.LLST17>:
    1dd8:	0162                	slli	sp,sp,0x18
    1dda:	0000                	unimp
    1ddc:	016c                	addi	a1,sp,140
    1dde:	0000                	unimp
    1de0:	0001                	nop
    1de2:	0000005b          	0x5b
    1de6:	0000                	unimp
    1de8:	0000                	unimp
	...

00001deb <.LLST19>:
    1deb:	01be                	slli	gp,gp,0xf
    1ded:	0000                	unimp
    1def:	01ca                	slli	gp,gp,0x12
    1df1:	0000                	unimp
    1df3:	0001                	nop
    1df5:	0000005b          	0x5b
    1df9:	0000                	unimp
    1dfb:	0000                	unimp
	...

00001dfe <.LLST20>:
    1dfe:	021a                	slli	tp,tp,0x6
    1e00:	0000                	unimp
    1e02:	0236                	slli	tp,tp,0xd
    1e04:	0000                	unimp
    1e06:	0001                	nop
    1e08:	005c                	addi	a5,sp,4
    1e0a:	0000                	unimp
    1e0c:	0000                	unimp
    1e0e:	0000                	unimp
	...

00001e11 <.LLST21>:
    1e11:	026c                	addi	a1,sp,268
    1e13:	0000                	unimp
    1e15:	0276                	slli	tp,tp,0x1d
    1e17:	0000                	unimp
    1e19:	0006                	c.slli	zero,0x1
    1e1b:	007c007b          	0x7c007b
    1e1f:	9f22                	add	t5,t5,s0
    1e21:	0276                	slli	tp,tp,0x1d
    1e23:	0000                	unimp
    1e25:	0284                	addi	s1,sp,320
    1e27:	0000                	unimp
    1e29:	0001                	nop
    1e2b:	865c                	0x865c
    1e2d:	0005                	c.nop	1
    1e2f:	8a00                	0x8a00
    1e31:	0005                	c.nop	1
    1e33:	0600                	addi	s0,sp,768
    1e35:	7b00                	flw	fs0,48(a4)
    1e37:	7c00                	flw	fs0,56(s0)
    1e39:	2200                	fld	fs0,0(a2)
    1e3b:	009f 0000 0000      	0x9f
    1e41:	0000                	unimp
	...

00001e44 <.LLST22>:
    1e44:	028e                	slli	t0,t0,0x3
    1e46:	0000                	unimp
    1e48:	02a2                	slli	t0,t0,0x8
    1e4a:	0000                	unimp
    1e4c:	0006                	c.slli	zero,0x1
    1e4e:	0078                	addi	a4,sp,12
    1e50:	0076                	c.slli	zero,0x1d
    1e52:	9f1c                	0x9f1c
    1e54:	02a2                	slli	t0,t0,0x8
    1e56:	0000                	unimp
    1e58:	02ac                	addi	a1,sp,328
    1e5a:	0000                	unimp
    1e5c:	0001                	nop
    1e5e:	ac5a                	fsd	fs6,24(sp)
    1e60:	0002                	c.slli64	zero
    1e62:	b200                	fsd	fs0,32(a2)
    1e64:	0002                	c.slli64	zero
    1e66:	0300                	addi	s0,sp,384
    1e68:	8000                	0x8000
    1e6a:	9f7f                	0x9f7f
    1e6c:	02b6                	slli	t0,t0,0xd
    1e6e:	0000                	unimp
    1e70:	02ee                	slli	t0,t0,0x1b
    1e72:	0000                	unimp
    1e74:	0001                	nop
    1e76:	145a                	slli	s0,s0,0x36
    1e78:	26000003          	lb	zero,608(zero) # 260 <.LASF22+0x9>
    1e7c:	06000003          	lb	zero,96(zero) # 60 <.LASF7+0xb>
    1e80:	7800                	flw	fs0,48(s0)
    1e82:	7600                	flw	fs0,40(a2)
    1e84:	1c00                	addi	s0,sp,560
    1e86:	269f 0003 4000      	0x40000003269f
    1e8c:	01000003          	lb	zero,16(zero) # 10 <.LASF10+0x2>
    1e90:	5a00                	lw	s0,48(a2)
    1e92:	0352                	slli	t1,t1,0x14
    1e94:	0000                	unimp
    1e96:	035a                	slli	t1,t1,0x16
    1e98:	0000                	unimp
    1e9a:	0001                	nop
    1e9c:	5a5a                	lw	s4,180(sp)
    1e9e:	62000003          	lb	zero,1568(zero) # 620 <.L77+0x4>
    1ea2:	06000003          	lb	zero,96(zero) # 60 <.LASF7+0xb>
    1ea6:	7800                	flw	fs0,48(s0)
    1ea8:	7600                	flw	fs0,40(a2)
    1eaa:	1c00                	addi	s0,sp,560
    1eac:	629f 0003 7000      	0x70000003629f
    1eb2:	01000003          	lb	zero,16(zero) # 10 <.LASF10+0x2>
    1eb6:	5a00                	lw	s0,48(a2)
    1eb8:	0370                	addi	a2,sp,396
    1eba:	0000                	unimp
    1ebc:	038e                	slli	t2,t2,0x3
    1ebe:	0000                	unimp
    1ec0:	0001                	nop
    1ec2:	9860                	0x9860
    1ec4:	aa000003          	lb	zero,-1376(zero) # fffffaa0 <.LC0+0xffffb950>
    1ec8:	01000003          	lb	zero,16(zero) # 10 <.LASF10+0x2>
    1ecc:	5a00                	lw	s0,48(a2)
    1ece:	03aa                	slli	t2,t2,0xa
    1ed0:	0000                	unimp
    1ed2:	0424                	addi	s1,sp,520
    1ed4:	0000                	unimp
    1ed6:	0001                	nop
    1ed8:	2460                	fld	fs0,200(s0)
    1eda:	0004                	0x4
    1edc:	4400                	lw	s0,8(s0)
    1ede:	0004                	0x4
    1ee0:	0600                	addi	s0,sp,768
    1ee2:	7800                	flw	fs0,48(s0)
    1ee4:	7600                	flw	fs0,40(a2)
    1ee6:	1c00                	addi	s0,sp,560
    1ee8:	489f 0004 c800      	0xc8000004489f
    1eee:	0004                	0x4
    1ef0:	0600                	addi	s0,sp,768
    1ef2:	7800                	flw	fs0,48(s0)
    1ef4:	7600                	flw	fs0,40(a2)
    1ef6:	1c00                	addi	s0,sp,560
    1ef8:	229f 0005 2c00      	0x2c000005229f
    1efe:	0005                	c.nop	1
    1f00:	0600                	addi	s0,sp,768
    1f02:	7800                	flw	fs0,48(s0)
    1f04:	7600                	flw	fs0,40(a2)
    1f06:	1c00                	addi	s0,sp,560
    1f08:	f49f 0005 fc00      	0xfc000005f49f
    1f0e:	0005                	c.nop	1
    1f10:	0100                	addi	s0,sp,128
    1f12:	5a00                	lw	s0,48(a2)
    1f14:	05fc                	addi	a5,sp,716
    1f16:	0000                	unimp
    1f18:	0600                	addi	s0,sp,768
    1f1a:	0000                	unimp
    1f1c:	0006                	c.slli	zero,0x1
    1f1e:	0078                	addi	a4,sp,12
    1f20:	0076                	c.slli	zero,0x1d
    1f22:	9f1c                	0x9f1c
    1f24:	0604                	addi	s1,sp,768
    1f26:	0000                	unimp
    1f28:	0612                	slli	a2,a2,0x4
    1f2a:	0000                	unimp
    1f2c:	0006                	c.slli	zero,0x1
    1f2e:	0078                	addi	a4,sp,12
    1f30:	0076                	c.slli	zero,0x1d
    1f32:	9f1c                	0x9f1c
	...

00001f3c <.LLST23>:
    1f3c:	02a8                	addi	a0,sp,328
    1f3e:	0000                	unimp
    1f40:	02b2                	slli	t0,t0,0xc
    1f42:	0000                	unimp
    1f44:	0001                	nop
    1f46:	005c                	addi	a5,sp,4
    1f48:	0000                	unimp
    1f4a:	0000                	unimp
    1f4c:	0000                	unimp
	...

00001f4f <.LLST24>:
    1f4f:	02f2                	slli	t0,t0,0x1c
    1f51:	0000                	unimp
    1f53:	0300                	addi	s0,sp,384
    1f55:	0000                	unimp
    1f57:	0001                	nop
    1f59:	005c                	addi	a5,sp,4
    1f5b:	0000                	unimp
    1f5d:	0000                	unimp
    1f5f:	0000                	unimp
	...

00001f62 <.LLST26>:
    1f62:	0378                	addi	a4,sp,396
    1f64:	0000                	unimp
    1f66:	0386                	slli	t2,t2,0x1
    1f68:	0000                	unimp
    1f6a:	0001                	nop
    1f6c:	0000005b          	0x5b
    1f70:	0000                	unimp
    1f72:	0000                	unimp
	...

00001f75 <.LLST27>:
    1f75:	03de                	slli	t2,t2,0x17
    1f77:	0000                	unimp
    1f79:	03ee                	slli	t2,t2,0x1b
    1f7b:	0000                	unimp
    1f7d:	0001                	nop
    1f7f:	0000005b          	0x5b
    1f83:	0000                	unimp
    1f85:	0000                	unimp
	...

00001f88 <.LLST28>:
    1f88:	0450                	addi	a2,sp,516
    1f8a:	0000                	unimp
    1f8c:	0486                	slli	s1,s1,0x1
    1f8e:	0000                	unimp
    1f90:	0001                	nop
    1f92:	0460                	addi	s0,sp,524
    1f94:	0006                	c.slli	zero,0x1
    1f96:	0800                	addi	s0,sp,16
    1f98:	0006                	c.slli	zero,0x1
    1f9a:	0100                	addi	s0,sp,128
    1f9c:	6000                	flw	fs0,0(s0)
	...

00001fa6 <.LLST29>:
    1fa6:	046c                	addi	a1,sp,524
    1fa8:	0000                	unimp
    1faa:	0478                	addi	a4,sp,524
    1fac:	0000                	unimp
    1fae:	0001                	nop
    1fb0:	0000005b          	0x5b
    1fb4:	0000                	unimp
    1fb6:	0000                	unimp
	...

00001fb9 <.LLST30>:
    1fb9:	04a0                	addi	s0,sp,584
    1fbb:	0000                	unimp
    1fbd:	04ba                	slli	s1,s1,0xe
    1fbf:	0000                	unimp
    1fc1:	0001                	nop
    1fc3:	0004ba63          	0x4ba63
    1fc7:	c200                	sw	s0,0(a2)
    1fc9:	0004                	0x4
    1fcb:	0600                	addi	s0,sp,768
    1fcd:	7b00                	flw	fs0,48(a4)
    1fcf:	7c00                	flw	fs0,56(s0)
    1fd1:	1c00                	addi	s0,sp,560
    1fd3:	229f 0005 2e00      	0x2e000005229f
    1fd9:	0005                	c.nop	1
    1fdb:	0100                	addi	s0,sp,128
    1fdd:	6300                	flw	fs0,0(a4)
	...

00001fe7 <.LLST31>:
    1fe7:	04ba                	slli	s1,s1,0xe
    1fe9:	0000                	unimp
    1feb:	04c8                	addi	a0,sp,580
    1fed:	0000                	unimp
    1fef:	0001                	nop
    1ff1:	00000063          	beqz	zero,1ff1 <.LLST31+0xa>
    1ff5:	0000                	unimp
    1ff7:	0000                	unimp
	...

00001ffa <.LLST25>:
    1ffa:	04d0                	addi	a2,sp,580
    1ffc:	0000                	unimp
    1ffe:	04d4                	addi	a3,sp,580
    2000:	0000                	unimp
    2002:	0001                	nop
    2004:	d45a                	sw	s6,40(sp)
    2006:	0004                	0x4
    2008:	f600                	fsw	fs0,40(a2)
    200a:	0004                	0x4
    200c:	0100                	addi	s0,sp,128
    200e:	5e00                	lw	s0,56(a2)
    2010:	04f6                	slli	s1,s1,0x1d
    2012:	0000                	unimp
    2014:	04fa                	slli	s1,s1,0x1e
    2016:	0000                	unimp
    2018:	787a0003          	lb	zero,1927(s4) # ffff7787 <.LC0+0xffff3637>
    201c:	fa9f 0004 2200      	0x22000004fa9f
    2022:	0005                	c.nop	1
    2024:	0100                	addi	s0,sp,128
    2026:	5d00                	lw	s0,56(a0)
    2028:	0532                	slli	a0,a0,0xc
    202a:	0000                	unimp
    202c:	0538                	addi	a4,sp,648
    202e:	0000                	unimp
    2030:	0001                	nop
    2032:	385a                	fld	fa6,432(sp)
    2034:	0005                	c.nop	1
    2036:	4400                	lw	s0,8(s0)
    2038:	0005                	c.nop	1
    203a:	0100                	addi	s0,sp,128
    203c:	5e00                	lw	s0,56(a2)
    203e:	0544                	addi	s1,sp,644
    2040:	0000                	unimp
    2042:	056c                	addi	a1,sp,652
    2044:	0000                	unimp
    2046:	0001                	nop
    2048:	6c5d                	lui	s8,0x17
    204a:	0005                	c.nop	1
    204c:	7200                	flw	fs0,32(a2)
    204e:	0005                	c.nop	1
    2050:	0100                	addi	s0,sp,128
    2052:	5e00                	lw	s0,56(a2)
    2054:	0572                	slli	a0,a0,0x1c
    2056:	0000                	unimp
    2058:	0578                	addi	a4,sp,652
    205a:	0000                	unimp
    205c:	787a0003          	lb	zero,1927(s4)
    2060:	009f 0000 0000      	0x9f
    2066:	0000                	unimp
	...

00002069 <.LLST32>:
    2069:	024c                	addi	a1,sp,260
    206b:	0000                	unimp
    206d:	0256                	slli	tp,tp,0x15
    206f:	0000                	unimp
    2071:	0001                	nop
    2073:	005e                	c.slli	zero,0x17
    2075:	0000                	unimp
    2077:	0000                	unimp
    2079:	0000                	unimp
	...

0000207c <.LLST0>:
    207c:	0000                	unimp
    207e:	0000                	unimp
    2080:	0028                	addi	a0,sp,8
    2082:	0000                	unimp
    2084:	0006                	c.slli	zero,0x1
    2086:	935a                	add	t1,t1,s6
    2088:	5b04                	lw	s1,48(a4)
    208a:	00280493          	addi	s1,a6,2 # ffff7002 <.LC0+0xffff2eb2>
    208e:	0000                	unimp
    2090:	0030                	addi	a2,sp,8
    2092:	0000                	unimp
    2094:	0006                	c.slli	zero,0x1
    2096:	0af503f3          	0xaf503f3
    209a:	9f25                	0x9f25
    209c:	0030                	addi	a2,sp,8
    209e:	0000                	unimp
    20a0:	004a                	c.slli	zero,0x12
    20a2:	0000                	unimp
    20a4:	0006                	c.slli	zero,0x1
    20a6:	935a                	add	t1,t1,s6
    20a8:	5b04                	lw	s1,48(a4)
    20aa:	004a0493          	addi	s1,s4,4
    20ae:	0000                	unimp
    20b0:	0054                	addi	a3,sp,4
    20b2:	0000                	unimp
    20b4:	0006                	c.slli	zero,0x1
    20b6:	0af503f3          	0xaf503f3
    20ba:	9f25                	0x9f25
    20bc:	0054                	addi	a3,sp,4
    20be:	0000                	unimp
    20c0:	0058                	addi	a4,sp,4
    20c2:	0000                	unimp
    20c4:	0006                	c.slli	zero,0x1
    20c6:	935a                	add	t1,t1,s6
    20c8:	5b04                	lw	s1,48(a4)
    20ca:	00580493          	addi	s1,a6,5
    20ce:	0000                	unimp
    20d0:	0060                	addi	s0,sp,12
    20d2:	0000                	unimp
    20d4:	0006                	c.slli	zero,0x1
    20d6:	0af503f3          	0xaf503f3
    20da:	9f25                	0x9f25
    20dc:	0060                	addi	s0,sp,12
    20de:	0000                	unimp
    20e0:	0062                	c.slli	zero,0x18
    20e2:	0000                	unimp
    20e4:	0006                	c.slli	zero,0x1
    20e6:	935a                	add	t1,t1,s6
    20e8:	5b04                	lw	s1,48(a4)
    20ea:	00620493          	addi	s1,tp,6 # 6 <.LLST0+0x6>
    20ee:	0000                	unimp
    20f0:	0064                	addi	s1,sp,12
    20f2:	0000                	unimp
    20f4:	0006                	c.slli	zero,0x1
    20f6:	0af503f3          	0xaf503f3
    20fa:	9f25                	0x9f25
	...

00002104 <.LLST1>:
    2104:	0000                	unimp
    2106:	0000                	unimp
    2108:	0062                	c.slli	zero,0x18
    210a:	0000                	unimp
    210c:	0002                	c.slli64	zero
    210e:	9f30                	0x9f30
	...

00002118 <.LLST2>:
    2118:	0016                	c.slli	zero,0x5
    211a:	0000                	unimp
    211c:	0042                	c.slli	zero,0x10
    211e:	0000                	unimp
    2120:	0001                	nop
    2122:	425e                	lw	tp,212(sp)
    2124:	0000                	unimp
    2126:	4c00                	lw	s0,24(s0)
    2128:	0000                	unimp
    212a:	0400                	addi	s0,sp,512
    212c:	7e00                	flw	fs0,56(a2)
    212e:	549f0893          	addi	a7,t5,1353 # fffe8549 <.LC0+0xfffe43f9>
    2132:	0000                	unimp
    2134:	6200                	flw	fs0,0(a2)
    2136:	0000                	unimp
    2138:	0100                	addi	s0,sp,128
    213a:	5e00                	lw	s0,56(a2)
	...

00002144 <.LLST3>:
    2144:	004c                	addi	a1,sp,4
    2146:	0000                	unimp
    2148:	0052                	c.slli	zero,0x14
    214a:	0000                	unimp
    214c:	0001                	nop
    214e:	525a                	lw	tp,180(sp)
    2150:	0000                	unimp
    2152:	5400                	lw	s0,40(s0)
    2154:	0000                	unimp
    2156:	0400                	addi	s0,sp,512
    2158:	7a00                	flw	fs0,48(a2)
    215a:	1f00                	addi	s0,sp,944
    215c:	5e9f 0000 6000      	0x600000005e9f
    2162:	0000                	unimp
    2164:	0100                	addi	s0,sp,128
    2166:	5a00                	lw	s0,48(a2)
	...

00002170 <.LLST4>:
    2170:	0016                	c.slli	zero,0x5
    2172:	0000                	unimp
    2174:	0046                	c.slli	zero,0x11
    2176:	0000                	unimp
    2178:	0001                	nop
    217a:	4c5f 0000 5400      	0x540000004c5f
    2180:	0000                	unimp
    2182:	0200                	addi	s0,sp,256
    2184:	3000                	fld	fs0,32(s0)
    2186:	549f 0000 5e00      	0x5e000000549f
    218c:	0000                	unimp
    218e:	0100                	addi	s0,sp,128
    2190:	5f00                	lw	s0,56(a4)
    2192:	005e                	c.slli	zero,0x17
    2194:	0000                	unimp
    2196:	0060                	addi	s0,sp,12
    2198:	0000                	unimp
    219a:	0002                	c.slli64	zero
    219c:	9f30                	0x9f30
    219e:	0060                	addi	s0,sp,12
    21a0:	0000                	unimp
    21a2:	0062                	c.slli	zero,0x18
    21a4:	0000                	unimp
    21a6:	0001                	nop
    21a8:	005f 0000 0000      	0x5f
    21ae:	0000                	unimp
	...

000021b1 <.LLST5>:
    21b1:	0024                	addi	s1,sp,8
    21b3:	0000                	unimp
    21b5:	002e                	c.slli	zero,0xb
    21b7:	0000                	unimp
    21b9:	0005                	c.nop	1
    21bb:	4b40                	lw	s0,20(a4)
    21bd:	1f24                	addi	s1,sp,952
    21bf:	2e9f 0000 3000      	0x300000002e9f
    21c5:	0000                	unimp
    21c7:	0100                	addi	s0,sp,128
    21c9:	5a00                	lw	s0,48(a2)
    21cb:	004c                	addi	a1,sp,4
    21cd:	0000                	unimp
    21cf:	0054                	addi	a3,sp,4
    21d1:	0000                	unimp
    21d3:	0001                	nop
    21d5:	625a                	flw	ft4,148(sp)
    21d7:	0000                	unimp
    21d9:	6400                	flw	fs0,8(s0)
    21db:	0000                	unimp
    21dd:	0100                	addi	s0,sp,128
    21df:	5a00                	lw	s0,48(a2)
	...

000021e9 <.LLST6>:
    21e9:	0030                	addi	a2,sp,8
    21eb:	0000                	unimp
    21ed:	003e                	c.slli	zero,0xf
    21ef:	0000                	unimp
    21f1:	0002                	c.slli64	zero
    21f3:	9f30                	0x9f30
	...

000021fd <.LLST0>:
    21fd:	0000                	unimp
    21ff:	0000                	unimp
    2201:	001a                	c.slli	zero,0x6
    2203:	0000                	unimp
    2205:	0001                	nop
    2207:	1a5a                	slli	s4,s4,0x36
    2209:	0000                	unimp
    220b:	6000                	flw	fs0,0(s0)
    220d:	0000                	unimp
    220f:	0400                	addi	s0,sp,512
    2211:	f300                	fsw	fs0,32(a4)
    2213:	5a01                	li	s4,-32
    2215:	609f 0000 6600      	0x66000000609f
    221b:	0000                	unimp
    221d:	0100                	addi	s0,sp,128
    221f:	5a00                	lw	s0,48(a2)
	...

00002229 <.LLST1>:
    2229:	0018                	0x18
    222b:	0000                	unimp
    222d:	0038                	addi	a4,sp,8
    222f:	0000                	unimp
    2231:	0001                	nop
    2233:	3859                	jal	1ac9 <.LLST13+0x235>
    2235:	0000                	unimp
    2237:	4000                	lw	s0,0(s0)
    2239:	0000                	unimp
    223b:	0100                	addi	s0,sp,128
    223d:	5a00                	lw	s0,48(a2)
    223f:	0054                	addi	a3,sp,4
    2241:	0000                	unimp
    2243:	005c                	addi	a5,sp,4
    2245:	0000                	unimp
    2247:	0001                	nop
    2249:	0059                	c.nop	22
    224b:	0000                	unimp
    224d:	0000                	unimp
    224f:	0000                	unimp
	...

00002252 <.LLST2>:
    2252:	0024                	addi	s1,sp,8
    2254:	0000                	unimp
    2256:	003c                	addi	a5,sp,8
    2258:	0000                	unimp
    225a:	0001                	nop
    225c:	545e                	lw	s0,244(sp)
    225e:	0000                	unimp
    2260:	5c00                	lw	s0,56(s0)
    2262:	0000                	unimp
    2264:	0100                	addi	s0,sp,128
    2266:	5e00                	lw	s0,56(a2)
	...

00002270 <.LLST3>:
    2270:	0024                	addi	s1,sp,8
    2272:	0000                	unimp
    2274:	004c                	addi	a1,sp,4
    2276:	0000                	unimp
    2278:	0001                	nop
    227a:	4c58                	lw	a4,28(s0)
    227c:	0000                	unimp
    227e:	5400                	lw	s0,40(s0)
    2280:	0000                	unimp
    2282:	0100                	addi	s0,sp,128
    2284:	5a00                	lw	s0,48(a2)
    2286:	0054                	addi	a3,sp,4
    2288:	0000                	unimp
    228a:	005a                	c.slli	zero,0x16
    228c:	0000                	unimp
    228e:	0001                	nop
    2290:	5a58                	lw	a4,52(a2)
    2292:	0000                	unimp
    2294:	5c00                	lw	s0,56(s0)
    2296:	0000                	unimp
    2298:	0200                	addi	s0,sp,256
    229a:	3000                	fld	fs0,32(s0)
    229c:	009f 0000 0000      	0x9f
    22a2:	0000                	unimp
	...

000022a5 <.LLST4>:
    22a5:	0024                	addi	s1,sp,8
    22a7:	0000                	unimp
    22a9:	0032                	c.slli	zero,0xc
    22ab:	0000                	unimp
    22ad:	0002                	c.slli64	zero
    22af:	9f30                	0x9f30
    22b1:	0032                	c.slli	zero,0xc
    22b3:	0000                	unimp
    22b5:	003a                	c.slli	zero,0xe
    22b7:	0000                	unimp
    22b9:	0001                	nop
    22bb:	545f 0000 5a00      	0x5a000000545f
    22c1:	0000                	unimp
    22c3:	0200                	addi	s0,sp,256
    22c5:	3000                	fld	fs0,32(s0)
    22c7:	5a9f 0000 5c00      	0x5c0000005a9f
    22cd:	0000                	unimp
    22cf:	0100                	addi	s0,sp,128
    22d1:	5f00                	lw	s0,56(a4)
	...

000022db <.LLST5>:
    22db:	000a                	c.slli	zero,0x2
    22dd:	0000                	unimp
    22df:	0018                	0x18
    22e1:	0000                	unimp
    22e3:	0001                	nop
    22e5:	185a                	slli	a6,a6,0x36
    22e7:	0000                	unimp
    22e9:	3600                	fld	fs0,40(a2)
    22eb:	0000                	unimp
    22ed:	0100                	addi	s0,sp,128
    22ef:	5800                	lw	s0,48(s0)
    22f1:	0036                	c.slli	zero,0xd
    22f3:	0000                	unimp
    22f5:	0038                	addi	a4,sp,8
    22f7:	0000                	unimp
    22f9:	0010                	0x10
    22fb:	4f5a01f3          	0x4f5a01f3
    22ff:	f326                	fsw	fs1,164(sp)
    2301:	5a01                	li	s4,-32
    2303:	5a01f327          	0x5a01f327
    2307:	9f1c264f          	fnmadd.q	fa2,fs8,fa7,fs3,rdn
    230b:	0054                	addi	a3,sp,4
    230d:	0000                	unimp
    230f:	005c                	addi	a5,sp,4
    2311:	0000                	unimp
    2313:	0001                	nop
    2315:	0058                	addi	a4,sp,4
    2317:	0000                	unimp
    2319:	0000                	unimp
    231b:	0000                	unimp
	...

0000231e <.LLST6>:
    231e:	001c                	0x1c
    2320:	0000                	unimp
    2322:	002e                	c.slli	zero,0xb
    2324:	0000                	unimp
    2326:	0001                	nop
    2328:	2e5a                	fld	ft8,400(sp)
    232a:	0000                	unimp
    232c:	3800                	fld	fs0,48(s0)
    232e:	0000                	unimp
    2330:	0300                	addi	s0,sp,384
    2332:	7a00                	flw	fs0,48(a2)
    2334:	00549f6b          	0x549f6b
    2338:	0000                	unimp
    233a:	0056                	c.slli	zero,0x15
    233c:	0000                	unimp
    233e:	0001                	nop
    2340:	565a                	lw	a2,180(sp)
    2342:	0000                	unimp
    2344:	5c00                	lw	s0,56(s0)
    2346:	0000                	unimp
    2348:	0300                	addi	s0,sp,384
    234a:	7a00                	flw	fs0,48(a2)
    234c:	00009f0b          	0x9f0b
    2350:	0000                	unimp
    2352:	0000                	unimp
	...

00002356 <.LLST0>:
    2356:	0000                	unimp
    2358:	0000                	unimp
    235a:	001c                	0x1c
    235c:	0000                	unimp
    235e:	0001                	nop
    2360:	1c5a                	slli	s8,s8,0x36
    2362:	0000                	unimp
    2364:	2c00                	fld	fs0,24(s0)
    2366:	0000                	unimp
    2368:	0400                	addi	s0,sp,512
    236a:	f300                	fsw	fs0,32(a4)
    236c:	5a01                	li	s4,-32
    236e:	2c9f 0000 3a00      	0x3a0000002c9f
    2374:	0000                	unimp
    2376:	0100                	addi	s0,sp,128
    2378:	5a00                	lw	s0,48(a2)
	...

00002382 <.LLST1>:
    2382:	0000                	unimp
    2384:	0000                	unimp
    2386:	001c                	0x1c
    2388:	0000                	unimp
    238a:	0001                	nop
    238c:	1c5a                	slli	s8,s8,0x36
    238e:	0000                	unimp
    2390:	2c00                	fld	fs0,24(s0)
    2392:	0000                	unimp
    2394:	0400                	addi	s0,sp,512
    2396:	f300                	fsw	fs0,32(a4)
    2398:	5a01                	li	s4,-32
    239a:	2c9f 0000 3a00      	0x3a0000002c9f
    23a0:	0000                	unimp
    23a2:	0100                	addi	s0,sp,128
    23a4:	5a00                	lw	s0,48(a2)
	...

000023ae <.LLST2>:
    23ae:	0010                	0x10
    23b0:	0000                	unimp
    23b2:	0020                	addi	s0,sp,8
    23b4:	0000                	unimp
    23b6:	0001                	nop
    23b8:	005f 0000 0000      	0x5f
    23be:	0000                	unimp
	...

Disassembly of section .debug_aranges:

00000000 <.debug_aranges>:
   0:	001c                	0x1c
   2:	0000                	unimp
   4:	0002                	c.slli64	zero
   6:	0000                	unimp
   8:	0000                	unimp
   a:	0004                	0x4
   c:	0000                	unimp
   e:	0000                	unimp
  10:	0920                	addi	s0,sp,152
  12:	0000                	unimp
  14:	006a                	c.slli	zero,0x1a
	...
  1e:	0000                	unimp
  20:	001c                	0x1c
  22:	0000                	unimp
  24:	0002                	c.slli64	zero
  26:	0255                	addi	tp,tp,21
  28:	0000                	unimp
  2a:	0004                	0x4
  2c:	0000                	unimp
  2e:	0000                	unimp
  30:	098a                	slli	s3,s3,0x2
  32:	0000                	unimp
  34:	00a6                	slli	ra,ra,0x9
	...
  3e:	0000                	unimp
  40:	001c                	0x1c
  42:	0000                	unimp
  44:	0002                	c.slli64	zero
  46:	04a8                	addi	a0,sp,584
  48:	0000                	unimp
  4a:	0004                	0x4
  4c:	0000                	unimp
  4e:	0000                	unimp
  50:	0a30                	addi	a2,sp,280
  52:	0000                	unimp
  54:	043e                	slli	s0,s0,0xf
	...
  5e:	0000                	unimp
  60:	001c                	0x1c
  62:	0000                	unimp
  64:	0002                	c.slli64	zero
  66:	0c0e                	slli	s8,s8,0x3
  68:	0000                	unimp
  6a:	0004                	0x4
  6c:	0000                	unimp
  6e:	0000                	unimp
  70:	0e6e                	slli	t3,t3,0x1b
  72:	0000                	unimp
  74:	0618                	addi	a4,sp,768
	...
  7e:	0000                	unimp
  80:	001c                	0x1c
  82:	0000                	unimp
  84:	0002                	c.slli64	zero
  86:	0000118f          	0x118f
  8a:	0004                	0x4
  8c:	0000                	unimp
  8e:	0000                	unimp
  90:	1486                	slli	s1,s1,0x21
  92:	0000                	unimp
  94:	0064                	addi	s1,sp,12
	...
  9e:	0000                	unimp
  a0:	001c                	0x1c
  a2:	0000                	unimp
  a4:	0002                	c.slli64	zero
  a6:	1376                	slli	t1,t1,0x3d
  a8:	0000                	unimp
  aa:	0004                	0x4
  ac:	0000                	unimp
  ae:	0000                	unimp
  b0:	14ea                	slli	s1,s1,0x3a
  b2:	0000                	unimp
  b4:	0066                	c.slli	zero,0x19
	...
  be:	0000                	unimp
  c0:	001c                	0x1c
  c2:	0000                	unimp
  c4:	0002                	c.slli64	zero
  c6:	1611                	addi	a2,a2,-28
  c8:	0000                	unimp
  ca:	0004                	0x4
  cc:	0000                	unimp
  ce:	0000                	unimp
  d0:	1550                	addi	a2,sp,676
  d2:	0000                	unimp
  d4:	007c                	addi	a5,sp,12
	...
  de:	0000                	unimp
  e0:	001c                	0x1c
  e2:	0000                	unimp
  e4:	0002                	c.slli64	zero
  e6:	00001637          	lui	a2,0x1
  ea:	0004                	0x4
  ec:	0000                	unimp
  ee:	0000                	unimp
  f0:	15ce                	slli	a1,a1,0x33
  f2:	0000                	unimp
  f4:	003a                	c.slli	zero,0xe
	...
  fe:	0000                	unimp
 100:	0014                	0x14
 102:	0000                	unimp
 104:	0002                	c.slli64	zero
 106:	0000177b          	0x177b
 10a:	0004                	0x4
	...

Disassembly of section .debug_ranges:

00000000 <.Ldebug_ranges0>:
   0:	0000                	unimp
   2:	0000                	unimp
   4:	000a                	c.slli	zero,0x2
   6:	0000                	unimp
   8:	0012                	c.slli	zero,0x4
   a:	0000                	unimp
   c:	0016                	c.slli	zero,0x5
   e:	0000                	unimp
  10:	001a                	c.slli	zero,0x6
  12:	0000                	unimp
  14:	0020                	addi	s0,sp,8
  16:	0000                	unimp
  18:	0022                	c.slli	zero,0x8
  1a:	0000                	unimp
  1c:	0024                	addi	s1,sp,8
	...
  26:	0000                	unimp
  28:	000a                	c.slli	zero,0x2
  2a:	0000                	unimp
  2c:	000e                	c.slli	zero,0x3
  2e:	0000                	unimp
  30:	0020                	addi	s0,sp,8
  32:	0000                	unimp
  34:	0022                	c.slli	zero,0x8
  36:	0000                	unimp
  38:	0024                	addi	s1,sp,8
  3a:	0000                	unimp
  3c:	002a                	c.slli	zero,0xa
	...

00000048 <.Ldebug_ranges0>:
  48:	0000                	unimp
  4a:	0000                	unimp
  4c:	000e                	c.slli	zero,0x3
  4e:	0000                	unimp
  50:	0012                	c.slli	zero,0x4
  52:	0000                	unimp
  54:	001a                	c.slli	zero,0x6
	...
  5e:	0000                	unimp
  60:	001a                	c.slli	zero,0x6
  62:	0000                	unimp
  64:	001a                	c.slli	zero,0x6
  66:	0000                	unimp
  68:	001e                	c.slli	zero,0x7
  6a:	0000                	unimp
  6c:	002c                	addi	a1,sp,8
	...
  76:	0000                	unimp
  78:	0048                	addi	a0,sp,4
  7a:	0000                	unimp
  7c:	0078                	addi	a4,sp,12
  7e:	0000                	unimp
  80:	007a                	c.slli	zero,0x1e
  82:	0000                	unimp
  84:	009c                	addi	a5,sp,64
  86:	0000                	unimp
  88:	00a0                	addi	s0,sp,72
  8a:	0000                	unimp
  8c:	00a6                	slli	ra,ra,0x9
	...

00000098 <.Ldebug_ranges0>:
	...
  a0:	0004                	0x4
  a2:	0000                	unimp
  a4:	0008                	0x8
  a6:	0000                	unimp
  a8:	0012                	c.slli	zero,0x4
  aa:	0000                	unimp
  ac:	0016                	c.slli	zero,0x5
  ae:	0000                	unimp
  b0:	001c                	0x1c
  b2:	0000                	unimp
  b4:	0020                	addi	s0,sp,8
  b6:	0000                	unimp
  b8:	0026                	c.slli	zero,0x9
  ba:	0000                	unimp
  bc:	002c                	addi	a1,sp,8
  be:	0000                	unimp
  c0:	0370                	addi	a2,sp,396
  c2:	0000                	unimp
  c4:	0372                	slli	t1,t1,0x1c
	...
  ce:	0000                	unimp
  d0:	004e                	c.slli	zero,0x13
  d2:	0000                	unimp
  d4:	0050                	addi	a2,sp,4
  d6:	0000                	unimp
  d8:	00b2                	slli	ra,ra,0xc
  da:	0000                	unimp
  dc:	00fa                	slli	ra,ra,0x1e
	...
  e6:	0000                	unimp
  e8:	0050                	addi	a2,sp,4
  ea:	0000                	unimp
  ec:	0062                	c.slli	zero,0x18
  ee:	0000                	unimp
  f0:	0390                	addi	a2,sp,448
  f2:	0000                	unimp
  f4:	0392                	slli	t2,t2,0x4
	...
  fe:	0000                	unimp
 100:	0082                	c.slli64	ra
 102:	0000                	unimp
 104:	0084                	addi	s1,sp,64
 106:	0000                	unimp
 108:	0124                	addi	s1,sp,136
 10a:	0000                	unimp
 10c:	016e                	slli	sp,sp,0x1b
	...
 116:	0000                	unimp
 118:	0190                	addi	a2,sp,192
 11a:	0000                	unimp
 11c:	029c                	addi	a5,sp,320
 11e:	0000                	unimp
 120:	029c                	addi	a5,sp,320
 122:	0000                	unimp
 124:	02ba                	slli	t0,t0,0xe
	...
 12e:	0000                	unimp
 130:	0190                	addi	a2,sp,192
 132:	0000                	unimp
 134:	01d2                	slli	gp,gp,0x14
 136:	0000                	unimp
 138:	01da                	slli	gp,gp,0x16
 13a:	0000                	unimp
 13c:	01de                	slli	gp,gp,0x17
	...
 146:	0000                	unimp
 148:	01d2                	slli	gp,gp,0x14
 14a:	0000                	unimp
 14c:	01da                	slli	gp,gp,0x16
 14e:	0000                	unimp
 150:	01de                	slli	gp,gp,0x17
 152:	0000                	unimp
 154:	0212                	slli	tp,tp,0x4
 156:	0000                	unimp
 158:	0216                	slli	tp,tp,0x5
 15a:	0000                	unimp
 15c:	021a                	slli	tp,tp,0x6
 15e:	0000                	unimp
 160:	021e                	slli	tp,tp,0x7
 162:	0000                	unimp
 164:	0222                	slli	tp,tp,0x8
	...
 16e:	0000                	unimp
 170:	0212                	slli	tp,tp,0x4
 172:	0000                	unimp
 174:	0216                	slli	tp,tp,0x5
 176:	0000                	unimp
 178:	021a                	slli	tp,tp,0x6
 17a:	0000                	unimp
 17c:	021e                	slli	tp,tp,0x7
 17e:	0000                	unimp
 180:	0222                	slli	tp,tp,0x8
 182:	0000                	unimp
 184:	024c                	addi	a1,sp,260
 186:	0000                	unimp
 188:	0250                	addi	a2,sp,260
 18a:	0000                	unimp
 18c:	0258                	addi	a4,sp,260
	...
 196:	0000                	unimp
 198:	024c                	addi	a1,sp,260
 19a:	0000                	unimp
 19c:	0250                	addi	a2,sp,260
 19e:	0000                	unimp
 1a0:	0258                	addi	a4,sp,260
 1a2:	0000                	unimp
 1a4:	0272                	slli	tp,tp,0x1c
 1a6:	0000                	unimp
 1a8:	0272                	slli	tp,tp,0x1c
 1aa:	0000                	unimp
 1ac:	0280                	addi	s0,sp,320
 1ae:	0000                	unimp
 1b0:	0282                	c.slli64	t0
 1b2:	0000                	unimp
 1b4:	0284                	addi	s1,sp,320
 1b6:	0000                	unimp
 1b8:	02a6                	slli	t0,t0,0x9
 1ba:	0000                	unimp
 1bc:	02a8                	addi	a0,sp,328
	...
 1c6:	0000                	unimp
 1c8:	0272                	slli	tp,tp,0x1c
 1ca:	0000                	unimp
 1cc:	0272                	slli	tp,tp,0x1c
 1ce:	0000                	unimp
 1d0:	0280                	addi	s0,sp,320
 1d2:	0000                	unimp
 1d4:	0282                	c.slli64	t0
 1d6:	0000                	unimp
 1d8:	0284                	addi	s1,sp,320
 1da:	0000                	unimp
 1dc:	028e                	slli	t0,t0,0x3
 1de:	0000                	unimp
 1e0:	029c                	addi	a5,sp,320
 1e2:	0000                	unimp
 1e4:	02a6                	slli	t0,t0,0x9
	...
 1ee:	0000                	unimp
 1f0:	028e                	slli	t0,t0,0x3
 1f2:	0000                	unimp
 1f4:	029c                	addi	a5,sp,320
 1f6:	0000                	unimp
 1f8:	02a8                	addi	a0,sp,328
 1fa:	0000                	unimp
 1fc:	02ba                	slli	t0,t0,0xe
	...
 206:	0000                	unimp
 208:	029c                	addi	a5,sp,320
 20a:	0000                	unimp
 20c:	029c                	addi	a5,sp,320
 20e:	0000                	unimp
 210:	02ba                	slli	t0,t0,0xe
 212:	0000                	unimp
 214:	02dc                	addi	a5,sp,324
	...
 21e:	0000                	unimp
 220:	029c                	addi	a5,sp,320
 222:	0000                	unimp
 224:	029c                	addi	a5,sp,320
 226:	0000                	unimp
 228:	02ba                	slli	t0,t0,0xe
 22a:	0000                	unimp
 22c:	02c2                	slli	t0,t0,0x10
 22e:	0000                	unimp
 230:	02c2                	slli	t0,t0,0x10
 232:	0000                	unimp
 234:	02d6                	slli	t0,t0,0x15
	...
 23e:	0000                	unimp
 240:	0340                	addi	s0,sp,388
 242:	0000                	unimp
 244:	0352                	slli	t1,t1,0x14
 246:	0000                	unimp
 248:	0354                	addi	a3,sp,388
 24a:	0000                	unimp
 24c:	0358                	addi	a4,sp,388
	...
 256:	0000                	unimp
 258:	038a                	slli	t2,t2,0x2
 25a:	0000                	unimp
 25c:	0390                	addi	a2,sp,448
 25e:	0000                	unimp
 260:	0398                	addi	a4,sp,448
 262:	0000                	unimp
 264:	041e                	slli	s0,s0,0x7
 266:	0000                	unimp
 268:	0436                	slli	s0,s0,0xd
 26a:	0000                	unimp
 26c:	043e                	slli	s0,s0,0xf
	...

00000278 <.Ldebug_ranges0>:
 278:	0000                	unimp
 27a:	0000                	unimp
 27c:	0006                	c.slli	zero,0x1
 27e:	0000                	unimp
 280:	0008                	0x8
 282:	0000                	unimp
 284:	0010                	0x10
 286:	0000                	unimp
 288:	001c                	0x1c
 28a:	0000                	unimp
 28c:	0020                	addi	s0,sp,8
 28e:	0000                	unimp
 290:	0028                	addi	a0,sp,8
 292:	0000                	unimp
 294:	002c                	addi	a1,sp,8
	...
 29e:	0000                	unimp
 2a0:	0010                	0x10
 2a2:	0000                	unimp
 2a4:	0018                	0x18
 2a6:	0000                	unimp
 2a8:	0034                	addi	a3,sp,8
 2aa:	0000                	unimp
 2ac:	0034                	addi	a3,sp,8
 2ae:	0000                	unimp
 2b0:	003c                	addi	a5,sp,8
 2b2:	0000                	unimp
 2b4:	0040                	addi	s0,sp,4
 2b6:	0000                	unimp
 2b8:	0044                	addi	s1,sp,4
 2ba:	0000                	unimp
 2bc:	0046                	c.slli	zero,0x11
 2be:	0000                	unimp
 2c0:	0084                	addi	s1,sp,64
 2c2:	0000                	unimp
 2c4:	0086                	slli	ra,ra,0x1
 2c6:	0000                	unimp
 2c8:	01c6                	slli	gp,gp,0x11
 2ca:	0000                	unimp
 2cc:	01c8                	addi	a0,sp,196
 2ce:	0000                	unimp
 2d0:	02b2                	slli	t0,t0,0xc
 2d2:	0000                	unimp
 2d4:	02b4                	addi	a3,sp,328
 2d6:	0000                	unimp
 2d8:	03e8                	addi	a0,sp,460
 2da:	0000                	unimp
 2dc:	03ea                	slli	t2,t2,0x1a
	...
 2e6:	0000                	unimp
 2e8:	005a                	c.slli	zero,0x16
 2ea:	0000                	unimp
 2ec:	005e                	c.slli	zero,0x17
 2ee:	0000                	unimp
 2f0:	0062                	c.slli	zero,0x18
 2f2:	0000                	unimp
 2f4:	0084                	addi	s1,sp,64
 2f6:	0000                	unimp
 2f8:	0086                	slli	ra,ra,0x1
 2fa:	0000                	unimp
 2fc:	0090                	addi	a2,sp,64
 2fe:	0000                	unimp
 300:	0096                	slli	ra,ra,0x5
 302:	0000                	unimp
 304:	0174                	addi	a3,sp,140
 306:	0000                	unimp
 308:	017a                	slli	sp,sp,0x1e
 30a:	0000                	unimp
 30c:	01c6                	slli	gp,gp,0x11
 30e:	0000                	unimp
 310:	01c8                	addi	a0,sp,196
 312:	0000                	unimp
 314:	0236                	slli	tp,tp,0xd
 316:	0000                	unimp
 318:	0256                	slli	tp,tp,0x15
 31a:	0000                	unimp
 31c:	0266                	slli	tp,tp,0x19
 31e:	0000                	unimp
 320:	026c                	addi	a1,sp,268
 322:	0000                	unimp
 324:	028e                	slli	t0,t0,0x3
 326:	0000                	unimp
 328:	042e                	slli	s0,s0,0xb
 32a:	0000                	unimp
 32c:	0432                	slli	s0,s0,0xc
 32e:	0000                	unimp
 330:	057c                	addi	a5,sp,652
 332:	0000                	unimp
 334:	0580                	addi	s0,sp,704
 336:	0000                	unimp
 338:	0586                	slli	a1,a1,0x1
 33a:	0000                	unimp
 33c:	058e                	slli	a1,a1,0x3
	...
 346:	0000                	unimp
 348:	0078                	addi	a4,sp,12
 34a:	0000                	unimp
 34c:	0082                	c.slli64	ra
 34e:	0000                	unimp
 350:	0082                	c.slli64	ra
 352:	0000                	unimp
 354:	0084                	addi	s1,sp,64
	...
 35e:	0000                	unimp
 360:	0084                	addi	s1,sp,64
 362:	0000                	unimp
 364:	0084                	addi	s1,sp,64
 366:	0000                	unimp
 368:	0160                	addi	s0,sp,140
 36a:	0000                	unimp
 36c:	016c                	addi	a1,sp,140
	...
 376:	0000                	unimp
 378:	00d6                	slli	ra,ra,0x15
 37a:	0000                	unimp
 37c:	00e2                	slli	ra,ra,0x18
 37e:	0000                	unimp
 380:	00e2                	slli	ra,ra,0x18
 382:	0000                	unimp
 384:	00e4                	addi	s1,sp,76
	...
 38e:	0000                	unimp
 390:	0218                	addi	a4,sp,256
 392:	0000                	unimp
 394:	0222                	slli	tp,tp,0x8
 396:	0000                	unimp
 398:	0228                	addi	a0,sp,264
 39a:	0000                	unimp
 39c:	022a                	slli	tp,tp,0xa
	...
 3a6:	0000                	unimp
 3a8:	026c                	addi	a1,sp,268
 3aa:	0000                	unimp
 3ac:	026c                	addi	a1,sp,268
 3ae:	0000                	unimp
 3b0:	0274                	addi	a3,sp,268
 3b2:	0000                	unimp
 3b4:	027e                	slli	tp,tp,0x1f
	...
 3be:	0000                	unimp
 3c0:	0090                	addi	a2,sp,64
 3c2:	0000                	unimp
 3c4:	0096                	slli	ra,ra,0x5
 3c6:	0000                	unimp
 3c8:	0236                	slli	tp,tp,0xd
 3ca:	0000                	unimp
 3cc:	0236                	slli	tp,tp,0xd
 3ce:	0000                	unimp
 3d0:	0266                	slli	tp,tp,0x19
 3d2:	0000                	unimp
 3d4:	026c                	addi	a1,sp,268
 3d6:	0000                	unimp
 3d8:	028e                	slli	t0,t0,0x3
 3da:	0000                	unimp
 3dc:	02b2                	slli	t0,t0,0xc
 3de:	0000                	unimp
 3e0:	02b4                	addi	a3,sp,328
 3e2:	0000                	unimp
 3e4:	038e                	slli	t2,t2,0x3
 3e6:	0000                	unimp
 3e8:	0392                	slli	t2,t2,0x4
 3ea:	0000                	unimp
 3ec:	03e8                	addi	a0,sp,460
 3ee:	0000                	unimp
 3f0:	03ea                	slli	t2,t2,0x1a
 3f2:	0000                	unimp
 3f4:	042e                	slli	s0,s0,0xb
 3f6:	0000                	unimp
 3f8:	0436                	slli	s0,s0,0xd
 3fa:	0000                	unimp
 3fc:	0440                	addi	s0,sp,516
 3fe:	0000                	unimp
 400:	0444                	addi	s1,sp,516
 402:	0000                	unimp
 404:	048e                	slli	s1,s1,0x3
 406:	0000                	unimp
 408:	0492                	slli	s1,s1,0x4
 40a:	0000                	unimp
 40c:	0578                	addi	a4,sp,652
 40e:	0000                	unimp
 410:	05f0                	addi	a2,sp,716
 412:	0000                	unimp
 414:	05f4                	addi	a3,sp,716
 416:	0000                	unimp
 418:	05f8                	addi	a4,sp,716
 41a:	0000                	unimp
 41c:	0612                	slli	a2,a2,0x4
	...
 426:	0000                	unimp
 428:	02a4                	addi	s1,sp,328
 42a:	0000                	unimp
 42c:	02b0                	addi	a2,sp,328
 42e:	0000                	unimp
 430:	02b0                	addi	a2,sp,328
 432:	0000                	unimp
 434:	02b2                	slli	t0,t0,0xc
	...
 43e:	0000                	unimp
 440:	02ee                	slli	t0,t0,0x1b
 442:	0000                	unimp
 444:	02fe                	slli	t0,t0,0x1f
 446:	0000                	unimp
 448:	02fe                	slli	t0,t0,0x1f
 44a:	0000                	unimp
 44c:	0300                	addi	s0,sp,384
	...
 456:	0000                	unimp
 458:	030a                	slli	t1,t1,0x2
 45a:	0000                	unimp
 45c:	0314                	addi	a3,sp,384
 45e:	0000                	unimp
 460:	04c8                	addi	a0,sp,580
 462:	0000                	unimp
 464:	0522                	slli	a0,a0,0x8
 466:	0000                	unimp
 468:	052e                	slli	a0,a0,0xb
 46a:	0000                	unimp
 46c:	0578                	addi	a4,sp,652
	...
 476:	0000                	unimp
 478:	044c                	addi	a1,sp,516
 47a:	0000                	unimp
 47c:	045c                	addi	a5,sp,516
 47e:	0000                	unimp
 480:	0482                	c.slli64	s1
 482:	0000                	unimp
 484:	0486                	slli	s1,s1,0x1
	...
 48e:	0000                	unimp
 490:	0236                	slli	tp,tp,0xd
 492:	0000                	unimp
 494:	0256                	slli	tp,tp,0x15
 496:	0000                	unimp
 498:	058e                	slli	a1,a1,0x3
 49a:	0000                	unimp
 49c:	05ca                	slli	a1,a1,0x12
 49e:	0000                	unimp
 4a0:	0612                	slli	a2,a2,0x4
 4a2:	0000                	unimp
 4a4:	0618                	addi	a4,sp,768
	...
 4ae:	0000                	unimp
 4b0:	05ca                	slli	a1,a1,0x12
 4b2:	0000                	unimp
 4b4:	05d4                	addi	a3,sp,708
 4b6:	0000                	unimp
 4b8:	05d8                	addi	a4,sp,708
 4ba:	0000                	unimp
 4bc:	05e4                	addi	s1,sp,716
	...

000004c8 <.Ldebug_ranges0>:
 4c8:	0000                	unimp
 4ca:	0000                	unimp
 4cc:	0010                	0x10
 4ce:	0000                	unimp
 4d0:	0014                	0x14
 4d2:	0000                	unimp
 4d4:	0018                	0x18
	...

000004e0 <.Ldebug_ranges0>:
	...
 4e8:	0008                	0x8
 4ea:	0000                	unimp
 4ec:	0038                	addi	a4,sp,8
 4ee:	0000                	unimp
 4f0:	0054                	addi	a3,sp,4
 4f2:	0000                	unimp
 4f4:	0066                	c.slli	zero,0x19
	...
 4fe:	0000                	unimp
 500:	000a                	c.slli	zero,0x2
 502:	0000                	unimp
 504:	0038                	addi	a4,sp,8
 506:	0000                	unimp
 508:	0054                	addi	a3,sp,4
 50a:	0000                	unimp
 50c:	005c                	addi	a5,sp,4
	...
 516:	0000                	unimp
 518:	0018                	0x18
 51a:	0000                	unimp
 51c:	0020                	addi	s0,sp,8
 51e:	0000                	unimp
 520:	0022                	c.slli	zero,0x8
 522:	0000                	unimp
 524:	0024                	addi	s1,sp,8
	...
 52e:	0000                	unimp
 530:	0038                	addi	a4,sp,8
 532:	0000                	unimp
 534:	0042                	c.slli	zero,0x10
 536:	0000                	unimp
 538:	0044                	addi	s1,sp,4
 53a:	0000                	unimp
 53c:	0048                	addi	a0,sp,4
	...

00000548 <.Ldebug_ranges0>:
 548:	0000                	unimp
 54a:	0000                	unimp
 54c:	0010                	0x10
 54e:	0000                	unimp
 550:	0010                	0x10
 552:	0000                	unimp
 554:	0026                	c.slli	zero,0x9
 556:	0000                	unimp
 558:	002c                	addi	a1,sp,8
 55a:	0000                	unimp
 55c:	003a                	c.slli	zero,0xe
	...

Disassembly of section .debug_line:

00000000 <.Ldebug_line0>:
       0:	0246                	slli	tp,tp,0x11
       2:	0000                	unimp
       4:	00610003          	lb	zero,6(sp) # e0304aa <.LC0+0xe02c35a>
       8:	0000                	unimp
       a:	0101                	addi	sp,sp,0
       c:	000d0efb          	0xd0efb
      10:	0101                	addi	sp,sp,0
      12:	0101                	addi	sp,sp,0
      14:	0000                	unimp
      16:	0100                	addi	s0,sp,128
      18:	0000                	unimp
      1a:	2e01                	jal	32a <.L38+0xe>
      1c:	2f2e                	fld	ft10,200(sp)
      1e:	2e2e                	fld	ft8,200(sp)
      20:	2f2e2e2f          	0x2f2e2e2f
      24:	2f2e                	fld	ft10,200(sp)
      26:	6972                	flw	fs2,28(sp)
      28:	2d766373          	csrrsi	t1,0x2d7,12
      2c:	2f636367          	0x2f636367
      30:	696c                	flw	fa1,84(a0)
      32:	6762                	flw	fa4,24(sp)
      34:	732f6363          	bltu	t5,s2,75a <.LASF5+0x14>
      38:	2d74666f          	jal	a2,46b0e <.LC0+0x429be>
      3c:	7066                	flw	ft0,120(sp)
      3e:	2e00                	fld	fs0,24(a2)
      40:	0000                	unimp
      42:	7165                	addi	sp,sp,-400
      44:	6664                	flw	fs1,76(a2)
      46:	2e32                	fld	ft8,264(sp)
      48:	00010063          	beqz	sp,48 <.Ldebug_ranges0>
      4c:	7300                	flw	fs0,32(a4)
      4e:	7066                	flw	ft0,120(sp)
      50:	6d2d                	lui	s10,0xb
      52:	6361                	lui	t1,0x18
      54:	6968                	flw	fa0,84(a0)
      56:	656e                	flw	fa0,216(sp)
      58:	682e                	flw	fa6,200(sp)
      5a:	0200                	addi	s0,sp,256
      5c:	0000                	unimp
      5e:	6f64                	flw	fs1,92(a4)
      60:	6275                	lui	tp,0x1d
      62:	656c                	flw	fa1,76(a0)
      64:	682e                	flw	fa6,200(sp)
      66:	0100                	addi	s0,sp,128
      68:	0000                	unimp
      6a:	0500                	addi	s0,sp,640
      6c:	0001                	nop
      6e:	0205                	addi	tp,tp,1
      70:	0920                	addi	s0,sp,152
      72:	0000                	unimp
      74:	05012303          	lw	t1,80(sp)
      78:	09010303          	lb	t1,144(sp)
      7c:	0000                	unimp
      7e:	0301                	addi	t1,t1,0
      80:	0900                	addi	s0,sp,144
      82:	0000                	unimp
      84:	0501                	addi	a0,a0,0
      86:	030d                	addi	t1,t1,3
      88:	0900                	addi	s0,sp,144
      8a:	0000                	unimp
      8c:	0501                	addi	a0,a0,0
      8e:	09010303          	lb	t1,144(sp)
      92:	0000                	unimp
      94:	0301                	addi	t1,t1,0
      96:	0900                	addi	s0,sp,144
      98:	0000                	unimp
      9a:	0301                	addi	t1,t1,0
      9c:	0900                	addi	s0,sp,144
      9e:	0000                	unimp
      a0:	0301                	addi	t1,t1,0
      a2:	0900                	addi	s0,sp,144
      a4:	0000                	unimp
      a6:	0301                	addi	t1,t1,0
      a8:	0901                	addi	s2,s2,0
      aa:	0000                	unimp
      ac:	0301                	addi	t1,t1,0
      ae:	0900                	addi	s0,sp,144
      b0:	0000                	unimp
      b2:	0301                	addi	t1,t1,0
      b4:	0900                	addi	s0,sp,144
      b6:	0000                	unimp
      b8:	0301                	addi	t1,t1,0
      ba:	0900                	addi	s0,sp,144
      bc:	0000                	unimp
      be:	0301                	addi	t1,t1,0
      c0:	0901                	addi	s2,s2,0
      c2:	0000                	unimp
      c4:	0301                	addi	t1,t1,0
      c6:	0902                	c.slli64	s2
      c8:	0000                	unimp
      ca:	0301                	addi	t1,t1,0
      cc:	0901                	addi	s2,s2,0
      ce:	0000                	unimp
      d0:	0301                	addi	t1,t1,0
      d2:	0900                	addi	s0,sp,144
      d4:	0000                	unimp
      d6:	0301                	addi	t1,t1,0
      d8:	0900                	addi	s0,sp,144
      da:	0000                	unimp
      dc:	0301                	addi	t1,t1,0
      de:	0900                	addi	s0,sp,144
      e0:	0000                	unimp
      e2:	0601                	addi	a2,a2,0
      e4:	0a090103          	lb	sp,160(s2)
      e8:	0100                	addi	s0,sp,128
      ea:	0105                	addi	sp,sp,1
      ec:	04097803          	0x4097803
      f0:	0100                	addi	s0,sp,128
      f2:	0305                	addi	t1,t1,1
      f4:	0306                	slli	t1,t1,0x1
      f6:	00040907          	0x40907
      fa:	0601                	addi	a2,a2,0
      fc:	04090203          	lb	tp,64(s2)
     100:	0100                	addi	s0,sp,128
     102:	04097e03          	0x4097e03
     106:	0100                	addi	s0,sp,128
     108:	0306                	slli	t1,t1,0x1
     10a:	0900                	addi	s0,sp,144
     10c:	0004                	0x4
     10e:	0301                	addi	t1,t1,0
     110:	0900                	addi	s0,sp,144
     112:	0000                	unimp
     114:	0601                	addi	a2,a2,0
     116:	02090103          	lb	sp,32(s2)
     11a:	0100                	addi	s0,sp,128
     11c:	02097f03          	0x2097f03
     120:	0100                	addi	s0,sp,128
     122:	0306                	slli	t1,t1,0x1
     124:	0900                	addi	s0,sp,144
     126:	0002                	c.slli64	zero
     128:	0301                	addi	t1,t1,0
     12a:	0901                	addi	s2,s2,0
     12c:	0000                	unimp
     12e:	0301                	addi	t1,t1,0
     130:	0900                	addi	s0,sp,144
     132:	0000                	unimp
     134:	0301                	addi	t1,t1,0
     136:	0900                	addi	s0,sp,144
     138:	0000                	unimp
     13a:	0301                	addi	t1,t1,0
     13c:	0900                	addi	s0,sp,144
     13e:	0000                	unimp
     140:	0301                	addi	t1,t1,0
     142:	0900                	addi	s0,sp,144
     144:	0000                	unimp
     146:	0301                	addi	t1,t1,0
     148:	0900                	addi	s0,sp,144
     14a:	0000                	unimp
     14c:	0301                	addi	t1,t1,0
     14e:	0900                	addi	s0,sp,144
     150:	0004                	0x4
     152:	0301                	addi	t1,t1,0
     154:	0900                	addi	s0,sp,144
     156:	0002                	c.slli64	zero
     158:	0301                	addi	t1,t1,0
     15a:	0901                	addi	s2,s2,0
     15c:	0000                	unimp
     15e:	0301                	addi	t1,t1,0
     160:	0900                	addi	s0,sp,144
     162:	0000                	unimp
     164:	0301                	addi	t1,t1,0
     166:	0900                	addi	s0,sp,144
     168:	0000                	unimp
     16a:	0301                	addi	t1,t1,0
     16c:	0900                	addi	s0,sp,144
     16e:	0000                	unimp
     170:	0301                	addi	t1,t1,0
     172:	0900                	addi	s0,sp,144
     174:	0000                	unimp
     176:	0001                	nop
     178:	0402                	c.slli64	s0
     17a:	0614                	addi	a3,sp,768
     17c:	04090003          	lb	zero,64(s2)
     180:	0100                	addi	s0,sp,128
     182:	0a090003          	lb	zero,160(s2)
     186:	0100                	addi	s0,sp,128
     188:	0105                	addi	sp,sp,1
     18a:	04090403          	lb	s0,64(s2)
     18e:	0100                	addi	s0,sp,128
     190:	0305                	addi	t1,t1,1
     192:	0200                	addi	s0,sp,256
     194:	1704                	addi	s1,sp,928
     196:	02097c03          	0x2097c03
     19a:	0100                	addi	s0,sp,128
     19c:	0200                	addi	s0,sp,256
     19e:	1804                	addi	s1,sp,48
     1a0:	04090003          	lb	zero,64(s2)
     1a4:	0100                	addi	s0,sp,128
     1a6:	0200                	addi	s0,sp,256
     1a8:	4e04                	lw	s1,24(a2)
     1aa:	0306                	slli	t1,t1,0x1
     1ac:	0900                	addi	s0,sp,144
     1ae:	0006                	c.slli	zero,0x1
     1b0:	0001                	nop
     1b2:	0402                	c.slli64	s0
     1b4:	034e                	slli	t1,t1,0x13
     1b6:	0900                	addi	s0,sp,144
     1b8:	0000                	unimp
     1ba:	0001                	nop
     1bc:	0402                	c.slli64	s0
     1be:	034e                	slli	t1,t1,0x13
     1c0:	0900                	addi	s0,sp,144
     1c2:	0000                	unimp
     1c4:	0001                	nop
     1c6:	0402                	c.slli64	s0
     1c8:	034e                	slli	t1,t1,0x13
     1ca:	0900                	addi	s0,sp,144
     1cc:	0000                	unimp
     1ce:	0001                	nop
     1d0:	0402                	c.slli64	s0
     1d2:	034e                	slli	t1,t1,0x13
     1d4:	0900                	addi	s0,sp,144
     1d6:	0000                	unimp
     1d8:	0001                	nop
     1da:	0402                	c.slli64	s0
     1dc:	034e                	slli	t1,t1,0x13
     1de:	0900                	addi	s0,sp,144
     1e0:	0000                	unimp
     1e2:	0001                	nop
     1e4:	0402                	c.slli64	s0
     1e6:	034e                	slli	t1,t1,0x13
     1e8:	0900                	addi	s0,sp,144
     1ea:	0000                	unimp
     1ec:	0001                	nop
     1ee:	0402                	c.slli64	s0
     1f0:	034e                	slli	t1,t1,0x13
     1f2:	0900                	addi	s0,sp,144
     1f4:	0000                	unimp
     1f6:	0001                	nop
     1f8:	0402                	c.slli64	s0
     1fa:	034e                	slli	t1,t1,0x13
     1fc:	0900                	addi	s0,sp,144
     1fe:	0000                	unimp
     200:	0001                	nop
     202:	0402                	c.slli64	s0
     204:	034e                	slli	t1,t1,0x13
     206:	0900                	addi	s0,sp,144
     208:	0000                	unimp
     20a:	0001                	nop
     20c:	0402                	c.slli64	s0
     20e:	0650                	addi	a2,sp,772
     210:	06090003          	lb	zero,96(s2)
     214:	0100                	addi	s0,sp,128
     216:	0200                	addi	s0,sp,256
     218:	5204                	lw	s1,32(a2)
     21a:	04090003          	lb	zero,64(s2)
     21e:	0100                	addi	s0,sp,128
     220:	0200                	addi	s0,sp,256
     222:	5404                	lw	s1,40(s0)
     224:	04090003          	lb	zero,64(s2)
     228:	0100                	addi	s0,sp,128
     22a:	0200                	addi	s0,sp,256
     22c:	5504                	lw	s1,40(a0)
     22e:	04090003          	lb	zero,64(s2)
     232:	0100                	addi	s0,sp,128
     234:	0200                	addi	s0,sp,256
     236:	5804                	lw	s1,48(s0)
     238:	02090003          	lb	zero,32(s2)
     23c:	0100                	addi	s0,sp,128
     23e:	0a090003          	lb	zero,160(s2)
     242:	0100                	addi	s0,sp,128
     244:	0409                	addi	s0,s0,2
     246:	0000                	unimp
     248:	0101                	addi	sp,sp,0

0000024a <.Ldebug_line0>:
     24a:	000002db          	0x2db
     24e:	00610003          	lb	zero,6(sp)
     252:	0000                	unimp
     254:	0101                	addi	sp,sp,0
     256:	000d0efb          	0xd0efb
     25a:	0101                	addi	sp,sp,0
     25c:	0101                	addi	sp,sp,0
     25e:	0000                	unimp
     260:	0100                	addi	s0,sp,128
     262:	0000                	unimp
     264:	2e01                	jal	574 <.LASF24+0x4>
     266:	2f2e                	fld	ft10,200(sp)
     268:	2e2e                	fld	ft8,200(sp)
     26a:	2f2e2e2f          	0x2f2e2e2f
     26e:	2f2e                	fld	ft10,200(sp)
     270:	6972                	flw	fs2,28(sp)
     272:	2d766373          	csrrsi	t1,0x2d7,12
     276:	2f636367          	0x2f636367
     27a:	696c                	flw	fa1,84(a0)
     27c:	6762                	flw	fa4,24(sp)
     27e:	732f6363          	bltu	t5,s2,9a4 <.LBB4>
     282:	2d74666f          	jal	a2,46d58 <.LC0+0x42c08>
     286:	7066                	flw	ft0,120(sp)
     288:	2e00                	fld	fs0,24(a2)
     28a:	0000                	unimp
     28c:	656c                	flw	fa1,76(a0)
     28e:	6664                	flw	fs1,76(a2)
     290:	2e32                	fld	ft8,264(sp)
     292:	00010063          	beqz	sp,292 <.L25+0x6>
     296:	7300                	flw	fs0,32(a4)
     298:	7066                	flw	ft0,120(sp)
     29a:	6d2d                	lui	s10,0xb
     29c:	6361                	lui	t1,0x18
     29e:	6968                	flw	fa0,84(a0)
     2a0:	656e                	flw	fa0,216(sp)
     2a2:	682e                	flw	fa6,200(sp)
     2a4:	0200                	addi	s0,sp,256
     2a6:	0000                	unimp
     2a8:	6f64                	flw	fs1,92(a4)
     2aa:	6275                	lui	tp,0x1d
     2ac:	656c                	flw	fa1,76(a0)
     2ae:	682e                	flw	fa6,200(sp)
     2b0:	0100                	addi	s0,sp,128
     2b2:	0000                	unimp
     2b4:	0500                	addi	s0,sp,640
     2b6:	0001                	nop
     2b8:	0205                	addi	tp,tp,1
     2ba:	098a                	slli	s3,s3,0x2
     2bc:	0000                	unimp
     2be:	05012303          	lw	t1,80(sp)
     2c2:	09010303          	lb	t1,144(sp)
     2c6:	0000                	unimp
     2c8:	0301                	addi	t1,t1,0
     2ca:	0900                	addi	s0,sp,144
     2cc:	0000                	unimp
     2ce:	0501                	addi	a0,a0,0
     2d0:	030d                	addi	t1,t1,3
     2d2:	0900                	addi	s0,sp,144
     2d4:	0000                	unimp
     2d6:	0501                	addi	a0,a0,0
     2d8:	09010303          	lb	t1,144(sp)
     2dc:	0000                	unimp
     2de:	0301                	addi	t1,t1,0
     2e0:	0900                	addi	s0,sp,144
     2e2:	0000                	unimp
     2e4:	0301                	addi	t1,t1,0
     2e6:	0900                	addi	s0,sp,144
     2e8:	0000                	unimp
     2ea:	0301                	addi	t1,t1,0
     2ec:	0900                	addi	s0,sp,144
     2ee:	0000                	unimp
     2f0:	0301                	addi	t1,t1,0
     2f2:	0901                	addi	s2,s2,0
     2f4:	0000                	unimp
     2f6:	0301                	addi	t1,t1,0
     2f8:	0900                	addi	s0,sp,144
     2fa:	0000                	unimp
     2fc:	0301                	addi	t1,t1,0
     2fe:	0900                	addi	s0,sp,144
     300:	0000                	unimp
     302:	0301                	addi	t1,t1,0
     304:	0900                	addi	s0,sp,144
     306:	0000                	unimp
     308:	0301                	addi	t1,t1,0
     30a:	0901                	addi	s2,s2,0
     30c:	0000                	unimp
     30e:	0301                	addi	t1,t1,0
     310:	0902                	c.slli64	s2
     312:	0000                	unimp
     314:	0301                	addi	t1,t1,0
     316:	0901                	addi	s2,s2,0
     318:	0000                	unimp
     31a:	0301                	addi	t1,t1,0
     31c:	0900                	addi	s0,sp,144
     31e:	0000                	unimp
     320:	0301                	addi	t1,t1,0
     322:	0900                	addi	s0,sp,144
     324:	0000                	unimp
     326:	0301                	addi	t1,t1,0
     328:	0900                	addi	s0,sp,144
     32a:	0000                	unimp
     32c:	0501                	addi	a0,a0,0
     32e:	0601                	addi	a2,a2,0
     330:	0e097903          	0xe097903
     334:	0100                	addi	s0,sp,128
     336:	0305                	addi	t1,t1,1
     338:	0306                	slli	t1,t1,0x1
     33a:	00040907          	0x40907
     33e:	0301                	addi	t1,t1,0
     340:	0900                	addi	s0,sp,144
     342:	0000                	unimp
     344:	0301                	addi	t1,t1,0
     346:	0900                	addi	s0,sp,144
     348:	0004                	0x4
     34a:	0301                	addi	t1,t1,0
     34c:	0900                	addi	s0,sp,144
     34e:	0004                	0x4
     350:	0301                	addi	t1,t1,0
     352:	0901                	addi	s2,s2,0
     354:	0000                	unimp
     356:	0301                	addi	t1,t1,0
     358:	0900                	addi	s0,sp,144
     35a:	0000                	unimp
     35c:	0301                	addi	t1,t1,0
     35e:	0900                	addi	s0,sp,144
     360:	0000                	unimp
     362:	0301                	addi	t1,t1,0
     364:	0900                	addi	s0,sp,144
     366:	0000                	unimp
     368:	0601                	addi	a2,a2,0
     36a:	00090103          	lb	sp,0(s2)
     36e:	0100                	addi	s0,sp,128
     370:	04097f03          	0x4097f03
     374:	0100                	addi	s0,sp,128
     376:	0306                	slli	t1,t1,0x1
     378:	0900                	addi	s0,sp,144
     37a:	0008                	0x8
     37c:	0301                	addi	t1,t1,0
     37e:	0900                	addi	s0,sp,144
     380:	0000                	unimp
     382:	0301                	addi	t1,t1,0
     384:	0900                	addi	s0,sp,144
     386:	0004                	0x4
     388:	0301                	addi	t1,t1,0
     38a:	0900                	addi	s0,sp,144
     38c:	0002                	c.slli64	zero
     38e:	0301                	addi	t1,t1,0
     390:	0901                	addi	s2,s2,0
     392:	0000                	unimp
     394:	0301                	addi	t1,t1,0
     396:	0900                	addi	s0,sp,144
     398:	0000                	unimp
     39a:	0301                	addi	t1,t1,0
     39c:	0900                	addi	s0,sp,144
     39e:	0000                	unimp
     3a0:	0301                	addi	t1,t1,0
     3a2:	0900                	addi	s0,sp,144
     3a4:	0000                	unimp
     3a6:	0301                	addi	t1,t1,0
     3a8:	0900                	addi	s0,sp,144
     3aa:	0000                	unimp
     3ac:	0001                	nop
     3ae:	0402                	c.slli64	s0
     3b0:	0614                	addi	a3,sp,768
     3b2:	04090003          	lb	zero,64(s2)
     3b6:	0100                	addi	s0,sp,128
     3b8:	08090003          	lb	zero,128(s2)
     3bc:	0100                	addi	s0,sp,128
     3be:	0200                	addi	s0,sp,256
     3c0:	1704                	addi	s1,sp,928
     3c2:	04090003          	lb	zero,64(s2)
     3c6:	0100                	addi	s0,sp,128
     3c8:	0200                	addi	s0,sp,256
     3ca:	1804                	addi	s1,sp,48
     3cc:	04090003          	lb	zero,64(s2)
     3d0:	0100                	addi	s0,sp,128
     3d2:	0200                	addi	s0,sp,256
     3d4:	3e04                	fld	fs1,56(a2)
     3d6:	0306                	slli	t1,t1,0x1
     3d8:	0900                	addi	s0,sp,144
     3da:	0008                	0x8
     3dc:	0001                	nop
     3de:	0402                	c.slli64	s0
     3e0:	033e                	slli	t1,t1,0xf
     3e2:	0900                	addi	s0,sp,144
     3e4:	0000                	unimp
     3e6:	0001                	nop
     3e8:	0402                	c.slli64	s0
     3ea:	033e                	slli	t1,t1,0xf
     3ec:	0900                	addi	s0,sp,144
     3ee:	0000                	unimp
     3f0:	0001                	nop
     3f2:	0402                	c.slli64	s0
     3f4:	033e                	slli	t1,t1,0xf
     3f6:	0900                	addi	s0,sp,144
     3f8:	0000                	unimp
     3fa:	0001                	nop
     3fc:	0402                	c.slli64	s0
     3fe:	033e                	slli	t1,t1,0xf
     400:	0900                	addi	s0,sp,144
     402:	0000                	unimp
     404:	0001                	nop
     406:	0402                	c.slli64	s0
     408:	033e                	slli	t1,t1,0xf
     40a:	0900                	addi	s0,sp,144
     40c:	0000                	unimp
     40e:	0001                	nop
     410:	0402                	c.slli64	s0
     412:	033e                	slli	t1,t1,0xf
     414:	0900                	addi	s0,sp,144
     416:	0000                	unimp
     418:	0001                	nop
     41a:	0402                	c.slli64	s0
     41c:	033e                	slli	t1,t1,0xf
     41e:	0900                	addi	s0,sp,144
     420:	0000                	unimp
     422:	0001                	nop
     424:	0402                	c.slli64	s0
     426:	033e                	slli	t1,t1,0xf
     428:	0900                	addi	s0,sp,144
     42a:	0000                	unimp
     42c:	0001                	nop
     42e:	0402                	c.slli64	s0
     430:	033e                	slli	t1,t1,0xf
     432:	0900                	addi	s0,sp,144
     434:	0000                	unimp
     436:	0001                	nop
     438:	0402                	c.slli64	s0
     43a:	033e                	slli	t1,t1,0xf
     43c:	0900                	addi	s0,sp,144
     43e:	0000                	unimp
     440:	0001                	nop
     442:	0402                	c.slli64	s0
     444:	033e                	slli	t1,t1,0xf
     446:	0900                	addi	s0,sp,144
     448:	0000                	unimp
     44a:	0001                	nop
     44c:	0402                	c.slli64	s0
     44e:	0003063f 01000409 	0x10004090003063f
     456:	0200                	addi	s0,sp,256
     458:	3f04                	fld	fs1,56(a4)
     45a:	0306                	slli	t1,t1,0x1
     45c:	0900                	addi	s0,sp,144
     45e:	0008                	0x8
     460:	0001                	nop
     462:	0402                	c.slli64	s0
     464:	0645                	addi	a2,a2,17
     466:	02090003          	lb	zero,32(s2)
     46a:	0100                	addi	s0,sp,128
     46c:	0306                	slli	t1,t1,0x1
     46e:	0900                	addi	s0,sp,144
     470:	0004                	0x4
     472:	0301                	addi	t1,t1,0
     474:	0900                	addi	s0,sp,144
     476:	0002                	c.slli64	zero
     478:	0301                	addi	t1,t1,0
     47a:	0900                	addi	s0,sp,144
     47c:	0000                	unimp
     47e:	0301                	addi	t1,t1,0
     480:	0900                	addi	s0,sp,144
     482:	0000                	unimp
     484:	0001                	nop
     486:	0402                	c.slli64	s0
     488:	035f 0900 0004      	0x40900035f
     48e:	0001                	nop
     490:	0402                	c.slli64	s0
     492:	09000377          	0x9000377
     496:	0004                	0x4
     498:	0601                	addi	a2,a2,0
     49a:	02090003          	lb	zero,32(s2)
     49e:	0100                	addi	s0,sp,128
     4a0:	0200                	addi	s0,sp,256
     4a2:	5004                	lw	s1,32(s0)
     4a4:	0306                	slli	t1,t1,0x1
     4a6:	0900                	addi	s0,sp,144
     4a8:	0004                	0x4
     4aa:	0001                	nop
     4ac:	0402                	c.slli64	s0
     4ae:	0350                	addi	a2,sp,388
     4b0:	0900                	addi	s0,sp,144
     4b2:	0000                	unimp
     4b4:	0601                	addi	a2,a2,0
     4b6:	04090003          	lb	zero,64(s2)
     4ba:	0100                	addi	s0,sp,128
     4bc:	0200                	addi	s0,sp,256
     4be:	6604                	flw	fs1,8(a2)
     4c0:	0306                	slli	t1,t1,0x1
     4c2:	0900                	addi	s0,sp,144
     4c4:	0004                	0x4
     4c6:	0001                	nop
     4c8:	01820403          	lb	s0,24(tp) # 1d018 <.LC0+0x18ec8>
     4cc:	04090003          	lb	zero,64(s2)
     4d0:	0100                	addi	s0,sp,128
     4d2:	0105                	addi	sp,sp,1
     4d4:	0306                	slli	t1,t1,0x1
     4d6:	0904                	addi	s1,sp,144
     4d8:	0002                	c.slli64	zero
     4da:	0501                	addi	a0,a0,0
     4dc:	04020003          	lb	zero,64(tp) # 40 <.LASF24+0x17>
     4e0:	066d                	addi	a2,a2,27
     4e2:	02097c03          	0x2097c03
     4e6:	0100                	addi	s0,sp,128
     4e8:	0200                	addi	s0,sp,256
     4ea:	7404                	flw	fs1,40(s0)
     4ec:	0306                	slli	t1,t1,0x1
     4ee:	0900                	addi	s0,sp,144
     4f0:	0004                	0x4
     4f2:	0001                	nop
     4f4:	0402                	c.slli64	s0
     4f6:	0375                	addi	t1,t1,29
     4f8:	0900                	addi	s0,sp,144
     4fa:	0004                	0x4
     4fc:	0001                	nop
     4fe:	01800403          	lb	s0,24(zero) # 18 <_call_main>
     502:	0306                	slli	t1,t1,0x1
     504:	0900                	addi	s0,sp,144
     506:	0004                	0x4
     508:	0601                	addi	a2,a2,0
     50a:	04090003          	lb	zero,64(s2)
     50e:	0100                	addi	s0,sp,128
     510:	0306                	slli	t1,t1,0x1
     512:	0900                	addi	s0,sp,144
     514:	0008                	0x8
     516:	0301                	addi	t1,t1,0
     518:	0900                	addi	s0,sp,144
     51a:	0004                	0x4
     51c:	0301                	addi	t1,t1,0
     51e:	0900                	addi	s0,sp,144
     520:	000a                	c.slli	zero,0x2
     522:	0901                	addi	s2,s2,0
     524:	0006                	c.slli	zero,0x1
     526:	0100                	addi	s0,sp,128
     528:	                	andi	a4,a4,-32

00000529 <.Ldebug_line0>:
     529:	00000d9b          	0xd9b
     52d:	005c0003          	lb	zero,5(s8) # 17005 <.LC0+0x12eb5>
     531:	0000                	unimp
     533:	0101                	addi	sp,sp,0
     535:	000d0efb          	0xd0efb
     539:	0101                	addi	sp,sp,0
     53b:	0101                	addi	sp,sp,0
     53d:	0000                	unimp
     53f:	0100                	addi	s0,sp,128
     541:	0000                	unimp
     543:	2e01                	jal	853 <.L91+0x33>
     545:	2f2e                	fld	ft10,200(sp)
     547:	2e2e                	fld	ft8,200(sp)
     549:	2f2e2e2f          	0x2f2e2e2f
     54d:	2f2e                	fld	ft10,200(sp)
     54f:	6972                	flw	fs2,28(sp)
     551:	2d766373          	csrrsi	t1,0x2d7,12
     555:	2f636367          	0x2f636367
     559:	696c                	flw	fa1,84(a0)
     55b:	6762                	flw	fa4,24(sp)
     55d:	732f6363          	bltu	t5,s2,c83 <.LVL100+0x1>
     561:	2d74666f          	jal	a2,47037 <.LC0+0x42ee7>
     565:	7066                	flw	ft0,120(sp)
     567:	0000                	unimp
     569:	756d                	lui	a0,0xffffb
     56b:	646c                	flw	fa1,76(s0)
     56d:	3366                	fld	ft6,120(sp)
     56f:	632e                	flw	ft6,200(sp)
     571:	0100                	addi	s0,sp,128
     573:	0000                	unimp
     575:	74666f73          	csrrsi	t5,0x746,12
     579:	662d                	lui	a2,0xb
     57b:	2e70                	fld	fa2,216(a2)
     57d:	0068                	addi	a0,sp,12
     57f:	0001                	nop
     581:	6400                	flw	fs0,8(s0)
     583:	6c62756f          	jal	a0,27c49 <.LC0+0x23af9>
     587:	2e65                	jal	93f <.LBB5+0x5>
     589:	0068                	addi	a0,sp,12
     58b:	0001                	nop
     58d:	0000                	unimp
     58f:	0105                	addi	sp,sp,1
     591:	0500                	addi	s0,sp,640
     593:	3002                	fld	ft0,32(sp)
     595:	000a                	c.slli	zero,0x2
     597:	0300                	addi	s0,sp,384
     599:	03050123          	sb	a6,34(a0) # ffffb022 <.LC0+0xffff6ed2>
     59d:	00090103          	lb	sp,0(s2)
     5a1:	0100                	addi	s0,sp,128
     5a3:	00090003          	lb	zero,0(s2)
     5a7:	0100                	addi	s0,sp,128
     5a9:	0d05                	addi	s10,s10,1
     5ab:	00090003          	lb	zero,0(s2)
     5af:	0100                	addi	s0,sp,128
     5b1:	0305                	addi	t1,t1,1
     5b3:	00090103          	lb	sp,0(s2)
     5b7:	0100                	addi	s0,sp,128
     5b9:	00090003          	lb	zero,0(s2)
     5bd:	0100                	addi	s0,sp,128
     5bf:	00090003          	lb	zero,0(s2)
     5c3:	0100                	addi	s0,sp,128
     5c5:	00090003          	lb	zero,0(s2)
     5c9:	0100                	addi	s0,sp,128
     5cb:	00090103          	lb	sp,0(s2)
     5cf:	0100                	addi	s0,sp,128
     5d1:	00090003          	lb	zero,0(s2)
     5d5:	0100                	addi	s0,sp,128
     5d7:	00090003          	lb	zero,0(s2)
     5db:	0100                	addi	s0,sp,128
     5dd:	00090003          	lb	zero,0(s2)
     5e1:	0100                	addi	s0,sp,128
     5e3:	00090103          	lb	sp,0(s2)
     5e7:	0100                	addi	s0,sp,128
     5e9:	00090003          	lb	zero,0(s2)
     5ed:	0100                	addi	s0,sp,128
     5ef:	00090003          	lb	zero,0(s2)
     5f3:	0100                	addi	s0,sp,128
     5f5:	00090003          	lb	zero,0(s2)
     5f9:	0100                	addi	s0,sp,128
     5fb:	00090103          	lb	sp,0(s2)
     5ff:	0100                	addi	s0,sp,128
     601:	00090203          	lb	tp,0(s2)
     605:	0100                	addi	s0,sp,128
     607:	00090103          	lb	sp,0(s2)
     60b:	0100                	addi	s0,sp,128
     60d:	00090003          	lb	zero,0(s2)
     611:	0100                	addi	s0,sp,128
     613:	00090003          	lb	zero,0(s2)
     617:	0100                	addi	s0,sp,128
     619:	00090003          	lb	zero,0(s2)
     61d:	0100                	addi	s0,sp,128
     61f:	00090003          	lb	zero,0(s2)
     623:	0100                	addi	s0,sp,128
     625:	00090003          	lb	zero,0(s2)
     629:	0100                	addi	s0,sp,128
     62b:	0105                	addi	sp,sp,1
     62d:	0306                	slli	t1,t1,0x1
     62f:	0978                	addi	a4,sp,156
     631:	0000                	unimp
     633:	0501                	addi	a0,a0,0
     635:	09080303          	lb	t1,144(a6)
     639:	0004                	0x4
     63b:	0501                	addi	a0,a0,0
     63d:	0301                	addi	t1,t1,0
     63f:	0978                	addi	a4,sp,156
     641:	0004                	0x4
     643:	0501                	addi	a0,a0,0
     645:	09080303          	lb	t1,144(a6)
     649:	000a                	c.slli	zero,0x2
     64b:	0501                	addi	a0,a0,0
     64d:	0301                	addi	t1,t1,0
     64f:	0978                	addi	a4,sp,156
     651:	0004                	0x4
     653:	0501                	addi	a0,a0,0
     655:	09080303          	lb	t1,144(a6)
     659:	0006                	c.slli	zero,0x1
     65b:	0501                	addi	a0,a0,0
     65d:	0301                	addi	t1,t1,0
     65f:	0978                	addi	a4,sp,156
     661:	0004                	0x4
     663:	0501                	addi	a0,a0,0
     665:	09080303          	lb	t1,144(a6)
     669:	0006                	c.slli	zero,0x1
     66b:	0601                	addi	a2,a2,0
     66d:	02090003          	lb	zero,32(s2)
     671:	0100                	addi	s0,sp,128
     673:	00090003          	lb	zero,0(s2)
     677:	0100                	addi	s0,sp,128
     679:	04090003          	lb	zero,64(s2)
     67d:	0100                	addi	s0,sp,128
     67f:	00090003          	lb	zero,0(s2)
     683:	0100                	addi	s0,sp,128
     685:	00090003          	lb	zero,0(s2)
     689:	0100                	addi	s0,sp,128
     68b:	0200                	addi	s0,sp,256
     68d:	0104                	addi	s1,sp,128
     68f:	0c090003          	lb	zero,192(s2)
     693:	0100                	addi	s0,sp,128
     695:	0200                	addi	s0,sp,256
     697:	0104                	addi	s1,sp,128
     699:	00090003          	lb	zero,0(s2)
     69d:	0100                	addi	s0,sp,128
     69f:	0200                	addi	s0,sp,256
     6a1:	0104                	addi	s1,sp,128
     6a3:	00090003          	lb	zero,0(s2)
     6a7:	0100                	addi	s0,sp,128
     6a9:	0200                	addi	s0,sp,256
     6ab:	0104                	addi	s1,sp,128
     6ad:	00090003          	lb	zero,0(s2)
     6b1:	0100                	addi	s0,sp,128
     6b3:	0200                	addi	s0,sp,256
     6b5:	0104                	addi	s1,sp,128
     6b7:	0e090003          	lb	zero,224(s2)
     6bb:	0100                	addi	s0,sp,128
     6bd:	0200                	addi	s0,sp,256
     6bf:	0104                	addi	s1,sp,128
     6c1:	04090003          	lb	zero,64(s2)
     6c5:	0100                	addi	s0,sp,128
     6c7:	0200                	addi	s0,sp,256
     6c9:	0104                	addi	s1,sp,128
     6cb:	00090003          	lb	zero,0(s2)
     6cf:	0100                	addi	s0,sp,128
     6d1:	0200                	addi	s0,sp,256
     6d3:	0104                	addi	s1,sp,128
     6d5:	04090003          	lb	zero,64(s2)
     6d9:	0100                	addi	s0,sp,128
     6db:	0200                	addi	s0,sp,256
     6dd:	0104                	addi	s1,sp,128
     6df:	00090003          	lb	zero,0(s2)
     6e3:	0100                	addi	s0,sp,128
     6e5:	0200                	addi	s0,sp,256
     6e7:	2904                	fld	fs1,16(a0)
     6e9:	00090003          	lb	zero,0(s2)
     6ed:	0100                	addi	s0,sp,128
     6ef:	0200                	addi	s0,sp,256
     6f1:	2904                	fld	fs1,16(a0)
     6f3:	00090003          	lb	zero,0(s2)
     6f7:	0100                	addi	s0,sp,128
     6f9:	0200                	addi	s0,sp,256
     6fb:	0804                	addi	s1,sp,16
     6fd:	02090003          	lb	zero,32(s2)
     701:	0100                	addi	s0,sp,128
     703:	0200                	addi	s0,sp,256
     705:	0804                	addi	s1,sp,16
     707:	00090003          	lb	zero,0(s2)
     70b:	0100                	addi	s0,sp,128
     70d:	0200                	addi	s0,sp,256
     70f:	0804                	addi	s1,sp,16
     711:	00090103          	lb	sp,0(s2)
     715:	0100                	addi	s0,sp,128
     717:	0200                	addi	s0,sp,256
     719:	0804                	addi	s1,sp,16
     71b:	00090003          	lb	zero,0(s2)
     71f:	0100                	addi	s0,sp,128
     721:	0200                	addi	s0,sp,256
     723:	0804                	addi	s1,sp,16
     725:	00090003          	lb	zero,0(s2)
     729:	0100                	addi	s0,sp,128
     72b:	0200                	addi	s0,sp,256
     72d:	0804                	addi	s1,sp,16
     72f:	00090003          	lb	zero,0(s2)
     733:	0100                	addi	s0,sp,128
     735:	0200                	addi	s0,sp,256
     737:	0804                	addi	s1,sp,16
     739:	00090003          	lb	zero,0(s2)
     73d:	0100                	addi	s0,sp,128
     73f:	0200                	addi	s0,sp,256
     741:	0804                	addi	s1,sp,16
     743:	00090003          	lb	zero,0(s2)
     747:	0100                	addi	s0,sp,128
     749:	0200                	addi	s0,sp,256
     74b:	0804                	addi	s1,sp,16
     74d:	0e090003          	lb	zero,224(s2)
     751:	0100                	addi	s0,sp,128
     753:	0200                	addi	s0,sp,256
     755:	0804                	addi	s1,sp,16
     757:	00090003          	lb	zero,0(s2)
     75b:	0100                	addi	s0,sp,128
     75d:	0200                	addi	s0,sp,256
     75f:	0804                	addi	s1,sp,16
     761:	04090003          	lb	zero,64(s2)
     765:	0100                	addi	s0,sp,128
     767:	0200                	addi	s0,sp,256
     769:	0804                	addi	s1,sp,16
     76b:	00090003          	lb	zero,0(s2)
     76f:	0100                	addi	s0,sp,128
     771:	0200                	addi	s0,sp,256
     773:	0804                	addi	s1,sp,16
     775:	00090003          	lb	zero,0(s2)
     779:	0100                	addi	s0,sp,128
     77b:	0306                	slli	t1,t1,0x1
     77d:	0900                	addi	s0,sp,144
     77f:	0002                	c.slli64	zero
     781:	0001                	nop
     783:	0402                	c.slli64	s0
     785:	0601                	addi	a2,a2,0
     787:	08090003          	lb	zero,128(s2)
     78b:	0100                	addi	s0,sp,128
     78d:	0200                	addi	s0,sp,256
     78f:	0104                	addi	s1,sp,128
     791:	00090003          	lb	zero,0(s2)
     795:	0100                	addi	s0,sp,128
     797:	0200                	addi	s0,sp,256
     799:	0104                	addi	s1,sp,128
     79b:	00090003          	lb	zero,0(s2)
     79f:	0100                	addi	s0,sp,128
     7a1:	0200                	addi	s0,sp,256
     7a3:	0104                	addi	s1,sp,128
     7a5:	00090003          	lb	zero,0(s2)
     7a9:	0100                	addi	s0,sp,128
     7ab:	0200                	addi	s0,sp,256
     7ad:	0104                	addi	s1,sp,128
     7af:	0e090003          	lb	zero,224(s2)
     7b3:	0100                	addi	s0,sp,128
     7b5:	0200                	addi	s0,sp,256
     7b7:	0104                	addi	s1,sp,128
     7b9:	08090003          	lb	zero,128(s2)
     7bd:	0100                	addi	s0,sp,128
     7bf:	0200                	addi	s0,sp,256
     7c1:	0104                	addi	s1,sp,128
     7c3:	00090003          	lb	zero,0(s2)
     7c7:	0100                	addi	s0,sp,128
     7c9:	0200                	addi	s0,sp,256
     7cb:	0104                	addi	s1,sp,128
     7cd:	00090003          	lb	zero,0(s2)
     7d1:	0100                	addi	s0,sp,128
     7d3:	0200                	addi	s0,sp,256
     7d5:	0104                	addi	s1,sp,128
     7d7:	00090003          	lb	zero,0(s2)
     7db:	0100                	addi	s0,sp,128
     7dd:	0200                	addi	s0,sp,256
     7df:	2904                	fld	fs1,16(a0)
     7e1:	00090003          	lb	zero,0(s2)
     7e5:	0100                	addi	s0,sp,128
     7e7:	0200                	addi	s0,sp,256
     7e9:	2904                	fld	fs1,16(a0)
     7eb:	00090003          	lb	zero,0(s2)
     7ef:	0100                	addi	s0,sp,128
     7f1:	0200                	addi	s0,sp,256
     7f3:	0804                	addi	s1,sp,16
     7f5:	02090003          	lb	zero,32(s2)
     7f9:	0100                	addi	s0,sp,128
     7fb:	0200                	addi	s0,sp,256
     7fd:	0804                	addi	s1,sp,16
     7ff:	00090003          	lb	zero,0(s2)
     803:	0100                	addi	s0,sp,128
     805:	0200                	addi	s0,sp,256
     807:	0804                	addi	s1,sp,16
     809:	00090103          	lb	sp,0(s2)
     80d:	0100                	addi	s0,sp,128
     80f:	0200                	addi	s0,sp,256
     811:	0804                	addi	s1,sp,16
     813:	00090003          	lb	zero,0(s2)
     817:	0100                	addi	s0,sp,128
     819:	0200                	addi	s0,sp,256
     81b:	0804                	addi	s1,sp,16
     81d:	10090003          	lb	zero,256(s2)
     821:	0100                	addi	s0,sp,128
     823:	0200                	addi	s0,sp,256
     825:	0804                	addi	s1,sp,16
     827:	04090003          	lb	zero,64(s2)
     82b:	0100                	addi	s0,sp,128
     82d:	0200                	addi	s0,sp,256
     82f:	0204                	addi	s1,sp,256
     831:	12097e03          	0x12097e03
     835:	0100                	addi	s0,sp,128
     837:	0200                	addi	s0,sp,256
     839:	0d04                	addi	s1,sp,656
     83b:	08090003          	lb	zero,128(s2)
     83f:	0100                	addi	s0,sp,128
     841:	0200                	addi	s0,sp,256
     843:	0d04                	addi	s1,sp,656
     845:	00090003          	lb	zero,0(s2)
     849:	0100                	addi	s0,sp,128
     84b:	0200                	addi	s0,sp,256
     84d:	0d04                	addi	s1,sp,656
     84f:	00090003          	lb	zero,0(s2)
     853:	0100                	addi	s0,sp,128
     855:	0200                	addi	s0,sp,256
     857:	0d04                	addi	s1,sp,656
     859:	00090003          	lb	zero,0(s2)
     85d:	0100                	addi	s0,sp,128
     85f:	0200                	addi	s0,sp,256
     861:	1104                	addi	s1,sp,160
     863:	02090003          	lb	zero,32(s2)
     867:	0100                	addi	s0,sp,128
     869:	0200                	addi	s0,sp,256
     86b:	1104                	addi	s1,sp,160
     86d:	00090003          	lb	zero,0(s2)
     871:	0100                	addi	s0,sp,128
     873:	0200                	addi	s0,sp,256
     875:	1104                	addi	s1,sp,160
     877:	00090003          	lb	zero,0(s2)
     87b:	0100                	addi	s0,sp,128
     87d:	0200                	addi	s0,sp,256
     87f:	1104                	addi	s1,sp,160
     881:	00090003          	lb	zero,0(s2)
     885:	0100                	addi	s0,sp,128
     887:	0200                	addi	s0,sp,256
     889:	1104                	addi	s1,sp,160
     88b:	06090003          	lb	zero,96(s2)
     88f:	0100                	addi	s0,sp,128
     891:	0200                	addi	s0,sp,256
     893:	1f04                	addi	s1,sp,944
     895:	00090003          	lb	zero,0(s2)
     899:	0100                	addi	s0,sp,128
     89b:	0200                	addi	s0,sp,256
     89d:	1f04                	addi	s1,sp,944
     89f:	00090003          	lb	zero,0(s2)
     8a3:	0100                	addi	s0,sp,128
     8a5:	0200                	addi	s0,sp,256
     8a7:	1f04                	addi	s1,sp,944
     8a9:	04090003          	lb	zero,64(s2)
     8ad:	0100                	addi	s0,sp,128
     8af:	0200                	addi	s0,sp,256
     8b1:	2004                	fld	fs1,0(s0)
     8b3:	06090003          	lb	zero,96(s2)
     8b7:	0100                	addi	s0,sp,128
     8b9:	0200                	addi	s0,sp,256
     8bb:	2004                	fld	fs1,0(s0)
     8bd:	06090003          	lb	zero,96(s2)
     8c1:	0100                	addi	s0,sp,128
     8c3:	0200                	addi	s0,sp,256
     8c5:	2004                	fld	fs1,0(s0)
     8c7:	0c090003          	lb	zero,192(s2)
     8cb:	0100                	addi	s0,sp,128
     8cd:	0200                	addi	s0,sp,256
     8cf:	2004                	fld	fs1,0(s0)
     8d1:	04090003          	lb	zero,64(s2)
     8d5:	0100                	addi	s0,sp,128
     8d7:	0200                	addi	s0,sp,256
     8d9:	2904                	fld	fs1,16(a0)
     8db:	00090003          	lb	zero,0(s2)
     8df:	0100                	addi	s0,sp,128
     8e1:	0200                	addi	s0,sp,256
     8e3:	1804                	addi	s1,sp,48
     8e5:	0a090003          	lb	zero,160(s2)
     8e9:	0100                	addi	s0,sp,128
     8eb:	0200                	addi	s0,sp,256
     8ed:	1804                	addi	s1,sp,48
     8ef:	00090003          	lb	zero,0(s2)
     8f3:	0100                	addi	s0,sp,128
     8f5:	0200                	addi	s0,sp,256
     8f7:	1804                	addi	s1,sp,48
     8f9:	00090003          	lb	zero,0(s2)
     8fd:	0100                	addi	s0,sp,128
     8ff:	0200                	addi	s0,sp,256
     901:	1804                	addi	s1,sp,48
     903:	00090003          	lb	zero,0(s2)
     907:	0100                	addi	s0,sp,128
     909:	0200                	addi	s0,sp,256
     90b:	1804                	addi	s1,sp,48
     90d:	04090003          	lb	zero,64(s2)
     911:	0100                	addi	s0,sp,128
     913:	0200                	addi	s0,sp,256
     915:	1804                	addi	s1,sp,48
     917:	00090003          	lb	zero,0(s2)
     91b:	0100                	addi	s0,sp,128
     91d:	0200                	addi	s0,sp,256
     91f:	2104                	fld	fs1,0(a0)
     921:	06090003          	lb	zero,96(s2)
     925:	0100                	addi	s0,sp,128
     927:	0200                	addi	s0,sp,256
     929:	2104                	fld	fs1,0(a0)
     92b:	08090003          	lb	zero,128(s2)
     92f:	0100                	addi	s0,sp,128
     931:	0200                	addi	s0,sp,256
     933:	0304                	addi	s1,sp,384
     935:	04090003          	lb	zero,64(s2)
     939:	0100                	addi	s0,sp,128
     93b:	0306                	slli	t1,t1,0x1
     93d:	0900                	addi	s0,sp,144
     93f:	0008                	0x8
     941:	0001                	nop
     943:	0402                	c.slli64	s0
     945:	0602                	c.slli64	a2
     947:	1c090103          	lb	sp,448(s2)
     94b:	0100                	addi	s0,sp,128
     94d:	0200                	addi	s0,sp,256
     94f:	0d04                	addi	s1,sp,656
     951:	06090003          	lb	zero,96(s2)
     955:	0100                	addi	s0,sp,128
     957:	0200                	addi	s0,sp,256
     959:	0d04                	addi	s1,sp,656
     95b:	00090003          	lb	zero,0(s2)
     95f:	0100                	addi	s0,sp,128
     961:	0200                	addi	s0,sp,256
     963:	0d04                	addi	s1,sp,656
     965:	00090003          	lb	zero,0(s2)
     969:	0100                	addi	s0,sp,128
     96b:	0200                	addi	s0,sp,256
     96d:	0d04                	addi	s1,sp,656
     96f:	00090003          	lb	zero,0(s2)
     973:	0100                	addi	s0,sp,128
     975:	0200                	addi	s0,sp,256
     977:	1104                	addi	s1,sp,160
     979:	02090003          	lb	zero,32(s2)
     97d:	0100                	addi	s0,sp,128
     97f:	0200                	addi	s0,sp,256
     981:	1104                	addi	s1,sp,160
     983:	00090003          	lb	zero,0(s2)
     987:	0100                	addi	s0,sp,128
     989:	0200                	addi	s0,sp,256
     98b:	1104                	addi	s1,sp,160
     98d:	00090003          	lb	zero,0(s2)
     991:	0100                	addi	s0,sp,128
     993:	0200                	addi	s0,sp,256
     995:	1104                	addi	s1,sp,160
     997:	00090003          	lb	zero,0(s2)
     99b:	0100                	addi	s0,sp,128
     99d:	0200                	addi	s0,sp,256
     99f:	1104                	addi	s1,sp,160
     9a1:	06090003          	lb	zero,96(s2)
     9a5:	0100                	addi	s0,sp,128
     9a7:	0200                	addi	s0,sp,256
     9a9:	1f04                	addi	s1,sp,944
     9ab:	00090003          	lb	zero,0(s2)
     9af:	0100                	addi	s0,sp,128
     9b1:	0200                	addi	s0,sp,256
     9b3:	1f04                	addi	s1,sp,944
     9b5:	00090003          	lb	zero,0(s2)
     9b9:	0100                	addi	s0,sp,128
     9bb:	0200                	addi	s0,sp,256
     9bd:	1f04                	addi	s1,sp,944
     9bf:	04090003          	lb	zero,64(s2)
     9c3:	0100                	addi	s0,sp,128
     9c5:	0200                	addi	s0,sp,256
     9c7:	2004                	fld	fs1,0(s0)
     9c9:	06090003          	lb	zero,96(s2)
     9cd:	0100                	addi	s0,sp,128
     9cf:	0200                	addi	s0,sp,256
     9d1:	2004                	fld	fs1,0(s0)
     9d3:	06090003          	lb	zero,96(s2)
     9d7:	0100                	addi	s0,sp,128
     9d9:	0200                	addi	s0,sp,256
     9db:	2004                	fld	fs1,0(s0)
     9dd:	0c090003          	lb	zero,192(s2)
     9e1:	0100                	addi	s0,sp,128
     9e3:	0200                	addi	s0,sp,256
     9e5:	2004                	fld	fs1,0(s0)
     9e7:	04090003          	lb	zero,64(s2)
     9eb:	0100                	addi	s0,sp,128
     9ed:	0200                	addi	s0,sp,256
     9ef:	2904                	fld	fs1,16(a0)
     9f1:	00090003          	lb	zero,0(s2)
     9f5:	0100                	addi	s0,sp,128
     9f7:	0200                	addi	s0,sp,256
     9f9:	1804                	addi	s1,sp,48
     9fb:	0a090003          	lb	zero,160(s2)
     9ff:	0100                	addi	s0,sp,128
     a01:	0200                	addi	s0,sp,256
     a03:	1804                	addi	s1,sp,48
     a05:	00090003          	lb	zero,0(s2)
     a09:	0100                	addi	s0,sp,128
     a0b:	0200                	addi	s0,sp,256
     a0d:	1804                	addi	s1,sp,48
     a0f:	00090003          	lb	zero,0(s2)
     a13:	0100                	addi	s0,sp,128
     a15:	0200                	addi	s0,sp,256
     a17:	1804                	addi	s1,sp,48
     a19:	00090003          	lb	zero,0(s2)
     a1d:	0100                	addi	s0,sp,128
     a1f:	0200                	addi	s0,sp,256
     a21:	1804                	addi	s1,sp,48
     a23:	06090003          	lb	zero,96(s2)
     a27:	0100                	addi	s0,sp,128
     a29:	0200                	addi	s0,sp,256
     a2b:	1804                	addi	s1,sp,48
     a2d:	00090003          	lb	zero,0(s2)
     a31:	0100                	addi	s0,sp,128
     a33:	0200                	addi	s0,sp,256
     a35:	2104                	fld	fs1,0(a0)
     a37:	06090003          	lb	zero,96(s2)
     a3b:	0100                	addi	s0,sp,128
     a3d:	0200                	addi	s0,sp,256
     a3f:	2104                	fld	fs1,0(a0)
     a41:	08090003          	lb	zero,128(s2)
     a45:	0100                	addi	s0,sp,128
     a47:	0200                	addi	s0,sp,256
     a49:	0304                	addi	s1,sp,384
     a4b:	04090003          	lb	zero,64(s2)
     a4f:	0100                	addi	s0,sp,128
     a51:	0306                	slli	t1,t1,0x1
     a53:	0900                	addi	s0,sp,144
     a55:	0006                	c.slli	zero,0x1
     a57:	0001                	nop
     a59:	0402                	c.slli64	s0
     a5b:	0602                	c.slli64	a2
     a5d:	1c090103          	lb	sp,448(s2)
     a61:	0100                	addi	s0,sp,128
     a63:	0200                	addi	s0,sp,256
     a65:	0204                	addi	s1,sp,256
     a67:	00090003          	lb	zero,0(s2)
     a6b:	0100                	addi	s0,sp,128
     a6d:	0200                	addi	s0,sp,256
     a6f:	0204                	addi	s1,sp,256
     a71:	00090003          	lb	zero,0(s2)
     a75:	0100                	addi	s0,sp,128
     a77:	0200                	addi	s0,sp,256
     a79:	0204                	addi	s1,sp,256
     a7b:	00090003          	lb	zero,0(s2)
     a7f:	0100                	addi	s0,sp,128
     a81:	0200                	addi	s0,sp,256
     a83:	0204                	addi	s1,sp,256
     a85:	00090003          	lb	zero,0(s2)
     a89:	0100                	addi	s0,sp,128
     a8b:	0200                	addi	s0,sp,256
     a8d:	0204                	addi	s1,sp,256
     a8f:	00090003          	lb	zero,0(s2)
     a93:	0100                	addi	s0,sp,128
     a95:	0200                	addi	s0,sp,256
     a97:	0204                	addi	s1,sp,256
     a99:	00090003          	lb	zero,0(s2)
     a9d:	0100                	addi	s0,sp,128
     a9f:	0200                	addi	s0,sp,256
     aa1:	0204                	addi	s1,sp,256
     aa3:	00090003          	lb	zero,0(s2)
     aa7:	0100                	addi	s0,sp,128
     aa9:	0200                	addi	s0,sp,256
     aab:	0204                	addi	s1,sp,256
     aad:	00090003          	lb	zero,0(s2)
     ab1:	0100                	addi	s0,sp,128
     ab3:	0200                	addi	s0,sp,256
     ab5:	0204                	addi	s1,sp,256
     ab7:	00090003          	lb	zero,0(s2)
     abb:	0100                	addi	s0,sp,128
     abd:	0200                	addi	s0,sp,256
     abf:	0204                	addi	s1,sp,256
     ac1:	00090003          	lb	zero,0(s2)
     ac5:	0100                	addi	s0,sp,128
     ac7:	0200                	addi	s0,sp,256
     ac9:	0204                	addi	s1,sp,256
     acb:	0a090003          	lb	zero,160(s2)
     acf:	0100                	addi	s0,sp,128
     ad1:	0200                	addi	s0,sp,256
     ad3:	0204                	addi	s1,sp,256
     ad5:	00090003          	lb	zero,0(s2)
     ad9:	0100                	addi	s0,sp,128
     adb:	0200                	addi	s0,sp,256
     add:	0204                	addi	s1,sp,256
     adf:	04090003          	lb	zero,64(s2)
     ae3:	0100                	addi	s0,sp,128
     ae5:	0200                	addi	s0,sp,256
     ae7:	0204                	addi	s1,sp,256
     ae9:	10090003          	lb	zero,256(s2)
     aed:	0100                	addi	s0,sp,128
     aef:	0200                	addi	s0,sp,256
     af1:	0204                	addi	s1,sp,256
     af3:	00090003          	lb	zero,0(s2)
     af7:	0100                	addi	s0,sp,128
     af9:	0200                	addi	s0,sp,256
     afb:	0204                	addi	s1,sp,256
     afd:	04090003          	lb	zero,64(s2)
     b01:	0100                	addi	s0,sp,128
     b03:	0200                	addi	s0,sp,256
     b05:	0204                	addi	s1,sp,256
     b07:	0e090003          	lb	zero,224(s2)
     b0b:	0100                	addi	s0,sp,128
     b0d:	0200                	addi	s0,sp,256
     b0f:	0204                	addi	s1,sp,256
     b11:	00090003          	lb	zero,0(s2)
     b15:	0100                	addi	s0,sp,128
     b17:	0200                	addi	s0,sp,256
     b19:	0204                	addi	s1,sp,256
     b1b:	00090003          	lb	zero,0(s2)
     b1f:	0100                	addi	s0,sp,128
     b21:	0200                	addi	s0,sp,256
     b23:	0904                	addi	s1,sp,144
     b25:	04090003          	lb	zero,64(s2)
     b29:	0100                	addi	s0,sp,128
     b2b:	0200                	addi	s0,sp,256
     b2d:	0b04                	addi	s1,sp,400
     b2f:	02090003          	lb	zero,32(s2)
     b33:	0100                	addi	s0,sp,128
     b35:	0200                	addi	s0,sp,256
     b37:	0b04                	addi	s1,sp,400
     b39:	04090003          	lb	zero,64(s2)
     b3d:	0100                	addi	s0,sp,128
     b3f:	0200                	addi	s0,sp,256
     b41:	0b04                	addi	s1,sp,400
     b43:	14090003          	lb	zero,320(s2)
     b47:	0100                	addi	s0,sp,128
     b49:	0200                	addi	s0,sp,256
     b4b:	0b04                	addi	s1,sp,400
     b4d:	00090003          	lb	zero,0(s2)
     b51:	0100                	addi	s0,sp,128
     b53:	0200                	addi	s0,sp,256
     b55:	0b04                	addi	s1,sp,400
     b57:	00090003          	lb	zero,0(s2)
     b5b:	0100                	addi	s0,sp,128
     b5d:	0200                	addi	s0,sp,256
     b5f:	0b04                	addi	s1,sp,400
     b61:	00090003          	lb	zero,0(s2)
     b65:	0100                	addi	s0,sp,128
     b67:	0200                	addi	s0,sp,256
     b69:	0b04                	addi	s1,sp,400
     b6b:	00090003          	lb	zero,0(s2)
     b6f:	0100                	addi	s0,sp,128
     b71:	0200                	addi	s0,sp,256
     b73:	0b04                	addi	s1,sp,400
     b75:	00090003          	lb	zero,0(s2)
     b79:	0100                	addi	s0,sp,128
     b7b:	0200                	addi	s0,sp,256
     b7d:	0b04                	addi	s1,sp,400
     b7f:	00090003          	lb	zero,0(s2)
     b83:	0100                	addi	s0,sp,128
     b85:	0200                	addi	s0,sp,256
     b87:	0b04                	addi	s1,sp,400
     b89:	00090003          	lb	zero,0(s2)
     b8d:	0100                	addi	s0,sp,128
     b8f:	0200                	addi	s0,sp,256
     b91:	0b04                	addi	s1,sp,400
     b93:	00090003          	lb	zero,0(s2)
     b97:	0100                	addi	s0,sp,128
     b99:	0200                	addi	s0,sp,256
     b9b:	0b04                	addi	s1,sp,400
     b9d:	08090003          	lb	zero,128(s2)
     ba1:	0100                	addi	s0,sp,128
     ba3:	0200                	addi	s0,sp,256
     ba5:	0b04                	addi	s1,sp,400
     ba7:	00090003          	lb	zero,0(s2)
     bab:	0100                	addi	s0,sp,128
     bad:	0200                	addi	s0,sp,256
     baf:	0b04                	addi	s1,sp,400
     bb1:	00090003          	lb	zero,0(s2)
     bb5:	0100                	addi	s0,sp,128
     bb7:	0200                	addi	s0,sp,256
     bb9:	0b04                	addi	s1,sp,400
     bbb:	12090003          	lb	zero,288(s2)
     bbf:	0100                	addi	s0,sp,128
     bc1:	0200                	addi	s0,sp,256
     bc3:	0b04                	addi	s1,sp,400
     bc5:	00090003          	lb	zero,0(s2)
     bc9:	0100                	addi	s0,sp,128
     bcb:	0200                	addi	s0,sp,256
     bcd:	0b04                	addi	s1,sp,400
     bcf:	00090003          	lb	zero,0(s2)
     bd3:	0100                	addi	s0,sp,128
     bd5:	0200                	addi	s0,sp,256
     bd7:	0c04                	addi	s1,sp,528
     bd9:	04090003          	lb	zero,64(s2)
     bdd:	0100                	addi	s0,sp,128
     bdf:	0200                	addi	s0,sp,256
     be1:	0e04                	addi	s1,sp,784
     be3:	04090003          	lb	zero,64(s2)
     be7:	0100                	addi	s0,sp,128
     be9:	0200                	addi	s0,sp,256
     beb:	0e04                	addi	s1,sp,784
     bed:	08090003          	lb	zero,128(s2)
     bf1:	0100                	addi	s0,sp,128
     bf3:	0200                	addi	s0,sp,256
     bf5:	0e04                	addi	s1,sp,784
     bf7:	1a090003          	lb	zero,416(s2)
     bfb:	0100                	addi	s0,sp,128
     bfd:	0200                	addi	s0,sp,256
     bff:	0e04                	addi	s1,sp,784
     c01:	00090003          	lb	zero,0(s2)
     c05:	0100                	addi	s0,sp,128
     c07:	0200                	addi	s0,sp,256
     c09:	0e04                	addi	s1,sp,784
     c0b:	00090003          	lb	zero,0(s2)
     c0f:	0100                	addi	s0,sp,128
     c11:	0200                	addi	s0,sp,256
     c13:	0e04                	addi	s1,sp,784
     c15:	00090003          	lb	zero,0(s2)
     c19:	0100                	addi	s0,sp,128
     c1b:	0200                	addi	s0,sp,256
     c1d:	0e04                	addi	s1,sp,784
     c1f:	00090003          	lb	zero,0(s2)
     c23:	0100                	addi	s0,sp,128
     c25:	0200                	addi	s0,sp,256
     c27:	0e04                	addi	s1,sp,784
     c29:	00090003          	lb	zero,0(s2)
     c2d:	0100                	addi	s0,sp,128
     c2f:	0200                	addi	s0,sp,256
     c31:	0e04                	addi	s1,sp,784
     c33:	00090003          	lb	zero,0(s2)
     c37:	0100                	addi	s0,sp,128
     c39:	0200                	addi	s0,sp,256
     c3b:	0e04                	addi	s1,sp,784
     c3d:	00090003          	lb	zero,0(s2)
     c41:	0100                	addi	s0,sp,128
     c43:	0200                	addi	s0,sp,256
     c45:	0e04                	addi	s1,sp,784
     c47:	00090003          	lb	zero,0(s2)
     c4b:	0100                	addi	s0,sp,128
     c4d:	0200                	addi	s0,sp,256
     c4f:	0e04                	addi	s1,sp,784
     c51:	00090003          	lb	zero,0(s2)
     c55:	0100                	addi	s0,sp,128
     c57:	0200                	addi	s0,sp,256
     c59:	0e04                	addi	s1,sp,784
     c5b:	00090003          	lb	zero,0(s2)
     c5f:	0100                	addi	s0,sp,128
     c61:	0200                	addi	s0,sp,256
     c63:	0e04                	addi	s1,sp,784
     c65:	04090003          	lb	zero,64(s2)
     c69:	0100                	addi	s0,sp,128
     c6b:	0200                	addi	s0,sp,256
     c6d:	0e04                	addi	s1,sp,784
     c6f:	08090003          	lb	zero,128(s2)
     c73:	0100                	addi	s0,sp,128
     c75:	0200                	addi	s0,sp,256
     c77:	0e04                	addi	s1,sp,784
     c79:	04090003          	lb	zero,64(s2)
     c7d:	0100                	addi	s0,sp,128
     c7f:	0200                	addi	s0,sp,256
     c81:	0e04                	addi	s1,sp,784
     c83:	06090003          	lb	zero,96(s2)
     c87:	0100                	addi	s0,sp,128
     c89:	0200                	addi	s0,sp,256
     c8b:	0f04                	addi	s1,sp,912
     c8d:	04090003          	lb	zero,64(s2)
     c91:	0100                	addi	s0,sp,128
     c93:	0200                	addi	s0,sp,256
     c95:	1104                	addi	s1,sp,160
     c97:	02090003          	lb	zero,32(s2)
     c9b:	0100                	addi	s0,sp,128
     c9d:	0200                	addi	s0,sp,256
     c9f:	1104                	addi	s1,sp,160
     ca1:	0a090003          	lb	zero,160(s2)
     ca5:	0100                	addi	s0,sp,128
     ca7:	0200                	addi	s0,sp,256
     ca9:	1104                	addi	s1,sp,160
     cab:	10090003          	lb	zero,256(s2)
     caf:	0100                	addi	s0,sp,128
     cb1:	0200                	addi	s0,sp,256
     cb3:	1104                	addi	s1,sp,160
     cb5:	00090003          	lb	zero,0(s2)
     cb9:	0100                	addi	s0,sp,128
     cbb:	0200                	addi	s0,sp,256
     cbd:	1104                	addi	s1,sp,160
     cbf:	00090003          	lb	zero,0(s2)
     cc3:	0100                	addi	s0,sp,128
     cc5:	0200                	addi	s0,sp,256
     cc7:	1104                	addi	s1,sp,160
     cc9:	00090003          	lb	zero,0(s2)
     ccd:	0100                	addi	s0,sp,128
     ccf:	0200                	addi	s0,sp,256
     cd1:	1104                	addi	s1,sp,160
     cd3:	00090003          	lb	zero,0(s2)
     cd7:	0100                	addi	s0,sp,128
     cd9:	0200                	addi	s0,sp,256
     cdb:	1104                	addi	s1,sp,160
     cdd:	00090003          	lb	zero,0(s2)
     ce1:	0100                	addi	s0,sp,128
     ce3:	0200                	addi	s0,sp,256
     ce5:	1104                	addi	s1,sp,160
     ce7:	00090003          	lb	zero,0(s2)
     ceb:	0100                	addi	s0,sp,128
     ced:	0200                	addi	s0,sp,256
     cef:	1104                	addi	s1,sp,160
     cf1:	00090003          	lb	zero,0(s2)
     cf5:	0100                	addi	s0,sp,128
     cf7:	0200                	addi	s0,sp,256
     cf9:	1104                	addi	s1,sp,160
     cfb:	00090003          	lb	zero,0(s2)
     cff:	0100                	addi	s0,sp,128
     d01:	0200                	addi	s0,sp,256
     d03:	1104                	addi	s1,sp,160
     d05:	00090003          	lb	zero,0(s2)
     d09:	0100                	addi	s0,sp,128
     d0b:	0200                	addi	s0,sp,256
     d0d:	1104                	addi	s1,sp,160
     d0f:	00090003          	lb	zero,0(s2)
     d13:	0100                	addi	s0,sp,128
     d15:	0200                	addi	s0,sp,256
     d17:	1104                	addi	s1,sp,160
     d19:	04090003          	lb	zero,64(s2)
     d1d:	0100                	addi	s0,sp,128
     d1f:	0200                	addi	s0,sp,256
     d21:	1104                	addi	s1,sp,160
     d23:	08090003          	lb	zero,128(s2)
     d27:	0100                	addi	s0,sp,128
     d29:	0200                	addi	s0,sp,256
     d2b:	1104                	addi	s1,sp,160
     d2d:	02090003          	lb	zero,32(s2)
     d31:	0100                	addi	s0,sp,128
     d33:	0200                	addi	s0,sp,256
     d35:	1104                	addi	s1,sp,160
     d37:	06090003          	lb	zero,96(s2)
     d3b:	0100                	addi	s0,sp,128
     d3d:	0200                	addi	s0,sp,256
     d3f:	1204                	addi	s1,sp,288
     d41:	04090003          	lb	zero,64(s2)
     d45:	0100                	addi	s0,sp,128
     d47:	0200                	addi	s0,sp,256
     d49:	1404                	addi	s1,sp,544
     d4b:	02090003          	lb	zero,32(s2)
     d4f:	0100                	addi	s0,sp,128
     d51:	0200                	addi	s0,sp,256
     d53:	1404                	addi	s1,sp,544
     d55:	00090003          	lb	zero,0(s2)
     d59:	0100                	addi	s0,sp,128
     d5b:	0200                	addi	s0,sp,256
     d5d:	1404                	addi	s1,sp,544
     d5f:	00090003          	lb	zero,0(s2)
     d63:	0100                	addi	s0,sp,128
     d65:	0200                	addi	s0,sp,256
     d67:	1404                	addi	s1,sp,544
     d69:	00090003          	lb	zero,0(s2)
     d6d:	0100                	addi	s0,sp,128
     d6f:	0200                	addi	s0,sp,256
     d71:	1404                	addi	s1,sp,544
     d73:	00090003          	lb	zero,0(s2)
     d77:	0100                	addi	s0,sp,128
     d79:	0200                	addi	s0,sp,256
     d7b:	1404                	addi	s1,sp,544
     d7d:	00090003          	lb	zero,0(s2)
     d81:	0100                	addi	s0,sp,128
     d83:	0200                	addi	s0,sp,256
     d85:	1404                	addi	s1,sp,544
     d87:	10090003          	lb	zero,256(s2)
     d8b:	0100                	addi	s0,sp,128
     d8d:	0200                	addi	s0,sp,256
     d8f:	1404                	addi	s1,sp,544
     d91:	06090003          	lb	zero,96(s2)
     d95:	0100                	addi	s0,sp,128
     d97:	0200                	addi	s0,sp,256
     d99:	1404                	addi	s1,sp,544
     d9b:	02090003          	lb	zero,32(s2)
     d9f:	0100                	addi	s0,sp,128
     da1:	0200                	addi	s0,sp,256
     da3:	1404                	addi	s1,sp,544
     da5:	00090003          	lb	zero,0(s2)
     da9:	0100                	addi	s0,sp,128
     dab:	0200                	addi	s0,sp,256
     dad:	1404                	addi	s1,sp,544
     daf:	04090003          	lb	zero,64(s2)
     db3:	0100                	addi	s0,sp,128
     db5:	0200                	addi	s0,sp,256
     db7:	1404                	addi	s1,sp,544
     db9:	00090003          	lb	zero,0(s2)
     dbd:	0100                	addi	s0,sp,128
     dbf:	0200                	addi	s0,sp,256
     dc1:	1404                	addi	s1,sp,544
     dc3:	00090003          	lb	zero,0(s2)
     dc7:	0100                	addi	s0,sp,128
     dc9:	0200                	addi	s0,sp,256
     dcb:	1404                	addi	s1,sp,544
     dcd:	00090003          	lb	zero,0(s2)
     dd1:	0100                	addi	s0,sp,128
     dd3:	0200                	addi	s0,sp,256
     dd5:	1404                	addi	s1,sp,544
     dd7:	00090003          	lb	zero,0(s2)
     ddb:	0100                	addi	s0,sp,128
     ddd:	0200                	addi	s0,sp,256
     ddf:	1404                	addi	s1,sp,544
     de1:	00090003          	lb	zero,0(s2)
     de5:	0100                	addi	s0,sp,128
     de7:	0200                	addi	s0,sp,256
     de9:	1404                	addi	s1,sp,544
     deb:	02090003          	lb	zero,32(s2)
     def:	0100                	addi	s0,sp,128
     df1:	0200                	addi	s0,sp,256
     df3:	1404                	addi	s1,sp,544
     df5:	04090003          	lb	zero,64(s2)
     df9:	0100                	addi	s0,sp,128
     dfb:	0200                	addi	s0,sp,256
     dfd:	1404                	addi	s1,sp,544
     dff:	04090003          	lb	zero,64(s2)
     e03:	0100                	addi	s0,sp,128
     e05:	0200                	addi	s0,sp,256
     e07:	1404                	addi	s1,sp,544
     e09:	00090003          	lb	zero,0(s2)
     e0d:	0100                	addi	s0,sp,128
     e0f:	0200                	addi	s0,sp,256
     e11:	1404                	addi	s1,sp,544
     e13:	04090003          	lb	zero,64(s2)
     e17:	0100                	addi	s0,sp,128
     e19:	0200                	addi	s0,sp,256
     e1b:	1404                	addi	s1,sp,544
     e1d:	00090003          	lb	zero,0(s2)
     e21:	0100                	addi	s0,sp,128
     e23:	0200                	addi	s0,sp,256
     e25:	1404                	addi	s1,sp,544
     e27:	00090003          	lb	zero,0(s2)
     e2b:	0100                	addi	s0,sp,128
     e2d:	0200                	addi	s0,sp,256
     e2f:	1404                	addi	s1,sp,544
     e31:	00090003          	lb	zero,0(s2)
     e35:	0100                	addi	s0,sp,128
     e37:	0200                	addi	s0,sp,256
     e39:	1404                	addi	s1,sp,544
     e3b:	00090003          	lb	zero,0(s2)
     e3f:	0100                	addi	s0,sp,128
     e41:	0200                	addi	s0,sp,256
     e43:	1404                	addi	s1,sp,544
     e45:	00090003          	lb	zero,0(s2)
     e49:	0100                	addi	s0,sp,128
     e4b:	0200                	addi	s0,sp,256
     e4d:	1404                	addi	s1,sp,544
     e4f:	00090003          	lb	zero,0(s2)
     e53:	0100                	addi	s0,sp,128
     e55:	0200                	addi	s0,sp,256
     e57:	1404                	addi	s1,sp,544
     e59:	00090003          	lb	zero,0(s2)
     e5d:	0100                	addi	s0,sp,128
     e5f:	0200                	addi	s0,sp,256
     e61:	1404                	addi	s1,sp,544
     e63:	00090003          	lb	zero,0(s2)
     e67:	0100                	addi	s0,sp,128
     e69:	0200                	addi	s0,sp,256
     e6b:	1404                	addi	s1,sp,544
     e6d:	00090003          	lb	zero,0(s2)
     e71:	0100                	addi	s0,sp,128
     e73:	0200                	addi	s0,sp,256
     e75:	1404                	addi	s1,sp,544
     e77:	00090003          	lb	zero,0(s2)
     e7b:	0100                	addi	s0,sp,128
     e7d:	0200                	addi	s0,sp,256
     e7f:	1404                	addi	s1,sp,544
     e81:	00090003          	lb	zero,0(s2)
     e85:	0100                	addi	s0,sp,128
     e87:	0200                	addi	s0,sp,256
     e89:	1404                	addi	s1,sp,544
     e8b:	00090003          	lb	zero,0(s2)
     e8f:	0100                	addi	s0,sp,128
     e91:	0200                	addi	s0,sp,256
     e93:	1404                	addi	s1,sp,544
     e95:	00090003          	lb	zero,0(s2)
     e99:	0100                	addi	s0,sp,128
     e9b:	0200                	addi	s0,sp,256
     e9d:	1404                	addi	s1,sp,544
     e9f:	00090003          	lb	zero,0(s2)
     ea3:	0100                	addi	s0,sp,128
     ea5:	0200                	addi	s0,sp,256
     ea7:	1404                	addi	s1,sp,544
     ea9:	00090003          	lb	zero,0(s2)
     ead:	0100                	addi	s0,sp,128
     eaf:	0200                	addi	s0,sp,256
     eb1:	1404                	addi	s1,sp,544
     eb3:	00090003          	lb	zero,0(s2)
     eb7:	0100                	addi	s0,sp,128
     eb9:	0200                	addi	s0,sp,256
     ebb:	1404                	addi	s1,sp,544
     ebd:	00090003          	lb	zero,0(s2)
     ec1:	0100                	addi	s0,sp,128
     ec3:	0200                	addi	s0,sp,256
     ec5:	1404                	addi	s1,sp,544
     ec7:	00090003          	lb	zero,0(s2)
     ecb:	0100                	addi	s0,sp,128
     ecd:	0200                	addi	s0,sp,256
     ecf:	1404                	addi	s1,sp,544
     ed1:	00090003          	lb	zero,0(s2)
     ed5:	0100                	addi	s0,sp,128
     ed7:	0200                	addi	s0,sp,256
     ed9:	1404                	addi	s1,sp,544
     edb:	00090003          	lb	zero,0(s2)
     edf:	0100                	addi	s0,sp,128
     ee1:	0200                	addi	s0,sp,256
     ee3:	1404                	addi	s1,sp,544
     ee5:	00090003          	lb	zero,0(s2)
     ee9:	0100                	addi	s0,sp,128
     eeb:	0200                	addi	s0,sp,256
     eed:	1404                	addi	s1,sp,544
     eef:	00090003          	lb	zero,0(s2)
     ef3:	0100                	addi	s0,sp,128
     ef5:	0200                	addi	s0,sp,256
     ef7:	1404                	addi	s1,sp,544
     ef9:	00090003          	lb	zero,0(s2)
     efd:	0100                	addi	s0,sp,128
     eff:	0200                	addi	s0,sp,256
     f01:	1404                	addi	s1,sp,544
     f03:	00090003          	lb	zero,0(s2)
     f07:	0100                	addi	s0,sp,128
     f09:	0200                	addi	s0,sp,256
     f0b:	1404                	addi	s1,sp,544
     f0d:	00090003          	lb	zero,0(s2)
     f11:	0100                	addi	s0,sp,128
     f13:	0200                	addi	s0,sp,256
     f15:	1404                	addi	s1,sp,544
     f17:	26090003          	lb	zero,608(s2)
     f1b:	0100                	addi	s0,sp,128
     f1d:	0200                	addi	s0,sp,256
     f1f:	1404                	addi	s1,sp,544
     f21:	00090003          	lb	zero,0(s2)
     f25:	0100                	addi	s0,sp,128
     f27:	0200                	addi	s0,sp,256
     f29:	1404                	addi	s1,sp,544
     f2b:	00090003          	lb	zero,0(s2)
     f2f:	0100                	addi	s0,sp,128
     f31:	0200                	addi	s0,sp,256
     f33:	1404                	addi	s1,sp,544
     f35:	00090003          	lb	zero,0(s2)
     f39:	0100                	addi	s0,sp,128
     f3b:	0200                	addi	s0,sp,256
     f3d:	1404                	addi	s1,sp,544
     f3f:	00090003          	lb	zero,0(s2)
     f43:	0100                	addi	s0,sp,128
     f45:	0200                	addi	s0,sp,256
     f47:	1404                	addi	s1,sp,544
     f49:	00090003          	lb	zero,0(s2)
     f4d:	0100                	addi	s0,sp,128
     f4f:	0200                	addi	s0,sp,256
     f51:	1404                	addi	s1,sp,544
     f53:	00090003          	lb	zero,0(s2)
     f57:	0100                	addi	s0,sp,128
     f59:	0200                	addi	s0,sp,256
     f5b:	1404                	addi	s1,sp,544
     f5d:	1a090003          	lb	zero,416(s2)
     f61:	0100                	addi	s0,sp,128
     f63:	0200                	addi	s0,sp,256
     f65:	1404                	addi	s1,sp,544
     f67:	00090003          	lb	zero,0(s2)
     f6b:	0100                	addi	s0,sp,128
     f6d:	0200                	addi	s0,sp,256
     f6f:	1404                	addi	s1,sp,544
     f71:	00090003          	lb	zero,0(s2)
     f75:	0100                	addi	s0,sp,128
     f77:	0200                	addi	s0,sp,256
     f79:	1404                	addi	s1,sp,544
     f7b:	00090003          	lb	zero,0(s2)
     f7f:	0100                	addi	s0,sp,128
     f81:	0200                	addi	s0,sp,256
     f83:	1404                	addi	s1,sp,544
     f85:	00090003          	lb	zero,0(s2)
     f89:	0100                	addi	s0,sp,128
     f8b:	0200                	addi	s0,sp,256
     f8d:	2604                	fld	fs1,8(a2)
     f8f:	08090003          	lb	zero,128(s2)
     f93:	0100                	addi	s0,sp,128
     f95:	0200                	addi	s0,sp,256
     f97:	2604                	fld	fs1,8(a2)
     f99:	00090003          	lb	zero,0(s2)
     f9d:	0100                	addi	s0,sp,128
     f9f:	0200                	addi	s0,sp,256
     fa1:	2604                	fld	fs1,8(a2)
     fa3:	0e090003          	lb	zero,224(s2)
     fa7:	0100                	addi	s0,sp,128
     fa9:	0200                	addi	s0,sp,256
     fab:	0204                	addi	s1,sp,256
     fad:	02090103          	lb	sp,32(s2)
     fb1:	0100                	addi	s0,sp,128
     fb3:	0200                	addi	s0,sp,256
     fb5:	0204                	addi	s1,sp,256
     fb7:	04090003          	lb	zero,64(s2)
     fbb:	0100                	addi	s0,sp,128
     fbd:	0200                	addi	s0,sp,256
     fbf:	0604                	addi	s1,sp,768
     fc1:	04090003          	lb	zero,64(s2)
     fc5:	0100                	addi	s0,sp,128
     fc7:	0200                	addi	s0,sp,256
     fc9:	0604                	addi	s1,sp,768
     fcb:	00090003          	lb	zero,0(s2)
     fcf:	0100                	addi	s0,sp,128
     fd1:	0200                	addi	s0,sp,256
     fd3:	0804                	addi	s1,sp,16
     fd5:	06090003          	lb	zero,96(s2)
     fd9:	0100                	addi	s0,sp,128
     fdb:	0200                	addi	s0,sp,256
     fdd:	0804                	addi	s1,sp,16
     fdf:	00090003          	lb	zero,0(s2)
     fe3:	0100                	addi	s0,sp,128
     fe5:	0200                	addi	s0,sp,256
     fe7:	0804                	addi	s1,sp,16
     fe9:	00090003          	lb	zero,0(s2)
     fed:	0100                	addi	s0,sp,128
     fef:	0200                	addi	s0,sp,256
     ff1:	0804                	addi	s1,sp,16
     ff3:	00090003          	lb	zero,0(s2)
     ff7:	0100                	addi	s0,sp,128
     ff9:	0200                	addi	s0,sp,256
     ffb:	0a04                	addi	s1,sp,272
     ffd:	0a090003          	lb	zero,160(s2)
    1001:	0100                	addi	s0,sp,128
    1003:	0200                	addi	s0,sp,256
    1005:	0a04                	addi	s1,sp,272
    1007:	00090003          	lb	zero,0(s2)
    100b:	0100                	addi	s0,sp,128
    100d:	0200                	addi	s0,sp,256
    100f:	0a04                	addi	s1,sp,272
    1011:	00090003          	lb	zero,0(s2)
    1015:	0100                	addi	s0,sp,128
    1017:	0200                	addi	s0,sp,256
    1019:	0a04                	addi	s1,sp,272
    101b:	04090003          	lb	zero,64(s2)
    101f:	0100                	addi	s0,sp,128
    1021:	0200                	addi	s0,sp,256
    1023:	0a04                	addi	s1,sp,272
    1025:	06090003          	lb	zero,96(s2)
    1029:	0100                	addi	s0,sp,128
    102b:	0200                	addi	s0,sp,256
    102d:	0904                	addi	s1,sp,144
    102f:	02090003          	lb	zero,32(s2)
    1033:	0100                	addi	s0,sp,128
    1035:	0200                	addi	s0,sp,256
    1037:	0904                	addi	s1,sp,144
    1039:	00090003          	lb	zero,0(s2)
    103d:	0100                	addi	s0,sp,128
    103f:	0200                	addi	s0,sp,256
    1041:	1804                	addi	s1,sp,48
    1043:	08090003          	lb	zero,128(s2)
    1047:	0100                	addi	s0,sp,128
    1049:	0200                	addi	s0,sp,256
    104b:	1804                	addi	s1,sp,48
    104d:	08090003          	lb	zero,128(s2)
    1051:	0100                	addi	s0,sp,128
    1053:	0200                	addi	s0,sp,256
    1055:	1a04                	addi	s1,sp,304
    1057:	04090003          	lb	zero,64(s2)
    105b:	0100                	addi	s0,sp,128
    105d:	0200                	addi	s0,sp,256
    105f:	1a04                	addi	s1,sp,304
    1061:	00090003          	lb	zero,0(s2)
    1065:	0100                	addi	s0,sp,128
    1067:	0200                	addi	s0,sp,256
    1069:	1a04                	addi	s1,sp,304
    106b:	00090003          	lb	zero,0(s2)
    106f:	0100                	addi	s0,sp,128
    1071:	0200                	addi	s0,sp,256
    1073:	1a04                	addi	s1,sp,304
    1075:	00090003          	lb	zero,0(s2)
    1079:	0100                	addi	s0,sp,128
    107b:	0306                	slli	t1,t1,0x1
    107d:	0900                	addi	s0,sp,144
    107f:	0008                	0x8
    1081:	0001                	nop
    1083:	0402                	c.slli64	s0
    1085:	00030677          	0x30677
    1089:	0c09                	addi	s8,s8,2
    108b:	0100                	addi	s0,sp,128
    108d:	0200                	addi	s0,sp,256
    108f:	7704                	flw	fs1,40(a4)
    1091:	00090003          	lb	zero,0(s2)
    1095:	0100                	addi	s0,sp,128
    1097:	0200                	addi	s0,sp,256
    1099:	7704                	flw	fs1,40(a4)
    109b:	00090003          	lb	zero,0(s2)
    109f:	0100                	addi	s0,sp,128
    10a1:	0200                	addi	s0,sp,256
    10a3:	7704                	flw	fs1,40(a4)
    10a5:	00090003          	lb	zero,0(s2)
    10a9:	0100                	addi	s0,sp,128
    10ab:	0200                	addi	s0,sp,256
    10ad:	7704                	flw	fs1,40(a4)
    10af:	00090003          	lb	zero,0(s2)
    10b3:	0100                	addi	s0,sp,128
    10b5:	0200                	addi	s0,sp,256
    10b7:	7704                	flw	fs1,40(a4)
    10b9:	00090003          	lb	zero,0(s2)
    10bd:	0100                	addi	s0,sp,128
    10bf:	0200                	addi	s0,sp,256
    10c1:	7704                	flw	fs1,40(a4)
    10c3:	00090003          	lb	zero,0(s2)
    10c7:	0100                	addi	s0,sp,128
    10c9:	0200                	addi	s0,sp,256
    10cb:	7704                	flw	fs1,40(a4)
    10cd:	00090003          	lb	zero,0(s2)
    10d1:	0100                	addi	s0,sp,128
    10d3:	0105                	addi	sp,sp,1
    10d5:	0200                	addi	s0,sp,256
    10d7:	7704                	flw	fs1,40(a4)
    10d9:	0306                	slli	t1,t1,0x1
    10db:	0904                	addi	s1,sp,144
    10dd:	0012                	c.slli	zero,0x4
    10df:	0501                	addi	a0,a0,0
    10e1:	04020003          	lb	zero,64(tp) # 40 <.LASF24+0x17>
    10e5:	097c0377          	0x97c0377
    10e9:	0002                	c.slli64	zero
    10eb:	0001                	nop
    10ed:	0402                	c.slli64	s0
    10ef:	00030677          	0x30677
    10f3:	0409                	addi	s0,s0,2
    10f5:	0100                	addi	s0,sp,128
    10f7:	0200                	addi	s0,sp,256
    10f9:	7704                	flw	fs1,40(a4)
    10fb:	00090003          	lb	zero,0(s2)
    10ff:	0100                	addi	s0,sp,128
    1101:	0200                	addi	s0,sp,256
    1103:	7704                	flw	fs1,40(a4)
    1105:	00090103          	lb	sp,0(s2)
    1109:	0100                	addi	s0,sp,128
    110b:	0200                	addi	s0,sp,256
    110d:	7704                	flw	fs1,40(a4)
    110f:	00090003          	lb	zero,0(s2)
    1113:	0100                	addi	s0,sp,128
    1115:	0200                	addi	s0,sp,256
    1117:	7704                	flw	fs1,40(a4)
    1119:	00090003          	lb	zero,0(s2)
    111d:	0100                	addi	s0,sp,128
    111f:	0200                	addi	s0,sp,256
    1121:	7704                	flw	fs1,40(a4)
    1123:	00090203          	lb	tp,0(s2)
    1127:	0100                	addi	s0,sp,128
    1129:	0105                	addi	sp,sp,1
    112b:	0200                	addi	s0,sp,256
    112d:	7704                	flw	fs1,40(a4)
    112f:	0306                	slli	t1,t1,0x1
    1131:	0901                	addi	s2,s2,0
    1133:	0000                	unimp
    1135:	0501                	addi	a0,a0,0
    1137:	04020003          	lb	zero,64(tp) # 40 <.LASF24+0x17>
    113b:	09790307          	0x9790307
    113f:	0018                	0x18
    1141:	0001                	nop
    1143:	0402                	c.slli64	s0
    1145:	02030607          	0x2030607
    1149:	0209                	addi	tp,tp,2
    114b:	0100                	addi	s0,sp,128
    114d:	0200                	addi	s0,sp,256
    114f:	2f04                	fld	fs1,24(a4)
    1151:	06090003          	lb	zero,96(s2)
    1155:	0100                	addi	s0,sp,128
    1157:	0200                	addi	s0,sp,256
    1159:	2f04                	fld	fs1,24(a4)
    115b:	00090103          	lb	sp,0(s2)
    115f:	0100                	addi	s0,sp,128
    1161:	0200                	addi	s0,sp,256
    1163:	2f04                	fld	fs1,24(a4)
    1165:	00090003          	lb	zero,0(s2)
    1169:	0100                	addi	s0,sp,128
    116b:	0200                	addi	s0,sp,256
    116d:	2f04                	fld	fs1,24(a4)
    116f:	00090003          	lb	zero,0(s2)
    1173:	0100                	addi	s0,sp,128
    1175:	0306                	slli	t1,t1,0x1
    1177:	0900                	addi	s0,sp,144
    1179:	0006                	c.slli	zero,0x1
    117b:	0001                	nop
    117d:	0402                	c.slli64	s0
    117f:	0304                	addi	s1,sp,384
    1181:	097e                	slli	s2,s2,0x1f
    1183:	0012                	c.slli	zero,0x4
    1185:	0001                	nop
    1187:	0402                	c.slli64	s0
    1189:	0604                	addi	s1,sp,768
    118b:	02090103          	lb	sp,32(s2)
    118f:	0100                	addi	s0,sp,128
    1191:	0306                	slli	t1,t1,0x1
    1193:	0900                	addi	s0,sp,144
    1195:	0002                	c.slli64	zero
    1197:	0001                	nop
    1199:	0402                	c.slli64	s0
    119b:	0103063b          	0x103063b
    119f:	0409                	addi	s0,s0,2
    11a1:	0100                	addi	s0,sp,128
    11a3:	0200                	addi	s0,sp,256
    11a5:	3b04                	fld	fs1,48(a4)
    11a7:	00090003          	lb	zero,0(s2)
    11ab:	0100                	addi	s0,sp,128
    11ad:	0200                	addi	s0,sp,256
    11af:	3b04                	fld	fs1,48(a4)
    11b1:	00090003          	lb	zero,0(s2)
    11b5:	0100                	addi	s0,sp,128
    11b7:	0200                	addi	s0,sp,256
    11b9:	3b04                	fld	fs1,48(a4)
    11bb:	04090003          	lb	zero,64(s2)
    11bf:	0100                	addi	s0,sp,128
    11c1:	0200                	addi	s0,sp,256
    11c3:	3c04                	fld	fs1,56(s0)
    11c5:	08090003          	lb	zero,128(s2)
    11c9:	0100                	addi	s0,sp,128
    11cb:	0200                	addi	s0,sp,256
    11cd:	3e04                	fld	fs1,56(a2)
    11cf:	06090003          	lb	zero,96(s2)
    11d3:	0100                	addi	s0,sp,128
    11d5:	0200                	addi	s0,sp,256
    11d7:	3e04                	fld	fs1,56(a2)
    11d9:	18090003          	lb	zero,384(s2)
    11dd:	0100                	addi	s0,sp,128
    11df:	0200                	addi	s0,sp,256
    11e1:	4b04                	lw	s1,16(a4)
    11e3:	04090003          	lb	zero,64(s2)
    11e7:	0100                	addi	s0,sp,128
    11e9:	0200                	addi	s0,sp,256
    11eb:	4b04                	lw	s1,16(a4)
    11ed:	00090003          	lb	zero,0(s2)
    11f1:	0100                	addi	s0,sp,128
    11f3:	0200                	addi	s0,sp,256
    11f5:	4c04                	lw	s1,24(s0)
    11f7:	06090003          	lb	zero,96(s2)
    11fb:	0100                	addi	s0,sp,128
    11fd:	0200                	addi	s0,sp,256
    11ff:	4c04                	lw	s1,24(s0)
    1201:	00090003          	lb	zero,0(s2)
    1205:	0100                	addi	s0,sp,128
    1207:	0200                	addi	s0,sp,256
    1209:	4c04                	lw	s1,24(s0)
    120b:	00090003          	lb	zero,0(s2)
    120f:	0100                	addi	s0,sp,128
    1211:	0200                	addi	s0,sp,256
    1213:	4c04                	lw	s1,24(s0)
    1215:	00090003          	lb	zero,0(s2)
    1219:	0100                	addi	s0,sp,128
    121b:	0200                	addi	s0,sp,256
    121d:	4e04                	lw	s1,24(a2)
    121f:	0a090003          	lb	zero,160(s2)
    1223:	0100                	addi	s0,sp,128
    1225:	0200                	addi	s0,sp,256
    1227:	4e04                	lw	s1,24(a2)
    1229:	00090003          	lb	zero,0(s2)
    122d:	0100                	addi	s0,sp,128
    122f:	0200                	addi	s0,sp,256
    1231:	4e04                	lw	s1,24(a2)
    1233:	00090003          	lb	zero,0(s2)
    1237:	0100                	addi	s0,sp,128
    1239:	0200                	addi	s0,sp,256
    123b:	4e04                	lw	s1,24(a2)
    123d:	04090003          	lb	zero,64(s2)
    1241:	0100                	addi	s0,sp,128
    1243:	0200                	addi	s0,sp,256
    1245:	4e04                	lw	s1,24(a2)
    1247:	06090003          	lb	zero,96(s2)
    124b:	0100                	addi	s0,sp,128
    124d:	0200                	addi	s0,sp,256
    124f:	4d04                	lw	s1,24(a0)
    1251:	02090003          	lb	zero,32(s2)
    1255:	0100                	addi	s0,sp,128
    1257:	0200                	addi	s0,sp,256
    1259:	4d04                	lw	s1,24(a0)
    125b:	00090003          	lb	zero,0(s2)
    125f:	0100                	addi	s0,sp,128
    1261:	0200                	addi	s0,sp,256
    1263:	5d04                	lw	s1,56(a0)
    1265:	08090003          	lb	zero,128(s2)
    1269:	0100                	addi	s0,sp,128
    126b:	0200                	addi	s0,sp,256
    126d:	5d04                	lw	s1,56(a0)
    126f:	00090003          	lb	zero,0(s2)
    1273:	0100                	addi	s0,sp,128
    1275:	0200                	addi	s0,sp,256
    1277:	5d04                	lw	s1,56(a0)
    1279:	00090003          	lb	zero,0(s2)
    127d:	0100                	addi	s0,sp,128
    127f:	0200                	addi	s0,sp,256
    1281:	5d04                	lw	s1,56(a0)
    1283:	08090003          	lb	zero,128(s2)
    1287:	0100                	addi	s0,sp,128
    1289:	0306                	slli	t1,t1,0x1
    128b:	0900                	addi	s0,sp,144
    128d:	0002                	c.slli64	zero
    128f:	0001                	nop
    1291:	0402                	c.slli64	s0
    1293:	0003063f 01000409 	0x10004090003063f
    129b:	0200                	addi	s0,sp,256
    129d:	4704                	lw	s1,8(a4)
    129f:	0306                	slli	t1,t1,0x1
    12a1:	0900                	addi	s0,sp,144
    12a3:	0012                	c.slli	zero,0x4
    12a5:	0001                	nop
    12a7:	0402                	c.slli64	s0
    12a9:	034a                	slli	t1,t1,0x12
    12ab:	0900                	addi	s0,sp,144
    12ad:	0008                	0x8
    12af:	0001                	nop
    12b1:	0402                	c.slli64	s0
    12b3:	064a                	slli	a2,a2,0x12
    12b5:	08090003          	lb	zero,128(s2)
    12b9:	0100                	addi	s0,sp,128
    12bb:	0306                	slli	t1,t1,0x1
    12bd:	0900                	addi	s0,sp,144
    12bf:	0004                	0x4
    12c1:	0901                	addi	s2,s2,0
    12c3:	0020                	addi	s0,sp,8
    12c5:	0100                	addi	s0,sp,128
    12c7:	                	0x6e01

000012c8 <.Ldebug_line0>:
    12c8:	106e                	c.slli	zero,0x3b
    12ca:	0000                	unimp
    12cc:	004f0003          	lb	zero,4(t5)
    12d0:	0000                	unimp
    12d2:	0101                	addi	sp,sp,0
    12d4:	000d0efb          	0xd0efb
    12d8:	0101                	addi	sp,sp,0
    12da:	0101                	addi	sp,sp,0
    12dc:	0000                	unimp
    12de:	0100                	addi	s0,sp,128
    12e0:	0000                	unimp
    12e2:	2e01                	jal	15f2 <.LVL3+0x4>
    12e4:	2f2e                	fld	ft10,200(sp)
    12e6:	2e2e                	fld	ft8,200(sp)
    12e8:	2f2e2e2f          	0x2f2e2e2f
    12ec:	2f2e                	fld	ft10,200(sp)
    12ee:	6972                	flw	fs2,28(sp)
    12f0:	2d766373          	csrrsi	t1,0x2d7,12
    12f4:	2f636367          	0x2f636367
    12f8:	696c                	flw	fa1,84(a0)
    12fa:	6762                	flw	fa4,24(sp)
    12fc:	732f6363          	bltu	t5,s2,1a22 <.LLST13+0x18e>
    1300:	2d74666f          	jal	a2,47dd6 <.LC0+0x43c86>
    1304:	7066                	flw	ft0,120(sp)
    1306:	0000                	unimp
    1308:	64627573          	csrrci	a0,0x646,4
    130c:	3366                	fld	ft6,120(sp)
    130e:	632e                	flw	ft6,200(sp)
    1310:	0100                	addi	s0,sp,128
    1312:	0000                	unimp
    1314:	6f64                	flw	fs1,92(a4)
    1316:	6275                	lui	tp,0x1d
    1318:	656c                	flw	fa1,76(a0)
    131a:	682e                	flw	fa6,200(sp)
    131c:	0100                	addi	s0,sp,128
    131e:	0000                	unimp
    1320:	0500                	addi	s0,sp,640
    1322:	0001                	nop
    1324:	0205                	addi	tp,tp,1
    1326:	0e6e                	slli	t3,t3,0x1b
    1328:	0000                	unimp
    132a:	05012303          	lw	t1,80(sp)
    132e:	09010303          	lb	t1,144(sp)
    1332:	0000                	unimp
    1334:	0301                	addi	t1,t1,0
    1336:	0900                	addi	s0,sp,144
    1338:	0000                	unimp
    133a:	0501                	addi	a0,a0,0
    133c:	030d                	addi	t1,t1,3
    133e:	0900                	addi	s0,sp,144
    1340:	0000                	unimp
    1342:	0501                	addi	a0,a0,0
    1344:	09010303          	lb	t1,144(sp)
    1348:	0000                	unimp
    134a:	0301                	addi	t1,t1,0
    134c:	0900                	addi	s0,sp,144
    134e:	0000                	unimp
    1350:	0301                	addi	t1,t1,0
    1352:	0900                	addi	s0,sp,144
    1354:	0000                	unimp
    1356:	0301                	addi	t1,t1,0
    1358:	0900                	addi	s0,sp,144
    135a:	0000                	unimp
    135c:	0301                	addi	t1,t1,0
    135e:	0901                	addi	s2,s2,0
    1360:	0000                	unimp
    1362:	0301                	addi	t1,t1,0
    1364:	0900                	addi	s0,sp,144
    1366:	0000                	unimp
    1368:	0301                	addi	t1,t1,0
    136a:	0900                	addi	s0,sp,144
    136c:	0000                	unimp
    136e:	0301                	addi	t1,t1,0
    1370:	0900                	addi	s0,sp,144
    1372:	0000                	unimp
    1374:	0301                	addi	t1,t1,0
    1376:	0901                	addi	s2,s2,0
    1378:	0000                	unimp
    137a:	0301                	addi	t1,t1,0
    137c:	0900                	addi	s0,sp,144
    137e:	0000                	unimp
    1380:	0301                	addi	t1,t1,0
    1382:	0900                	addi	s0,sp,144
    1384:	0000                	unimp
    1386:	0301                	addi	t1,t1,0
    1388:	0900                	addi	s0,sp,144
    138a:	0000                	unimp
    138c:	0301                	addi	t1,t1,0
    138e:	0901                	addi	s2,s2,0
    1390:	0000                	unimp
    1392:	0301                	addi	t1,t1,0
    1394:	0902                	c.slli64	s2
    1396:	0000                	unimp
    1398:	0301                	addi	t1,t1,0
    139a:	0901                	addi	s2,s2,0
    139c:	0000                	unimp
    139e:	0301                	addi	t1,t1,0
    13a0:	0900                	addi	s0,sp,144
    13a2:	0000                	unimp
    13a4:	0301                	addi	t1,t1,0
    13a6:	0900                	addi	s0,sp,144
    13a8:	0000                	unimp
    13aa:	0301                	addi	t1,t1,0
    13ac:	0900                	addi	s0,sp,144
    13ae:	0000                	unimp
    13b0:	0301                	addi	t1,t1,0
    13b2:	0900                	addi	s0,sp,144
    13b4:	0000                	unimp
    13b6:	0301                	addi	t1,t1,0
    13b8:	0900                	addi	s0,sp,144
    13ba:	0000                	unimp
    13bc:	0501                	addi	a0,a0,0
    13be:	0601                	addi	a2,a2,0
    13c0:	06097803          	0x6097803
    13c4:	0100                	addi	s0,sp,128
    13c6:	0305                	addi	t1,t1,1
    13c8:	02090803          	lb	a6,32(s2)
    13cc:	0100                	addi	s0,sp,128
    13ce:	0306                	slli	t1,t1,0x1
    13d0:	0900                	addi	s0,sp,144
    13d2:	0004                	0x4
    13d4:	0601                	addi	a2,a2,0
    13d6:	04090103          	lb	sp,64(s2)
    13da:	0100                	addi	s0,sp,128
    13dc:	0105                	addi	sp,sp,1
    13de:	08097703          	0x8097703
    13e2:	0100                	addi	s0,sp,128
    13e4:	0305                	addi	t1,t1,1
    13e6:	02090803          	lb	a6,32(s2)
    13ea:	0100                	addi	s0,sp,128
    13ec:	0306                	slli	t1,t1,0x1
    13ee:	0900                	addi	s0,sp,144
    13f0:	0006                	c.slli	zero,0x1
    13f2:	0501                	addi	a0,a0,0
    13f4:	0601                	addi	a2,a2,0
    13f6:	04097803          	0x4097803
    13fa:	0100                	addi	s0,sp,128
    13fc:	0305                	addi	t1,t1,1
    13fe:	02090803          	lb	a6,32(s2)
    1402:	0100                	addi	s0,sp,128
    1404:	0306                	slli	t1,t1,0x1
    1406:	0900                	addi	s0,sp,144
    1408:	0006                	c.slli	zero,0x1
    140a:	0301                	addi	t1,t1,0
    140c:	0900                	addi	s0,sp,144
    140e:	0000                	unimp
    1410:	0301                	addi	t1,t1,0
    1412:	0900                	addi	s0,sp,144
    1414:	0000                	unimp
    1416:	0301                	addi	t1,t1,0
    1418:	0900                	addi	s0,sp,144
    141a:	0000                	unimp
    141c:	0301                	addi	t1,t1,0
    141e:	0900                	addi	s0,sp,144
    1420:	0000                	unimp
    1422:	0601                	addi	a2,a2,0
    1424:	00090103          	lb	sp,0(s2)
    1428:	0100                	addi	s0,sp,128
    142a:	04097f03          	0x4097f03
    142e:	0100                	addi	s0,sp,128
    1430:	0306                	slli	t1,t1,0x1
    1432:	0900                	addi	s0,sp,144
    1434:	0004                	0x4
    1436:	0301                	addi	t1,t1,0
    1438:	0900                	addi	s0,sp,144
    143a:	0000                	unimp
    143c:	0301                	addi	t1,t1,0
    143e:	0901                	addi	s2,s2,0
    1440:	0000                	unimp
    1442:	0301                	addi	t1,t1,0
    1444:	0900                	addi	s0,sp,144
    1446:	0000                	unimp
    1448:	0301                	addi	t1,t1,0
    144a:	0900                	addi	s0,sp,144
    144c:	0000                	unimp
    144e:	0301                	addi	t1,t1,0
    1450:	0900                	addi	s0,sp,144
    1452:	0000                	unimp
    1454:	0301                	addi	t1,t1,0
    1456:	0900                	addi	s0,sp,144
    1458:	0000                	unimp
    145a:	0301                	addi	t1,t1,0
    145c:	0900                	addi	s0,sp,144
    145e:	0000                	unimp
    1460:	0301                	addi	t1,t1,0
    1462:	0900                	addi	s0,sp,144
    1464:	0000                	unimp
    1466:	0501                	addi	a0,a0,0
    1468:	0601                	addi	a2,a2,0
    146a:	02097703          	0x2097703
    146e:	0100                	addi	s0,sp,128
    1470:	0305                	addi	t1,t1,1
    1472:	06090903          	lb	s2,96(s2)
    1476:	0100                	addi	s0,sp,128
    1478:	0306                	slli	t1,t1,0x1
    147a:	0900                	addi	s0,sp,144
    147c:	0004                	0x4
    147e:	0601                	addi	a2,a2,0
    1480:	00090103          	lb	sp,0(s2)
    1484:	0100                	addi	s0,sp,128
    1486:	04097f03          	0x4097f03
    148a:	0100                	addi	s0,sp,128
    148c:	0306                	slli	t1,t1,0x1
    148e:	0900                	addi	s0,sp,144
    1490:	0002                	c.slli64	zero
    1492:	0301                	addi	t1,t1,0
    1494:	0900                	addi	s0,sp,144
    1496:	0000                	unimp
    1498:	0301                	addi	t1,t1,0
    149a:	0900                	addi	s0,sp,144
    149c:	0000                	unimp
    149e:	0301                	addi	t1,t1,0
    14a0:	0900                	addi	s0,sp,144
    14a2:	0000                	unimp
    14a4:	0301                	addi	t1,t1,0
    14a6:	0900                	addi	s0,sp,144
    14a8:	0004                	0x4
    14aa:	0301                	addi	t1,t1,0
    14ac:	0900                	addi	s0,sp,144
    14ae:	0002                	c.slli64	zero
    14b0:	0301                	addi	t1,t1,0
    14b2:	0900                	addi	s0,sp,144
    14b4:	0000                	unimp
    14b6:	0301                	addi	t1,t1,0
    14b8:	0901                	addi	s2,s2,0
    14ba:	0000                	unimp
    14bc:	0301                	addi	t1,t1,0
    14be:	0900                	addi	s0,sp,144
    14c0:	0000                	unimp
    14c2:	0001                	nop
    14c4:	0402                	c.slli64	s0
    14c6:	0602                	c.slli64	a2
    14c8:	04090003          	lb	zero,64(s2)
    14cc:	0100                	addi	s0,sp,128
    14ce:	0200                	addi	s0,sp,256
    14d0:	0304                	addi	s1,sp,384
    14d2:	0306                	slli	t1,t1,0x1
    14d4:	0900                	addi	s0,sp,144
    14d6:	0006                	c.slli	zero,0x1
    14d8:	0001                	nop
    14da:	0402                	c.slli64	s0
    14dc:	0900030b          	0x900030b
    14e0:	0004                	0x4
    14e2:	0001                	nop
    14e4:	0402                	c.slli64	s0
    14e6:	0900030b          	0x900030b
    14ea:	0000                	unimp
    14ec:	0001                	nop
    14ee:	0402                	c.slli64	s0
    14f0:	0900030b          	0x900030b
    14f4:	0000                	unimp
    14f6:	0001                	nop
    14f8:	0402                	c.slli64	s0
    14fa:	0900030b          	0x900030b
    14fe:	0000                	unimp
    1500:	0001                	nop
    1502:	0402                	c.slli64	s0
    1504:	0900030b          	0x900030b
    1508:	0000                	unimp
    150a:	0001                	nop
    150c:	0402                	c.slli64	s0
    150e:	0900030b          	0x900030b
    1512:	0000                	unimp
    1514:	0001                	nop
    1516:	0402                	c.slli64	s0
    1518:	0900030b          	0x900030b
    151c:	0000                	unimp
    151e:	0001                	nop
    1520:	0402                	c.slli64	s0
    1522:	0900030b          	0x900030b
    1526:	0000                	unimp
    1528:	0001                	nop
    152a:	0402                	c.slli64	s0
    152c:	030c                	addi	a1,sp,384
    152e:	0900                	addi	s0,sp,144
    1530:	0008                	0x8
    1532:	0001                	nop
    1534:	0402                	c.slli64	s0
    1536:	030c                	addi	a1,sp,384
    1538:	0900                	addi	s0,sp,144
    153a:	0000                	unimp
    153c:	0001                	nop
    153e:	0402                	c.slli64	s0
    1540:	030c                	addi	a1,sp,384
    1542:	0900                	addi	s0,sp,144
    1544:	0000                	unimp
    1546:	0001                	nop
    1548:	0402                	c.slli64	s0
    154a:	030e                	slli	t1,t1,0x3
    154c:	0900                	addi	s0,sp,144
    154e:	0004                	0x4
    1550:	0001                	nop
    1552:	0402                	c.slli64	s0
    1554:	030e                	slli	t1,t1,0x3
    1556:	0900                	addi	s0,sp,144
    1558:	0000                	unimp
    155a:	0001                	nop
    155c:	0402                	c.slli64	s0
    155e:	0310                	addi	a2,sp,384
    1560:	0900                	addi	s0,sp,144
    1562:	0004                	0x4
    1564:	0001                	nop
    1566:	0402                	c.slli64	s0
    1568:	09000313          	li	t1,144
    156c:	0008                	0x8
    156e:	0001                	nop
    1570:	0402                	c.slli64	s0
    1572:	09000313          	li	t1,144
    1576:	0000                	unimp
    1578:	0001                	nop
    157a:	0402                	c.slli64	s0
    157c:	09000313          	li	t1,144
    1580:	0004                	0x4
    1582:	0001                	nop
    1584:	0402                	c.slli64	s0
    1586:	031c                	addi	a5,sp,384
    1588:	0900                	addi	s0,sp,144
    158a:	0002                	c.slli64	zero
    158c:	0001                	nop
    158e:	0402                	c.slli64	s0
    1590:	031c                	addi	a5,sp,384
    1592:	0900                	addi	s0,sp,144
    1594:	0000                	unimp
    1596:	0001                	nop
    1598:	0402                	c.slli64	s0
    159a:	031c                	addi	a5,sp,384
    159c:	0900                	addi	s0,sp,144
    159e:	0000                	unimp
    15a0:	0001                	nop
    15a2:	0402                	c.slli64	s0
    15a4:	031c                	addi	a5,sp,384
    15a6:	0900                	addi	s0,sp,144
    15a8:	0002                	c.slli64	zero
    15aa:	0001                	nop
    15ac:	0402                	c.slli64	s0
    15ae:	031c                	addi	a5,sp,384
    15b0:	0900                	addi	s0,sp,144
    15b2:	0008                	0x8
    15b4:	0001                	nop
    15b6:	0402                	c.slli64	s0
    15b8:	031c                	addi	a5,sp,384
    15ba:	0900                	addi	s0,sp,144
    15bc:	0000                	unimp
    15be:	0001                	nop
    15c0:	0402                	c.slli64	s0
    15c2:	031c                	addi	a5,sp,384
    15c4:	0900                	addi	s0,sp,144
    15c6:	0000                	unimp
    15c8:	0001                	nop
    15ca:	0402                	c.slli64	s0
    15cc:	0355                	addi	t1,t1,21
    15ce:	0900                	addi	s0,sp,144
    15d0:	0002                	c.slli64	zero
    15d2:	0001                	nop
    15d4:	0402                	c.slli64	s0
    15d6:	0355                	addi	t1,t1,21
    15d8:	0900                	addi	s0,sp,144
    15da:	0000                	unimp
    15dc:	0001                	nop
    15de:	0402                	c.slli64	s0
    15e0:	0355                	addi	t1,t1,21
    15e2:	0900                	addi	s0,sp,144
    15e4:	0000                	unimp
    15e6:	0001                	nop
    15e8:	0402                	c.slli64	s0
    15ea:	0655                	addi	a2,a2,21
    15ec:	00097f03          	0x97f03
    15f0:	0100                	addi	s0,sp,128
    15f2:	0200                	addi	s0,sp,256
    15f4:	5504                	lw	s1,40(a0)
    15f6:	02090103          	lb	sp,32(s2)
    15fa:	0100                	addi	s0,sp,128
    15fc:	0200                	addi	s0,sp,256
    15fe:	1d04                	addi	s1,sp,688
    1600:	0306                	slli	t1,t1,0x1
    1602:	0900                	addi	s0,sp,144
    1604:	0002                	c.slli64	zero
    1606:	0601                	addi	a2,a2,0
    1608:	08090003          	lb	zero,128(s2)
    160c:	0100                	addi	s0,sp,128
    160e:	0200                	addi	s0,sp,256
    1610:	1104                	addi	s1,sp,160
    1612:	0306                	slli	t1,t1,0x1
    1614:	0900                	addi	s0,sp,144
    1616:	0006                	c.slli	zero,0x1
    1618:	0001                	nop
    161a:	0402                	c.slli64	s0
    161c:	0900032b          	0x900032b
    1620:	0008                	0x8
    1622:	0001                	nop
    1624:	0402                	c.slli64	s0
    1626:	0334                	addi	a3,sp,392
    1628:	0900                	addi	s0,sp,144
    162a:	0008                	0x8
    162c:	0001                	nop
    162e:	0402                	c.slli64	s0
    1630:	0335                	addi	t1,t1,13
    1632:	0900                	addi	s0,sp,144
    1634:	0008                	0x8
    1636:	0001                	nop
    1638:	0402                	c.slli64	s0
    163a:	09000337          	lui	t1,0x9000
    163e:	0006                	c.slli	zero,0x1
    1640:	0001                	nop
    1642:	0402                	c.slli64	s0
    1644:	09000337          	lui	t1,0x9000
    1648:	001e                	c.slli	zero,0x7
    164a:	0001                	nop
    164c:	0402                	c.slli64	s0
    164e:	0345                	addi	t1,t1,17
    1650:	0900                	addi	s0,sp,144
    1652:	0004                	0x4
    1654:	0001                	nop
    1656:	0402                	c.slli64	s0
    1658:	0345                	addi	t1,t1,17
    165a:	0900                	addi	s0,sp,144
    165c:	0000                	unimp
    165e:	0001                	nop
    1660:	0402                	c.slli64	s0
    1662:	0345                	addi	t1,t1,17
    1664:	0900                	addi	s0,sp,144
    1666:	0000                	unimp
    1668:	0001                	nop
    166a:	0402                	c.slli64	s0
    166c:	0345                	addi	t1,t1,17
    166e:	0900                	addi	s0,sp,144
    1670:	0002                	c.slli64	zero
    1672:	0001                	nop
    1674:	0402                	c.slli64	s0
    1676:	0345                	addi	t1,t1,17
    1678:	0900                	addi	s0,sp,144
    167a:	000a                	c.slli	zero,0x2
    167c:	0001                	nop
    167e:	0402                	c.slli64	s0
    1680:	0345                	addi	t1,t1,17
    1682:	0900                	addi	s0,sp,144
    1684:	0000                	unimp
    1686:	0001                	nop
    1688:	0402                	c.slli64	s0
    168a:	037f                	0x37f
    168c:	0900                	addi	s0,sp,144
    168e:	0002                	c.slli64	zero
    1690:	0001                	nop
    1692:	01bb0403          	lb	s0,27(s6)
    1696:	0a090003          	lb	zero,160(s2)
    169a:	0100                	addi	s0,sp,128
    169c:	0300                	addi	s0,sp,384
    169e:	bb04                	fsd	fs1,48(a4)
    16a0:	0301                	addi	t1,t1,0
    16a2:	0900                	addi	s0,sp,144
    16a4:	0000                	unimp
    16a6:	0001                	nop
    16a8:	01bb0403          	lb	s0,27(s6)
    16ac:	02090003          	lb	zero,32(s2)
    16b0:	0100                	addi	s0,sp,128
    16b2:	0300                	addi	s0,sp,384
    16b4:	bb04                	fsd	fs1,48(a4)
    16b6:	0301                	addi	t1,t1,0
    16b8:	0900                	addi	s0,sp,144
    16ba:	0000                	unimp
    16bc:	0001                	nop
    16be:	01bb0403          	lb	s0,27(s6)
    16c2:	00090003          	lb	zero,0(s2)
    16c6:	0100                	addi	s0,sp,128
    16c8:	0300                	addi	s0,sp,384
    16ca:	bb04                	fsd	fs1,48(a4)
    16cc:	0301                	addi	t1,t1,0
    16ce:	0900                	addi	s0,sp,144
    16d0:	0000                	unimp
    16d2:	0601                	addi	a2,a2,0
    16d4:	08090003          	lb	zero,128(s2)
    16d8:	0100                	addi	s0,sp,128
    16da:	0200                	addi	s0,sp,256
    16dc:	3804                	fld	fs1,48(s0)
    16de:	0306                	slli	t1,t1,0x1
    16e0:	0900                	addi	s0,sp,144
    16e2:	001c                	0x1c
    16e4:	0001                	nop
    16e6:	0402                	c.slli64	s0
    16e8:	0003063f 01001209 	0x10012090003063f
    16f0:	0200                	addi	s0,sp,256
    16f2:	4204                	lw	s1,0(a2)
    16f4:	0c090003          	lb	zero,192(s2)
    16f8:	0100                	addi	s0,sp,128
    16fa:	0200                	addi	s0,sp,256
    16fc:	4204                	lw	s1,0(a2)
    16fe:	0306                	slli	t1,t1,0x1
    1700:	0900                	addi	s0,sp,144
    1702:	000a                	c.slli	zero,0x2
    1704:	0001                	nop
    1706:	0402                	c.slli64	s0
    1708:	0636                	slli	a2,a2,0xd
    170a:	00090003          	lb	zero,0(s2)
    170e:	0100                	addi	s0,sp,128
    1710:	0200                	addi	s0,sp,256
    1712:	3604                	fld	fs1,40(a2)
    1714:	0306                	slli	t1,t1,0x1
    1716:	0900                	addi	s0,sp,144
    1718:	0004                	0x4
    171a:	0001                	nop
    171c:	0402                	c.slli64	s0
    171e:	0900030f          	0x900030f
    1722:	0008                	0x8
    1724:	0001                	nop
    1726:	0402                	c.slli64	s0
    1728:	09000347          	fmsub.s	ft6,ft0,fa6,ft1,rne
    172c:	0004                	0x4
    172e:	0001                	nop
    1730:	0402                	c.slli64	s0
    1732:	09000347          	fmsub.s	ft6,ft0,fa6,ft1,rne
    1736:	0004                	0x4
    1738:	0001                	nop
    173a:	0402                	c.slli64	s0
    173c:	09000347          	fmsub.s	ft6,ft0,fa6,ft1,rne
    1740:	0000                	unimp
    1742:	0001                	nop
    1744:	0402                	c.slli64	s0
    1746:	0349                	addi	t1,t1,18
    1748:	0900                	addi	s0,sp,144
    174a:	0002                	c.slli64	zero
    174c:	0001                	nop
    174e:	0402                	c.slli64	s0
    1750:	034c                	addi	a1,sp,388
    1752:	0900                	addi	s0,sp,144
    1754:	0008                	0x8
    1756:	0001                	nop
    1758:	0402                	c.slli64	s0
    175a:	034c                	addi	a1,sp,388
    175c:	0900                	addi	s0,sp,144
    175e:	0000                	unimp
    1760:	0001                	nop
    1762:	0402                	c.slli64	s0
    1764:	034c                	addi	a1,sp,388
    1766:	0900                	addi	s0,sp,144
    1768:	0004                	0x4
    176a:	0001                	nop
    176c:	0402                	c.slli64	s0
    176e:	0355                	addi	t1,t1,21
    1770:	0900                	addi	s0,sp,144
    1772:	0002                	c.slli64	zero
    1774:	0001                	nop
    1776:	0402                	c.slli64	s0
    1778:	0355                	addi	t1,t1,21
    177a:	0900                	addi	s0,sp,144
    177c:	0000                	unimp
    177e:	0001                	nop
    1780:	0402                	c.slli64	s0
    1782:	0355                	addi	t1,t1,21
    1784:	0900                	addi	s0,sp,144
    1786:	0000                	unimp
    1788:	0001                	nop
    178a:	0402                	c.slli64	s0
    178c:	0355                	addi	t1,t1,21
    178e:	0900                	addi	s0,sp,144
    1790:	0002                	c.slli64	zero
    1792:	0001                	nop
    1794:	0402                	c.slli64	s0
    1796:	0356                	slli	t1,t1,0x15
    1798:	0900                	addi	s0,sp,144
    179a:	000a                	c.slli	zero,0x2
    179c:	0601                	addi	a2,a2,0
    179e:	08097f03          	0x8097f03
    17a2:	0100                	addi	s0,sp,128
    17a4:	0200                	addi	s0,sp,256
    17a6:	4a04                	lw	s1,16(a2)
    17a8:	0306                	slli	t1,t1,0x1
    17aa:	0901                	addi	s2,s2,0
    17ac:	0006                	c.slli	zero,0x1
    17ae:	0001                	nop
    17b0:	0402                	c.slli64	s0
    17b2:	0364                	addi	s1,sp,396
    17b4:	0900                	addi	s0,sp,144
    17b6:	0008                	0x8
    17b8:	0001                	nop
    17ba:	0402                	c.slli64	s0
    17bc:	036d                	addi	t1,t1,27
    17be:	0900                	addi	s0,sp,144
    17c0:	0008                	0x8
    17c2:	0001                	nop
    17c4:	0402                	c.slli64	s0
    17c6:	036e                	slli	t1,t1,0x1b
    17c8:	0900                	addi	s0,sp,144
    17ca:	0008                	0x8
    17cc:	0001                	nop
    17ce:	0402                	c.slli64	s0
    17d0:	0370                	addi	a2,sp,396
    17d2:	0900                	addi	s0,sp,144
    17d4:	0006                	c.slli	zero,0x1
    17d6:	0001                	nop
    17d8:	0402                	c.slli64	s0
    17da:	0370                	addi	a2,sp,396
    17dc:	0900                	addi	s0,sp,144
    17de:	001e                	c.slli	zero,0x7
    17e0:	0001                	nop
    17e2:	0402                	c.slli64	s0
    17e4:	037e                	slli	t1,t1,0x1f
    17e6:	0900                	addi	s0,sp,144
    17e8:	0004                	0x4
    17ea:	0001                	nop
    17ec:	0402                	c.slli64	s0
    17ee:	037e                	slli	t1,t1,0x1f
    17f0:	0900                	addi	s0,sp,144
    17f2:	0000                	unimp
    17f4:	0001                	nop
    17f6:	0402                	c.slli64	s0
    17f8:	037e                	slli	t1,t1,0x1f
    17fa:	0900                	addi	s0,sp,144
    17fc:	0000                	unimp
    17fe:	0001                	nop
    1800:	0402                	c.slli64	s0
    1802:	037e                	slli	t1,t1,0x1f
    1804:	0900                	addi	s0,sp,144
    1806:	0004                	0x4
    1808:	0001                	nop
    180a:	0402                	c.slli64	s0
    180c:	037e                	slli	t1,t1,0x1f
    180e:	0900                	addi	s0,sp,144
    1810:	0008                	0x8
    1812:	0001                	nop
    1814:	0402                	c.slli64	s0
    1816:	037e                	slli	t1,t1,0x1f
    1818:	0900                	addi	s0,sp,144
    181a:	0000                	unimp
    181c:	0001                	nop
    181e:	0402                	c.slli64	s0
    1820:	067e                	slli	a2,a2,0x1f
    1822:	00097f03          	0x97f03
    1826:	0100                	addi	s0,sp,128
    1828:	0200                	addi	s0,sp,256
    182a:	7104                	flw	fs1,32(a0)
    182c:	0306                	slli	t1,t1,0x1
    182e:	0901                	addi	s2,s2,0
    1830:	0004                	0x4
    1832:	0001                	nop
    1834:	0402                	c.slli64	s0
    1836:	0678                	addi	a4,sp,780
    1838:	12090003          	lb	zero,288(s2)
    183c:	0100                	addi	s0,sp,128
    183e:	0200                	addi	s0,sp,256
    1840:	7b04                	flw	fs1,48(a4)
    1842:	0a090003          	lb	zero,160(s2)
    1846:	0100                	addi	s0,sp,128
    1848:	0200                	addi	s0,sp,256
    184a:	7b04                	flw	fs1,48(a4)
    184c:	0306                	slli	t1,t1,0x1
    184e:	0900                	addi	s0,sp,144
    1850:	000a                	c.slli	zero,0x2
    1852:	0001                	nop
    1854:	0402                	c.slli64	s0
    1856:	0003066f          	jal	a2,31856 <.LC0+0x2d706>
    185a:	0009                	c.nop	2
    185c:	0100                	addi	s0,sp,128
    185e:	0200                	addi	s0,sp,256
    1860:	6f04                	flw	fs1,24(a4)
    1862:	0306                	slli	t1,t1,0x1
    1864:	0900                	addi	s0,sp,144
    1866:	0004                	0x4
    1868:	0001                	nop
    186a:	0402                	c.slli64	s0
    186c:	0348                	addi	a0,sp,388
    186e:	0900                	addi	s0,sp,144
    1870:	000a                	c.slli	zero,0x2
    1872:	0001                	nop
    1874:	01800403          	lb	s0,24(zero) # 18 <_call_main>
    1878:	0a090003          	lb	zero,160(s2)
    187c:	0100                	addi	s0,sp,128
    187e:	0300                	addi	s0,sp,384
    1880:	8204                	0x8204
    1882:	0301                	addi	t1,t1,0
    1884:	0900                	addi	s0,sp,144
    1886:	0006                	c.slli	zero,0x1
    1888:	0001                	nop
    188a:	01820403          	lb	s0,24(tp) # 1d018 <.LC0+0x18ec8>
    188e:	00090003          	lb	zero,0(s2)
    1892:	0100                	addi	s0,sp,128
    1894:	0300                	addi	s0,sp,384
    1896:	8504                	0x8504
    1898:	0301                	addi	t1,t1,0
    189a:	0900                	addi	s0,sp,144
    189c:	0004                	0x4
    189e:	0001                	nop
    18a0:	018b0403          	lb	s0,24(s6)
    18a4:	06090003          	lb	zero,96(s2)
    18a8:	0100                	addi	s0,sp,128
    18aa:	0300                	addi	s0,sp,384
    18ac:	8b04                	0x8b04
    18ae:	0301                	addi	t1,t1,0
    18b0:	0900                	addi	s0,sp,144
    18b2:	0000                	unimp
    18b4:	0001                	nop
    18b6:	018b0403          	lb	s0,24(s6)
    18ba:	00090003          	lb	zero,0(s2)
    18be:	0100                	addi	s0,sp,128
    18c0:	0300                	addi	s0,sp,384
    18c2:	8b04                	0x8b04
    18c4:	0301                	addi	t1,t1,0
    18c6:	0900                	addi	s0,sp,144
    18c8:	0000                	unimp
    18ca:	0001                	nop
    18cc:	018b0403          	lb	s0,24(s6)
    18d0:	02090003          	lb	zero,32(s2)
    18d4:	0100                	addi	s0,sp,128
    18d6:	0300                	addi	s0,sp,384
    18d8:	8b04                	0x8b04
    18da:	0301                	addi	t1,t1,0
    18dc:	0900                	addi	s0,sp,144
    18de:	0008                	0x8
    18e0:	0001                	nop
    18e2:	018b0403          	lb	s0,24(s6)
    18e6:	00090003          	lb	zero,0(s2)
    18ea:	0100                	addi	s0,sp,128
    18ec:	0300                	addi	s0,sp,384
    18ee:	8b04                	0x8b04
    18f0:	0301                	addi	t1,t1,0
    18f2:	0900                	addi	s0,sp,144
    18f4:	0000                	unimp
    18f6:	0001                	nop
    18f8:	018d0403          	lb	s0,24(s10) # b018 <.LC0+0x6ec8>
    18fc:	0a090003          	lb	zero,160(s2)
    1900:	0100                	addi	s0,sp,128
    1902:	0300                	addi	s0,sp,384
    1904:	8d04                	0x8d04
    1906:	0301                	addi	t1,t1,0
    1908:	0900                	addi	s0,sp,144
    190a:	0008                	0x8
    190c:	0001                	nop
    190e:	03aa0403          	lb	s0,58(s4)
    1912:	02090003          	lb	zero,32(s2)
    1916:	0100                	addi	s0,sp,128
    1918:	0300                	addi	s0,sp,384
    191a:	aa04                	fsd	fs1,16(a2)
    191c:	09000303          	lb	t1,144(zero) # 90 <.L16+0x8>
    1920:	0000                	unimp
    1922:	0001                	nop
    1924:	03aa0403          	lb	s0,58(s4)
    1928:	00090003          	lb	zero,0(s2)
    192c:	0100                	addi	s0,sp,128
    192e:	0300                	addi	s0,sp,384
    1930:	aa04                	fsd	fs1,16(a2)
    1932:	09010303          	lb	t1,144(sp)
    1936:	0000                	unimp
    1938:	0001                	nop
    193a:	03aa0403          	lb	s0,58(s4)
    193e:	00090003          	lb	zero,0(s2)
    1942:	0100                	addi	s0,sp,128
    1944:	0300                	addi	s0,sp,384
    1946:	aa04                	fsd	fs1,16(a2)
    1948:	09000303          	lb	t1,144(zero) # 90 <.L16+0x8>
    194c:	0000                	unimp
    194e:	0001                	nop
    1950:	03aa0403          	lb	s0,58(s4)
    1954:	00090003          	lb	zero,0(s2)
    1958:	0100                	addi	s0,sp,128
    195a:	0300                	addi	s0,sp,384
    195c:	aa04                	fsd	fs1,16(a2)
    195e:	09000303          	lb	t1,144(zero) # 90 <.L16+0x8>
    1962:	0000                	unimp
    1964:	0001                	nop
    1966:	0402                	c.slli64	s0
    1968:	0325                	addi	t1,t1,9
    196a:	0900                	addi	s0,sp,144
    196c:	0008                	0x8
    196e:	0001                	nop
    1970:	0402                	c.slli64	s0
    1972:	0325                	addi	t1,t1,9
    1974:	0900                	addi	s0,sp,144
    1976:	0000                	unimp
    1978:	0001                	nop
    197a:	0402                	c.slli64	s0
    197c:	0325                	addi	t1,t1,9
    197e:	0900                	addi	s0,sp,144
    1980:	0000                	unimp
    1982:	0001                	nop
    1984:	0402                	c.slli64	s0
    1986:	0325                	addi	t1,t1,9
    1988:	0900                	addi	s0,sp,144
    198a:	0000                	unimp
    198c:	0001                	nop
    198e:	0402                	c.slli64	s0
    1990:	032c                	addi	a1,sp,392
    1992:	0900                	addi	s0,sp,144
    1994:	000a                	c.slli	zero,0x2
    1996:	0001                	nop
    1998:	0402                	c.slli64	s0
    199a:	032c                	addi	a1,sp,392
    199c:	0900                	addi	s0,sp,144
    199e:	0000                	unimp
    19a0:	0001                	nop
    19a2:	0402                	c.slli64	s0
    19a4:	032c                	addi	a1,sp,392
    19a6:	0900                	addi	s0,sp,144
    19a8:	0000                	unimp
    19aa:	0001                	nop
    19ac:	0402                	c.slli64	s0
    19ae:	032c                	addi	a1,sp,392
    19b0:	0900                	addi	s0,sp,144
    19b2:	0004                	0x4
    19b4:	0001                	nop
    19b6:	0402                	c.slli64	s0
    19b8:	032c                	addi	a1,sp,392
    19ba:	0900                	addi	s0,sp,144
    19bc:	0006                	c.slli	zero,0x1
    19be:	0001                	nop
    19c0:	019e0403          	lb	s0,25(t3)
    19c4:	04097f03          	0x4097f03
    19c8:	0100                	addi	s0,sp,128
    19ca:	0300                	addi	s0,sp,384
    19cc:	9e04                	0x9e04
    19ce:	0301                	addi	t1,t1,0
    19d0:	0900                	addi	s0,sp,144
    19d2:	0000                	unimp
    19d4:	0001                	nop
    19d6:	019e0403          	lb	s0,25(t3)
    19da:	00090003          	lb	zero,0(s2)
    19de:	0100                	addi	s0,sp,128
    19e0:	0300                	addi	s0,sp,384
    19e2:	9e04                	0x9e04
    19e4:	0301                	addi	t1,t1,0
    19e6:	0900                	addi	s0,sp,144
    19e8:	0000                	unimp
    19ea:	0001                	nop
    19ec:	019e0403          	lb	s0,25(t3)
    19f0:	00090003          	lb	zero,0(s2)
    19f4:	0100                	addi	s0,sp,128
    19f6:	0300                	addi	s0,sp,384
    19f8:	9e04                	0x9e04
    19fa:	0301                	addi	t1,t1,0
    19fc:	0900                	addi	s0,sp,144
    19fe:	0000                	unimp
    1a00:	0001                	nop
    1a02:	019e0403          	lb	s0,25(t3)
    1a06:	00090003          	lb	zero,0(s2)
    1a0a:	0100                	addi	s0,sp,128
    1a0c:	0300                	addi	s0,sp,384
    1a0e:	9e04                	0x9e04
    1a10:	0301                	addi	t1,t1,0
    1a12:	0900                	addi	s0,sp,144
    1a14:	0000                	unimp
    1a16:	0001                	nop
    1a18:	01a00403          	lb	s0,26(zero) # 1a <_call_main+0x2>
    1a1c:	02090003          	lb	zero,32(s2)
    1a20:	0100                	addi	s0,sp,128
    1a22:	0306                	slli	t1,t1,0x1
    1a24:	0900                	addi	s0,sp,144
    1a26:	0006                	c.slli	zero,0x1
    1a28:	0001                	nop
    1a2a:	01810403          	lb	s0,24(sp)
    1a2e:	0306                	slli	t1,t1,0x1
    1a30:	0900                	addi	s0,sp,144
    1a32:	000e                	c.slli	zero,0x3
    1a34:	0001                	nop
    1a36:	01810403          	lb	s0,24(sp)
    1a3a:	00090003          	lb	zero,0(s2)
    1a3e:	0100                	addi	s0,sp,128
    1a40:	0300                	addi	s0,sp,384
    1a42:	8104                	0x8104
    1a44:	0301                	addi	t1,t1,0
    1a46:	0900                	addi	s0,sp,144
    1a48:	0000                	unimp
    1a4a:	0001                	nop
    1a4c:	01810403          	lb	s0,24(sp)
    1a50:	00090003          	lb	zero,0(s2)
    1a54:	0100                	addi	s0,sp,128
    1a56:	0300                	addi	s0,sp,384
    1a58:	8104                	0x8104
    1a5a:	0301                	addi	t1,t1,0
    1a5c:	0900                	addi	s0,sp,144
    1a5e:	0000                	unimp
    1a60:	0001                	nop
    1a62:	01810403          	lb	s0,24(sp)
    1a66:	00090003          	lb	zero,0(s2)
    1a6a:	0100                	addi	s0,sp,128
    1a6c:	0300                	addi	s0,sp,384
    1a6e:	8104                	0x8104
    1a70:	0301                	addi	t1,t1,0
    1a72:	0900                	addi	s0,sp,144
    1a74:	0000                	unimp
    1a76:	0001                	nop
    1a78:	01810403          	lb	s0,24(sp)
    1a7c:	00090003          	lb	zero,0(s2)
    1a80:	0100                	addi	s0,sp,128
    1a82:	0300                	addi	s0,sp,384
    1a84:	8104                	0x8104
    1a86:	0301                	addi	t1,t1,0
    1a88:	0900                	addi	s0,sp,144
    1a8a:	0000                	unimp
    1a8c:	0001                	nop
    1a8e:	01810403          	lb	s0,24(sp)
    1a92:	00090003          	lb	zero,0(s2)
    1a96:	0100                	addi	s0,sp,128
    1a98:	0300                	addi	s0,sp,384
    1a9a:	8104                	0x8104
    1a9c:	0301                	addi	t1,t1,0
    1a9e:	0900                	addi	s0,sp,144
    1aa0:	0000                	unimp
    1aa2:	0601                	addi	a2,a2,0
    1aa4:	08090003          	lb	zero,128(s2)
    1aa8:	0100                	addi	s0,sp,128
    1aaa:	0200                	addi	s0,sp,256
    1aac:	0d04                	addi	s1,sp,656
    1aae:	0306                	slli	t1,t1,0x1
    1ab0:	0900                	addi	s0,sp,144
    1ab2:	001a                	c.slli	zero,0x6
    1ab4:	0001                	nop
    1ab6:	0402                	c.slli64	s0
    1ab8:	030d                	addi	t1,t1,3
    1aba:	0900                	addi	s0,sp,144
    1abc:	0000                	unimp
    1abe:	0001                	nop
    1ac0:	01cd0403          	lb	s0,28(s10)
    1ac4:	04090003          	lb	zero,64(s2)
    1ac8:	0100                	addi	s0,sp,128
    1aca:	0300                	addi	s0,sp,384
    1acc:	cd04                	sw	s1,24(a0)
    1ace:	0301                	addi	t1,t1,0
    1ad0:	0900                	addi	s0,sp,144
    1ad2:	0000                	unimp
    1ad4:	0001                	nop
    1ad6:	01cd0403          	lb	s0,28(s10)
    1ada:	00090003          	lb	zero,0(s2)
    1ade:	0100                	addi	s0,sp,128
    1ae0:	0300                	addi	s0,sp,384
    1ae2:	cf04                	sw	s1,24(a4)
    1ae4:	0301                	addi	t1,t1,0
    1ae6:	0900                	addi	s0,sp,144
    1ae8:	0004                	0x4
    1aea:	0001                	nop
    1aec:	01d20403          	lb	s0,29(tp) # 1d <.LASF0>
    1af0:	08090003          	lb	zero,128(s2)
    1af4:	0100                	addi	s0,sp,128
    1af6:	0300                	addi	s0,sp,384
    1af8:	d204                	sw	s1,32(a2)
    1afa:	0301                	addi	t1,t1,0
    1afc:	0900                	addi	s0,sp,144
    1afe:	0000                	unimp
    1b00:	0001                	nop
    1b02:	01d20403          	lb	s0,29(tp) # 1d <.LASF0>
    1b06:	04090003          	lb	zero,64(s2)
    1b0a:	0100                	addi	s0,sp,128
    1b0c:	0300                	addi	s0,sp,384
    1b0e:	db04                	sw	s1,48(a4)
    1b10:	0301                	addi	t1,t1,0
    1b12:	0900                	addi	s0,sp,144
    1b14:	0002                	c.slli64	zero
    1b16:	0001                	nop
    1b18:	01db0403          	lb	s0,29(s6)
    1b1c:	00090003          	lb	zero,0(s2)
    1b20:	0100                	addi	s0,sp,128
    1b22:	0300                	addi	s0,sp,384
    1b24:	db04                	sw	s1,48(a4)
    1b26:	0301                	addi	t1,t1,0
    1b28:	0900                	addi	s0,sp,144
    1b2a:	0000                	unimp
    1b2c:	0001                	nop
    1b2e:	01db0403          	lb	s0,29(s6)
    1b32:	04090003          	lb	zero,64(s2)
    1b36:	0100                	addi	s0,sp,128
    1b38:	0300                	addi	s0,sp,384
    1b3a:	db04                	sw	s1,48(a4)
    1b3c:	0301                	addi	t1,t1,0
    1b3e:	0900                	addi	s0,sp,144
    1b40:	0008                	0x8
    1b42:	0001                	nop
    1b44:	01db0403          	lb	s0,29(s6)
    1b48:	00090003          	lb	zero,0(s2)
    1b4c:	0100                	addi	s0,sp,128
    1b4e:	0300                	addi	s0,sp,384
    1b50:	db04                	sw	s1,48(a4)
    1b52:	0301                	addi	t1,t1,0
    1b54:	0900                	addi	s0,sp,144
    1b56:	0000                	unimp
    1b58:	0001                	nop
    1b5a:	02940403          	lb	s0,41(s0)
    1b5e:	0306                	slli	t1,t1,0x1
    1b60:	097f                	0x97f
    1b62:	0002                	c.slli64	zero
    1b64:	0001                	nop
    1b66:	02940403          	lb	s0,41(s0)
    1b6a:	02090103          	lb	sp,32(s2)
    1b6e:	0100                	addi	s0,sp,128
    1b70:	0300                	addi	s0,sp,384
    1b72:	dc04                	sw	s1,56(s0)
    1b74:	0601                	addi	a2,a2,0
    1b76:	02090003          	lb	zero,32(s2)
    1b7a:	0100                	addi	s0,sp,128
    1b7c:	0300                	addi	s0,sp,384
    1b7e:	f304                	fsw	fs1,32(a4)
    1b80:	0301                	addi	t1,t1,0
    1b82:	0900                	addi	s0,sp,144
    1b84:	0008                	0x8
    1b86:	0001                	nop
    1b88:	01f40403          	lb	s0,31(s0)
    1b8c:	08090003          	lb	zero,128(s2)
    1b90:	0100                	addi	s0,sp,128
    1b92:	0300                	addi	s0,sp,384
    1b94:	f604                	fsw	fs1,40(a2)
    1b96:	0301                	addi	t1,t1,0
    1b98:	0900                	addi	s0,sp,144
    1b9a:	0006                	c.slli	zero,0x1
    1b9c:	0001                	nop
    1b9e:	01f60403          	lb	s0,31(a2) # b01f <.LC0+0x6ecf>
    1ba2:	1e090003          	lb	zero,480(s2)
    1ba6:	0100                	addi	s0,sp,128
    1ba8:	0300                	addi	s0,sp,384
    1baa:	8404                	0x8404
    1bac:	0302                	c.slli64	t1
    1bae:	0900                	addi	s0,sp,144
    1bb0:	0004                	0x4
    1bb2:	0001                	nop
    1bb4:	02840403          	lb	s0,40(s0)
    1bb8:	00090003          	lb	zero,0(s2)
    1bbc:	0100                	addi	s0,sp,128
    1bbe:	0300                	addi	s0,sp,384
    1bc0:	8404                	0x8404
    1bc2:	0302                	c.slli64	t1
    1bc4:	0900                	addi	s0,sp,144
    1bc6:	0000                	unimp
    1bc8:	0001                	nop
    1bca:	02840403          	lb	s0,40(s0)
    1bce:	04090003          	lb	zero,64(s2)
    1bd2:	0100                	addi	s0,sp,128
    1bd4:	0300                	addi	s0,sp,384
    1bd6:	8404                	0x8404
    1bd8:	0302                	c.slli64	t1
    1bda:	0900                	addi	s0,sp,144
    1bdc:	000c                	0xc
    1bde:	0001                	nop
    1be0:	02840403          	lb	s0,40(s0)
    1be4:	00090003          	lb	zero,0(s2)
    1be8:	0100                	addi	s0,sp,128
    1bea:	0300                	addi	s0,sp,384
    1bec:	be04                	fsd	fs1,56(a2)
    1bee:	0302                	c.slli64	t1
    1bf0:	0900                	addi	s0,sp,144
    1bf2:	0002                	c.slli64	zero
    1bf4:	0001                	nop
    1bf6:	02fa0403          	lb	s0,47(s4)
    1bfa:	0a090003          	lb	zero,160(s2)
    1bfe:	0100                	addi	s0,sp,128
    1c00:	0300                	addi	s0,sp,384
    1c02:	fa04                	fsw	fs1,48(a2)
    1c04:	0302                	c.slli64	t1
    1c06:	0900                	addi	s0,sp,144
    1c08:	0000                	unimp
    1c0a:	0001                	nop
    1c0c:	01d00403          	lb	s0,29(zero) # 1d <.LASF0>
    1c10:	0a090003          	lb	zero,160(s2)
    1c14:	0100                	addi	s0,sp,128
    1c16:	0300                	addi	s0,sp,384
    1c18:	ea04                	fsw	fs1,16(a2)
    1c1a:	0301                	addi	t1,t1,0
    1c1c:	0900                	addi	s0,sp,144
    1c1e:	0008                	0x8
    1c20:	0001                	nop
    1c22:	01f70403          	lb	s0,31(a4)
    1c26:	0a090003          	lb	zero,160(s2)
    1c2a:	0100                	addi	s0,sp,128
    1c2c:	0300                	addi	s0,sp,384
    1c2e:	fe04                	fsw	fs1,56(a2)
    1c30:	0601                	addi	a2,a2,0
    1c32:	12090003          	lb	zero,288(s2)
    1c36:	0100                	addi	s0,sp,128
    1c38:	0300                	addi	s0,sp,384
    1c3a:	8104                	0x8104
    1c3c:	0302                	c.slli64	t1
    1c3e:	0900                	addi	s0,sp,144
    1c40:	000c                	0xc
    1c42:	0001                	nop
    1c44:	02810403          	lb	s0,40(sp)
    1c48:	0306                	slli	t1,t1,0x1
    1c4a:	0900                	addi	s0,sp,144
    1c4c:	000a                	c.slli	zero,0x2
    1c4e:	0001                	nop
    1c50:	01f50403          	lb	s0,31(a0)
    1c54:	0306                	slli	t1,t1,0x1
    1c56:	0900                	addi	s0,sp,144
    1c58:	0000                	unimp
    1c5a:	0001                	nop
    1c5c:	01f50403          	lb	s0,31(a0)
    1c60:	0306                	slli	t1,t1,0x1
    1c62:	0900                	addi	s0,sp,144
    1c64:	0004                	0x4
    1c66:	0001                	nop
    1c68:	01ce0403          	lb	s0,28(t3)
    1c6c:	08090003          	lb	zero,128(s2)
    1c70:	0100                	addi	s0,sp,128
    1c72:	0300                	addi	s0,sp,384
    1c74:	8604                	0x8604
    1c76:	0302                	c.slli64	t1
    1c78:	0900                	addi	s0,sp,144
    1c7a:	0004                	0x4
    1c7c:	0001                	nop
    1c7e:	02860403          	lb	s0,40(a2)
    1c82:	04090003          	lb	zero,64(s2)
    1c86:	0100                	addi	s0,sp,128
    1c88:	0300                	addi	s0,sp,384
    1c8a:	8604                	0x8604
    1c8c:	0302                	c.slli64	t1
    1c8e:	0900                	addi	s0,sp,144
    1c90:	0000                	unimp
    1c92:	0001                	nop
    1c94:	02860403          	lb	s0,40(a2)
    1c98:	00090003          	lb	zero,0(s2)
    1c9c:	0100                	addi	s0,sp,128
    1c9e:	0300                	addi	s0,sp,384
    1ca0:	8804                	0x8804
    1ca2:	0302                	c.slli64	t1
    1ca4:	0900                	addi	s0,sp,144
    1ca6:	0002                	c.slli64	zero
    1ca8:	0001                	nop
    1caa:	028b0403          	lb	s0,40(s6)
    1cae:	08090003          	lb	zero,128(s2)
    1cb2:	0100                	addi	s0,sp,128
    1cb4:	0300                	addi	s0,sp,384
    1cb6:	8b04                	0x8b04
    1cb8:	0302                	c.slli64	t1
    1cba:	0900                	addi	s0,sp,144
    1cbc:	0000                	unimp
    1cbe:	0001                	nop
    1cc0:	028b0403          	lb	s0,40(s6)
    1cc4:	04090003          	lb	zero,64(s2)
    1cc8:	0100                	addi	s0,sp,128
    1cca:	0300                	addi	s0,sp,384
    1ccc:	9404                	0x9404
    1cce:	0302                	c.slli64	t1
    1cd0:	0900                	addi	s0,sp,144
    1cd2:	0004                	0x4
    1cd4:	0001                	nop
    1cd6:	02940403          	lb	s0,41(s0)
    1cda:	00090003          	lb	zero,0(s2)
    1cde:	0100                	addi	s0,sp,128
    1ce0:	0300                	addi	s0,sp,384
    1ce2:	9404                	0x9404
    1ce4:	0302                	c.slli64	t1
    1ce6:	0900                	addi	s0,sp,144
    1ce8:	0000                	unimp
    1cea:	0001                	nop
    1cec:	02940403          	lb	s0,41(s0)
    1cf0:	04090003          	lb	zero,64(s2)
    1cf4:	0100                	addi	s0,sp,128
    1cf6:	0300                	addi	s0,sp,384
    1cf8:	9404                	0x9404
    1cfa:	0302                	c.slli64	t1
    1cfc:	0900                	addi	s0,sp,144
    1cfe:	000a                	c.slli	zero,0x2
    1d00:	0001                	nop
    1d02:	02940403          	lb	s0,41(s0)
    1d06:	00090003          	lb	zero,0(s2)
    1d0a:	0100                	addi	s0,sp,128
    1d0c:	0300                	addi	s0,sp,384
    1d0e:	9404                	0x9404
    1d10:	0302                	c.slli64	t1
    1d12:	0900                	addi	s0,sp,144
    1d14:	0000                	unimp
    1d16:	0001                	nop
    1d18:	02950403          	lb	s0,41(a0)
    1d1c:	04090003          	lb	zero,64(s2)
    1d20:	0100                	addi	s0,sp,128
    1d22:	0306                	slli	t1,t1,0x1
    1d24:	097f                	0x97f
    1d26:	0008                	0x8
    1d28:	0301                	addi	t1,t1,0
    1d2a:	0901                	addi	s2,s2,0
    1d2c:	0004                	0x4
    1d2e:	0001                	nop
    1d30:	02890403          	lb	s0,40(s2)
    1d34:	0306                	slli	t1,t1,0x1
    1d36:	0900                	addi	s0,sp,144
    1d38:	0006                	c.slli	zero,0x1
    1d3a:	0001                	nop
    1d3c:	02a30403          	lb	s0,42(t1) # 900002a <.LC0+0x8ffbeda>
    1d40:	08090003          	lb	zero,128(s2)
    1d44:	0100                	addi	s0,sp,128
    1d46:	0300                	addi	s0,sp,384
    1d48:	ac04                	fsd	fs1,24(s0)
    1d4a:	0302                	c.slli64	t1
    1d4c:	0900                	addi	s0,sp,144
    1d4e:	000a                	c.slli	zero,0x2
    1d50:	0001                	nop
    1d52:	02ad0403          	lb	s0,42(s10)
    1d56:	08090003          	lb	zero,128(s2)
    1d5a:	0100                	addi	s0,sp,128
    1d5c:	0300                	addi	s0,sp,384
    1d5e:	af04                	fsd	fs1,24(a4)
    1d60:	0302                	c.slli64	t1
    1d62:	0900                	addi	s0,sp,144
    1d64:	0006                	c.slli	zero,0x1
    1d66:	0001                	nop
    1d68:	02af0403          	lb	s0,42(t5)
    1d6c:	1e090003          	lb	zero,480(s2)
    1d70:	0100                	addi	s0,sp,128
    1d72:	0300                	addi	s0,sp,384
    1d74:	bd04                	fsd	fs1,56(a0)
    1d76:	0302                	c.slli64	t1
    1d78:	0900                	addi	s0,sp,144
    1d7a:	0004                	0x4
    1d7c:	0001                	nop
    1d7e:	02bd0403          	lb	s0,43(s10)
    1d82:	00090003          	lb	zero,0(s2)
    1d86:	0100                	addi	s0,sp,128
    1d88:	0300                	addi	s0,sp,384
    1d8a:	bd04                	fsd	fs1,56(a0)
    1d8c:	0302                	c.slli64	t1
    1d8e:	0900                	addi	s0,sp,144
    1d90:	0000                	unimp
    1d92:	0001                	nop
    1d94:	02bd0403          	lb	s0,43(s10)
    1d98:	04090003          	lb	zero,64(s2)
    1d9c:	0100                	addi	s0,sp,128
    1d9e:	0300                	addi	s0,sp,384
    1da0:	bd04                	fsd	fs1,56(a0)
    1da2:	0302                	c.slli64	t1
    1da4:	0900                	addi	s0,sp,144
    1da6:	000a                	c.slli	zero,0x2
    1da8:	0001                	nop
    1daa:	02bd0403          	lb	s0,43(s10)
    1dae:	00090003          	lb	zero,0(s2)
    1db2:	0100                	addi	s0,sp,128
    1db4:	0300                	addi	s0,sp,384
    1db6:	bd04                	fsd	fs1,56(a0)
    1db8:	0602                	c.slli64	a2
    1dba:	00097f03          	0x97f03
    1dbe:	0100                	addi	s0,sp,128
    1dc0:	0300                	addi	s0,sp,384
    1dc2:	b004                	fsd	fs1,32(s0)
    1dc4:	0602                	c.slli64	a2
    1dc6:	06090103          	lb	sp,96(s2)
    1dca:	0100                	addi	s0,sp,128
    1dcc:	0300                	addi	s0,sp,384
    1dce:	b704                	fsd	fs1,40(a4)
    1dd0:	0602                	c.slli64	a2
    1dd2:	12090003          	lb	zero,288(s2)
    1dd6:	0100                	addi	s0,sp,128
    1dd8:	0300                	addi	s0,sp,384
    1dda:	ba04                	fsd	fs1,48(a2)
    1ddc:	0302                	c.slli64	t1
    1dde:	0900                	addi	s0,sp,144
    1de0:	000c                	0xc
    1de2:	0001                	nop
    1de4:	02ba0403          	lb	s0,43(s4)
    1de8:	0306                	slli	t1,t1,0x1
    1dea:	0900                	addi	s0,sp,144
    1dec:	000a                	c.slli	zero,0x2
    1dee:	0001                	nop
    1df0:	02ae0403          	lb	s0,42(t3)
    1df4:	0306                	slli	t1,t1,0x1
    1df6:	0900                	addi	s0,sp,144
    1df8:	0000                	unimp
    1dfa:	0001                	nop
    1dfc:	02ae0403          	lb	s0,42(t3)
    1e00:	0306                	slli	t1,t1,0x1
    1e02:	0900                	addi	s0,sp,144
    1e04:	0004                	0x4
    1e06:	0001                	nop
    1e08:	02870403          	lb	s0,40(a4)
    1e0c:	0a090003          	lb	zero,160(s2)
    1e10:	0100                	addi	s0,sp,128
    1e12:	0300                	addi	s0,sp,384
    1e14:	bf04                	fsd	fs1,56(a4)
    1e16:	0302                	c.slli64	t1
    1e18:	0900                	addi	s0,sp,144
    1e1a:	000a                	c.slli	zero,0x2
    1e1c:	0001                	nop
    1e1e:	02c10403          	lb	s0,44(sp)
    1e22:	0a090003          	lb	zero,160(s2)
    1e26:	0100                	addi	s0,sp,128
    1e28:	0300                	addi	s0,sp,384
    1e2a:	c104                	sw	s1,0(a0)
    1e2c:	0302                	c.slli64	t1
    1e2e:	0900                	addi	s0,sp,144
    1e30:	0000                	unimp
    1e32:	0001                	nop
    1e34:	02c30403          	lb	s0,44(t1)
    1e38:	04090003          	lb	zero,64(s2)
    1e3c:	0100                	addi	s0,sp,128
    1e3e:	0300                	addi	s0,sp,384
    1e40:	c304                	sw	s1,0(a4)
    1e42:	0302                	c.slli64	t1
    1e44:	0900                	addi	s0,sp,144
    1e46:	0000                	unimp
    1e48:	0601                	addi	a2,a2,0
    1e4a:	04097f03          	0x4097f03
    1e4e:	0100                	addi	s0,sp,128
    1e50:	0300                	addi	s0,sp,384
    1e52:	c404                	sw	s1,8(s0)
    1e54:	0602                	c.slli64	a2
    1e56:	08090103          	lb	sp,128(s2)
    1e5a:	0100                	addi	s0,sp,128
    1e5c:	0300                	addi	s0,sp,384
    1e5e:	cb04                	sw	s1,16(a4)
    1e60:	0302                	c.slli64	t1
    1e62:	0900                	addi	s0,sp,144
    1e64:	0004                	0x4
    1e66:	0001                	nop
    1e68:	02cb0403          	lb	s0,44(s6)
    1e6c:	00090003          	lb	zero,0(s2)
    1e70:	0100                	addi	s0,sp,128
    1e72:	0300                	addi	s0,sp,384
    1e74:	cb04                	sw	s1,16(a4)
    1e76:	0302                	c.slli64	t1
    1e78:	0900                	addi	s0,sp,144
    1e7a:	0000                	unimp
    1e7c:	0001                	nop
    1e7e:	02cb0403          	lb	s0,44(s6)
    1e82:	00090003          	lb	zero,0(s2)
    1e86:	0100                	addi	s0,sp,128
    1e88:	0300                	addi	s0,sp,384
    1e8a:	cb04                	sw	s1,16(a4)
    1e8c:	0302                	c.slli64	t1
    1e8e:	0900                	addi	s0,sp,144
    1e90:	0004                	0x4
    1e92:	0001                	nop
    1e94:	02cb0403          	lb	s0,44(s6)
    1e98:	0c090003          	lb	zero,192(s2)
    1e9c:	0100                	addi	s0,sp,128
    1e9e:	0300                	addi	s0,sp,384
    1ea0:	cb04                	sw	s1,16(a4)
    1ea2:	0302                	c.slli64	t1
    1ea4:	0900                	addi	s0,sp,144
    1ea6:	0000                	unimp
    1ea8:	0001                	nop
    1eaa:	02cb0403          	lb	s0,44(s6)
    1eae:	00090003          	lb	zero,0(s2)
    1eb2:	0100                	addi	s0,sp,128
    1eb4:	0300                	addi	s0,sp,384
    1eb6:	cb04                	sw	s1,16(a4)
    1eb8:	0302                	c.slli64	t1
    1eba:	0900                	addi	s0,sp,144
    1ebc:	0000                	unimp
    1ebe:	0001                	nop
    1ec0:	02cd0403          	lb	s0,44(s10)
    1ec4:	0c090003          	lb	zero,192(s2)
    1ec8:	0100                	addi	s0,sp,128
    1eca:	0300                	addi	s0,sp,384
    1ecc:	cd04                	sw	s1,24(a0)
    1ece:	0302                	c.slli64	t1
    1ed0:	0900                	addi	s0,sp,144
    1ed2:	0000                	unimp
    1ed4:	0001                	nop
    1ed6:	02cd0403          	lb	s0,44(s10)
    1eda:	00090003          	lb	zero,0(s2)
    1ede:	0100                	addi	s0,sp,128
    1ee0:	0300                	addi	s0,sp,384
    1ee2:	cd04                	sw	s1,24(a0)
    1ee4:	0302                	c.slli64	t1
    1ee6:	0900                	addi	s0,sp,144
    1ee8:	0004                	0x4
    1eea:	0001                	nop
    1eec:	02cd0403          	lb	s0,44(s10)
    1ef0:	0a090003          	lb	zero,160(s2)
    1ef4:	0100                	addi	s0,sp,128
    1ef6:	0300                	addi	s0,sp,384
    1ef8:	cd04                	sw	s1,24(a0)
    1efa:	0302                	c.slli64	t1
    1efc:	0900                	addi	s0,sp,144
    1efe:	0000                	unimp
    1f00:	0001                	nop
    1f02:	02cd0403          	lb	s0,44(s10)
    1f06:	00090003          	lb	zero,0(s2)
    1f0a:	0100                	addi	s0,sp,128
    1f0c:	0300                	addi	s0,sp,384
    1f0e:	ce04                	sw	s1,24(a2)
    1f10:	0302                	c.slli64	t1
    1f12:	0900                	addi	s0,sp,144
    1f14:	0002                	c.slli64	zero
    1f16:	0601                	addi	a2,a2,0
    1f18:	08090003          	lb	zero,128(s2)
    1f1c:	0100                	addi	s0,sp,128
    1f1e:	0300                	addi	s0,sp,384
    1f20:	e104                	fsw	fs1,0(a0)
    1f22:	0602                	c.slli64	a2
    1f24:	06090003          	lb	zero,96(s2)
    1f28:	0100                	addi	s0,sp,128
    1f2a:	0300                	addi	s0,sp,384
    1f2c:	e104                	fsw	fs1,0(a0)
    1f2e:	0302                	c.slli64	t1
    1f30:	0900                	addi	s0,sp,144
    1f32:	0000                	unimp
    1f34:	0001                	nop
    1f36:	02e10403          	lb	s0,46(sp)
    1f3a:	00090003          	lb	zero,0(s2)
    1f3e:	0100                	addi	s0,sp,128
    1f40:	0300                	addi	s0,sp,384
    1f42:	e104                	fsw	fs1,0(a0)
    1f44:	0302                	c.slli64	t1
    1f46:	0900                	addi	s0,sp,144
    1f48:	0000                	unimp
    1f4a:	0001                	nop
    1f4c:	02e10403          	lb	s0,46(sp)
    1f50:	00090003          	lb	zero,0(s2)
    1f54:	0100                	addi	s0,sp,128
    1f56:	0300                	addi	s0,sp,384
    1f58:	e104                	fsw	fs1,0(a0)
    1f5a:	0302                	c.slli64	t1
    1f5c:	0900                	addi	s0,sp,144
    1f5e:	0000                	unimp
    1f60:	0001                	nop
    1f62:	02e10403          	lb	s0,46(sp)
    1f66:	00090003          	lb	zero,0(s2)
    1f6a:	0100                	addi	s0,sp,128
    1f6c:	0300                	addi	s0,sp,384
    1f6e:	e104                	fsw	fs1,0(a0)
    1f70:	0302                	c.slli64	t1
    1f72:	0900                	addi	s0,sp,144
    1f74:	0000                	unimp
    1f76:	0001                	nop
    1f78:	02e20403          	lb	s0,46(tp) # 2e <.LASF24+0x5>
    1f7c:	04090003          	lb	zero,64(s2)
    1f80:	0100                	addi	s0,sp,128
    1f82:	0306                	slli	t1,t1,0x1
    1f84:	097f                	0x97f
    1f86:	0004                	0x4
    1f88:	0301                	addi	t1,t1,0
    1f8a:	0901                	addi	s2,s2,0
    1f8c:	0004                	0x4
    1f8e:	0001                	nop
    1f90:	02e30403          	lb	s0,46(t1)
    1f94:	0306                	slli	t1,t1,0x1
    1f96:	0900                	addi	s0,sp,144
    1f98:	0004                	0x4
    1f9a:	0001                	nop
    1f9c:	02c00403          	lb	s0,44(zero) # 2c <.LASF24+0x3>
    1fa0:	06090003          	lb	zero,96(s2)
    1fa4:	0100                	addi	s0,sp,128
    1fa6:	0300                	addi	s0,sp,384
    1fa8:	c004                	sw	s1,0(s0)
    1faa:	0302                	c.slli64	t1
    1fac:	0900                	addi	s0,sp,144
    1fae:	0000                	unimp
    1fb0:	0001                	nop
    1fb2:	02c00403          	lb	s0,44(zero) # 2c <.LASF24+0x3>
    1fb6:	00090003          	lb	zero,0(s2)
    1fba:	0100                	addi	s0,sp,128
    1fbc:	0300                	addi	s0,sp,384
    1fbe:	c004                	sw	s1,0(s0)
    1fc0:	0302                	c.slli64	t1
    1fc2:	0900                	addi	s0,sp,144
    1fc4:	0000                	unimp
    1fc6:	0001                	nop
    1fc8:	02c00403          	lb	s0,44(zero) # 2c <.LASF24+0x3>
    1fcc:	04090003          	lb	zero,64(s2)
    1fd0:	0100                	addi	s0,sp,128
    1fd2:	0300                	addi	s0,sp,384
    1fd4:	c004                	sw	s1,0(s0)
    1fd6:	0302                	c.slli64	t1
    1fd8:	0900                	addi	s0,sp,144
    1fda:	000c                	0xc
    1fdc:	0001                	nop
    1fde:	02c00403          	lb	s0,44(zero) # 2c <.LASF24+0x3>
    1fe2:	00090003          	lb	zero,0(s2)
    1fe6:	0100                	addi	s0,sp,128
    1fe8:	0300                	addi	s0,sp,384
    1fea:	c004                	sw	s1,0(s0)
    1fec:	0302                	c.slli64	t1
    1fee:	0900                	addi	s0,sp,144
    1ff0:	0000                	unimp
    1ff2:	0001                	nop
    1ff4:	02c00403          	lb	s0,44(zero) # 2c <.LASF24+0x3>
    1ff8:	00090003          	lb	zero,0(s2)
    1ffc:	0100                	addi	s0,sp,128
    1ffe:	0300                	addi	s0,sp,384
    2000:	f304                	fsw	fs1,32(a4)
    2002:	0302                	c.slli64	t1
    2004:	0900                	addi	s0,sp,144
    2006:	000a                	c.slli	zero,0x2
    2008:	0001                	nop
    200a:	02f30403          	lb	s0,47(t1)
    200e:	00090003          	lb	zero,0(s2)
    2012:	0100                	addi	s0,sp,128
    2014:	0300                	addi	s0,sp,384
    2016:	f304                	fsw	fs1,32(a4)
    2018:	0302                	c.slli64	t1
    201a:	0900                	addi	s0,sp,144
    201c:	0000                	unimp
    201e:	0001                	nop
    2020:	02f30403          	lb	s0,47(t1)
    2024:	04090003          	lb	zero,64(s2)
    2028:	0100                	addi	s0,sp,128
    202a:	0300                	addi	s0,sp,384
    202c:	f304                	fsw	fs1,32(a4)
    202e:	0302                	c.slli64	t1
    2030:	0900                	addi	s0,sp,144
    2032:	000c                	0xc
    2034:	0001                	nop
    2036:	02f30403          	lb	s0,47(t1)
    203a:	00090003          	lb	zero,0(s2)
    203e:	0100                	addi	s0,sp,128
    2040:	0300                	addi	s0,sp,384
    2042:	f304                	fsw	fs1,32(a4)
    2044:	0302                	c.slli64	t1
    2046:	0900                	addi	s0,sp,144
    2048:	0000                	unimp
    204a:	0001                	nop
    204c:	02fc0403          	lb	s0,47(s8)
    2050:	02090003          	lb	zero,32(s2)
    2054:	0100                	addi	s0,sp,128
    2056:	0300                	addi	s0,sp,384
    2058:	fc04                	fsw	fs1,56(s0)
    205a:	0302                	c.slli64	t1
    205c:	0900                	addi	s0,sp,144
    205e:	0000                	unimp
    2060:	0001                	nop
    2062:	02ff0403          	lb	s0,47(t5)
    2066:	04090003          	lb	zero,64(s2)
    206a:	0100                	addi	s0,sp,128
    206c:	0300                	addi	s0,sp,384
    206e:	ff04                	fsw	fs1,56(a4)
    2070:	0302                	c.slli64	t1
    2072:	0900                	addi	s0,sp,144
    2074:	0000                	unimp
    2076:	0001                	nop
    2078:	02ff0403          	lb	s0,47(t5)
    207c:	00090003          	lb	zero,0(s2)
    2080:	0100                	addi	s0,sp,128
    2082:	0300                	addi	s0,sp,384
    2084:	ff04                	fsw	fs1,56(a4)
    2086:	0302                	c.slli64	t1
    2088:	0900                	addi	s0,sp,144
    208a:	0000                	unimp
    208c:	0001                	nop
    208e:	02ff0403          	lb	s0,47(t5)
    2092:	04090003          	lb	zero,64(s2)
    2096:	0100                	addi	s0,sp,128
    2098:	0300                	addi	s0,sp,384
    209a:	8d04                	0x8d04
    209c:	09000303          	lb	t1,144(zero) # 90 <.L16+0x8>
    20a0:	0000                	unimp
    20a2:	0001                	nop
    20a4:	038d0403          	lb	s0,56(s10)
    20a8:	00090003          	lb	zero,0(s2)
    20ac:	0100                	addi	s0,sp,128
    20ae:	0300                	addi	s0,sp,384
    20b0:	8d04                	0x8d04
    20b2:	09000303          	lb	t1,144(zero) # 90 <.L16+0x8>
    20b6:	0004                	0x4
    20b8:	0001                	nop
    20ba:	03930403          	lb	s0,57(t1)
    20be:	06090003          	lb	zero,96(s2)
    20c2:	0100                	addi	s0,sp,128
    20c4:	0300                	addi	s0,sp,384
    20c6:	9304                	0x9304
    20c8:	09000303          	lb	t1,144(zero) # 90 <.L16+0x8>
    20cc:	0000                	unimp
    20ce:	0001                	nop
    20d0:	03930403          	lb	s0,57(t1)
    20d4:	12090003          	lb	zero,288(s2)
    20d8:	0100                	addi	s0,sp,128
    20da:	0300                	addi	s0,sp,384
    20dc:	9704                	0x9704
    20de:	09000303          	lb	t1,144(zero) # 90 <.L16+0x8>
    20e2:	0004                	0x4
    20e4:	0001                	nop
    20e6:	03980403          	lb	s0,57(a6)
    20ea:	04090003          	lb	zero,64(s2)
    20ee:	0100                	addi	s0,sp,128
    20f0:	0300                	addi	s0,sp,384
    20f2:	9804                	0x9804
    20f4:	09000303          	lb	t1,144(zero) # 90 <.L16+0x8>
    20f8:	0006                	c.slli	zero,0x1
    20fa:	0001                	nop
    20fc:	039a0403          	lb	s0,57(s4)
    2100:	06090003          	lb	zero,96(s2)
    2104:	0100                	addi	s0,sp,128
    2106:	0300                	addi	s0,sp,384
    2108:	9a04                	0x9a04
    210a:	09000303          	lb	t1,144(zero) # 90 <.L16+0x8>
    210e:	001a                	c.slli	zero,0x6
    2110:	0001                	nop
    2112:	03a60403          	lb	s0,58(a2)
    2116:	0306                	slli	t1,t1,0x1
    2118:	0900                	addi	s0,sp,144
    211a:	0004                	0x4
    211c:	0001                	nop
    211e:	02f40403          	lb	s0,47(s0)
    2122:	0306                	slli	t1,t1,0x1
    2124:	0900                	addi	s0,sp,144
    2126:	0004                	0x4
    2128:	0601                	addi	a2,a2,0
    212a:	08090003          	lb	zero,128(s2)
    212e:	0100                	addi	s0,sp,128
    2130:	0300                	addi	s0,sp,384
    2132:	8604                	0x8604
    2134:	00030603          	lb	a2,0(t1)
    2138:	0409                	addi	s0,s0,2
    213a:	0100                	addi	s0,sp,128
    213c:	0300                	addi	s0,sp,384
    213e:	8604                	0x8604
    2140:	09000303          	lb	t1,144(zero) # 90 <.L16+0x8>
    2144:	0000                	unimp
    2146:	0001                	nop
    2148:	03860403          	lb	s0,56(a2)
    214c:	00090003          	lb	zero,0(s2)
    2150:	0100                	addi	s0,sp,128
    2152:	0300                	addi	s0,sp,384
    2154:	8604                	0x8604
    2156:	09000303          	lb	t1,144(zero) # 90 <.L16+0x8>
    215a:	0000                	unimp
    215c:	0001                	nop
    215e:	03860403          	lb	s0,56(a2)
    2162:	04090003          	lb	zero,64(s2)
    2166:	0100                	addi	s0,sp,128
    2168:	0300                	addi	s0,sp,384
    216a:	8604                	0x8604
    216c:	09000303          	lb	t1,144(zero) # 90 <.L16+0x8>
    2170:	0000                	unimp
    2172:	0001                	nop
    2174:	038f0403          	lb	s0,56(t5)
    2178:	06090003          	lb	zero,96(s2)
    217c:	0100                	addi	s0,sp,128
    217e:	0300                	addi	s0,sp,384
    2180:	8f04                	0x8f04
    2182:	09000303          	lb	t1,144(zero) # 90 <.L16+0x8>
    2186:	0008                	0x8
    2188:	0001                	nop
    218a:	039b0403          	lb	s0,57(s6)
    218e:	04090003          	lb	zero,64(s2)
    2192:	0100                	addi	s0,sp,128
    2194:	0300                	addi	s0,sp,384
    2196:	a304                	fsd	fs1,0(a4)
    2198:	00030603          	lb	a2,0(t1)
    219c:	1009                	c.nop	-30
    219e:	0100                	addi	s0,sp,128
    21a0:	0300                	addi	s0,sp,384
    21a2:	a604                	fsd	fs1,8(a2)
    21a4:	09000303          	lb	t1,144(zero) # 90 <.L16+0x8>
    21a8:	000a                	c.slli	zero,0x2
    21aa:	0001                	nop
    21ac:	03a60403          	lb	s0,58(a2)
    21b0:	0306                	slli	t1,t1,0x1
    21b2:	0900                	addi	s0,sp,144
    21b4:	000a                	c.slli	zero,0x2
    21b6:	0001                	nop
    21b8:	03990403          	lb	s0,57(s2)
    21bc:	04090003          	lb	zero,64(s2)
    21c0:	0100                	addi	s0,sp,128
    21c2:	0300                	addi	s0,sp,384
    21c4:	9904                	0x9904
    21c6:	09000303          	lb	t1,144(zero) # 90 <.L16+0x8>
    21ca:	0002                	c.slli64	zero
    21cc:	0601                	addi	a2,a2,0
    21ce:	0a097f03          	0xa097f03
    21d2:	0100                	addi	s0,sp,128
    21d4:	04090103          	lb	sp,64(s2)
    21d8:	0100                	addi	s0,sp,128
    21da:	04097f03          	0x4097f03
    21de:	0100                	addi	s0,sp,128
    21e0:	0200                	addi	s0,sp,256
    21e2:	2f04                	fld	fs1,24(a4)
    21e4:	0306                	slli	t1,t1,0x1
    21e6:	0902                	c.slli64	s2
    21e8:	000e                	c.slli	zero,0x3
    21ea:	0001                	nop
    21ec:	0402                	c.slli64	s0
    21ee:	0900032f          	0x900032f
    21f2:	0000                	unimp
    21f4:	0001                	nop
    21f6:	0402                	c.slli64	s0
    21f8:	0900032f          	0x900032f
    21fc:	0000                	unimp
    21fe:	0001                	nop
    2200:	0402                	c.slli64	s0
    2202:	0900033f 00010008 	0x100080900033f
    220a:	0402                	c.slli64	s0
    220c:	0900033f 00010000 	0x100000900033f
    2214:	0402                	c.slli64	s0
    2216:	0900033f 06010002 	0x60100020900033f
    221e:	08090003          	lb	zero,128(s2)
    2222:	0100                	addi	s0,sp,128
    2224:	0200                	addi	s0,sp,256
    2226:	4f04                	lw	s1,24(a4)
    2228:	0306                	slli	t1,t1,0x1
    222a:	0900                	addi	s0,sp,144
    222c:	0008                	0x8
    222e:	0001                	nop
    2230:	0402                	c.slli64	s0
    2232:	0900034f          	fnmadd.s	ft6,ft0,fa6,ft1,rne
    2236:	0000                	unimp
    2238:	0001                	nop
    223a:	0402                	c.slli64	s0
    223c:	0900034f          	fnmadd.s	ft6,ft0,fa6,ft1,rne
    2240:	0000                	unimp
    2242:	0001                	nop
    2244:	0402                	c.slli64	s0
    2246:	0900034f          	fnmadd.s	ft6,ft0,fa6,ft1,rne
    224a:	000a                	c.slli	zero,0x2
    224c:	0001                	nop
    224e:	0402                	c.slli64	s0
    2250:	0900034f          	fnmadd.s	ft6,ft0,fa6,ft1,rne
    2254:	0006                	c.slli	zero,0x1
    2256:	0001                	nop
    2258:	0402                	c.slli64	s0
    225a:	0650                	addi	a2,sp,772
    225c:	04090003          	lb	zero,64(s2)
    2260:	0100                	addi	s0,sp,128
    2262:	06090003          	lb	zero,96(s2)
    2266:	0100                	addi	s0,sp,128
    2268:	0200                	addi	s0,sp,256
    226a:	5a04                	lw	s1,48(a2)
    226c:	0306                	slli	t1,t1,0x1
    226e:	0900                	addi	s0,sp,144
    2270:	0008                	0x8
    2272:	0001                	nop
    2274:	0402                	c.slli64	s0
    2276:	035a                	slli	t1,t1,0x16
    2278:	0900                	addi	s0,sp,144
    227a:	0000                	unimp
    227c:	0001                	nop
    227e:	0402                	c.slli64	s0
    2280:	035a                	slli	t1,t1,0x16
    2282:	0900                	addi	s0,sp,144
    2284:	0000                	unimp
    2286:	0001                	nop
    2288:	0402                	c.slli64	s0
    228a:	035a                	slli	t1,t1,0x16
    228c:	0900                	addi	s0,sp,144
    228e:	0000                	unimp
    2290:	0001                	nop
    2292:	0402                	c.slli64	s0
    2294:	035a                	slli	t1,t1,0x16
    2296:	0900                	addi	s0,sp,144
    2298:	0000                	unimp
    229a:	0001                	nop
    229c:	0402                	c.slli64	s0
    229e:	035a                	slli	t1,t1,0x16
    22a0:	0900                	addi	s0,sp,144
    22a2:	0000                	unimp
    22a4:	0001                	nop
    22a6:	0402                	c.slli64	s0
    22a8:	035a                	slli	t1,t1,0x16
    22aa:	0900                	addi	s0,sp,144
    22ac:	0000                	unimp
    22ae:	0001                	nop
    22b0:	0402                	c.slli64	s0
    22b2:	035a                	slli	t1,t1,0x16
    22b4:	0900                	addi	s0,sp,144
    22b6:	0000                	unimp
    22b8:	0001                	nop
    22ba:	0402                	c.slli64	s0
    22bc:	035a                	slli	t1,t1,0x16
    22be:	0900                	addi	s0,sp,144
    22c0:	0000                	unimp
    22c2:	0501                	addi	a0,a0,0
    22c4:	0001                	nop
    22c6:	0402                	c.slli64	s0
    22c8:	065a                	slli	a2,a2,0x16
    22ca:	0a090403          	lb	s0,160(s2)
    22ce:	0100                	addi	s0,sp,128
    22d0:	0305                	addi	t1,t1,1
    22d2:	0200                	addi	s0,sp,256
    22d4:	5a04                	lw	s1,48(a2)
    22d6:	04097c03          	0x4097c03
    22da:	0100                	addi	s0,sp,128
    22dc:	0200                	addi	s0,sp,256
    22de:	5a04                	lw	s1,48(a2)
    22e0:	0306                	slli	t1,t1,0x1
    22e2:	0900                	addi	s0,sp,144
    22e4:	000c                	0xc
    22e6:	0001                	nop
    22e8:	0402                	c.slli64	s0
    22ea:	035a                	slli	t1,t1,0x16
    22ec:	0900                	addi	s0,sp,144
    22ee:	0000                	unimp
    22f0:	0001                	nop
    22f2:	0402                	c.slli64	s0
    22f4:	035a                	slli	t1,t1,0x16
    22f6:	0901                	addi	s2,s2,0
    22f8:	0000                	unimp
    22fa:	0001                	nop
    22fc:	0402                	c.slli64	s0
    22fe:	035a                	slli	t1,t1,0x16
    2300:	0900                	addi	s0,sp,144
    2302:	0000                	unimp
    2304:	0001                	nop
    2306:	0402                	c.slli64	s0
    2308:	035a                	slli	t1,t1,0x16
    230a:	0900                	addi	s0,sp,144
    230c:	0000                	unimp
    230e:	0001                	nop
    2310:	0402                	c.slli64	s0
    2312:	035a                	slli	t1,t1,0x16
    2314:	0902                	c.slli64	s2
    2316:	0000                	unimp
    2318:	0501                	addi	a0,a0,0
    231a:	0001                	nop
    231c:	0402                	c.slli64	s0
    231e:	065a                	slli	a2,a2,0x16
    2320:	00090103          	lb	sp,0(s2)
    2324:	0100                	addi	s0,sp,128
    2326:	0305                	addi	t1,t1,1
    2328:	10097a03          	0x10097a03
    232c:	0100                	addi	s0,sp,128
    232e:	04090103          	lb	sp,64(s2)
    2332:	0100                	addi	s0,sp,128
    2334:	2009                	jal	2336 <.LLST6+0x18>
    2336:	0000                	unimp
    2338:	0101                	addi	sp,sp,0

0000233a <.Ldebug_line0>:
    233a:	020a                	slli	tp,tp,0x2
    233c:	0000                	unimp
    233e:	005d0003          	lb	zero,5(s10)
    2342:	0000                	unimp
    2344:	0101                	addi	sp,sp,0
    2346:	000d0efb          	0xd0efb
    234a:	0101                	addi	sp,sp,0
    234c:	0101                	addi	sp,sp,0
    234e:	0000                	unimp
    2350:	0100                	addi	s0,sp,128
    2352:	0000                	unimp
    2354:	2e01                	jal	2664 <.Ldebug_line0+0x11c>
    2356:	2f2e                	fld	ft10,200(sp)
    2358:	2e2e                	fld	ft8,200(sp)
    235a:	2f2e2e2f          	0x2f2e2e2f
    235e:	2f2e                	fld	ft10,200(sp)
    2360:	6972                	flw	fs2,28(sp)
    2362:	2d766373          	csrrsi	t1,0x2d7,12
    2366:	2f636367          	0x2f636367
    236a:	696c                	flw	fa1,84(a0)
    236c:	6762                	flw	fa4,24(sp)
    236e:	732f6363          	bltu	t5,s2,2a94 <.Ldebug_line0+0xbd>
    2372:	2d74666f          	jal	a2,48e48 <.LC0+0x44cf8>
    2376:	7066                	flw	ft0,120(sp)
    2378:	0000                	unimp
    237a:	6966                	flw	fs2,88(sp)
    237c:	6478                	flw	fa4,76(s0)
    237e:	7366                	flw	ft6,120(sp)
    2380:	2e69                	jal	271a <.Ldebug_line0+0x1d2>
    2382:	00010063          	beqz	sp,2382 <.LLST1>
    2386:	7300                	flw	fs0,32(a4)
    2388:	2d74666f          	jal	a2,48e5e <.LC0+0x44d0e>
    238c:	7066                	flw	ft0,120(sp)
    238e:	682e                	flw	fa6,200(sp)
    2390:	0100                	addi	s0,sp,128
    2392:	0000                	unimp
    2394:	6f64                	flw	fs1,92(a4)
    2396:	6275                	lui	tp,0x1d
    2398:	656c                	flw	fa1,76(a0)
    239a:	682e                	flw	fa6,200(sp)
    239c:	0100                	addi	s0,sp,128
    239e:	0000                	unimp
    23a0:	0500                	addi	s0,sp,640
    23a2:	0001                	nop
    23a4:	0205                	addi	tp,tp,1
    23a6:	1486                	slli	s1,s1,0x21
    23a8:	0000                	unimp
    23aa:	05012303          	lw	t1,80(sp)
    23ae:	09010303          	lb	t1,144(sp)
    23b2:	0000                	unimp
    23b4:	0301                	addi	t1,t1,0
    23b6:	0900                	addi	s0,sp,144
    23b8:	0000                	unimp
    23ba:	0501                	addi	a0,a0,0
    23bc:	030d                	addi	t1,t1,3
    23be:	0900                	addi	s0,sp,144
    23c0:	0000                	unimp
    23c2:	0501                	addi	a0,a0,0
    23c4:	09010303          	lb	t1,144(sp)
    23c8:	0000                	unimp
    23ca:	0301                	addi	t1,t1,0
    23cc:	0900                	addi	s0,sp,144
    23ce:	0000                	unimp
    23d0:	0301                	addi	t1,t1,0
    23d2:	0900                	addi	s0,sp,144
    23d4:	0000                	unimp
    23d6:	0301                	addi	t1,t1,0
    23d8:	0900                	addi	s0,sp,144
    23da:	0000                	unimp
    23dc:	0301                	addi	t1,t1,0
    23de:	0901                	addi	s2,s2,0
    23e0:	0000                	unimp
    23e2:	0301                	addi	t1,t1,0
    23e4:	0902                	c.slli64	s2
    23e6:	0000                	unimp
    23e8:	0301                	addi	t1,t1,0
    23ea:	0901                	addi	s2,s2,0
    23ec:	0000                	unimp
    23ee:	0301                	addi	t1,t1,0
    23f0:	0900                	addi	s0,sp,144
    23f2:	0000                	unimp
    23f4:	0301                	addi	t1,t1,0
    23f6:	0900                	addi	s0,sp,144
    23f8:	0000                	unimp
    23fa:	0301                	addi	t1,t1,0
    23fc:	0900                	addi	s0,sp,144
    23fe:	0000                	unimp
    2400:	0301                	addi	t1,t1,0
    2402:	0900                	addi	s0,sp,144
    2404:	0000                	unimp
    2406:	0601                	addi	a2,a2,0
    2408:	10090103          	lb	sp,256(s2)
    240c:	0100                	addi	s0,sp,128
    240e:	04097f03          	0x4097f03
    2412:	0100                	addi	s0,sp,128
    2414:	0306                	slli	t1,t1,0x1
    2416:	0900                	addi	s0,sp,144
    2418:	0002                	c.slli64	zero
    241a:	0301                	addi	t1,t1,0
    241c:	0900                	addi	s0,sp,144
    241e:	0000                	unimp
    2420:	0301                	addi	t1,t1,0
    2422:	0900                	addi	s0,sp,144
    2424:	0002                	c.slli64	zero
    2426:	0301                	addi	t1,t1,0
    2428:	0901                	addi	s2,s2,0
    242a:	0000                	unimp
    242c:	0301                	addi	t1,t1,0
    242e:	0900                	addi	s0,sp,144
    2430:	0000                	unimp
    2432:	0001                	nop
    2434:	0402                	c.slli64	s0
    2436:	030a                	slli	t1,t1,0x2
    2438:	0900                	addi	s0,sp,144
    243a:	0004                	0x4
    243c:	0001                	nop
    243e:	0402                	c.slli64	s0
    2440:	030a                	slli	t1,t1,0x2
    2442:	0900                	addi	s0,sp,144
    2444:	0000                	unimp
    2446:	0001                	nop
    2448:	0402                	c.slli64	s0
    244a:	030e                	slli	t1,t1,0x3
    244c:	0900                	addi	s0,sp,144
    244e:	0008                	0x8
    2450:	0001                	nop
    2452:	0402                	c.slli64	s0
    2454:	030e                	slli	t1,t1,0x3
    2456:	0900                	addi	s0,sp,144
    2458:	0000                	unimp
    245a:	0001                	nop
    245c:	0402                	c.slli64	s0
    245e:	030e                	slli	t1,t1,0x3
    2460:	0900                	addi	s0,sp,144
    2462:	0000                	unimp
    2464:	0001                	nop
    2466:	0402                	c.slli64	s0
    2468:	030e                	slli	t1,t1,0x3
    246a:	0900                	addi	s0,sp,144
    246c:	0000                	unimp
    246e:	0001                	nop
    2470:	0402                	c.slli64	s0
    2472:	030e                	slli	t1,t1,0x3
    2474:	0900                	addi	s0,sp,144
    2476:	000a                	c.slli	zero,0x2
    2478:	0001                	nop
    247a:	0402                	c.slli64	s0
    247c:	030d                	addi	t1,t1,3
    247e:	0900                	addi	s0,sp,144
    2480:	0002                	c.slli64	zero
    2482:	0001                	nop
    2484:	0402                	c.slli64	s0
    2486:	030d                	addi	t1,t1,3
    2488:	0900                	addi	s0,sp,144
    248a:	0000                	unimp
    248c:	0001                	nop
    248e:	0402                	c.slli64	s0
    2490:	030d                	addi	t1,t1,3
    2492:	0900                	addi	s0,sp,144
    2494:	0002                	c.slli64	zero
    2496:	0001                	nop
    2498:	0402                	c.slli64	s0
    249a:	030d                	addi	t1,t1,3
    249c:	0900                	addi	s0,sp,144
    249e:	0000                	unimp
    24a0:	0001                	nop
    24a2:	0402                	c.slli64	s0
    24a4:	031e                	slli	t1,t1,0x7
    24a6:	0900                	addi	s0,sp,144
    24a8:	000c                	0xc
    24aa:	0001                	nop
    24ac:	0402                	c.slli64	s0
    24ae:	031e                	slli	t1,t1,0x7
    24b0:	0900                	addi	s0,sp,144
    24b2:	0000                	unimp
    24b4:	0001                	nop
    24b6:	0402                	c.slli64	s0
    24b8:	031e                	slli	t1,t1,0x7
    24ba:	0900                	addi	s0,sp,144
    24bc:	000e                	c.slli	zero,0x3
    24be:	0001                	nop
    24c0:	0402                	c.slli64	s0
    24c2:	0900032b          	0x900032b
    24c6:	0000                	unimp
    24c8:	0001                	nop
    24ca:	0402                	c.slli64	s0
    24cc:	0900032b          	0x900032b
    24d0:	0000                	unimp
    24d2:	0001                	nop
    24d4:	0402                	c.slli64	s0
    24d6:	032d                	addi	t1,t1,11
    24d8:	0900                	addi	s0,sp,144
    24da:	0002                	c.slli64	zero
    24dc:	0001                	nop
    24de:	0402                	c.slli64	s0
    24e0:	032a                	slli	t1,t1,0xa
    24e2:	0900                	addi	s0,sp,144
    24e4:	0006                	c.slli	zero,0x1
    24e6:	0001                	nop
    24e8:	0402                	c.slli64	s0
    24ea:	032a                	slli	t1,t1,0xa
    24ec:	0900                	addi	s0,sp,144
    24ee:	0000                	unimp
    24f0:	0001                	nop
    24f2:	0402                	c.slli64	s0
    24f4:	032a                	slli	t1,t1,0xa
    24f6:	0900                	addi	s0,sp,144
    24f8:	000a                	c.slli	zero,0x2
    24fa:	0601                	addi	a2,a2,0
    24fc:	02090003          	lb	zero,32(s2)
    2500:	0100                	addi	s0,sp,128
    2502:	0200                	addi	s0,sp,256
    2504:	3b04                	fld	fs1,48(a4)
    2506:	0306                	slli	t1,t1,0x1
    2508:	0900                	addi	s0,sp,144
    250a:	0002                	c.slli64	zero
    250c:	0001                	nop
    250e:	0402                	c.slli64	s0
    2510:	0901033b          	0x901033b
    2514:	0000                	unimp
    2516:	0001                	nop
    2518:	0402                	c.slli64	s0
    251a:	0900033b          	0x900033b
    251e:	0000                	unimp
    2520:	0001                	nop
    2522:	0402                	c.slli64	s0
    2524:	0900033b          	0x900033b
    2528:	0000                	unimp
    252a:	0001                	nop
    252c:	0402                	c.slli64	s0
    252e:	0902033b          	0x902033b
    2532:	0000                	unimp
    2534:	0501                	addi	a0,a0,0
    2536:	0001                	nop
    2538:	0402                	c.slli64	s0
    253a:	0103063b          	0x103063b
    253e:	0009                	c.nop	2
    2540:	0100                	addi	s0,sp,128
    2542:	0209                	addi	tp,tp,2
    2544:	0000                	unimp
    2546:	0101                	addi	sp,sp,0

00002548 <.Ldebug_line0>:
    2548:	0244                	addi	s1,sp,260
    254a:	0000                	unimp
    254c:	005f0003          	lb	zero,5(t5)
    2550:	0000                	unimp
    2552:	0101                	addi	sp,sp,0
    2554:	000d0efb          	0xd0efb
    2558:	0101                	addi	sp,sp,0
    255a:	0101                	addi	sp,sp,0
    255c:	0000                	unimp
    255e:	0100                	addi	s0,sp,128
    2560:	0000                	unimp
    2562:	2e01                	jal	2872 <.Ldebug_line0+0x32a>
    2564:	2f2e                	fld	ft10,200(sp)
    2566:	2e2e                	fld	ft8,200(sp)
    2568:	2f2e2e2f          	0x2f2e2e2f
    256c:	2f2e                	fld	ft10,200(sp)
    256e:	6972                	flw	fs2,28(sp)
    2570:	2d766373          	csrrsi	t1,0x2d7,12
    2574:	2f636367          	0x2f636367
    2578:	696c                	flw	fa1,84(a0)
    257a:	6762                	flw	fa4,24(sp)
    257c:	732f6363          	bltu	t5,s2,2ca2 <.Ldebug_line0+0x2cb>
    2580:	2d74666f          	jal	a2,49056 <.LC0+0x44f06>
    2584:	7066                	flw	ft0,120(sp)
    2586:	0000                	unimp
    2588:	6c66                	flw	fs8,88(sp)
    258a:	7374616f          	jal	sp,494c0 <.LC0+0x45370>
    258e:	6469                	lui	s0,0x1a
    2590:	2e66                	fld	ft8,88(sp)
    2592:	00010063          	beqz	sp,2592 <.Ldebug_line0+0x4a>
    2596:	7300                	flw	fs0,32(a4)
    2598:	2d74666f          	jal	a2,4906e <.LC0+0x44f1e>
    259c:	7066                	flw	ft0,120(sp)
    259e:	682e                	flw	fa6,200(sp)
    25a0:	0100                	addi	s0,sp,128
    25a2:	0000                	unimp
    25a4:	6f64                	flw	fs1,92(a4)
    25a6:	6275                	lui	tp,0x1d
    25a8:	656c                	flw	fa1,76(a0)
    25aa:	682e                	flw	fa6,200(sp)
    25ac:	0100                	addi	s0,sp,128
    25ae:	0000                	unimp
    25b0:	0500                	addi	s0,sp,640
    25b2:	0001                	nop
    25b4:	0205                	addi	tp,tp,1
    25b6:	14ea                	slli	s1,s1,0x3a
    25b8:	0000                	unimp
    25ba:	05012403          	lw	s0,80(sp)
    25be:	09010303          	lb	t1,144(sp)
    25c2:	0000                	unimp
    25c4:	0301                	addi	t1,t1,0
    25c6:	0900                	addi	s0,sp,144
    25c8:	0000                	unimp
    25ca:	0301                	addi	t1,t1,0
    25cc:	0900                	addi	s0,sp,144
    25ce:	0000                	unimp
    25d0:	0301                	addi	t1,t1,0
    25d2:	0900                	addi	s0,sp,144
    25d4:	0000                	unimp
    25d6:	0301                	addi	t1,t1,0
    25d8:	0901                	addi	s2,s2,0
    25da:	0000                	unimp
    25dc:	0301                	addi	t1,t1,0
    25de:	0902                	c.slli64	s2
    25e0:	0000                	unimp
    25e2:	0301                	addi	t1,t1,0
    25e4:	0900                	addi	s0,sp,144
    25e6:	0000                	unimp
    25e8:	0501                	addi	a0,a0,0
    25ea:	0601                	addi	a2,a2,0
    25ec:	00097c03          	0x97c03
    25f0:	0100                	addi	s0,sp,128
    25f2:	0305                	addi	t1,t1,1
    25f4:	08090403          	lb	s0,128(s2)
    25f8:	0100                	addi	s0,sp,128
    25fa:	0200                	addi	s0,sp,256
    25fc:	0104                	addi	s1,sp,128
    25fe:	0306                	slli	t1,t1,0x1
    2600:	0900                	addi	s0,sp,144
    2602:	0002                	c.slli64	zero
    2604:	0001                	nop
    2606:	0402                	c.slli64	s0
    2608:	0301                	addi	t1,t1,0
    260a:	0900                	addi	s0,sp,144
    260c:	0000                	unimp
    260e:	0001                	nop
    2610:	0402                	c.slli64	s0
    2612:	0301                	addi	t1,t1,0
    2614:	0900                	addi	s0,sp,144
    2616:	000e                	c.slli	zero,0x3
    2618:	0001                	nop
    261a:	0402                	c.slli64	s0
    261c:	0301                	addi	t1,t1,0
    261e:	0900                	addi	s0,sp,144
    2620:	0000                	unimp
    2622:	0001                	nop
    2624:	0402                	c.slli64	s0
    2626:	0301                	addi	t1,t1,0
    2628:	0900                	addi	s0,sp,144
    262a:	0000                	unimp
    262c:	0001                	nop
    262e:	0402                	c.slli64	s0
    2630:	0301                	addi	t1,t1,0
    2632:	0900                	addi	s0,sp,144
    2634:	0000                	unimp
    2636:	0001                	nop
    2638:	0402                	c.slli64	s0
    263a:	0301                	addi	t1,t1,0
    263c:	0900                	addi	s0,sp,144
    263e:	0000                	unimp
    2640:	0001                	nop
    2642:	0402                	c.slli64	s0
    2644:	0301                	addi	t1,t1,0
    2646:	0900                	addi	s0,sp,144
    2648:	0000                	unimp
    264a:	0001                	nop
    264c:	0402                	c.slli64	s0
    264e:	0301                	addi	t1,t1,0
    2650:	0900                	addi	s0,sp,144
    2652:	0000                	unimp
    2654:	0001                	nop
    2656:	0402                	c.slli64	s0
    2658:	0301                	addi	t1,t1,0
    265a:	0900                	addi	s0,sp,144
    265c:	0004                	0x4
    265e:	0001                	nop
    2660:	0402                	c.slli64	s0
    2662:	0301                	addi	t1,t1,0
    2664:	0900                	addi	s0,sp,144
    2666:	0000                	unimp
    2668:	0001                	nop
    266a:	0402                	c.slli64	s0
    266c:	0301                	addi	t1,t1,0
    266e:	0900                	addi	s0,sp,144
    2670:	0008                	0x8
    2672:	0001                	nop
    2674:	0402                	c.slli64	s0
    2676:	0301                	addi	t1,t1,0
    2678:	0900                	addi	s0,sp,144
    267a:	0000                	unimp
    267c:	0001                	nop
    267e:	0402                	c.slli64	s0
    2680:	0301                	addi	t1,t1,0
    2682:	0900                	addi	s0,sp,144
    2684:	0000                	unimp
    2686:	0001                	nop
    2688:	0402                	c.slli64	s0
    268a:	0301                	addi	t1,t1,0
    268c:	0900                	addi	s0,sp,144
    268e:	0000                	unimp
    2690:	0001                	nop
    2692:	0402                	c.slli64	s0
    2694:	0301                	addi	t1,t1,0
    2696:	0900                	addi	s0,sp,144
    2698:	0000                	unimp
    269a:	0001                	nop
    269c:	0402                	c.slli64	s0
    269e:	0301                	addi	t1,t1,0
    26a0:	0900                	addi	s0,sp,144
    26a2:	0000                	unimp
    26a4:	0001                	nop
    26a6:	0402                	c.slli64	s0
    26a8:	0301                	addi	t1,t1,0
    26aa:	0900                	addi	s0,sp,144
    26ac:	0000                	unimp
    26ae:	0001                	nop
    26b0:	0402                	c.slli64	s0
    26b2:	0301                	addi	t1,t1,0
    26b4:	0900                	addi	s0,sp,144
    26b6:	0000                	unimp
    26b8:	0001                	nop
    26ba:	0402                	c.slli64	s0
    26bc:	09000317          	auipc	t1,0x9000
    26c0:	0004                	0x4
    26c2:	0001                	nop
    26c4:	0402                	c.slli64	s0
    26c6:	09000317          	auipc	t1,0x9000
    26ca:	0000                	unimp
    26cc:	0001                	nop
    26ce:	0402                	c.slli64	s0
    26d0:	09000317          	auipc	t1,0x9000
    26d4:	000a                	c.slli	zero,0x2
    26d6:	0001                	nop
    26d8:	0402                	c.slli64	s0
    26da:	09000317          	auipc	t1,0x9000
    26de:	0004                	0x4
    26e0:	0001                	nop
    26e2:	0402                	c.slli64	s0
    26e4:	037e                	slli	t1,t1,0x1f
    26e6:	0900                	addi	s0,sp,144
    26e8:	0002                	c.slli64	zero
    26ea:	0001                	nop
    26ec:	0402                	c.slli64	s0
    26ee:	037e                	slli	t1,t1,0x1f
    26f0:	0901                	addi	s2,s2,0
    26f2:	0000                	unimp
    26f4:	0001                	nop
    26f6:	0402                	c.slli64	s0
    26f8:	037e                	slli	t1,t1,0x1f
    26fa:	0900                	addi	s0,sp,144
    26fc:	0000                	unimp
    26fe:	0001                	nop
    2700:	0402                	c.slli64	s0
    2702:	037e                	slli	t1,t1,0x1f
    2704:	0900                	addi	s0,sp,144
    2706:	0000                	unimp
    2708:	0001                	nop
    270a:	0402                	c.slli64	s0
    270c:	037e                	slli	t1,t1,0x1f
    270e:	0900                	addi	s0,sp,144
    2710:	0000                	unimp
    2712:	0001                	nop
    2714:	0402                	c.slli64	s0
    2716:	037e                	slli	t1,t1,0x1f
    2718:	0900                	addi	s0,sp,144
    271a:	0000                	unimp
    271c:	0001                	nop
    271e:	0402                	c.slli64	s0
    2720:	037e                	slli	t1,t1,0x1f
    2722:	0900                	addi	s0,sp,144
    2724:	0000                	unimp
    2726:	0001                	nop
    2728:	0402                	c.slli64	s0
    272a:	037e                	slli	t1,t1,0x1f
    272c:	0900                	addi	s0,sp,144
    272e:	0000                	unimp
    2730:	0501                	addi	a0,a0,0
    2732:	0001                	nop
    2734:	0402                	c.slli64	s0
    2736:	067e                	slli	a2,a2,0x1f
    2738:	0a090303          	lb	t1,160(s2)
    273c:	0100                	addi	s0,sp,128
    273e:	0305                	addi	t1,t1,1
    2740:	0200                	addi	s0,sp,256
    2742:	7e04                	flw	fs1,56(a2)
    2744:	02097d03          	0x2097d03
    2748:	0100                	addi	s0,sp,128
    274a:	0200                	addi	s0,sp,256
    274c:	7e04                	flw	fs1,56(a2)
    274e:	0306                	slli	t1,t1,0x1
    2750:	0900                	addi	s0,sp,144
    2752:	0004                	0x4
    2754:	0001                	nop
    2756:	0402                	c.slli64	s0
    2758:	037e                	slli	t1,t1,0x1f
    275a:	0902                	c.slli64	s2
    275c:	0000                	unimp
    275e:	0501                	addi	a0,a0,0
    2760:	0001                	nop
    2762:	0402                	c.slli64	s0
    2764:	067e                	slli	a2,a2,0x1f
    2766:	00090103          	lb	sp,0(s2)
    276a:	0100                	addi	s0,sp,128
    276c:	0305                	addi	t1,t1,1
    276e:	0200                	addi	s0,sp,256
    2770:	1804                	addi	s1,sp,48
    2772:	0306                	slli	t1,t1,0x1
    2774:	097c                	addi	a5,sp,156
    2776:	000c                	0xc
    2778:	0001                	nop
    277a:	0402                	c.slli64	s0
    277c:	0318                	addi	a4,sp,384
    277e:	0900                	addi	s0,sp,144
    2780:	0006                	c.slli	zero,0x1
    2782:	0601                	addi	a2,a2,0
    2784:	02090003          	lb	zero,32(s2)
    2788:	0100                	addi	s0,sp,128
    278a:	0a09                	addi	s4,s4,2
    278c:	0000                	unimp
    278e:	0101                	addi	sp,sp,0
    2790:	0164                	addi	s1,sp,140
    2792:	0000                	unimp
    2794:	00450003          	lb	zero,4(a0)
    2798:	0000                	unimp
    279a:	0101                	addi	sp,sp,0
    279c:	000d0efb          	0xd0efb
    27a0:	0101                	addi	sp,sp,0
    27a2:	0101                	addi	sp,sp,0
    27a4:	0000                	unimp
    27a6:	0100                	addi	s0,sp,128
    27a8:	0000                	unimp
    27aa:	2e01                	jal	2aba <.Ldebug_line0+0xe3>
    27ac:	2f2e                	fld	ft10,200(sp)
    27ae:	2e2e                	fld	ft8,200(sp)
    27b0:	2f2e2e2f          	0x2f2e2e2f
    27b4:	2f2e                	fld	ft10,200(sp)
    27b6:	6972                	flw	fs2,28(sp)
    27b8:	2d766373          	csrrsi	t1,0x2d7,12
    27bc:	2f636367          	0x2f636367
    27c0:	696c                	flw	fa1,84(a0)
    27c2:	6762                	flw	fa4,24(sp)
    27c4:	632f6363          	bltu	t5,s2,2dea <.Ldebug_line0+0x413>
    27c8:	69666e6f          	jal	t3,68e5e <.LC0+0x64d0e>
    27cc:	69722f67          	0x69722f67
    27d0:	00766373          	csrrsi	t1,0x7,12
    27d4:	6400                	flw	fs0,8(s0)
    27d6:	7669                	lui	a2,0xffffa
    27d8:	532e                	lw	t1,232(sp)
    27da:	0100                	addi	s0,sp,128
    27dc:	0000                	unimp
    27de:	0000                	unimp
    27e0:	0205                	addi	tp,tp,1
    27e2:	1550                	addi	a2,sp,676
    27e4:	0000                	unimp
    27e6:	0100c403          	lbu	s0,16(ra)
    27ea:	04090103          	lb	sp,64(s2)
    27ee:	0100                	addi	s0,sp,128
    27f0:	04090403          	lb	s0,64(s2)
    27f4:	0100                	addi	s0,sp,128
    27f6:	02090103          	lb	sp,32(s2)
    27fa:	0100                	addi	s0,sp,128
    27fc:	02090103          	lb	sp,32(s2)
    2800:	0100                	addi	s0,sp,128
    2802:	02090103          	lb	sp,32(s2)
    2806:	0100                	addi	s0,sp,128
    2808:	02090103          	lb	sp,32(s2)
    280c:	0100                	addi	s0,sp,128
    280e:	02090103          	lb	sp,32(s2)
    2812:	0100                	addi	s0,sp,128
    2814:	04090203          	lb	tp,64(s2)
    2818:	0100                	addi	s0,sp,128
    281a:	04090103          	lb	sp,64(s2)
    281e:	0100                	addi	s0,sp,128
    2820:	02090103          	lb	sp,32(s2)
    2824:	0100                	addi	s0,sp,128
    2826:	02090103          	lb	sp,32(s2)
    282a:	0100                	addi	s0,sp,128
    282c:	04090203          	lb	tp,64(s2)
    2830:	0100                	addi	s0,sp,128
    2832:	02090203          	lb	tp,32(s2)
    2836:	0100                	addi	s0,sp,128
    2838:	04090103          	lb	sp,64(s2)
    283c:	0100                	addi	s0,sp,128
    283e:	02090103          	lb	sp,32(s2)
    2842:	0100                	addi	s0,sp,128
    2844:	02090203          	lb	tp,32(s2)
    2848:	0100                	addi	s0,sp,128
    284a:	02090103          	lb	sp,32(s2)
    284e:	0100                	addi	s0,sp,128
    2850:	02090103          	lb	sp,32(s2)
    2854:	0100                	addi	s0,sp,128
    2856:	02090203          	lb	tp,32(s2)
    285a:	0100                	addi	s0,sp,128
    285c:	02090503          	lb	a0,32(s2)
    2860:	0100                	addi	s0,sp,128
    2862:	02090103          	lb	sp,32(s2)
    2866:	0100                	addi	s0,sp,128
    2868:	02090103          	lb	sp,32(s2)
    286c:	0100                	addi	s0,sp,128
    286e:	02090103          	lb	sp,32(s2)
    2872:	0100                	addi	s0,sp,128
    2874:	02090503          	lb	a0,32(s2)
    2878:	0100                	addi	s0,sp,128
    287a:	04090203          	lb	tp,64(s2)
    287e:	0100                	addi	s0,sp,128
    2880:	04090203          	lb	tp,64(s2)
    2884:	0100                	addi	s0,sp,128
    2886:	04090103          	lb	sp,64(s2)
    288a:	0100                	addi	s0,sp,128
    288c:	02090203          	lb	tp,32(s2)
    2890:	0100                	addi	s0,sp,128
    2892:	04090203          	lb	tp,64(s2)
    2896:	0100                	addi	s0,sp,128
    2898:	02090103          	lb	sp,32(s2)
    289c:	0100                	addi	s0,sp,128
    289e:	02090103          	lb	sp,32(s2)
    28a2:	0100                	addi	s0,sp,128
    28a4:	04090103          	lb	sp,64(s2)
    28a8:	0100                	addi	s0,sp,128
    28aa:	02090403          	lb	s0,32(s2)
    28ae:	0100                	addi	s0,sp,128
    28b0:	02090103          	lb	sp,32(s2)
    28b4:	0100                	addi	s0,sp,128
    28b6:	04090103          	lb	sp,64(s2)
    28ba:	0100                	addi	s0,sp,128
    28bc:	04090203          	lb	tp,64(s2)
    28c0:	0100                	addi	s0,sp,128
    28c2:	02090103          	lb	sp,32(s2)
    28c6:	0100                	addi	s0,sp,128
    28c8:	02090103          	lb	sp,32(s2)
    28cc:	0100                	addi	s0,sp,128
    28ce:	02090203          	lb	tp,32(s2)
    28d2:	0100                	addi	s0,sp,128
    28d4:	04090103          	lb	sp,64(s2)
    28d8:	0100                	addi	s0,sp,128
    28da:	04090203          	lb	tp,64(s2)
    28de:	0100                	addi	s0,sp,128
    28e0:	04090103          	lb	sp,64(s2)
    28e4:	0100                	addi	s0,sp,128
    28e6:	02090103          	lb	sp,32(s2)
    28ea:	0100                	addi	s0,sp,128
    28ec:	04090103          	lb	sp,64(s2)
    28f0:	0100                	addi	s0,sp,128
    28f2:	0209                	addi	tp,tp,2
    28f4:	0000                	unimp
    28f6:	0101                	addi	sp,sp,0

000028f8 <.Ldebug_line0>:
    28f8:	000000db          	0xdb
    28fc:	00490003          	lb	zero,4(s2)
    2900:	0000                	unimp
    2902:	0101                	addi	sp,sp,0
    2904:	000d0efb          	0xd0efb
    2908:	0101                	addi	sp,sp,0
    290a:	0101                	addi	sp,sp,0
    290c:	0000                	unimp
    290e:	0100                	addi	s0,sp,128
    2910:	0000                	unimp
    2912:	2e01                	jal	2c22 <.Ldebug_line0+0x24b>
    2914:	2f2e                	fld	ft10,200(sp)
    2916:	2e2e                	fld	ft8,200(sp)
    2918:	2f2e2e2f          	0x2f2e2e2f
    291c:	2f2e                	fld	ft10,200(sp)
    291e:	6972                	flw	fs2,28(sp)
    2920:	2d766373          	csrrsi	t1,0x2d7,12
    2924:	2f636367          	0x2f636367
    2928:	696c                	flw	fa1,84(a0)
    292a:	6762                	flw	fa4,24(sp)
    292c:	00006363          	bltu	zero,zero,2932 <.Ldebug_line0+0x3a>
    2930:	696c                	flw	fa1,84(a0)
    2932:	6762                	flw	fa4,24(sp)
    2934:	2e326363          	bltu	tp,gp,2c1a <.Ldebug_line0+0x243>
    2938:	00010063          	beqz	sp,2938 <.Ldebug_line0+0x40>
    293c:	6c00                	flw	fs0,24(s0)
    293e:	6269                	lui	tp,0x1a
    2940:	32636367          	0x32636367
    2944:	682e                	flw	fa6,200(sp)
    2946:	0100                	addi	s0,sp,128
    2948:	0000                	unimp
    294a:	0500                	addi	s0,sp,640
    294c:	0001                	nop
    294e:	0205                	addi	tp,tp,1
    2950:	15ce                	slli	a1,a1,0x33
    2952:	0000                	unimp
    2954:	0105c203          	lbu	tp,16(a1)
    2958:	0305                	addi	t1,t1,1
    295a:	00090103          	lb	sp,0(s2)
    295e:	0100                	addi	s0,sp,128
    2960:	00090203          	lb	tp,0(s2)
    2964:	0100                	addi	s0,sp,128
    2966:	00090003          	lb	zero,0(s2)
    296a:	0100                	addi	s0,sp,128
    296c:	00090003          	lb	zero,0(s2)
    2970:	0100                	addi	s0,sp,128
    2972:	00090003          	lb	zero,0(s2)
    2976:	0100                	addi	s0,sp,128
    2978:	00090003          	lb	zero,0(s2)
    297c:	0100                	addi	s0,sp,128
    297e:	0200                	addi	s0,sp,256
    2980:	0304                	addi	s1,sp,384
    2982:	0306                	slli	t1,t1,0x1
    2984:	0900                	addi	s0,sp,144
    2986:	0006                	c.slli	zero,0x1
    2988:	0001                	nop
    298a:	0402                	c.slli64	s0
    298c:	060e                	slli	a2,a2,0x3
    298e:	0a090003          	lb	zero,160(s2)
    2992:	0100                	addi	s0,sp,128
    2994:	0200                	addi	s0,sp,256
    2996:	0e04                	addi	s1,sp,784
    2998:	00090003          	lb	zero,0(s2)
    299c:	0100                	addi	s0,sp,128
    299e:	0200                	addi	s0,sp,256
    29a0:	0e04                	addi	s1,sp,784
    29a2:	00090203          	lb	tp,0(s2)
    29a6:	0100                	addi	s0,sp,128
    29a8:	0200                	addi	s0,sp,256
    29aa:	0e04                	addi	s1,sp,784
    29ac:	0306                	slli	t1,t1,0x1
    29ae:	097e                	slli	s2,s2,0x1f
    29b0:	0000                	unimp
    29b2:	0501                	addi	a0,a0,0
    29b4:	0001                	nop
    29b6:	0402                	c.slli64	s0
    29b8:	030e                	slli	t1,t1,0x3
    29ba:	00160903          	lb	s2,1(a2) # ffffa001 <.LC0+0xffff5eb1>
    29be:	0501                	addi	a0,a0,0
    29c0:	04020003          	lb	zero,64(tp) # 1a040 <.LC0+0x15ef0>
    29c4:	0304                	addi	s1,sp,384
    29c6:	097d                	addi	s2,s2,31
    29c8:	0006                	c.slli	zero,0x1
    29ca:	0301                	addi	t1,t1,0
    29cc:	0900                	addi	s0,sp,144
    29ce:	000a                	c.slli	zero,0x2
    29d0:	0901                	addi	s2,s2,0
    29d2:	0004                	0x4
    29d4:	0100                	addi	s0,sp,128
    29d6:	                	li	t5,0

000029d7 <.Ldebug_line0>:
    29d7:	0000004f          	fnmadd.s	ft0,ft0,ft0,ft0,rne
    29db:	00490003          	lb	zero,4(s2)
    29df:	0000                	unimp
    29e1:	0101                	addi	sp,sp,0
    29e3:	000d0efb          	0xd0efb
    29e7:	0101                	addi	sp,sp,0
    29e9:	0101                	addi	sp,sp,0
    29eb:	0000                	unimp
    29ed:	0100                	addi	s0,sp,128
    29ef:	0000                	unimp
    29f1:	2e01                	jal	2d01 <.Ldebug_line0+0x32a>
    29f3:	2f2e                	fld	ft10,200(sp)
    29f5:	2e2e                	fld	ft8,200(sp)
    29f7:	2f2e2e2f          	0x2f2e2e2f
    29fb:	2f2e                	fld	ft10,200(sp)
    29fd:	6972                	flw	fs2,28(sp)
    29ff:	2d766373          	csrrsi	t1,0x2d7,12
    2a03:	2f636367          	0x2f636367
    2a07:	696c                	flw	fa1,84(a0)
    2a09:	6762                	flw	fa4,24(sp)
    2a0b:	00006363          	bltu	zero,zero,2a11 <.Ldebug_line0+0x3a>
    2a0f:	696c                	flw	fa1,84(a0)
    2a11:	6762                	flw	fa4,24(sp)
    2a13:	2e326363          	bltu	tp,gp,2cf9 <.Ldebug_line0+0x322>
    2a17:	0068                	addi	a0,sp,12
    2a19:	0001                	nop
    2a1b:	6c00                	flw	fs0,24(s0)
    2a1d:	6269                	lui	tp,0x1a
    2a1f:	32636367          	0x32636367
    2a23:	632e                	flw	ft6,200(sp)
    2a25:	0100                	addi	s0,sp,128
    2a27:	0000                	unimp
	...

Disassembly of section .debug_str:

00000000 <.LASF27>:
   0:	5f5f 7165 6664      	0x666471655f5f
   6:	0032                	c.slli	zero,0xc

00000008 <.LASF10>:
   8:	7266                	flw	ft4,120(sp)
   a:	6361                	lui	t1,0x18
   c:	0030                	addi	a2,sp,8

0000000e <.LASF10>:
   e:	7266                	flw	ft4,120(sp)
  10:	6361                	lui	t1,0x18
  12:	0031                	c.nop	12

00000014 <.LASF43>:
  14:	4644                	lw	s1,12(a2)
  16:	7974                	flw	fa3,116(a0)
  18:	6570                	flw	fa2,76(a0)
	...

0000001b <.LASF2>:
  1b:	6e75                	lui	t3,0x1d

0000001d <.LASF0>:
  1d:	6e676973          	csrrsi	s2,0x6e6,14
  21:	6465                	lui	s0,0x19
  23:	                	flw	fs0,64(a4)

00000024 <.LASF10>:
  24:	72616863          	bltu	sp,t1,754 <.LASF5+0xe>
	...

00000029 <.LASF24>:
  29:	2e2e                	fld	ft8,200(sp)
  2b:	2f2e2e2f          	0x2f2e2e2f
  2f:	2e2e                	fld	ft8,200(sp)
  31:	722f2e2f          	0x722f2e2f
  35:	7369                	lui	t1,0xffffa
  37:	672d7663          	bgeu	s10,s2,6a3 <.LASF31+0x12>
  3b:	6c2f6363          	bltu	t5,sp,701 <.Ldebug_abbrev0+0x2>
  3f:	6269                	lui	tp,0x1a
  41:	2f636367          	0x2f636367
  45:	74666f73          	csrrsi	t5,0x746,12
  49:	662d                	lui	a2,0xb
  4b:	2f70                	fld	fa2,216(a4)
  4d:	7165                	addi	sp,sp,-400
  4f:	6664                	flw	fs1,76(a2)
  51:	2e32                	fld	ft8,264(sp)
  53:	          	beq	t5,s5,633 <.LASF12+0x6>

00000055 <.LASF7>:
  55:	5f5f 6367 5f63      	0x5f6363675f5f
  5b:	74504d43          	0x74504d43
  5f:	7079                	c.lui	zero,0xffffe
  61:	0065                	c.nop	25

00000063 <.LASF11>:
  63:	6e676973          	csrrsi	s2,0x6e6,14
	...

00000068 <.LASF6>:
  68:	726f6873          	csrrsi	a6,0x726,30
  6c:	2074                	fld	fa3,192(s0)
  6e:	6e75                	lui	t3,0x1d
  70:	6e676973          	csrrsi	s2,0x6e6,14
  74:	6465                	lui	s0,0x19
  76:	6920                	flw	fs0,80(a0)
  78:	746e                	flw	fs0,248(sp)
	...

0000007b <.LASF14>:
  7b:	5f41                	li	t5,-16
  7d:	3166                	fld	ft2,120(sp)
	...

00000080 <.LASF11>:
  80:	665f 7865       	0x5f007865665f

00000085 <.LASF20>:
  85:	465f 5f50 5349      	0x53495f50465f
  8b:	4e474953          	0x4e474953
  8f:	4e41                	li	t3,16
  91:	725f 7465       	0x41007465725f

00000096 <.LASF13>:
  96:	5f41                	li	t5,-16
  98:	3066                	fld	ft0,120(sp)
	...

0000009b <.LASF16>:
  9b:	20554e47          	fmsub.s	ft8,fa0,ft5,ft4,rmm
  9f:	20373143          	fmadd.s	ft2,fa4,ft3,ft4,rup
  a3:	3031                	jal	fffff8af <.LC0+0xffffb75f>
  a5:	322e                	fld	ft4,232(sp)
  a7:	302e                	fld	ft0,232(sp)
  a9:	2d20                	fld	fs0,88(a0)
  ab:	636d                	lui	t1,0x1b
  ad:	6f6d                	lui	t5,0x1b
  af:	6564                	flw	fs1,76(a0)
  b1:	3d6c                	fld	fa1,248(a0)
  b3:	656d                	lui	a0,0x1b
  b5:	6c64                	flw	fs1,92(s0)
  b7:	2d20776f          	jal	a4,7389 <.LC0+0x3239>
  bb:	636d                	lui	t1,0x1b
  bd:	6f6d                	lui	t5,0x1b
  bf:	6564                	flw	fs1,76(a0)
  c1:	3d6c                	fld	fa1,248(a0)
  c3:	656d                	lui	a0,0x1b
  c5:	6c64                	flw	fs1,92(s0)
  c7:	2d20776f          	jal	a4,7399 <.LC0+0x3249>
  cb:	746d                	lui	s0,0xffffb
  cd:	6e75                	lui	t3,0x1d
  cf:	3d65                	jal	ffffff87 <.LC0+0xffffbe37>
  d1:	6f72                	flw	ft10,28(sp)
  d3:	74656b63          	bltu	a0,t1,829 <.L91+0x9>
  d7:	2d20                	fld	fs0,88(a0)
  d9:	616d                	addi	sp,sp,240
  db:	6372                	flw	ft6,28(sp)
  dd:	3d68                	fld	fa0,248(a0)
  df:	7672                	flw	fa2,60(sp)
  e1:	6d693233          	0x6d693233
  e5:	6d2d2063          	0x6d2d2063
  e9:	6261                	lui	tp,0x18
  eb:	3d69                	jal	ffffff85 <.LC0+0xffffbe35>
  ed:	6c69                	lui	s8,0x1a
  ef:	3370                	fld	fa2,224(a4)
  f1:	2032                	fld	ft0,264(sp)
  f3:	6d2d                	lui	s10,0xb
  f5:	7261                	lui	tp,0xffff8
  f7:	723d6863          	bltu	s10,gp,827 <.L91+0x7>
  fb:	3376                	fld	ft6,376(sp)
  fd:	6932                	flw	fs2,12(sp)
  ff:	636d                	lui	t1,0x1b
 101:	2d20                	fld	fs0,88(a0)
 103:	4f2d2067          	0x4f2d2067
 107:	4f2d2073          	csrs	0x4f2,s10
 10b:	2032                	fld	ft0,264(sp)
 10d:	4f2d                	li	t5,11
 10f:	662d2073          	csrs	0x662,s10
 113:	7562                	flw	fa0,56(sp)
 115:	6c69                	lui	s8,0x1a
 117:	6964                	flw	fs1,84(a0)
 119:	676e                	flw	fa4,216(sp)
 11b:	6c2d                	lui	s8,0xb
 11d:	6269                	lui	tp,0x1a
 11f:	20636367          	0x20636367
 123:	662d                	lui	a2,0xb
 125:	6f6e                	flw	ft10,216(sp)
 127:	732d                	lui	t1,0xfffeb
 129:	6174                	flw	fa3,68(a0)
 12b:	702d6b63          	bltu	s10,sp,841 <.L91+0x21>
 12f:	6f72                	flw	ft10,28(sp)
 131:	6574                	flw	fa3,76(a0)
 133:	726f7463          	bgeu	t5,t1,85b <.L91+0x3b>
 137:	2d20                	fld	fs0,88(a0)
 139:	7666                	flw	fa2,120(sp)
 13b:	7369                	lui	t1,0xffffa
 13d:	6269                	lui	tp,0x1a
 13f:	6c69                	lui	s8,0x1a
 141:	7469                	lui	s0,0xffffa
 143:	3d79                	jal	ffffffe1 <.LC0+0xffffbe91>
 145:	6968                	flw	fa0,84(a0)
 147:	6464                	flw	fs1,76(s0)
 149:	6e65                	lui	t3,0x19
	...

0000014c <.LASF18>:
 14c:	465f 5f50 4e55      	0x4e555f50465f
 152:	4150                	lw	a2,4(a0)
 154:	525f4b43          	fmadd.d	fs6,ft10,ft5,fa0,rmm
 158:	5741                	li	a4,-16
 15a:	325f 665f 6f6c      	0x6f6c665f325f
	...

00000161 <.LASF15>:
 161:	5f42                	lw	t5,48(sp)
 163:	3066                	fld	ft0,120(sp)
	...

00000166 <.LASF16>:
 166:	5f42                	lw	t5,48(sp)
 168:	3166                	fld	ft2,120(sp)
	...

0000016b <.LASF5>:
 16b:	6f6c                	flw	fa1,92(a4)
 16d:	676e                	flw	fa4,216(sp)
 16f:	                	flw	fs0,88(s0)

00000170 <.LASF21>:
 170:	6f6c                	flw	fa1,92(a4)
 172:	676e                	flw	fa4,216(sp)
 174:	                	flw	fs0,104(a0)

00000175 <.LASF0>:
 175:	6e75                	lui	t3,0x1d
 177:	6e676973          	csrrsi	s2,0x6e6,14
 17b:	6465                	lui	s0,0x19
 17d:	6920                	flw	fs0,80(a0)
 17f:	746e                	flw	fs0,248(sp)
	...

00000182 <.LASF18>:
 182:	6d6f682f          	0x6d6f682f
 186:	2f65                	jal	93e <.LBB5+0x4>
 188:	6164                	flw	fs1,68(a0)
 18a:	6f6d                	lui	t5,0x1b
 18c:	5f6e                	lw	t5,248(sp)
 18e:	6564                	flw	fs1,76(a0)
 190:	6976                	flw	fs2,92(sp)
 192:	2f6c                	fld	fa1,216(a4)
 194:	6972                	flw	fs2,28(sp)
 196:	2f766373          	csrrsi	t1,0x2f7,12
 19a:	72756f73          	csrrsi	t5,0x727,10
 19e:	635f6563          	bltu	t5,s5,7c8 <.LLST14+0x3f>
 1a2:	2f65646f          	jal	s0,56498 <.LC0+0x52348>
 1a6:	6972                	flw	fs2,28(sp)
 1a8:	2d766373          	csrrsi	t1,0x2d7,12
 1ac:	2d756e67          	0x2d756e67
 1b0:	6f74                	flw	fa3,92(a4)
 1b2:	68636c6f          	jal	s8,36838 <.LC0+0x326e8>
 1b6:	6961                	lui	s2,0x18
 1b8:	2f6e                	fld	ft10,216(sp)
 1ba:	7562                	flw	fa0,56(sp)
 1bc:	6c69                	lui	s8,0x1a
 1be:	2d64                	fld	fs1,216(a0)
 1c0:	2d636367          	0x2d636367
 1c4:	656e                	flw	fa0,216(sp)
 1c6:	62696c77          	0x62696c77
 1ca:	732d                	lui	t1,0xfffeb
 1cc:	6174                	flw	fa3,68(a0)
 1ce:	2f326567          	0x2f326567
 1d2:	6972                	flw	fs2,28(sp)
 1d4:	33766373          	csrrsi	t1,mhpmevent23,12
 1d8:	2d32                	fld	fs10,264(sp)
 1da:	6e75                	lui	t3,0x1d
 1dc:	776f6e6b          	0x776f6e6b
 1e0:	2d6e                	fld	fs10,216(sp)
 1e2:	6c65                	lui	s8,0x19
 1e4:	2f66                	fld	ft10,88(sp)
 1e6:	696c                	flw	fa1,84(a0)
 1e8:	6762                	flw	fa4,24(sp)
 1ea:	          	bltu	zero,zero,8b0 <.L95+0x14>

000001ed <.LASF1>:
 1ed:	6f6c                	flw	fa1,92(a4)
 1ef:	676e                	flw	fa4,216(sp)
 1f1:	                	flw	fs0,88(s0)

000001f2 <.LASF20>:
 1f2:	6f6c                	flw	fa1,92(a4)
 1f4:	676e                	flw	fa4,216(sp)
 1f6:	6920                	flw	fs0,80(a0)
 1f8:	746e                	flw	fs0,248(sp)
	...

000001fb <.LASF25>:
 1fb:	465f 5f50 4e55      	0x4e555f50465f
 201:	4f49                	li	t5,18
 203:	5f4e                	lw	t5,240(sp)
 205:	0044                	addi	s1,sp,4

00000207 <.LASF10>:
 207:	6962                	flw	fs2,24(sp)
 209:	7374                	flw	fa3,100(a4)
	...

0000020c <.LASF12>:
 20c:	665f 6d72       	0x5f006d72665f

00000211 <.LASF29>:
 211:	5f5f 656c 6664      	0x6664656c5f5f
 217:	0032                	c.slli	zero,0xc

00000219 <.LASF26>:
 219:	2e2e                	fld	ft8,200(sp)
 21b:	2f2e2e2f          	0x2f2e2e2f
 21f:	2e2e                	fld	ft8,200(sp)
 221:	722f2e2f          	0x722f2e2f
 225:	7369                	lui	t1,0xffffa
 227:	672d7663          	bgeu	s10,s2,893 <.LLST16+0x11>
 22b:	6c2f6363          	bltu	t5,sp,8f1 <.L94+0x1d>
 22f:	6269                	lui	tp,0x1a
 231:	2f636367          	0x2f636367
 235:	74666f73          	csrrsi	t5,0x746,12
 239:	662d                	lui	a2,0xb
 23b:	2f70                	fld	fa2,216(a4)
 23d:	656c                	flw	fa1,76(a0)
 23f:	6664                	flw	fs1,76(a2)
 241:	2e32                	fld	ft8,264(sp)
 243:	          	beq	t5,t0,6a3 <.LASF31+0x12>

00000245 <.LASF21>:
 245:	465f 5f50 4d43      	0x4d435f50465f
 24b:	5f50                	lw	a2,60(a4)
 24d:	7369                	lui	t1,0xffffa
 24f:	7a5f 7265 5f6f      	0x5f6f72657a5f
 255:	0078                	addi	a4,sp,12

00000257 <.LASF22>:
 257:	465f 5f50 4d43      	0x4d435f50465f
 25d:	5f50                	lw	a2,60(a4)
 25f:	7369                	lui	t1,0xffffa
 261:	7a5f 7265 5f6f      	0x5f6f72657a5f
 267:	0079                	c.nop	30

00000269 <.LASF48>:
 269:	465f 5f50 4150      	0x41505f50465f
 26f:	435f4b43          	fmadd.d	fs6,ft10,fs5,fs0,rmm
 273:	4e41                	li	t3,16
 275:	43494e4f          	fnmadd.d	ft8,fs2,fs4,fs0,rmm
 279:	4c41                	li	s8,16
 27b:	545f 665f 0030      	0x30665f545f

00000281 <.LASF49>:
 281:	465f 5f50 4150      	0x41505f50465f
 287:	435f4b43          	fmadd.d	fs6,ft10,fs5,fs0,rmm
 28b:	4e41                	li	t3,16
 28d:	43494e4f          	fnmadd.d	ft8,fs2,fs4,fs0,rmm
 291:	4c41                	li	s8,16
 293:	545f 665f 0031      	0x31665f545f

00000299 <.LASF34>:
 299:	5f5f 6875       	0x5f0068755f5f

0000029e <.LASF32>:
 29e:	5f5f 6c75       	0x55006c755f5f

000002a3 <.LASF7>:
 2a3:	4855                	li	a6,21
 2a5:	70797457          	0x70797457
 2a9:	0065                	c.nop	25

000002ab <.LASF38>:
 2ab:	465f 5f50 5246      	0x52465f50465f
 2b1:	4341                	li	t1,16
 2b3:	535f 5352 345f      	0x345f5352535f
 2b9:	735f 6974 6b63      	0x6b636974735f
 2bf:	0079                	c.nop	30

000002c1 <.LASF44>:
 2c1:	465f 5f50 4150      	0x41505f50465f
 2c7:	435f4b43          	fmadd.d	fs6,ft10,fs5,fs0,rmm
 2cb:	4e41                	li	t3,16
 2cd:	43494e4f          	fnmadd.d	ft8,fs2,fs4,fs0,rmm
 2d1:	4c41                	li	s8,16
 2d3:	695f 5f73 6974      	0x69745f73695f
 2d9:	796e                	flw	fs2,248(sp)
	...

000002dc <.LASF30>:
 2dc:	5f5f 3278       	0x5f0032785f5f

000002e1 <.LASF22>:
 2e1:	465f 5f50 4e55      	0x4e555f50465f
 2e7:	4150                	lw	a2,4(a0)
 2e9:	435f4b43          	fmadd.d	fs6,ft10,fs5,fs0,rmm
 2ed:	4e41                	li	t3,16
 2ef:	43494e4f          	fnmadd.d	ft8,fs2,fs4,fs0,rmm
 2f3:	4c41                	li	s8,16
 2f5:	735f 6968 7466      	0x74666968735f
	...

000002fc <.LASF24>:
 2fc:	465f 5f50 4150      	0x41505f50465f
 302:	525f4b43          	fmadd.d	fs6,ft10,ft5,fa0,rmm
 306:	5741                	li	a4,-16
 308:	325f 665f 6f6c      	0x6f6c665f325f
	...

0000030f <.LASF54>:
 30f:	2e2e                	fld	ft8,200(sp)
 311:	2f2e2e2f          	0x2f2e2e2f
 315:	2e2e                	fld	ft8,200(sp)
 317:	722f2e2f          	0x722f2e2f
 31b:	7369                	lui	t1,0xffffa
 31d:	672d7663          	bgeu	s10,s2,989 <.L12+0x3>
 321:	6c2f6363          	bltu	t5,sp,9e7 <.L17+0x1>
 325:	6269                	lui	tp,0x1a
 327:	2f636367          	0x2f636367
 32b:	74666f73          	csrrsi	t5,0x746,12
 32f:	662d                	lui	a2,0xb
 331:	2f70                	fld	fa2,216(a4)
 333:	756d                	lui	a0,0xffffb
 335:	646c                	flw	fa1,76(s0)
 337:	3366                	fld	ft6,120(sp)
 339:	632e                	flw	ft6,200(sp)
	...

0000033c <.LASF40>:
 33c:	465f 5f50 5246      	0x52465f50465f
 342:	4341                	li	t1,16
 344:	535f 5352 5f54      	0x5f545352535f
 34a:	5f34                	lw	a3,120(a4)
 34c:	6f64                	flw	fs1,92(a4)
 34e:	          	0x5f006e77

00000351 <.LASF47>:
 351:	465f 5f50 4150      	0x41505f50465f
 357:	435f4b43          	fmadd.d	fs6,ft10,fs5,fs0,rmm
 35b:	4e41                	li	t3,16
 35d:	43494e4f          	fnmadd.d	ft8,fs2,fs4,fs0,rmm
 361:	4c41                	li	s8,16
 363:	545f 655f       	0x5f00655f545f

00000368 <.LASF42>:
 368:	465f 5f50 5246      	0x52465f50465f
 36e:	4341                	li	t1,16
 370:	535f 5352 5f54      	0x5f545352535f
 376:	5f34                	lw	a3,120(a4)
 378:	0069                	c.nop	26

0000037a <.LASF41>:
 37a:	465f 5f50 5246      	0x52465f50465f
 380:	4341                	li	t1,16
 382:	535f 5352 5f54      	0x5f545352535f
 388:	5f34                	lw	a3,120(a4)
 38a:	70696b73          	csrrsi	s6,0x706,18
	...

0000038f <.LASF46>:
 38f:	465f 5f50 4150      	0x41505f50465f
 395:	435f4b43          	fmadd.d	fs6,ft10,fs5,fs0,rmm
 399:	4e41                	li	t3,16
 39b:	43494e4f          	fnmadd.d	ft8,fs2,fs4,fs0,rmm
 39f:	4c41                	li	s8,16
 3a1:	545f 735f       	0x5f00735f545f

000003a6 <.LASF26>:
 3a6:	465f 5f50 554d      	0x554d5f50465f
 3ac:	5f4c                	lw	a1,60(a4)
 3ae:	454d                	li	a0,19
 3b0:	5441                	li	s0,-16
 3b2:	445f 5f57 5f32      	0x5f325f57445f
 3b8:	65646977          	0x65646977
 3bc:	635f 665f 0030      	0x30665f635f

000003c2 <.LASF43>:
 3c2:	465f 5f50 5246      	0x52465f50465f
 3c8:	4341                	li	t1,16
 3ca:	535f 5352 5f54      	0x5f545352535f
 3d0:	5f34                	lw	a3,120(a4)
 3d2:	          	0x465f0073

000003d4 <.LASF45>:
 3d4:	465f 5f50 4150      	0x41505f50465f
 3da:	435f4b43          	fmadd.d	fs6,ft10,fs5,fs0,rmm
 3de:	4e41                	li	t3,16
 3e0:	43494e4f          	fnmadd.d	ft8,fs2,fs4,fs0,rmm
 3e4:	4c41                	li	s8,16
 3e6:	545f 635f       	0x5f00635f545f

000003eb <.LASF29>:
 3eb:	5f5f 3178       	0x5f0031785f5f

000003f0 <.LASF31>:
 3f0:	5f5f 3378       	0x520033785f5f

000003f5 <.LASF17>:
 3f5:	5f52                	lw	t5,52(sp)
 3f7:	3066                	fld	ft0,120(sp)
	...

000003fa <.LASF35>:
 3fa:	5f5f 6876       	0x5f0068765f5f

000003ff <.LASF39>:
 3ff:	465f 5f50 5246      	0x52465f50465f
 405:	4341                	li	t1,16
 407:	535f 5352 5f54      	0x5f545352535f
 40d:	5f34                	lw	a3,120(a4)
 40f:	7075                	c.lui	zero,0xffffd
	...

00000412 <.LASF33>:
 412:	5f5f 6c76       	0x5f006c765f5f

00000417 <.LASF24>:
 417:	5f5f 6c63 737a      	0x737a6c635f5f
 41d:	3269                	jal	fffffda7 <.LC0+0xffffbc57>
	...

00000420 <.LASF57>:
 420:	5f5f 756d 646c      	0x646c756d5f5f
 426:	3366                	fld	ft6,120(sp)
	...

00000429 <.LASF27>:
 429:	465f 5f50 554d      	0x554d5f50465f
 42f:	5f4c                	lw	a1,60(a4)
 431:	454d                	li	a0,19
 433:	5441                	li	s0,-16
 435:	445f 5f57 5f32      	0x5f325f57445f
 43b:	65646977          	0x65646977
 43f:	635f 665f 0031      	0x31665f635f

00000445 <.LASF37>:
 445:	5f5f 5046 465f      	0x465f50465f5f
 44b:	4152                	lw	sp,20(sp)
 44d:	44415f43          	0x44415f43
 451:	5f44                	lw	s1,60(a4)
 453:	32635f33          	0x32635f33
	...

00000458 <.LASF23>:
 458:	465f 5f50 554d      	0x554d5f50465f
 45e:	5f4c                	lw	a1,60(a4)
 460:	454d                	li	a0,19
 462:	5441                	li	s0,-16
 464:	325f 775f 6469      	0x6469775f325f
 46a:	5f65                	li	t5,-7
 46c:	5f7a                	lw	t5,188(sp)
 46e:	0066                	c.slli	zero,0x19

00000470 <.LASF28>:
 470:	5f5f 3078       	0x5f0030785f5f

00000475 <.LASF36>:
 475:	5f5f 5046 465f      	0x465f50465f5f
 47b:	4152                	lw	sp,20(sp)
 47d:	44415f43          	0x44415f43
 481:	5f44                	lw	s1,60(a4)
 483:	31635f33          	0x31635f33
	...

00000488 <.LASF24>:
 488:	465f 5f50 554d      	0x554d5f50465f
 48e:	5f4c                	lw	a1,60(a4)
 490:	454d                	li	a0,19
 492:	5441                	li	s0,-16
 494:	445f 5f57 5f32      	0x5f325f57445f
 49a:	65646977          	0x65646977
 49e:	625f 665f 0030      	0x30665f625f

000004a4 <.LASF25>:
 4a4:	465f 5f50 554d      	0x554d5f50465f
 4aa:	5f4c                	lw	a1,60(a4)
 4ac:	454d                	li	a0,19
 4ae:	5441                	li	s0,-16
 4b0:	445f 5f57 5f32      	0x5f325f57445f
 4b6:	65646977          	0x65646977
 4ba:	625f 665f 0031      	0x31665f625f

000004c0 <.LASF18>:
 4c0:	5f52                	lw	t5,52(sp)
 4c2:	3166                	fld	ft2,120(sp)
	...

000004c5 <.LASF26>:
 4c5:	32627573          	csrrci	a0,mhpmevent6,4
	...

000004ca <.LASF23>:
 4ca:	6461                	lui	s0,0x18
 4cc:	5f64                	lw	s1,124(a4)
 4ce:	6f64                	flw	fs1,92(a4)
 4d0:	656e                	flw	fa0,216(sp)
	...

000004d3 <.LASF20>:
 4d3:	465f 5f50 4150      	0x41505f50465f
 4d9:	535f4b43          	fmadd.d	fs6,ft10,fs5,fa0,rmm
 4dd:	4d45                	li	s10,17
 4df:	5249                	li	tp,-14
 4e1:	5741                	li	a4,-16
 4e3:	545f 735f       	0x7300735f545f

000004e8 <.LASF25>:
 4e8:	31627573          	csrrci	a0,0x316,4
	...

000004ed <.LASF27>:
 4ed:	33627573          	csrrci	a0,mhpmevent22,4
	...

000004f2 <.LASF21>:
 4f2:	465f 5f50 4150      	0x41505f50465f
 4f8:	535f4b43          	fmadd.d	fs6,ft10,fs5,fa0,rmm
 4fc:	4d45                	li	s10,17
 4fe:	5249                	li	tp,-14
 500:	5741                	li	a4,-16
 502:	545f 655f       	0x6e00655f545f

00000507 <.LASF28>:
 507:	6f6e                	flw	ft10,216(sp)
 509:	6d72                	flw	fs10,28(sp)
	...

0000050c <.LASF45>:
 50c:	5f5f 7573 6462      	0x646275735f5f
 512:	3366                	fld	ft6,120(sp)
	...

00000515 <.LASF30>:
 515:	465f 5f50 4441      	0x44415f50465f
 51b:	5f44                	lw	s1,60(a4)
 51d:	4e49                	li	t3,18
 51f:	4554                	lw	a3,12(a0)
 521:	4e52                	lw	t3,20(sp)
 523:	4c41                	li	s8,16
 525:	645f 6669 0066      	0x666669645f

0000052b <.LASF18>:
 52b:	465f 5f50 4150      	0x41505f50465f
 531:	535f4b43          	fmadd.d	fs6,ft10,fs5,fa0,rmm
 535:	4d45                	li	s10,17
 537:	5249                	li	tp,-14
 539:	5741                	li	a4,-16
 53b:	695f 5f73 6974      	0x69745f73695f
 541:	796e                	flw	fs2,248(sp)
	...

00000544 <.LASF22>:
 544:	465f 5f50 4150      	0x41505f50465f
 54a:	535f4b43          	fmadd.d	fs6,ft10,fs5,fa0,rmm
 54e:	4d45                	li	s10,17
 550:	5249                	li	tp,-14
 552:	5741                	li	a4,-16
 554:	545f 665f 0030      	0x30665f545f

0000055a <.LASF23>:
 55a:	465f 5f50 4150      	0x41505f50465f
 560:	535f4b43          	fmadd.d	fs6,ft10,fs5,fa0,rmm
 564:	4d45                	li	s10,17
 566:	5249                	li	tp,-14
 568:	5741                	li	a4,-16
 56a:	545f 665f 0031      	0x31665f545f

00000570 <.LASF24>:
 570:	465f 5f50 4441      	0x44415f50465f
 576:	5f44                	lw	s1,60(a4)
 578:	4e49                	li	t3,18
 57a:	4554                	lw	a3,12(a0)
 57c:	4e52                	lw	t3,20(sp)
 57e:	4c41                	li	s8,16
 580:	655f 6964 6666      	0x66666964655f
	...

00000587 <.LASF19>:
 587:	465f 5f50 4150      	0x41505f50465f
 58d:	535f4b43          	fmadd.d	fs6,ft10,fs5,fa0,rmm
 591:	4d45                	li	s10,17
 593:	5249                	li	tp,-14
 595:	5741                	li	a4,-16
 597:	545f 635f       	0x7300635f545f

0000059c <.LASF29>:
 59c:	5f627573          	csrrci	a0,0x5f6,4
 5a0:	6f64                	flw	fs1,92(a4)
 5a2:	656e                	flw	fa0,216(sp)
	...

000005a5 <.LASF20>:
 5a5:	6461                	lui	s0,0x18
 5a7:	3164                	fld	fs1,224(a0)
	...

000005aa <.LASF21>:
 5aa:	6461                	lui	s0,0x18
 5ac:	3264                	fld	fs1,224(a2)
	...

000005af <.LASF22>:
 5af:	6461                	lui	s0,0x18
 5b1:	3364                	fld	fs1,224(a4)
	...

000005b4 <.LASF41>:
 5b4:	2e2e                	fld	ft8,200(sp)
 5b6:	2f2e2e2f          	0x2f2e2e2f
 5ba:	2e2e                	fld	ft8,200(sp)
 5bc:	722f2e2f          	0x722f2e2f
 5c0:	7369                	lui	t1,0xffffa
 5c2:	672d7663          	bgeu	s10,s2,c2e <.LLST38+0x2>
 5c6:	6c2f6363          	bltu	t5,sp,c8c <.LVL103>
 5ca:	6269                	lui	tp,0x1a
 5cc:	2f636367          	0x2f636367
 5d0:	74666f73          	csrrsi	t5,0x746,12
 5d4:	662d                	lui	a2,0xb
 5d6:	2f70                	fld	fa2,216(a4)
 5d8:	64627573          	csrrci	a0,0x646,4
 5dc:	3366                	fld	ft6,120(sp)
 5de:	632e                	flw	ft6,200(sp)
	...

000005e1 <.LASF23>:
 5e1:	2e2e                	fld	ft8,200(sp)
 5e3:	2f2e2e2f          	0x2f2e2e2f
 5e7:	2e2e                	fld	ft8,200(sp)
 5e9:	722f2e2f          	0x722f2e2f
 5ed:	7369                	lui	t1,0xffffa
 5ef:	672d7663          	bgeu	s10,s2,c5b <.LVL92+0x1>
 5f3:	6c2f6363          	bltu	t5,sp,cb9 <.LLST43+0x1>
 5f7:	6269                	lui	tp,0x1a
 5f9:	2f636367          	0x2f636367
 5fd:	74666f73          	csrrsi	t5,0x746,12
 601:	662d                	lui	a2,0xb
 603:	2f70                	fld	fa2,216(a4)
 605:	6966                	flw	fs2,88(sp)
 607:	6478                	flw	fa4,76(s0)
 609:	7366                	flw	ft6,120(sp)
 60b:	2e69                	jal	9a5 <.LBB4+0x1>
 60d:	          	beq	t5,t0,a6d <.LVL3+0x5>

0000060f <.LASF19>:
 60f:	465f 5f50 4f54      	0x4f545f50465f
 615:	495f 544e 695f      	0x695f544e495f
 61b:	656e                	flw	fa0,216(sp)
 61d:	6178                	flw	fa4,68(a0)
 61f:	          	bgeu	zero,a6,c07 <.LLST36+0x1>

00000622 <.LASF26>:
 622:	5f5f 6966 6478      	0x647869665f5f
 628:	7366                	flw	ft6,120(sp)
 62a:	0069                	c.nop	26

0000062c <.LASF13>:
 62c:	                	li	t1,-11

0000062d <.LASF12>:
 62d:	79744953          	0x79744953
 631:	6570                	flw	fa2,76(a0)
	...

00000634 <.LASF28>:
 634:	2e2e                	fld	ft8,200(sp)
 636:	2f2e2e2f          	0x2f2e2e2f
 63a:	2e2e                	fld	ft8,200(sp)
 63c:	722f2e2f          	0x722f2e2f
 640:	7369                	lui	t1,0xffffa
 642:	672d7663          	bgeu	s10,s2,cae <.LVL111>
 646:	6c2f6363          	bltu	t5,sp,d0c <.LBE19>
 64a:	6269                	lui	tp,0x1a
 64c:	2f636367          	0x2f636367
 650:	74666f73          	csrrsi	t5,0x746,12
 654:	662d                	lui	a2,0xb
 656:	2f70                	fld	fa2,216(a4)
 658:	6c66                	flw	fs8,88(sp)
 65a:	7374616f          	jal	sp,47590 <.LC0+0x43440>
 65e:	6469                	lui	s0,0x1a
 660:	2e66                	fld	ft8,88(sp)
 662:	          	beq	zero,s7,c62 <.LVL94>

00000664 <.LASF32>:
 664:	6170                	flw	fa2,68(a0)
 666:	735f6b63          	bltu	t5,s5,d9c <.LVL148+0x6>
 66a:	6d65                	lui	s10,0x19
 66c:	7269                	lui	tp,0xffffa
 66e:	7761                	lui	a4,0xffff8
	...

00000671 <.LASF16>:
 671:	465f 5f50 5246      	0x52465f50465f
 677:	495f4d4f          	fnmadd.s	fs10,ft10,fs5,fs1,rmm
 67b:	544e                	lw	s0,240(sp)
 67d:	755f 0072       	0x465f0072755f

00000681 <.LASF17>:
 681:	465f 5f50 5246      	0x52465f50465f
 687:	495f4d4f          	fnmadd.s	fs10,ft10,fs5,fs1,rmm
 68b:	544e                	lw	s0,240(sp)
 68d:	6c5f 007a       	0x5f5f007a6c5f

00000691 <.LASF31>:
 691:	5f5f 6c66 616f      	0x616f6c665f5f
 697:	7374                	flw	fa3,100(a4)
 699:	6469                	lui	s0,0x1a
 69b:	0066                	c.slli	zero,0x19
 69d:	2e2e                	fld	ft8,200(sp)
 69f:	2f2e2e2f          	0x2f2e2e2f
 6a3:	2e2e                	fld	ft8,200(sp)
 6a5:	722f2e2f          	0x722f2e2f
 6a9:	7369                	lui	t1,0xffffa
 6ab:	672d7663          	bgeu	s10,s2,d17 <.LBE19+0xb>
 6af:	6c2f6363          	bltu	t5,sp,d75 <.L17+0x5>
 6b3:	6269                	lui	tp,0x1a
 6b5:	2f636367          	0x2f636367
 6b9:	666e6f63          	bltu	t3,t1,d37 <.LLST48+0x5>
 6bd:	6769                	lui	a4,0x1a
 6bf:	7369722f          	0x7369722f
 6c3:	642f7663          	bgeu	t5,sp,d0f <.LBE19+0x3>
 6c7:	7669                	lui	a2,0xffffa
 6c9:	532e                	lw	t1,232(sp)
 6cb:	4700                	lw	s0,8(a4)
 6cd:	554e                	lw	a0,240(sp)
 6cf:	4120                	lw	s0,64(a0)
 6d1:	2e322053          	0x2e322053
 6d5:	          	0x63003533

000006d8 <.LASF14>:
 6d8:	706d6f63          	bltu	s10,t1,df6 <.L32>
 6dc:	656c                	flw	fa1,76(a0)
 6de:	2078                	fld	fa4,192(s0)
 6e0:	6f64                	flw	fs1,92(a4)
 6e2:	6275                	lui	tp,0x1d
 6e4:	656c                	flw	fa1,76(a0)
	...

000006e7 <.LASF19>:
 6e7:	5f5f 7278       	0x2e0072785f5f

000006ec <.LASF17>:
 6ec:	2e2e                	fld	ft8,200(sp)
 6ee:	2f2e2e2f          	0x2f2e2e2f
 6f2:	2e2e                	fld	ft8,200(sp)
 6f4:	722f2e2f          	0x722f2e2f
 6f8:	7369                	lui	t1,0xffffa
 6fa:	672d7663          	bgeu	s10,s2,d66 <.LLST50+0x3>
 6fe:	6c2f6363          	bltu	t5,sp,dc4 <.L40>
 702:	6269                	lui	tp,0x1a
 704:	2f636367          	0x2f636367
 708:	696c                	flw	fa1,84(a0)
 70a:	6762                	flw	fa4,24(sp)
 70c:	2e326363          	bltu	tp,gp,9f2 <.LVL15>
 710:	          	beq	t5,s5,cf0 <.LBB44+0x6>

00000712 <.LASF20>:
 712:	5f5f 6c63 5f7a      	0x5f7a6c635f5f
 718:	6174                	flw	fa3,68(a0)
 71a:	0062                	c.slli	zero,0x18

0000071c <.LASF15>:
 71c:	706d6f63          	bltu	s10,t1,e3a <.L31+0x12>
 720:	656c                	flw	fa1,76(a0)
 722:	2078                	fld	fa4,192(s0)

00000724 <.LASF2>:
 724:	6f6c                	flw	fa1,92(a4)
 726:	676e                	flw	fa4,216(sp)
 728:	                	flw	fs0,72(s0)

00000729 <.LASF0>:
 729:	6f64                	flw	fs1,92(a4)
 72b:	6275                	lui	tp,0x1d
 72d:	656c                	flw	fa1,76(a0)
	...

00000730 <.LASF12>:
 730:	706d6f63          	bltu	s10,t1,e4e <.L42>
 734:	656c                	flw	fa1,76(a0)
 736:	2078                	fld	fa4,192(s0)

00000738 <.LASF11>:
 738:	6c66                	flw	fs8,88(sp)
 73a:	0074616f          	jal	sp,46f40 <.LC0+0x42df0>

0000073e <.LASF11>:
 73e:	5155                	li	sp,-11
 740:	7449                	lui	s0,0xffff2
 742:	7079                	c.lui	zero,0xffffe
 744:	0065                	c.nop	25

00000746 <.LASF5>:
 746:	726f6873          	csrrsi	a6,0x726,30
 74a:	2074                	fld	fa3,192(s0)
 74c:	6e69                	lui	t3,0x1a
 74e:	0074                	addi	a3,sp,12

Disassembly of section .debug_frame:

00000000 <.debug_frame>:
   0:	000c                	0xc
   2:	0000                	unimp
   4:	ffff                	0xffff
   6:	ffff                	0xffff
   8:	7c010003          	lb	zero,1984(sp)
   c:	0d01                	addi	s10,s10,0
   e:	0002                	c.slli64	zero
  10:	000c                	0xc
  12:	0000                	unimp
  14:	0000                	unimp
  16:	0000                	unimp
  18:	0920                	addi	s0,sp,152
  1a:	0000                	unimp
  1c:	006a                	c.slli	zero,0x1a
  1e:	0000                	unimp
  20:	000c                	0xc
  22:	0000                	unimp
  24:	ffff                	0xffff
  26:	ffff                	0xffff
  28:	7c010003          	lb	zero,1984(sp)
  2c:	0d01                	addi	s10,s10,0
  2e:	0002                	c.slli64	zero
  30:	000c                	0xc
  32:	0000                	unimp
  34:	0020                	addi	s0,sp,8
  36:	0000                	unimp
  38:	098a                	slli	s3,s3,0x2
  3a:	0000                	unimp
  3c:	00a6                	slli	ra,ra,0x9
  3e:	0000                	unimp
  40:	000c                	0xc
  42:	0000                	unimp
  44:	ffff                	0xffff
  46:	ffff                	0xffff
  48:	7c010003          	lb	zero,1984(sp)
  4c:	0d01                	addi	s10,s10,0
  4e:	0002                	c.slli64	zero
  50:	0040                	addi	s0,sp,4
  52:	0000                	unimp
  54:	0040                	addi	s0,sp,4
  56:	0000                	unimp
  58:	0a30                	addi	a2,sp,280
  5a:	0000                	unimp
  5c:	043e                	slli	s0,s0,0xf
  5e:	0000                	unimp
  60:	0e42                	slli	t3,t3,0x10
  62:	4230                	lw	a2,64(a2)
  64:	884e0593          	addi	a1,t3,-1916 # 19884 <.LC0+0x15734>
  68:	8902                	jr	s2
  6a:	95069403          	lh	s0,-1712(a3)
  6e:	4a099707          	0x4a099707
  72:	0181                	addi	gp,gp,0
  74:	0492                	slli	s1,s1,0x4
  76:	0896                	slli	a7,a7,0x5
  78:	0a033803          	0xa033803
  7c:	46c1                	li	a3,16
  7e:	42c8                	lw	a0,4(a3)
  80:	42c9                	li	t0,18
  82:	42d2                	lw	t0,20(sp)
  84:	42d442d3          	0x42d442d3
  88:	42d5                	li	t0,21
  8a:	42d6                	lw	t0,84(sp)
  8c:	000e46d7          	0xe46d7
  90:	0b42                	slli	s6,s6,0x10
  92:	0000                	unimp
  94:	000c                	0xc
  96:	0000                	unimp
  98:	ffff                	0xffff
  9a:	ffff                	0xffff
  9c:	7c010003          	lb	zero,1984(sp)
  a0:	0d01                	addi	s10,s10,0
  a2:	0002                	c.slli64	zero
  a4:	0030                	addi	a2,sp,8
  a6:	0000                	unimp
  a8:	0094                	addi	a3,sp,64
  aa:	0000                	unimp
  ac:	0e6e                	slli	t3,t3,0x1b
  ae:	0000                	unimp
  b0:	0618                	addi	a4,sp,768
  b2:	0000                	unimp
  b4:	0e48                	addi	a0,sp,788
  b6:	5420                	lw	s0,104(s0)
  b8:	0288                	addi	a0,sp,320
  ba:	894c                	0x894c
  bc:	01815403          	lhu	s0,24(sp)
  c0:	0492                	slli	s1,s1,0x4
  c2:	9a030593          	addi	a1,t1,-1632 # ffff99a0 <.LC0+0xffff5850>
  c6:	0a05                	addi	s4,s4,1
  c8:	42c1                	li	t0,16
  ca:	4ec8                	lw	a0,28(a3)
  cc:	42d2                	lw	t0,20(sp)
  ce:	42c9                	li	t0,18
  d0:	000e44d3          	fadd.s	fs1,ft8,ft0,rmm
  d4:	0b42                	slli	s6,s6,0x10
  d6:	0000                	unimp
  d8:	000c                	0xc
  da:	0000                	unimp
  dc:	ffff                	0xffff
  de:	ffff                	0xffff
  e0:	7c010003          	lb	zero,1984(sp)
  e4:	0d01                	addi	s10,s10,0
  e6:	0002                	c.slli64	zero
  e8:	000c                	0xc
  ea:	0000                	unimp
  ec:	00d8                	addi	a4,sp,68
  ee:	0000                	unimp
  f0:	1486                	slli	s1,s1,0x21
  f2:	0000                	unimp
  f4:	0064                	addi	s1,sp,12
  f6:	0000                	unimp
  f8:	000c                	0xc
  fa:	0000                	unimp
  fc:	ffff                	0xffff
  fe:	ffff                	0xffff
 100:	7c010003          	lb	zero,1984(sp)
 104:	0d01                	addi	s10,s10,0
 106:	0002                	c.slli64	zero
 108:	0024                	addi	s1,sp,8
 10a:	0000                	unimp
 10c:	00f8                	addi	a4,sp,76
 10e:	0000                	unimp
 110:	14ea                	slli	s1,s1,0x3a
 112:	0000                	unimp
 114:	0066                	c.slli	zero,0x19
 116:	0000                	unimp
 118:	0e42                	slli	t3,t3,0x10
 11a:	4610                	lw	a2,8(a2)
 11c:	0181                	addi	gp,gp,0
 11e:	0288                	addi	a0,sp,320
 120:	0389                	addi	t2,t2,2
 122:	3c02                	fld	fs8,32(sp)
 124:	c10a                	sw	sp,128(sp)
 126:	c848                	sw	a0,20(s0)
 128:	c942                	sw	a6,144(sp)
 12a:	0e44                	addi	s1,sp,788
 12c:	4200                	lw	s0,0(a2)
 12e:	000c000b          	0xc000b
 132:	0000                	unimp
 134:	ffff                	0xffff
 136:	ffff                	0xffff
 138:	7c010003          	lb	zero,1984(sp)
 13c:	0d01                	addi	s10,s10,0
 13e:	0002                	c.slli64	zero
 140:	000c                	0xc
 142:	0000                	unimp
 144:	0130                	addi	a2,sp,136
 146:	0000                	unimp
 148:	15ce                	slli	a1,a1,0x33
 14a:	0000                	unimp
 14c:	003a                	c.slli	zero,0xe
	...
