
/home/damon_devil/RV32I_X/software/benchmark/sim_hex/main.elf:     file format elf32-littleriscv


Disassembly of section .data:

00004000 <.LANCHOR0>:
    4000:	0019                	c.addi	x0,6
    4002:	0000                	c.unimp
    4004:	00000023          	sb	x0,0(x0) # 0 <_start>
    4008:	0044                	c.addi4spn	x9,x2,4
    400a:	0000                	c.unimp
    400c:	0000004f          	fnmadd.s	f0,f0,f0,f0,rne
    4010:	0015                	c.addi	x0,5
    4012:	0000                	c.unimp
    4014:	000d                	c.addi	x0,3
    4016:	0000                	c.unimp
    4018:	0062                	c.slli	x0,0x18
    401a:	0000                	c.unimp
    401c:	00000007          	0x7
    4020:	0010                	0x10
    4022:	0000                	c.unimp
    4024:	003e                	c.slli	x0,0xf
	...

00004028 <outputAddr>:
    4028:	0000                	c.unimp
    402a:	          	0x100c7f03

0000402c <.L18>:
    402c:	100c                	c.addi4spn	x11,x2,32
    402e:	0000                	c.unimp
    4030:	100c                	c.addi4spn	x11,x2,32
    4032:	0000                	c.unimp
    4034:	1030                	c.addi4spn	x12,x2,40
    4036:	0000                	c.unimp
    4038:	1000                	c.addi4spn	x8,x2,32
    403a:	0000                	c.unimp
    403c:	1000                	c.addi4spn	x8,x2,32
    403e:	0000                	c.unimp
    4040:	10f4                	c.addi4spn	x13,x2,108
    4042:	0000                	c.unimp
    4044:	1030                	c.addi4spn	x12,x2,40
    4046:	0000                	c.unimp
    4048:	1000                	c.addi4spn	x8,x2,32
    404a:	0000                	c.unimp
    404c:	10f4                	c.addi4spn	x13,x2,108
    404e:	0000                	c.unimp
    4050:	1000                	c.addi4spn	x8,x2,32
    4052:	0000                	c.unimp
    4054:	1030                	c.addi4spn	x12,x2,40
    4056:	0000                	c.unimp
    4058:	0ffc                	c.addi4spn	x15,x2,988
    405a:	0000                	c.unimp
    405c:	0ffc                	c.addi4spn	x15,x2,988
    405e:	0000                	c.unimp
    4060:	0ffc                	c.addi4spn	x15,x2,988
    4062:	0000                	c.unimp
    4064:	10f4                	c.addi4spn	x13,x2,108
	...

00004068 <__clz_tab>:
    4068:	0100                	c.addi4spn	x8,x2,128
    406a:	0202                	c.slli64	x4
    406c:	03030303          	lb	x6,48(x6)
    4070:	0404                	c.addi4spn	x9,x2,512
    4072:	0404                	c.addi4spn	x9,x2,512
    4074:	0404                	c.addi4spn	x9,x2,512
    4076:	0404                	c.addi4spn	x9,x2,512
    4078:	0505                	c.addi	x10,1
    407a:	0505                	c.addi	x10,1
    407c:	0505                	c.addi	x10,1
    407e:	0505                	c.addi	x10,1
    4080:	0505                	c.addi	x10,1
    4082:	0505                	c.addi	x10,1
    4084:	0505                	c.addi	x10,1
    4086:	0505                	c.addi	x10,1
    4088:	0606                	c.slli	x12,0x1
    408a:	0606                	c.slli	x12,0x1
    408c:	0606                	c.slli	x12,0x1
    408e:	0606                	c.slli	x12,0x1
    4090:	0606                	c.slli	x12,0x1
    4092:	0606                	c.slli	x12,0x1
    4094:	0606                	c.slli	x12,0x1
    4096:	0606                	c.slli	x12,0x1
    4098:	0606                	c.slli	x12,0x1
    409a:	0606                	c.slli	x12,0x1
    409c:	0606                	c.slli	x12,0x1
    409e:	0606                	c.slli	x12,0x1
    40a0:	0606                	c.slli	x12,0x1
    40a2:	0606                	c.slli	x12,0x1
    40a4:	0606                	c.slli	x12,0x1
    40a6:	0606                	c.slli	x12,0x1
    40a8:	07070707          	0x7070707
    40ac:	07070707          	0x7070707
    40b0:	07070707          	0x7070707
    40b4:	07070707          	0x7070707
    40b8:	07070707          	0x7070707
    40bc:	07070707          	0x7070707
    40c0:	07070707          	0x7070707
    40c4:	07070707          	0x7070707
    40c8:	07070707          	0x7070707
    40cc:	07070707          	0x7070707
    40d0:	07070707          	0x7070707
    40d4:	07070707          	0x7070707
    40d8:	07070707          	0x7070707
    40dc:	07070707          	0x7070707
    40e0:	07070707          	0x7070707
    40e4:	07070707          	0x7070707
    40e8:	0808                	c.addi4spn	x10,x2,16
    40ea:	0808                	c.addi4spn	x10,x2,16
    40ec:	0808                	c.addi4spn	x10,x2,16
    40ee:	0808                	c.addi4spn	x10,x2,16
    40f0:	0808                	c.addi4spn	x10,x2,16
    40f2:	0808                	c.addi4spn	x10,x2,16
    40f4:	0808                	c.addi4spn	x10,x2,16
    40f6:	0808                	c.addi4spn	x10,x2,16
    40f8:	0808                	c.addi4spn	x10,x2,16
    40fa:	0808                	c.addi4spn	x10,x2,16
    40fc:	0808                	c.addi4spn	x10,x2,16
    40fe:	0808                	c.addi4spn	x10,x2,16
    4100:	0808                	c.addi4spn	x10,x2,16
    4102:	0808                	c.addi4spn	x10,x2,16
    4104:	0808                	c.addi4spn	x10,x2,16
    4106:	0808                	c.addi4spn	x10,x2,16
    4108:	0808                	c.addi4spn	x10,x2,16
    410a:	0808                	c.addi4spn	x10,x2,16
    410c:	0808                	c.addi4spn	x10,x2,16
    410e:	0808                	c.addi4spn	x10,x2,16
    4110:	0808                	c.addi4spn	x10,x2,16
    4112:	0808                	c.addi4spn	x10,x2,16
    4114:	0808                	c.addi4spn	x10,x2,16
    4116:	0808                	c.addi4spn	x10,x2,16
    4118:	0808                	c.addi4spn	x10,x2,16
    411a:	0808                	c.addi4spn	x10,x2,16
    411c:	0808                	c.addi4spn	x10,x2,16
    411e:	0808                	c.addi4spn	x10,x2,16
    4120:	0808                	c.addi4spn	x10,x2,16
    4122:	0808                	c.addi4spn	x10,x2,16
    4124:	0808                	c.addi4spn	x10,x2,16
    4126:	0808                	c.addi4spn	x10,x2,16
    4128:	0808                	c.addi4spn	x10,x2,16
    412a:	0808                	c.addi4spn	x10,x2,16
    412c:	0808                	c.addi4spn	x10,x2,16
    412e:	0808                	c.addi4spn	x10,x2,16
    4130:	0808                	c.addi4spn	x10,x2,16
    4132:	0808                	c.addi4spn	x10,x2,16
    4134:	0808                	c.addi4spn	x10,x2,16
    4136:	0808                	c.addi4spn	x10,x2,16
    4138:	0808                	c.addi4spn	x10,x2,16
    413a:	0808                	c.addi4spn	x10,x2,16
    413c:	0808                	c.addi4spn	x10,x2,16
    413e:	0808                	c.addi4spn	x10,x2,16
    4140:	0808                	c.addi4spn	x10,x2,16
    4142:	0808                	c.addi4spn	x10,x2,16
    4144:	0808                	c.addi4spn	x10,x2,16
    4146:	0808                	c.addi4spn	x10,x2,16
    4148:	0808                	c.addi4spn	x10,x2,16
    414a:	0808                	c.addi4spn	x10,x2,16
    414c:	0808                	c.addi4spn	x10,x2,16
    414e:	0808                	c.addi4spn	x10,x2,16
    4150:	0808                	c.addi4spn	x10,x2,16
    4152:	0808                	c.addi4spn	x10,x2,16
    4154:	0808                	c.addi4spn	x10,x2,16
    4156:	0808                	c.addi4spn	x10,x2,16
    4158:	0808                	c.addi4spn	x10,x2,16
    415a:	0808                	c.addi4spn	x10,x2,16
    415c:	0808                	c.addi4spn	x10,x2,16
    415e:	0808                	c.addi4spn	x10,x2,16
    4160:	0808                	c.addi4spn	x10,x2,16
    4162:	0808                	c.addi4spn	x10,x2,16
    4164:	0808                	c.addi4spn	x10,x2,16
    4166:	0808                	c.addi4spn	x10,x2,16

00004168 <.LC2>:
    4168:	6562                	c.flwsp	f10,24(x2)
    416a:	6f66                	c.flwsp	f30,88(x2)
    416c:	6572                	c.flwsp	f10,28(x2)
    416e:	6220                	c.flw	f8,64(x12)
    4170:	6275                	c.lui	x4,0x1d
    4172:	6c62                	c.flwsp	f24,24(x2)
    4174:	3a65                	c.jal	3b2c <.Ldebug_line0+0xe43>
    4176:	000a                	c.slli	x0,0x2

00004178 <.LC3>:
    4178:	2009                	c.jal	417a <.LC3+0x2>
    417a:	6425                	c.lui	x8,0x9
    417c:	0920                	c.addi4spn	x8,x2,152
	...

00004180 <.LC4>:
    4180:	000a                	c.slli	x0,0x2
	...

00004184 <.LC5>:
    4184:	6661                	c.lui	x12,0x18
    4186:	6574                	c.flw	f13,76(x10)
    4188:	2072                	c.fldsp	f0,280(x2)
    418a:	7562                	c.flwsp	f10,56(x2)
    418c:	6262                	c.flwsp	f4,24(x2)
    418e:	656c                	c.flw	f11,76(x10)
    4190:	0a3a                	c.slli	x20,0xe
    4192:	0000                	c.unimp
    4194:	0000                	c.unimp
	...

00004198 <.LC1>:
    4198:	0000                	c.unimp
    419a:	0000                	c.unimp
    419c:	8480                	0x8480
    419e:	412e                	c.lwsp	x2,200(x2)

Disassembly of section .text:

00000000 <_start>:
       0:	00010137          	lui	x2,0x10
       4:	ff010113          	addi	x2,x2,-16 # fff0 <.LC1+0xbe58>
       8:	7f0301b7          	lui	x3,0x7f030
       c:	00000293          	addi	x5,x0,0
      10:	00518023          	sb	x5,0(x3) # 7f030000 <.LC1+0x7f02be68>
      14:	0140006f          	jal	x0,28 <_call_main>

00000018 <_finish>:
      18:	7f0301b7          	lui	x3,0x7f030
      1c:	0ff00293          	addi	x5,x0,255
      20:	00518023          	sb	x5,0(x3) # 7f030000 <.LC1+0x7f02be68>
      24:	fe000ae3          	beq	x0,x0,18 <_finish>

00000028 <_call_main>:
      28:	339010ef          	jal	x1,1b60 <_end>
      2c:	fedff06f          	jal	x0,18 <_finish>

00000030 <printf_num>:
      30:	00051463          	bne	x10,x0,38 <.L15>
      34:	00008067          	jalr	x0,0(x1)

00000038 <.L15>:
      38:	fe010113          	addi	x2,x2,-32
      3c:	00812c23          	sw	x8,24(x2)
      40:	00912a23          	sw	x9,20(x2)
      44:	00112e23          	sw	x1,28(x2)
      48:	01212823          	sw	x18,16(x2)
      4c:	01312623          	sw	x19,12(x2)
      50:	00900793          	addi	x15,x0,9
      54:	00050413          	addi	x8,x10,0
      58:	000044b7          	lui	x9,0x4
      5c:	02a7ee63          	bltu	x15,x10,98 <.L16>

00000060 <.L3>:
      60:	00040513          	addi	x10,x8,0 # 9000 <.LC1+0x4e68>
      64:	00a00593          	addi	x11,x0,10
      68:	249010ef          	jal	x1,1ab0 <__umodsi3>
      6c:	0284a783          	lw	x15,40(x9) # 4028 <outputAddr>
      70:	03050513          	addi	x10,x10,48
      74:	0ff57513          	andi	x10,x10,255
      78:	00a78023          	sb	x10,0(x15)
      7c:	01c12083          	lw	x1,28(x2)
      80:	01812403          	lw	x8,24(x2)
      84:	01412483          	lw	x9,20(x2)
      88:	01012903          	lw	x18,16(x2)
      8c:	00c12983          	lw	x19,12(x2)
      90:	02010113          	addi	x2,x2,32
      94:	00008067          	jalr	x0,0(x1)

00000098 <.L16>:
      98:	00a00593          	addi	x11,x0,10
      9c:	1cd010ef          	jal	x1,1a68 <__udivsi3>
      a0:	06300793          	addi	x15,x0,99
      a4:	00050913          	addi	x18,x10,0
      a8:	0287e263          	bltu	x15,x8,cc <.L17>

000000ac <.L4>:
      ac:	00a00593          	addi	x11,x0,10
      b0:	00090513          	addi	x10,x18,0
      b4:	1fd010ef          	jal	x1,1ab0 <__umodsi3>
      b8:	0284a783          	lw	x15,40(x9)
      bc:	03050513          	addi	x10,x10,48
      c0:	0ff57513          	andi	x10,x10,255
      c4:	00a78023          	sb	x10,0(x15)
      c8:	f99ff06f          	jal	x0,60 <.L3>

000000cc <.L17>:
      cc:	00a00593          	addi	x11,x0,10
      d0:	199010ef          	jal	x1,1a68 <__udivsi3>
      d4:	00a00593          	addi	x11,x0,10
      d8:	00050993          	addi	x19,x10,0
      dc:	18d010ef          	jal	x1,1a68 <__udivsi3>
      e0:	f51ff0ef          	jal	x1,30 <printf_num>
      e4:	00a00593          	addi	x11,x0,10
      e8:	00098513          	addi	x10,x19,0
      ec:	1c5010ef          	jal	x1,1ab0 <__umodsi3>
      f0:	0284a703          	lw	x14,40(x9)
      f4:	03050793          	addi	x15,x10,48
      f8:	0ff7f793          	andi	x15,x15,255
      fc:	00f70023          	sb	x15,0(x14)
     100:	fadff06f          	jal	x0,ac <.L4>

00000104 <printf_deci.part.0>:
     104:	fd010113          	addi	x2,x2,-48
     108:	02812423          	sw	x8,40(x2)
     10c:	02912223          	sw	x9,36(x2)
     110:	02112623          	sw	x1,44(x2)
     114:	03212023          	sw	x18,32(x2)
     118:	01312e23          	sw	x19,28(x2)
     11c:	01412c23          	sw	x20,24(x2)
     120:	01512a23          	sw	x21,20(x2)
     124:	01612823          	sw	x22,16(x2)
     128:	01712623          	sw	x23,12(x2)
     12c:	01812423          	sw	x24,8(x2)
     130:	01912223          	sw	x25,4(x2)
     134:	00050413          	addi	x8,x10,0
     138:	000044b7          	lui	x9,0x4
     13c:	00055a63          	bge	x10,x0,150 <.L19>
     140:	0284a783          	lw	x15,40(x9) # 4028 <outputAddr>
     144:	02d00713          	addi	x14,x0,45
     148:	40a00433          	sub	x8,x0,x10
     14c:	00e78023          	sb	x14,0(x15)

00000150 <.L19>:
     150:	00900793          	addi	x15,x0,9
     154:	0487ca63          	blt	x15,x8,1a8 <.L31>

00000158 <.L20>:
     158:	00040513          	addi	x10,x8,0
     15c:	00a00593          	addi	x11,x0,10
     160:	151010ef          	jal	x1,1ab0 <__umodsi3>
     164:	0284a783          	lw	x15,40(x9)
     168:	03050513          	addi	x10,x10,48
     16c:	0ff57513          	andi	x10,x10,255
     170:	00a78023          	sb	x10,0(x15)
     174:	02c12083          	lw	x1,44(x2)
     178:	02812403          	lw	x8,40(x2)
     17c:	02412483          	lw	x9,36(x2)
     180:	02012903          	lw	x18,32(x2)
     184:	01c12983          	lw	x19,28(x2)
     188:	01812a03          	lw	x20,24(x2)
     18c:	01412a83          	lw	x21,20(x2)
     190:	01012b03          	lw	x22,16(x2)
     194:	00c12b83          	lw	x23,12(x2)
     198:	00812c03          	lw	x24,8(x2)
     19c:	00412c83          	lw	x25,4(x2)
     1a0:	03010113          	addi	x2,x2,48
     1a4:	00008067          	jalr	x0,0(x1)

000001a8 <.L31>:
     1a8:	00a00593          	addi	x11,x0,10
     1ac:	00040513          	addi	x10,x8,0
     1b0:	0b9010ef          	jal	x1,1a68 <__udivsi3>
     1b4:	06300793          	addi	x15,x0,99
     1b8:	00050913          	addi	x18,x10,0
     1bc:	0287c263          	blt	x15,x8,1e0 <.L32>

000001c0 <.L21>:
     1c0:	00a00593          	addi	x11,x0,10
     1c4:	00090513          	addi	x10,x18,0
     1c8:	0e9010ef          	jal	x1,1ab0 <__umodsi3>
     1cc:	0284a783          	lw	x15,40(x9)
     1d0:	03050513          	addi	x10,x10,48
     1d4:	0ff57513          	andi	x10,x10,255
     1d8:	00a78023          	sb	x10,0(x15)
     1dc:	f7dff06f          	jal	x0,158 <.L20>

000001e0 <.L32>:
     1e0:	00a00593          	addi	x11,x0,10
     1e4:	085010ef          	jal	x1,1a68 <__udivsi3>
     1e8:	3e700793          	addi	x15,x0,999
     1ec:	00050993          	addi	x19,x10,0
     1f0:	0287e263          	bltu	x15,x8,214 <.L33>

000001f4 <.L22>:
     1f4:	00a00593          	addi	x11,x0,10
     1f8:	00098513          	addi	x10,x19,0
     1fc:	0b5010ef          	jal	x1,1ab0 <__umodsi3>
     200:	0284a783          	lw	x15,40(x9)
     204:	03050513          	addi	x10,x10,48
     208:	0ff57513          	andi	x10,x10,255
     20c:	00a78023          	sb	x10,0(x15)
     210:	fb1ff06f          	jal	x0,1c0 <.L21>

00000214 <.L33>:
     214:	00a00593          	addi	x11,x0,10
     218:	051010ef          	jal	x1,1a68 <__udivsi3>
     21c:	000027b7          	lui	x15,0x2
     220:	70f78793          	addi	x15,x15,1807 # 270f <.Ldebug_line0+0x155>
     224:	00050a13          	addi	x20,x10,0
     228:	0287e263          	bltu	x15,x8,24c <.L34>

0000022c <.L23>:
     22c:	00a00593          	addi	x11,x0,10
     230:	000a0513          	addi	x10,x20,0
     234:	07d010ef          	jal	x1,1ab0 <__umodsi3>
     238:	0284a703          	lw	x14,40(x9)
     23c:	03050793          	addi	x15,x10,48
     240:	0ff7f793          	andi	x15,x15,255
     244:	00f70023          	sb	x15,0(x14)
     248:	fadff06f          	jal	x0,1f4 <.L22>

0000024c <.L34>:
     24c:	00a00593          	addi	x11,x0,10
     250:	019010ef          	jal	x1,1a68 <__udivsi3>
     254:	000187b7          	lui	x15,0x18
     258:	69f78793          	addi	x15,x15,1695 # 1869f <.LC1+0x14507>
     25c:	00050a93          	addi	x21,x10,0
     260:	0287e263          	bltu	x15,x8,284 <.L35>

00000264 <.L24>:
     264:	00a00593          	addi	x11,x0,10
     268:	000a8513          	addi	x10,x21,0
     26c:	045010ef          	jal	x1,1ab0 <__umodsi3>
     270:	0284a703          	lw	x14,40(x9)
     274:	03050793          	addi	x15,x10,48
     278:	0ff7f793          	andi	x15,x15,255
     27c:	00f70023          	sb	x15,0(x14)
     280:	fadff06f          	jal	x0,22c <.L23>

00000284 <.L35>:
     284:	00a00593          	addi	x11,x0,10
     288:	7e0010ef          	jal	x1,1a68 <__udivsi3>
     28c:	000f47b7          	lui	x15,0xf4
     290:	23f78793          	addi	x15,x15,575 # f423f <.LC1+0xf00a7>
     294:	00050b13          	addi	x22,x10,0
     298:	0287e263          	bltu	x15,x8,2bc <.L36>

0000029c <.L25>:
     29c:	00a00593          	addi	x11,x0,10
     2a0:	000b0513          	addi	x10,x22,0
     2a4:	00d010ef          	jal	x1,1ab0 <__umodsi3>
     2a8:	0284a703          	lw	x14,40(x9)
     2ac:	03050793          	addi	x15,x10,48
     2b0:	0ff7f793          	andi	x15,x15,255
     2b4:	00f70023          	sb	x15,0(x14)
     2b8:	fadff06f          	jal	x0,264 <.L24>

000002bc <.L36>:
     2bc:	00a00593          	addi	x11,x0,10
     2c0:	7a8010ef          	jal	x1,1a68 <__udivsi3>
     2c4:	009897b7          	lui	x15,0x989
     2c8:	67f78793          	addi	x15,x15,1663 # 98967f <.LC1+0x9854e7>
     2cc:	00050b93          	addi	x23,x10,0
     2d0:	0287e263          	bltu	x15,x8,2f4 <.L37>

000002d4 <.L26>:
     2d4:	00a00593          	addi	x11,x0,10
     2d8:	000b8513          	addi	x10,x23,0
     2dc:	7d4010ef          	jal	x1,1ab0 <__umodsi3>
     2e0:	0284a703          	lw	x14,40(x9)
     2e4:	03050793          	addi	x15,x10,48
     2e8:	0ff7f793          	andi	x15,x15,255
     2ec:	00f70023          	sb	x15,0(x14)
     2f0:	fadff06f          	jal	x0,29c <.L25>

000002f4 <.L37>:
     2f4:	00a00593          	addi	x11,x0,10
     2f8:	770010ef          	jal	x1,1a68 <__udivsi3>
     2fc:	05f5e7b7          	lui	x15,0x5f5e
     300:	0ff78793          	addi	x15,x15,255 # 5f5e0ff <.LC1+0x5f59f67>
     304:	00050c13          	addi	x24,x10,0
     308:	0287e263          	bltu	x15,x8,32c <.L38>

0000030c <.L27>:
     30c:	00a00593          	addi	x11,x0,10
     310:	000c0513          	addi	x10,x24,0
     314:	79c010ef          	jal	x1,1ab0 <__umodsi3>
     318:	0284a703          	lw	x14,40(x9)
     31c:	03050793          	addi	x15,x10,48
     320:	0ff7f793          	andi	x15,x15,255
     324:	00f70023          	sb	x15,0(x14)
     328:	fadff06f          	jal	x0,2d4 <.L26>

0000032c <.L38>:
     32c:	00a00593          	addi	x11,x0,10
     330:	738010ef          	jal	x1,1a68 <__udivsi3>
     334:	3b9ad7b7          	lui	x15,0x3b9ad
     338:	9ff78793          	addi	x15,x15,-1537 # 3b9ac9ff <.LC1+0x3b9a8867>
     33c:	00050c93          	addi	x25,x10,0
     340:	0287e263          	bltu	x15,x8,364 <.L39>

00000344 <.L28>:
     344:	00a00593          	addi	x11,x0,10
     348:	000c8513          	addi	x10,x25,0
     34c:	764010ef          	jal	x1,1ab0 <__umodsi3>
     350:	0284a703          	lw	x14,40(x9)
     354:	03050793          	addi	x15,x10,48
     358:	0ff7f793          	andi	x15,x15,255
     35c:	00f70023          	sb	x15,0(x14)
     360:	fadff06f          	jal	x0,30c <.L27>

00000364 <.L39>:
     364:	00000513          	addi	x10,x0,0
     368:	cc9ff0ef          	jal	x1,30 <printf_num>
     36c:	00a00593          	addi	x11,x0,10
     370:	000c8513          	addi	x10,x25,0
     374:	6f4010ef          	jal	x1,1a68 <__udivsi3>
     378:	0284a703          	lw	x14,40(x9)
     37c:	03050793          	addi	x15,x10,48
     380:	0ff7f793          	andi	x15,x15,255
     384:	00f70023          	sb	x15,0(x14)
     388:	fbdff06f          	jal	x0,344 <.L28>

0000038c <printf_deci>:
     38c:	0c050c63          	beq	x10,x0,464 <.L54>
     390:	fd010113          	addi	x2,x2,-48
     394:	02812423          	sw	x8,40(x2)
     398:	02912223          	sw	x9,36(x2)
     39c:	02112623          	sw	x1,44(x2)
     3a0:	03212023          	sw	x18,32(x2)
     3a4:	01312e23          	sw	x19,28(x2)
     3a8:	01412c23          	sw	x20,24(x2)
     3ac:	01512a23          	sw	x21,20(x2)
     3b0:	01612823          	sw	x22,16(x2)
     3b4:	01712623          	sw	x23,12(x2)
     3b8:	00050413          	addi	x8,x10,0
     3bc:	000044b7          	lui	x9,0x4
     3c0:	04054a63          	blt	x10,x0,414 <.L55>
     3c4:	00900793          	addi	x15,x0,9
     3c8:	0687c263          	blt	x15,x8,42c <.L56>

000003cc <.L44>:
     3cc:	00040513          	addi	x10,x8,0
     3d0:	00a00593          	addi	x11,x0,10
     3d4:	6dc010ef          	jal	x1,1ab0 <__umodsi3>
     3d8:	0284a783          	lw	x15,40(x9) # 4028 <outputAddr>
     3dc:	03050513          	addi	x10,x10,48
     3e0:	0ff57513          	andi	x10,x10,255
     3e4:	00a78023          	sb	x10,0(x15)
     3e8:	02c12083          	lw	x1,44(x2)
     3ec:	02812403          	lw	x8,40(x2)
     3f0:	02412483          	lw	x9,36(x2)
     3f4:	02012903          	lw	x18,32(x2)
     3f8:	01c12983          	lw	x19,28(x2)
     3fc:	01812a03          	lw	x20,24(x2)
     400:	01412a83          	lw	x21,20(x2)
     404:	01012b03          	lw	x22,16(x2)
     408:	00c12b83          	lw	x23,12(x2)
     40c:	03010113          	addi	x2,x2,48
     410:	00008067          	jalr	x0,0(x1)

00000414 <.L55>:
     414:	0284a783          	lw	x15,40(x9)
     418:	02d00713          	addi	x14,x0,45
     41c:	40a00433          	sub	x8,x0,x10
     420:	00e78023          	sb	x14,0(x15)
     424:	00900793          	addi	x15,x0,9
     428:	fa87d2e3          	bge	x15,x8,3cc <.L44>

0000042c <.L56>:
     42c:	00a00593          	addi	x11,x0,10
     430:	00040513          	addi	x10,x8,0
     434:	634010ef          	jal	x1,1a68 <__udivsi3>
     438:	06300793          	addi	x15,x0,99
     43c:	00050913          	addi	x18,x10,0
     440:	0287cc63          	blt	x15,x8,478 <.L57>

00000444 <.L45>:
     444:	00a00593          	addi	x11,x0,10
     448:	00090513          	addi	x10,x18,0
     44c:	664010ef          	jal	x1,1ab0 <__umodsi3>
     450:	0284a783          	lw	x15,40(x9)
     454:	03050513          	addi	x10,x10,48
     458:	0ff57513          	andi	x10,x10,255
     45c:	00a78023          	sb	x10,0(x15)
     460:	f6dff06f          	jal	x0,3cc <.L44>

00000464 <.L54>:
     464:	000047b7          	lui	x15,0x4
     468:	0287a783          	lw	x15,40(x15) # 4028 <outputAddr>
     46c:	03000713          	addi	x14,x0,48
     470:	00e78023          	sb	x14,0(x15)
     474:	00008067          	jalr	x0,0(x1)

00000478 <.L57>:
     478:	00a00593          	addi	x11,x0,10
     47c:	5ec010ef          	jal	x1,1a68 <__udivsi3>
     480:	3e700793          	addi	x15,x0,999
     484:	00050993          	addi	x19,x10,0
     488:	0287e263          	bltu	x15,x8,4ac <.L58>

0000048c <.L46>:
     48c:	00a00593          	addi	x11,x0,10
     490:	00098513          	addi	x10,x19,0
     494:	61c010ef          	jal	x1,1ab0 <__umodsi3>
     498:	0284a783          	lw	x15,40(x9)
     49c:	03050513          	addi	x10,x10,48
     4a0:	0ff57513          	andi	x10,x10,255
     4a4:	00a78023          	sb	x10,0(x15)
     4a8:	f9dff06f          	jal	x0,444 <.L45>

000004ac <.L58>:
     4ac:	00a00593          	addi	x11,x0,10
     4b0:	5b8010ef          	jal	x1,1a68 <__udivsi3>
     4b4:	000027b7          	lui	x15,0x2
     4b8:	70f78793          	addi	x15,x15,1807 # 270f <.Ldebug_line0+0x155>
     4bc:	00050a13          	addi	x20,x10,0
     4c0:	0287e263          	bltu	x15,x8,4e4 <.L59>

000004c4 <.L47>:
     4c4:	00a00593          	addi	x11,x0,10
     4c8:	000a0513          	addi	x10,x20,0
     4cc:	5e4010ef          	jal	x1,1ab0 <__umodsi3>
     4d0:	0284a703          	lw	x14,40(x9)
     4d4:	03050793          	addi	x15,x10,48
     4d8:	0ff7f793          	andi	x15,x15,255
     4dc:	00f70023          	sb	x15,0(x14)
     4e0:	fadff06f          	jal	x0,48c <.L46>

000004e4 <.L59>:
     4e4:	00a00593          	addi	x11,x0,10
     4e8:	580010ef          	jal	x1,1a68 <__udivsi3>
     4ec:	000187b7          	lui	x15,0x18
     4f0:	69f78793          	addi	x15,x15,1695 # 1869f <.LC1+0x14507>
     4f4:	00050a93          	addi	x21,x10,0
     4f8:	0287e263          	bltu	x15,x8,51c <.L60>

000004fc <.L48>:
     4fc:	00a00593          	addi	x11,x0,10
     500:	000a8513          	addi	x10,x21,0
     504:	5ac010ef          	jal	x1,1ab0 <__umodsi3>
     508:	0284a703          	lw	x14,40(x9)
     50c:	03050793          	addi	x15,x10,48
     510:	0ff7f793          	andi	x15,x15,255
     514:	00f70023          	sb	x15,0(x14)
     518:	fadff06f          	jal	x0,4c4 <.L47>

0000051c <.L60>:
     51c:	00a00593          	addi	x11,x0,10
     520:	548010ef          	jal	x1,1a68 <__udivsi3>
     524:	000f47b7          	lui	x15,0xf4
     528:	23f78793          	addi	x15,x15,575 # f423f <.LC1+0xf00a7>
     52c:	00050b13          	addi	x22,x10,0
     530:	0287e263          	bltu	x15,x8,554 <.L61>

00000534 <.L49>:
     534:	00a00593          	addi	x11,x0,10
     538:	000b0513          	addi	x10,x22,0
     53c:	574010ef          	jal	x1,1ab0 <__umodsi3>
     540:	0284a703          	lw	x14,40(x9)
     544:	03050793          	addi	x15,x10,48
     548:	0ff7f793          	andi	x15,x15,255
     54c:	00f70023          	sb	x15,0(x14)
     550:	fadff06f          	jal	x0,4fc <.L48>

00000554 <.L61>:
     554:	00a00593          	addi	x11,x0,10
     558:	510010ef          	jal	x1,1a68 <__udivsi3>
     55c:	00a00593          	addi	x11,x0,10
     560:	00050b93          	addi	x23,x10,0
     564:	504010ef          	jal	x1,1a68 <__udivsi3>
     568:	ac9ff0ef          	jal	x1,30 <printf_num>
     56c:	00a00593          	addi	x11,x0,10
     570:	000b8513          	addi	x10,x23,0
     574:	53c010ef          	jal	x1,1ab0 <__umodsi3>
     578:	0284a703          	lw	x14,40(x9)
     57c:	03050793          	addi	x15,x10,48
     580:	0ff7f793          	andi	x15,x15,255
     584:	00f70023          	sb	x15,0(x14)
     588:	fadff06f          	jal	x0,534 <.L49>

0000058c <printf_char>:
     58c:	000047b7          	lui	x15,0x4
     590:	0287a783          	lw	x15,40(x15) # 4028 <outputAddr>
     594:	0ff57513          	andi	x10,x10,255
     598:	00a78023          	sb	x10,0(x15)
     59c:	00008067          	jalr	x0,0(x1)

000005a0 <printf_str>:
     5a0:	00054783          	lbu	x15,0(x10)
     5a4:	02078063          	beq	x15,x0,5c4 <.L63>
     5a8:	00150513          	addi	x10,x10,1
     5ac:	000046b7          	lui	x13,0x4

000005b0 <.L65>:
     5b0:	0286a703          	lw	x14,40(x13) # 4028 <outputAddr>
     5b4:	00150513          	addi	x10,x10,1
     5b8:	00f70023          	sb	x15,0(x14)
     5bc:	fff54783          	lbu	x15,-1(x10)
     5c0:	fe0798e3          	bne	x15,x0,5b0 <.L65>

000005c4 <.L63>:
     5c4:	00008067          	jalr	x0,0(x1)

000005c8 <printf_float>:
     5c8:	fe010113          	addi	x2,x2,-32
     5cc:	00000613          	addi	x12,x0,0
     5d0:	00000693          	addi	x13,x0,0
     5d4:	00812c23          	sw	x8,24(x2)
     5d8:	00912a23          	sw	x9,20(x2)
     5dc:	00112e23          	sw	x1,28(x2)
     5e0:	01212823          	sw	x18,16(x2)
     5e4:	01312623          	sw	x19,12(x2)
     5e8:	00050493          	addi	x9,x10,0
     5ec:	00058413          	addi	x8,x11,0
     5f0:	340000ef          	jal	x1,930 <__eqdf2>
     5f4:	10050a63          	beq	x10,x0,708 <.L87>
     5f8:	00048513          	addi	x10,x9,0
     5fc:	00040593          	addi	x11,x8,0
     600:	00000613          	addi	x12,x0,0
     604:	00000693          	addi	x13,x0,0
     608:	3b4000ef          	jal	x1,9bc <__ledf2>
     60c:	00004937          	lui	x18,0x4
     610:	0a054663          	blt	x10,x0,6bc <.L82>
     614:	00048513          	addi	x10,x9,0
     618:	00040593          	addi	x11,x8,0
     61c:	2f8010ef          	jal	x1,1914 <__fixdfsi>
     620:	00050993          	addi	x19,x10,0
     624:	0c050a63          	beq	x10,x0,6f8 <.L88>

00000628 <.L76>:
     628:	addff0ef          	jal	x1,104 <printf_deci.part.0>

0000062c <.L77>:
     62c:	02892783          	lw	x15,40(x18) # 4028 <outputAddr>
     630:	02e00713          	addi	x14,x0,46
     634:	00098513          	addi	x10,x19,0
     638:	00e78023          	sb	x14,0(x15)
     63c:	358010ef          	jal	x1,1994 <__floatsidf>
     640:	00050613          	addi	x12,x10,0
     644:	00058693          	addi	x13,x11,0
     648:	00048513          	addi	x10,x9,0
     64c:	00040593          	addi	x11,x8,0
     650:	2d9000ef          	jal	x1,1128 <__subdf3>
     654:	00000613          	addi	x12,x0,0
     658:	00000693          	addi	x13,x0,0
     65c:	00050493          	addi	x9,x10,0
     660:	00058413          	addi	x8,x11,0
     664:	2cc000ef          	jal	x1,930 <__eqdf2>
     668:	0c051663          	bne	x10,x0,734 <.L85>
     66c:	02892703          	lw	x14,40(x18)
     670:	03000793          	addi	x15,x0,48
     674:	00f70023          	sb	x15,0(x14)
     678:	02892703          	lw	x14,40(x18)
     67c:	00f70023          	sb	x15,0(x14)
     680:	02892703          	lw	x14,40(x18)
     684:	00f70023          	sb	x15,0(x14)
     688:	02892703          	lw	x14,40(x18)
     68c:	00f70023          	sb	x15,0(x14)
     690:	02892703          	lw	x14,40(x18)
     694:	00f70023          	sb	x15,0(x14)
     698:	02892703          	lw	x14,40(x18)
     69c:	00f70023          	sb	x15,0(x14)
     6a0:	01c12083          	lw	x1,28(x2)
     6a4:	01812403          	lw	x8,24(x2)
     6a8:	01412483          	lw	x9,20(x2)
     6ac:	01012903          	lw	x18,16(x2)
     6b0:	00c12983          	lw	x19,12(x2)
     6b4:	02010113          	addi	x2,x2,32
     6b8:	00008067          	jalr	x0,0(x1)

000006bc <.L82>:
     6bc:	02892783          	lw	x15,40(x18)
     6c0:	02d00713          	addi	x14,x0,45
     6c4:	00048613          	addi	x12,x9,0
     6c8:	00040693          	addi	x13,x8,0
     6cc:	00e78023          	sb	x14,0(x15)
     6d0:	00000513          	addi	x10,x0,0
     6d4:	00000593          	addi	x11,x0,0
     6d8:	251000ef          	jal	x1,1128 <__subdf3>
     6dc:	00050493          	addi	x9,x10,0
     6e0:	00058413          	addi	x8,x11,0
     6e4:	00048513          	addi	x10,x9,0
     6e8:	00040593          	addi	x11,x8,0
     6ec:	228010ef          	jal	x1,1914 <__fixdfsi>
     6f0:	00050993          	addi	x19,x10,0
     6f4:	f2051ae3          	bne	x10,x0,628 <.L76>

000006f8 <.L88>:
     6f8:	02892783          	lw	x15,40(x18)
     6fc:	03000713          	addi	x14,x0,48
     700:	00e78023          	sb	x14,0(x15)
     704:	f29ff06f          	jal	x0,62c <.L77>

00000708 <.L87>:
     708:	000047b7          	lui	x15,0x4
     70c:	0287a783          	lw	x15,40(x15) # 4028 <outputAddr>
     710:	03000713          	addi	x14,x0,48
     714:	00e78023          	sb	x14,0(x15)
     718:	01c12083          	lw	x1,28(x2)
     71c:	01812403          	lw	x8,24(x2)
     720:	01412483          	lw	x9,20(x2)
     724:	01012903          	lw	x18,16(x2)
     728:	00c12983          	lw	x19,12(x2)
     72c:	02010113          	addi	x2,x2,32
     730:	00008067          	jalr	x0,0(x1)

00000734 <.L85>:
     734:	000047b7          	lui	x15,0x4
     738:	1987a603          	lw	x12,408(x15) # 4198 <.LC1>
     73c:	19c7a683          	lw	x13,412(x15)
     740:	00048513          	addi	x10,x9,0
     744:	00040593          	addi	x11,x8,0
     748:	358000ef          	jal	x1,aa0 <__muldf3>
     74c:	1c8010ef          	jal	x1,1914 <__fixdfsi>
     750:	02050063          	beq	x10,x0,770 <.L89>
     754:	01812403          	lw	x8,24(x2)
     758:	01c12083          	lw	x1,28(x2)
     75c:	01412483          	lw	x9,20(x2)
     760:	01012903          	lw	x18,16(x2)
     764:	00c12983          	lw	x19,12(x2)
     768:	02010113          	addi	x2,x2,32
     76c:	999ff06f          	jal	x0,104 <printf_deci.part.0>

00000770 <.L89>:
     770:	02892783          	lw	x15,40(x18)
     774:	03000713          	addi	x14,x0,48
     778:	00e78023          	sb	x14,0(x15)
     77c:	01c12083          	lw	x1,28(x2)
     780:	01812403          	lw	x8,24(x2)
     784:	01412483          	lw	x9,20(x2)
     788:	01012903          	lw	x18,16(x2)
     78c:	00c12983          	lw	x19,12(x2)
     790:	02010113          	addi	x2,x2,32
     794:	00008067          	jalr	x0,0(x1)

00000798 <my_printf>:
     798:	fa010113          	addi	x2,x2,-96
     79c:	02112e23          	sw	x1,60(x2)
     7a0:	02812c23          	sw	x8,56(x2)
     7a4:	02912a23          	sw	x9,52(x2)
     7a8:	03212823          	sw	x18,48(x2)
     7ac:	03312623          	sw	x19,44(x2)
     7b0:	03412423          	sw	x20,40(x2)
     7b4:	03512223          	sw	x21,36(x2)
     7b8:	03612023          	sw	x22,32(x2)
     7bc:	01712e23          	sw	x23,28(x2)
     7c0:	01812c23          	sw	x24,24(x2)
     7c4:	01912a23          	sw	x25,20(x2)
     7c8:	00054303          	lbu	x6,0(x10)
     7cc:	04f12a23          	sw	x15,84(x2)
     7d0:	04410793          	addi	x15,x2,68
     7d4:	04b12223          	sw	x11,68(x2)
     7d8:	04c12423          	sw	x12,72(x2)
     7dc:	04d12623          	sw	x13,76(x2)
     7e0:	04e12823          	sw	x14,80(x2)
     7e4:	05012c23          	sw	x16,88(x2)
     7e8:	05112e23          	sw	x17,92(x2)
     7ec:	00f12623          	sw	x15,12(x2)
     7f0:	08030463          	beq	x6,x0,878 <.L90>
     7f4:	00050913          	addi	x18,x10,0
     7f8:	00000413          	addi	x8,x0,0
     7fc:	02500b13          	addi	x22,x0,37
     800:	06600a93          	addi	x21,x0,102
     804:	07300c93          	addi	x25,x0,115
     808:	000049b7          	lui	x19,0x4
     80c:	06300c13          	addi	x24,x0,99
     810:	06400b93          	addi	x23,x0,100
     814:	03000a13          	addi	x20,x0,48
     818:	0180006f          	jal	x0,830 <.L91>

0000081c <.L110>:
     81c:	0289a703          	lw	x14,40(x19) # 4028 <outputAddr>
     820:	00078413          	addi	x8,x15,0
     824:	00670023          	sb	x6,0(x14)

00000828 <.L93>:
     828:	0004c303          	lbu	x6,0(x9)
     82c:	04030663          	beq	x6,x0,878 <.L90>

00000830 <.L91>:
     830:	00140793          	addi	x15,x8,1
     834:	00f904b3          	add	x9,x18,x15
     838:	ff6312e3          	bne	x6,x22,81c <.L110>
     83c:	0004c783          	lbu	x15,0(x9)
     840:	00240413          	addi	x8,x8,2
     844:	008904b3          	add	x9,x18,x8
     848:	09578e63          	beq	x15,x21,8e4 <.L94>
     84c:	06fae063          	bltu	x21,x15,8ac <.L95>
     850:	0b878c63          	beq	x15,x24,908 <.L96>
     854:	fd779ae3          	bne	x15,x23,828 <.L93>
     858:	00c12783          	lw	x15,12(x2)
     85c:	0007a503          	lw	x10,0(x15)
     860:	00478793          	addi	x15,x15,4
     864:	00f12623          	sw	x15,12(x2)
     868:	0a050e63          	beq	x10,x0,924 <.L111>
     86c:	899ff0ef          	jal	x1,104 <printf_deci.part.0>
     870:	0004c303          	lbu	x6,0(x9)
     874:	fa031ee3          	bne	x6,x0,830 <.L91>

00000878 <.L90>:
     878:	03c12083          	lw	x1,60(x2)
     87c:	03812403          	lw	x8,56(x2)
     880:	03412483          	lw	x9,52(x2)
     884:	03012903          	lw	x18,48(x2)
     888:	02c12983          	lw	x19,44(x2)
     88c:	02812a03          	lw	x20,40(x2)
     890:	02412a83          	lw	x21,36(x2)
     894:	02012b03          	lw	x22,32(x2)
     898:	01c12b83          	lw	x23,28(x2)
     89c:	01812c03          	lw	x24,24(x2)
     8a0:	01412c83          	lw	x25,20(x2)
     8a4:	06010113          	addi	x2,x2,96
     8a8:	00008067          	jalr	x0,0(x1)

000008ac <.L95>:
     8ac:	f7979ee3          	bne	x15,x25,828 <.L93>
     8b0:	00c12703          	lw	x14,12(x2)
     8b4:	00072783          	lw	x15,0(x14)
     8b8:	00470713          	addi	x14,x14,4
     8bc:	00e12623          	sw	x14,12(x2)
     8c0:	0007c703          	lbu	x14,0(x15)
     8c4:	f60702e3          	beq	x14,x0,828 <.L93>
     8c8:	00178793          	addi	x15,x15,1

000008cc <.L100>:
     8cc:	0289a683          	lw	x13,40(x19)
     8d0:	00178793          	addi	x15,x15,1
     8d4:	00e68023          	sb	x14,0(x13)
     8d8:	fff7c703          	lbu	x14,-1(x15)
     8dc:	fe0718e3          	bne	x14,x0,8cc <.L100>
     8e0:	f49ff06f          	jal	x0,828 <.L93>

000008e4 <.L94>:
     8e4:	00c12783          	lw	x15,12(x2)
     8e8:	00778793          	addi	x15,x15,7
     8ec:	ff87f793          	andi	x15,x15,-8
     8f0:	0007a503          	lw	x10,0(x15)
     8f4:	0047a583          	lw	x11,4(x15)
     8f8:	00878793          	addi	x15,x15,8
     8fc:	00f12623          	sw	x15,12(x2)
     900:	cc9ff0ef          	jal	x1,5c8 <printf_float>
     904:	f25ff06f          	jal	x0,828 <.L93>

00000908 <.L96>:
     908:	00c12783          	lw	x15,12(x2)
     90c:	0289a703          	lw	x14,40(x19)
     910:	0007c683          	lbu	x13,0(x15)
     914:	00478793          	addi	x15,x15,4
     918:	00f12623          	sw	x15,12(x2)
     91c:	00d70023          	sb	x13,0(x14)
     920:	f09ff06f          	jal	x0,828 <.L93>

00000924 <.L111>:
     924:	0289a783          	lw	x15,40(x19)
     928:	01478023          	sb	x20,0(x15)
     92c:	efdff06f          	jal	x0,828 <.L93>

00000930 <__eqdf2>:
     930:	0145d713          	srli	x14,x11,0x14
     934:	001007b7          	lui	x15,0x100
     938:	fff78793          	addi	x15,x15,-1 # fffff <.LC1+0xfbe67>

0000093c <.LBB3>:
     93c:	0146d813          	srli	x16,x13,0x14

00000940 <.LBE3>:
     940:	00050313          	addi	x6,x10,0
     944:	00050e93          	addi	x29,x10,0

00000948 <.LBB4>:
     948:	7ff77713          	andi	x14,x14,2047

0000094c <.LBE4>:
     94c:	7ff00513          	addi	x10,x0,2047

00000950 <.LBB5>:
     950:	00b7f8b3          	and	x17,x15,x11
     954:	00060f13          	addi	x30,x12,0 # 18000 <.LC1+0x13e68>

00000958 <.LBB6>:
     958:	00d7f7b3          	and	x15,x15,x13

0000095c <.LBB7>:
     95c:	01f5d593          	srli	x11,x11,0x1f

00000960 <.LBB8>:
     960:	7ff87813          	andi	x16,x16,2047
     964:	01f6d693          	srli	x13,x13,0x1f

00000968 <.LBE8>:
     968:	00a71c63          	bne	x14,x10,980 <.L2>
     96c:	0068ee33          	or	x28,x17,x6
     970:	00100513          	addi	x10,x0,1
     974:	000e1463          	bne	x28,x0,97c <.L1>
     978:	00e80663          	beq	x16,x14,984 <.L6>

0000097c <.L1>:
     97c:	00008067          	jalr	x0,0(x1)

00000980 <.L2>:
     980:	00a81863          	bne	x16,x10,990 <.L5>

00000984 <.L6>:
     984:	00c7e633          	or	x12,x15,x12

00000988 <.LVL9>:
     988:	00100513          	addi	x10,x0,1
     98c:	fe0618e3          	bne	x12,x0,97c <.L1>

00000990 <.L5>:
     990:	00100513          	addi	x10,x0,1
     994:	ff0714e3          	bne	x14,x16,97c <.L1>
     998:	fef892e3          	bne	x17,x15,97c <.L1>
     99c:	ffee90e3          	bne	x29,x30,97c <.L1>
     9a0:	00d58a63          	beq	x11,x13,9b4 <.L12>
     9a4:	fc071ce3          	bne	x14,x0,97c <.L1>
     9a8:	0068e533          	or	x10,x17,x6
     9ac:	00a03533          	sltu	x10,x0,x10
     9b0:	00008067          	jalr	x0,0(x1)

000009b4 <.L12>:
     9b4:	00000513          	addi	x10,x0,0
     9b8:	00008067          	jalr	x0,0(x1)

000009bc <__ledf2>:
     9bc:	00100737          	lui	x14,0x100
     9c0:	fff70713          	addi	x14,x14,-1 # fffff <.LC1+0xfbe67>
     9c4:	0145d813          	srli	x16,x11,0x14
     9c8:	00b778b3          	and	x17,x14,x11

000009cc <.LBE2>:
     9cc:	00050793          	addi	x15,x10,0
     9d0:	00050313          	addi	x6,x10,0

000009d4 <.LBB3>:
     9d4:	7ff87813          	andi	x16,x16,2047
     9d8:	01f5d513          	srli	x10,x11,0x1f

000009dc <.LBB4>:
     9dc:	7ff00e93          	addi	x29,x0,2047

000009e0 <.LBB5>:
     9e0:	0146d593          	srli	x11,x13,0x14
     9e4:	00d77733          	and	x14,x14,x13
     9e8:	00060e13          	addi	x28,x12,0

000009ec <.LVL4>:
     9ec:	7ff5f593          	andi	x11,x11,2047
     9f0:	01f6d693          	srli	x13,x13,0x1f

000009f4 <.LBE5>:
     9f4:	01d81a63          	bne	x16,x29,a08 <.L2>
     9f8:	00f8eeb3          	or	x29,x17,x15
     9fc:	080e8a63          	beq	x29,x0,a90 <.L34>

00000a00 <.L23>:
     a00:	00200513          	addi	x10,x0,2

00000a04 <.LVL7>:
     a04:	00008067          	jalr	x0,0(x1)

00000a08 <.L2>:
     a08:	01d59663          	bne	x11,x29,a14 <.L5>

00000a0c <.L21>:
     a0c:	00c76eb3          	or	x29,x14,x12
     a10:	fe0e98e3          	bne	x29,x0,a00 <.L23>

00000a14 <.L5>:
     a14:	08081063          	bne	x16,x0,a94 <.L6>
     a18:	00f8e7b3          	or	x15,x17,x15
     a1c:	0017b793          	sltiu	x15,x15,1

00000a20 <.LVL9>:
     a20:	00059663          	bne	x11,x0,a2c <.L7>

00000a24 <.L20>:
     a24:	00c76633          	or	x12,x14,x12

00000a28 <.LVL11>:
     a28:	04060c63          	beq	x12,x0,a80 <.L8>

00000a2c <.L7>:
     a2c:	00079c63          	bne	x15,x0,a44 <.L16>

00000a30 <.L17>:
     a30:	00d51463          	bne	x10,x13,a38 <.L13>
     a34:	0305d063          	bge	x11,x16,a54 <.L11>

00000a38 <.L13>:
     a38:	04050063          	beq	x10,x0,a78 <.L29>

00000a3c <.L31>:
     a3c:	fff00513          	addi	x10,x0,-1

00000a40 <.LVL15>:
     a40:	00008067          	jalr	x0,0(x1)

00000a44 <.L16>:
     a44:	fff00513          	addi	x10,x0,-1

00000a48 <.LVL17>:
     a48:	00068a63          	beq	x13,x0,a5c <.L1>
     a4c:	00068513          	addi	x10,x13,0
     a50:	00008067          	jalr	x0,0(x1)

00000a54 <.L11>:
     a54:	00b85663          	bge	x16,x11,a60 <.L12>

00000a58 <.L19>:
     a58:	fe0502e3          	beq	x10,x0,a3c <.L31>

00000a5c <.L1>:
     a5c:	00008067          	jalr	x0,0(x1)

00000a60 <.L12>:
     a60:	fd176ce3          	bltu	x14,x17,a38 <.L13>
     a64:	02e89263          	bne	x17,x14,a88 <.L14>
     a68:	fc6e68e3          	bltu	x28,x6,a38 <.L13>
     a6c:	ffc366e3          	bltu	x6,x28,a58 <.L19>

00000a70 <.L39>:
     a70:	00000513          	addi	x10,x0,0

00000a74 <.LVL22>:
     a74:	00008067          	jalr	x0,0(x1)

00000a78 <.L29>:
     a78:	00100513          	addi	x10,x0,1

00000a7c <.LVL24>:
     a7c:	00008067          	jalr	x0,0(x1)

00000a80 <.L8>:
     a80:	fe0798e3          	bne	x15,x0,a70 <.L39>
     a84:	fb5ff06f          	jal	x0,a38 <.L13>

00000a88 <.L14>:
     a88:	fce8e8e3          	bltu	x17,x14,a58 <.L19>
     a8c:	fe5ff06f          	jal	x0,a70 <.L39>

00000a90 <.L34>:
     a90:	f7058ee3          	beq	x11,x16,a0c <.L21>

00000a94 <.L6>:
     a94:	f8059ee3          	bne	x11,x0,a30 <.L17>
     a98:	00000793          	addi	x15,x0,0
     a9c:	f89ff06f          	jal	x0,a24 <.L20>

00000aa0 <__muldf3>:
     aa0:	fd010113          	addi	x2,x2,-48
     aa4:	01312e23          	sw	x19,28(x2)

00000aa8 <.LBB3>:
     aa8:	0145d993          	srli	x19,x11,0x14

00000aac <.LBE3>:
     aac:	02812423          	sw	x8,40(x2)
     ab0:	02912223          	sw	x9,36(x2)
     ab4:	01412c23          	sw	x20,24(x2)
     ab8:	01512a23          	sw	x21,20(x2)
     abc:	01712623          	sw	x23,12(x2)

00000ac0 <.LBB4>:
     ac0:	00c59493          	slli	x9,x11,0xc

00000ac4 <.LBE4>:
     ac4:	02112623          	sw	x1,44(x2)
     ac8:	03212023          	sw	x18,32(x2)
     acc:	01612823          	sw	x22,16(x2)

00000ad0 <.LBB5>:
     ad0:	7ff9f993          	andi	x19,x19,2047

00000ad4 <.LBE5>:
     ad4:	00050413          	addi	x8,x10,0
     ad8:	00060b93          	addi	x23,x12,0
     adc:	00068a93          	addi	x21,x13,0

00000ae0 <.LBB6>:
     ae0:	00c4d493          	srli	x9,x9,0xc

00000ae4 <.LVL1>:
     ae4:	01f5da13          	srli	x20,x11,0x1f

00000ae8 <.LBE6>:
     ae8:	0a098263          	beq	x19,x0,b8c <.L2>
     aec:	7ff00793          	addi	x15,x0,2047
     af0:	10f98063          	beq	x19,x15,bf0 <.L3>

00000af4 <.LVL3>:
     af4:	01d55793          	srli	x15,x10,0x1d
     af8:	00349493          	slli	x9,x9,0x3

00000afc <.LVL4>:
     afc:	0097e4b3          	or	x9,x15,x9
     b00:	008007b7          	lui	x15,0x800
     b04:	00f4e4b3          	or	x9,x9,x15

00000b08 <.LVL5>:
     b08:	00351913          	slli	x18,x10,0x3

00000b0c <.LVL6>:
     b0c:	c0198993          	addi	x19,x19,-1023

00000b10 <.L58>:
     b10:	00000b13          	addi	x22,x0,0

00000b14 <.L4>:
     b14:	014ad513          	srli	x10,x21,0x14
     b18:	00ca9413          	slli	x8,x21,0xc
     b1c:	7ff57513          	andi	x10,x10,2047
     b20:	00c45413          	srli	x8,x8,0xc

00000b24 <.LVL9>:
     b24:	01fada93          	srli	x21,x21,0x1f

00000b28 <.LBE11>:
     b28:	10050063          	beq	x10,x0,c28 <.L9>
     b2c:	7ff00793          	addi	x15,x0,2047
     b30:	16f50063          	beq	x10,x15,c90 <.L10>

00000b34 <.LVL11>:
     b34:	01dbd793          	srli	x15,x23,0x1d
     b38:	00341413          	slli	x8,x8,0x3

00000b3c <.LVL12>:
     b3c:	0087e433          	or	x8,x15,x8
     b40:	008007b7          	lui	x15,0x800
     b44:	00f46433          	or	x8,x8,x15

00000b48 <.LVL13>:
     b48:	c0150513          	addi	x10,x10,-1023

00000b4c <.LVL14>:
     b4c:	003b9793          	slli	x15,x23,0x3

00000b50 <.L59>:
     b50:	00000713          	addi	x14,x0,0

00000b54 <.L11>:
     b54:	002b1693          	slli	x13,x22,0x2
     b58:	00e6e6b3          	or	x13,x13,x14
     b5c:	00a989b3          	add	x19,x19,x10

00000b60 <.LVL17>:
     b60:	fff68693          	addi	x13,x13,-1
     b64:	00e00613          	addi	x12,x0,14
     b68:	015a4833          	xor	x16,x20,x21

00000b6c <.LVL18>:
     b6c:	00198893          	addi	x17,x19,1

00000b70 <.LVL19>:
     b70:	14d66c63          	bltu	x12,x13,cc8 <.L16>
     b74:	00004637          	lui	x12,0x4
     b78:	00269693          	slli	x13,x13,0x2
     b7c:	02c60613          	addi	x12,x12,44 # 402c <.L18>
     b80:	00c686b3          	add	x13,x13,x12
     b84:	0006a683          	lw	x13,0(x13)
     b88:	00068067          	jalr	x0,0(x13)

00000b8c <.L2>:
     b8c:	00a4e933          	or	x18,x9,x10
     b90:	06090c63          	beq	x18,x0,c08 <.L35>

00000b94 <.LBB17>:
     b94:	04048063          	beq	x9,x0,bd4 <.L5>
     b98:	00048513          	addi	x10,x9,0

00000b9c <.LVL21>:
     b9c:	779000ef          	jal	x1,1b14 <__clzsi2>

00000ba0 <.L6>:
     ba0:	ff550713          	addi	x14,x10,-11

00000ba4 <.LVL23>:
     ba4:	01c00793          	addi	x15,x0,28
     ba8:	02e7cc63          	blt	x15,x14,be0 <.L7>
     bac:	01d00793          	addi	x15,x0,29
     bb0:	ff850913          	addi	x18,x10,-8
     bb4:	40e787b3          	sub	x15,x15,x14
     bb8:	012494b3          	sll	x9,x9,x18

00000bbc <.LVL24>:
     bbc:	00f457b3          	srl	x15,x8,x15
     bc0:	0097e4b3          	or	x9,x15,x9

00000bc4 <.LVL25>:
     bc4:	01241933          	sll	x18,x8,x18

00000bc8 <.L8>:
     bc8:	c0d00993          	addi	x19,x0,-1011

00000bcc <.LVL27>:
     bcc:	40a989b3          	sub	x19,x19,x10
     bd0:	f41ff06f          	jal	x0,b10 <.L58>

00000bd4 <.L5>:
     bd4:	741000ef          	jal	x1,1b14 <__clzsi2>

00000bd8 <.LVL29>:
     bd8:	02050513          	addi	x10,x10,32
     bdc:	fc5ff06f          	jal	x0,ba0 <.L6>

00000be0 <.L7>:
     be0:	fd850493          	addi	x9,x10,-40

00000be4 <.LVL32>:
     be4:	009414b3          	sll	x9,x8,x9

00000be8 <.LVL33>:
     be8:	00000913          	addi	x18,x0,0
     bec:	fddff06f          	jal	x0,bc8 <.L8>

00000bf0 <.L3>:
     bf0:	00a4e933          	or	x18,x9,x10
     bf4:	02090263          	beq	x18,x0,c18 <.L36>
     bf8:	00050913          	addi	x18,x10,0
     bfc:	7ff00993          	addi	x19,x0,2047

00000c00 <.LVL35>:
     c00:	00300b13          	addi	x22,x0,3
     c04:	f11ff06f          	jal	x0,b14 <.L4>

00000c08 <.L35>:
     c08:	00000493          	addi	x9,x0,0

00000c0c <.LVL37>:
     c0c:	00000993          	addi	x19,x0,0

00000c10 <.LVL38>:
     c10:	00100b13          	addi	x22,x0,1
     c14:	f01ff06f          	jal	x0,b14 <.L4>

00000c18 <.L36>:
     c18:	00000493          	addi	x9,x0,0

00000c1c <.LVL40>:
     c1c:	7ff00993          	addi	x19,x0,2047

00000c20 <.LVL41>:
     c20:	00200b13          	addi	x22,x0,2
     c24:	ef1ff06f          	jal	x0,b14 <.L4>

00000c28 <.L9>:
     c28:	017467b3          	or	x15,x8,x23
     c2c:	06078e63          	beq	x15,x0,ca8 <.L37>

00000c30 <.LBB18>:
     c30:	04040063          	beq	x8,x0,c70 <.L12>
     c34:	00040513          	addi	x10,x8,0

00000c38 <.LVL43>:
     c38:	6dd000ef          	jal	x1,1b14 <__clzsi2>

00000c3c <.L13>:
     c3c:	ff550693          	addi	x13,x10,-11

00000c40 <.LVL45>:
     c40:	01c00793          	addi	x15,x0,28
     c44:	02d7ce63          	blt	x15,x13,c80 <.L14>
     c48:	01d00713          	addi	x14,x0,29
     c4c:	ff850793          	addi	x15,x10,-8
     c50:	40d70733          	sub	x14,x14,x13
     c54:	00f41433          	sll	x8,x8,x15

00000c58 <.LVL46>:
     c58:	00ebd733          	srl	x14,x23,x14
     c5c:	00876433          	or	x8,x14,x8

00000c60 <.LVL47>:
     c60:	00fb97b3          	sll	x15,x23,x15

00000c64 <.L15>:
     c64:	c0d00713          	addi	x14,x0,-1011
     c68:	40a70533          	sub	x10,x14,x10
     c6c:	ee5ff06f          	jal	x0,b50 <.L59>

00000c70 <.L12>:
     c70:	000b8513          	addi	x10,x23,0

00000c74 <.LVL50>:
     c74:	6a1000ef          	jal	x1,1b14 <__clzsi2>

00000c78 <.LVL51>:
     c78:	02050513          	addi	x10,x10,32
     c7c:	fc1ff06f          	jal	x0,c3c <.L13>

00000c80 <.L14>:
     c80:	fd850413          	addi	x8,x10,-40

00000c84 <.LVL54>:
     c84:	008b9433          	sll	x8,x23,x8

00000c88 <.LVL55>:
     c88:	00000793          	addi	x15,x0,0
     c8c:	fd9ff06f          	jal	x0,c64 <.L15>

00000c90 <.L10>:
     c90:	017467b3          	or	x15,x8,x23
     c94:	02078263          	beq	x15,x0,cb8 <.L38>
     c98:	000b8793          	addi	x15,x23,0
     c9c:	7ff00513          	addi	x10,x0,2047

00000ca0 <.LVL57>:
     ca0:	00300713          	addi	x14,x0,3
     ca4:	eb1ff06f          	jal	x0,b54 <.L11>

00000ca8 <.L37>:
     ca8:	00000413          	addi	x8,x0,0

00000cac <.LVL59>:
     cac:	00000513          	addi	x10,x0,0

00000cb0 <.LVL60>:
     cb0:	00100713          	addi	x14,x0,1
     cb4:	ea1ff06f          	jal	x0,b54 <.L11>

00000cb8 <.L38>:
     cb8:	00000413          	addi	x8,x0,0

00000cbc <.LVL62>:
     cbc:	7ff00513          	addi	x10,x0,2047

00000cc0 <.LVL63>:
     cc0:	00200713          	addi	x14,x0,2
     cc4:	e91ff06f          	jal	x0,b54 <.L11>

00000cc8 <.L16>:
     cc8:	00010ab7          	lui	x21,0x10

00000ccc <.LVL65>:
     ccc:	fffa8e93          	addi	x29,x21,-1 # ffff <.LC1+0xbe67>
     cd0:	01095f93          	srli	x31,x18,0x10

00000cd4 <.LVL66>:
     cd4:	01d7fa33          	and	x20,x15,x29

00000cd8 <.LVL67>:
     cd8:	01d97933          	and	x18,x18,x29

00000cdc <.LVL68>:
     cdc:	0107d293          	srli	x5,x15,0x10

00000ce0 <.LBB22>:
     ce0:	00090513          	addi	x10,x18,0

00000ce4 <.LVL70>:
     ce4:	000a0593          	addi	x11,x20,0
     ce8:	555000ef          	jal	x1,1a3c <__mulsi3>
     cec:	00050393          	addi	x7,x10,0

00000cf0 <.LBB23>:
     cf0:	00028593          	addi	x11,x5,0
     cf4:	00090513          	addi	x10,x18,0
     cf8:	545000ef          	jal	x1,1a3c <__mulsi3>
     cfc:	00050313          	addi	x6,x10,0

00000d00 <.LBB24>:
     d00:	000a0593          	addi	x11,x20,0
     d04:	000f8513          	addi	x10,x31,0
     d08:	535000ef          	jal	x1,1a3c <__mulsi3>
     d0c:	00050e13          	addi	x28,x10,0

00000d10 <.LBB25>:
     d10:	00028593          	addi	x11,x5,0
     d14:	000f8513          	addi	x10,x31,0

00000d18 <.LVL74>:
     d18:	525000ef          	jal	x1,1a3c <__mulsi3>

00000d1c <.LBE25>:
     d1c:	0103d713          	srli	x14,x7,0x10

00000d20 <.LVL75>:
     d20:	01c30333          	add	x6,x6,x28

00000d24 <.LVL76>:
     d24:	00670733          	add	x14,x14,x6

00000d28 <.LBB26>:
     d28:	00050f13          	addi	x30,x10,0

00000d2c <.LBE26>:
     d2c:	01c77463          	bgeu	x14,x28,d34 <.L23>
     d30:	01550f33          	add	x30,x10,x21

00000d34 <.L23>:
     d34:	01d77e33          	and	x28,x14,x29

00000d38 <.LVL79>:
     d38:	01d3f3b3          	and	x7,x7,x29

00000d3c <.LVL80>:
     d3c:	010e1e13          	slli	x28,x28,0x10
     d40:	007e0e33          	add	x28,x28,x7

00000d44 <.LBB27>:
     d44:	01045393          	srli	x7,x8,0x10
     d48:	01d47433          	and	x8,x8,x29

00000d4c <.LBB33>:
     d4c:	01075a93          	srli	x21,x14,0x10

00000d50 <.LBB28>:
     d50:	00090513          	addi	x10,x18,0
     d54:	00040593          	addi	x11,x8,0
     d58:	4e5000ef          	jal	x1,1a3c <__mulsi3>
     d5c:	00050e93          	addi	x29,x10,0

00000d60 <.LBB29>:
     d60:	00038593          	addi	x11,x7,0
     d64:	00090513          	addi	x10,x18,0

00000d68 <.LVL84>:
     d68:	4d5000ef          	jal	x1,1a3c <__mulsi3>
     d6c:	00050793          	addi	x15,x10,0

00000d70 <.LBB30>:
     d70:	00040593          	addi	x11,x8,0
     d74:	000f8513          	addi	x10,x31,0

00000d78 <.LVL86>:
     d78:	4c5000ef          	jal	x1,1a3c <__mulsi3>
     d7c:	00050313          	addi	x6,x10,0

00000d80 <.LBB31>:
     d80:	00038593          	addi	x11,x7,0
     d84:	000f8513          	addi	x10,x31,0
     d88:	4b5000ef          	jal	x1,1a3c <__mulsi3>

00000d8c <.LBE31>:
     d8c:	010ed693          	srli	x13,x29,0x10
     d90:	006787b3          	add	x15,x15,x6

00000d94 <.LVL88>:
     d94:	00f686b3          	add	x13,x13,x15

00000d98 <.LBB32>:
     d98:	00050713          	addi	x14,x10,0

00000d9c <.LBE32>:
     d9c:	0066f663          	bgeu	x13,x6,da8 <.L24>
     da0:	000107b7          	lui	x15,0x10
     da4:	00f50733          	add	x14,x10,x15

00000da8 <.L24>:
     da8:	00010937          	lui	x18,0x10
     dac:	fff90793          	addi	x15,x18,-1 # ffff <.LC1+0xbe67>
     db0:	0106df93          	srli	x31,x13,0x10

00000db4 <.LVL91>:
     db4:	00f6f6b3          	and	x13,x13,x15

00000db8 <.LVL92>:
     db8:	01069693          	slli	x13,x13,0x10
     dbc:	00fefeb3          	and	x29,x29,x15

00000dc0 <.LVL93>:
     dc0:	01d68eb3          	add	x29,x13,x29

00000dc4 <.LBB35>:
     dc4:	0104db13          	srli	x22,x9,0x10

00000dc8 <.LVL94>:
     dc8:	00f4f4b3          	and	x9,x9,x15

00000dcc <.LBB41>:
     dcc:	00ef8fb3          	add	x31,x31,x14

00000dd0 <.LVL96>:
     dd0:	01da8ab3          	add	x21,x21,x29

00000dd4 <.LBB36>:
     dd4:	00048513          	addi	x10,x9,0
     dd8:	000a0593          	addi	x11,x20,0
     ddc:	461000ef          	jal	x1,1a3c <__mulsi3>
     de0:	00050713          	addi	x14,x10,0

00000de4 <.LBB37>:
     de4:	00028593          	addi	x11,x5,0
     de8:	00048513          	addi	x10,x9,0

00000dec <.LVL99>:
     dec:	451000ef          	jal	x1,1a3c <__mulsi3>
     df0:	00050313          	addi	x6,x10,0

00000df4 <.LBB38>:
     df4:	000a0593          	addi	x11,x20,0
     df8:	000b0513          	addi	x10,x22,0
     dfc:	441000ef          	jal	x1,1a3c <__mulsi3>
     e00:	00050a13          	addi	x20,x10,0

00000e04 <.LBB39>:
     e04:	00028593          	addi	x11,x5,0
     e08:	000b0513          	addi	x10,x22,0

00000e0c <.LVL102>:
     e0c:	431000ef          	jal	x1,1a3c <__mulsi3>

00000e10 <.LBE39>:
     e10:	01075793          	srli	x15,x14,0x10
     e14:	01430333          	add	x6,x6,x20

00000e18 <.LVL103>:
     e18:	006787b3          	add	x15,x15,x6

00000e1c <.LBB40>:
     e1c:	00050613          	addi	x12,x10,0

00000e20 <.LBE40>:
     e20:	0147f463          	bgeu	x15,x20,e28 <.L25>
     e24:	01250633          	add	x12,x10,x18

00000e28 <.L25>:
     e28:	00010a37          	lui	x20,0x10

00000e2c <.LVL106>:
     e2c:	fffa0513          	addi	x10,x20,-1 # ffff <.LC1+0xbe67>
     e30:	00a7f333          	and	x6,x15,x10
     e34:	00a77733          	and	x14,x14,x10

00000e38 <.LVL107>:
     e38:	0107d293          	srli	x5,x15,0x10

00000e3c <.LVL108>:
     e3c:	01031313          	slli	x6,x6,0x10
     e40:	00c282b3          	add	x5,x5,x12

00000e44 <.LVL109>:
     e44:	00e30333          	add	x6,x6,x14

00000e48 <.LBB43>:
     e48:	00048513          	addi	x10,x9,0
     e4c:	00040593          	addi	x11,x8,0
     e50:	3ed000ef          	jal	x1,1a3c <__mulsi3>

00000e54 <.LVL111>:
     e54:	00050913          	addi	x18,x10,0

00000e58 <.LBB45>:
     e58:	00038593          	addi	x11,x7,0
     e5c:	00048513          	addi	x10,x9,0

00000e60 <.LVL113>:
     e60:	3dd000ef          	jal	x1,1a3c <__mulsi3>
     e64:	00050793          	addi	x15,x10,0

00000e68 <.LBB46>:
     e68:	00040593          	addi	x11,x8,0
     e6c:	000b0513          	addi	x10,x22,0

00000e70 <.LVL115>:
     e70:	3cd000ef          	jal	x1,1a3c <__mulsi3>
     e74:	00050493          	addi	x9,x10,0

00000e78 <.LBB47>:
     e78:	00038593          	addi	x11,x7,0
     e7c:	000b0513          	addi	x10,x22,0
     e80:	3bd000ef          	jal	x1,1a3c <__mulsi3>

00000e84 <.LBE47>:
     e84:	01095413          	srli	x8,x18,0x10
     e88:	009787b3          	add	x15,x15,x9

00000e8c <.LVL117>:
     e8c:	00f407b3          	add	x15,x8,x15

00000e90 <.LBB48>:
     e90:	00050393          	addi	x7,x10,0

00000e94 <.LBE48>:
     e94:	0097f463          	bgeu	x15,x9,e9c <.L26>
     e98:	014503b3          	add	x7,x10,x20

00000e9c <.L26>:
     e9c:	00010737          	lui	x14,0x10
     ea0:	fff70713          	addi	x14,x14,-1 # ffff <.LC1+0xbe67>
     ea4:	00e7f6b3          	and	x13,x15,x14
     ea8:	01069693          	slli	x13,x13,0x10
     eac:	00e97733          	and	x14,x18,x14

00000eb0 <.LBB51>:
     eb0:	015f0f33          	add	x30,x30,x21

00000eb4 <.LBB52>:
     eb4:	00e686b3          	add	x13,x13,x14

00000eb8 <.LBB53>:
     eb8:	01df3eb3          	sltu	x29,x30,x29

00000ebc <.LVL121>:
     ebc:	01f68733          	add	x14,x13,x31

00000ec0 <.LVL122>:
     ec0:	01d70433          	add	x8,x14,x29

00000ec4 <.LBB54>:
     ec4:	006f0f33          	add	x30,x30,x6
     ec8:	006f3333          	sltu	x6,x30,x6

00000ecc <.LVL124>:
     ecc:	00540633          	add	x12,x8,x5

00000ed0 <.LVL125>:
     ed0:	006605b3          	add	x11,x12,x6

00000ed4 <.LBB55>:
     ed4:	01d43eb3          	sltu	x29,x8,x29

00000ed8 <.LVL127>:
     ed8:	01f73733          	sltu	x14,x14,x31

00000edc <.LBB56>:
     edc:	0107d413          	srli	x8,x15,0x10

00000ee0 <.LBB57>:
     ee0:	01d76733          	or	x14,x14,x29

00000ee4 <.LBB58>:
     ee4:	00563633          	sltu	x12,x12,x5

00000ee8 <.LVL128>:
     ee8:	0065b333          	sltu	x6,x11,x6

00000eec <.LVL129>:
     eec:	00870733          	add	x14,x14,x8
     ef0:	00666333          	or	x6,x12,x6
     ef4:	00670433          	add	x8,x14,x6
     ef8:	00740433          	add	x8,x8,x7

00000efc <.LBB61>:
     efc:	0175d793          	srli	x15,x11,0x17

00000f00 <.LVL130>:
     f00:	00941413          	slli	x8,x8,0x9
     f04:	00f46433          	or	x8,x8,x15

00000f08 <.LBB62>:
     f08:	009f1793          	slli	x15,x30,0x9
     f0c:	01c7e7b3          	or	x15,x15,x28

00000f10 <.LVL132>:
     f10:	00f037b3          	sltu	x15,x0,x15

00000f14 <.LVL133>:
     f14:	017f5f13          	srli	x30,x30,0x17

00000f18 <.LVL134>:
     f18:	00959713          	slli	x14,x11,0x9

00000f1c <.LBE62>:
     f1c:	01e7e7b3          	or	x15,x15,x30
     f20:	00e7e7b3          	or	x15,x15,x14

00000f24 <.LBE19>:
     f24:	01000737          	lui	x14,0x1000
     f28:	00e47733          	and	x14,x8,x14
     f2c:	10070663          	beq	x14,x0,1038 <.L40>
     f30:	0017d713          	srli	x14,x15,0x1
     f34:	0017f793          	andi	x15,x15,1

00000f38 <.LVL136>:
     f38:	00f767b3          	or	x15,x14,x15
     f3c:	01f41713          	slli	x14,x8,0x1f
     f40:	00e7e7b3          	or	x15,x15,x14

00000f44 <.LVL137>:
     f44:	00145413          	srli	x8,x8,0x1

00000f48 <.L27>:
     f48:	3ff88693          	addi	x13,x17,1023

00000f4c <.LVL139>:
     f4c:	0ed05a63          	bge	x0,x13,1040 <.L28>
     f50:	0077f713          	andi	x14,x15,7
     f54:	02070063          	beq	x14,x0,f74 <.L29>
     f58:	00f7f713          	andi	x14,x15,15
     f5c:	00400613          	addi	x12,x0,4
     f60:	00c70a63          	beq	x14,x12,f74 <.L29>

00000f64 <.LBB66>:
     f64:	00478713          	addi	x14,x15,4 # 10004 <.LC1+0xbe6c>

00000f68 <.LVL140>:
     f68:	00f737b3          	sltu	x15,x14,x15

00000f6c <.LVL141>:
     f6c:	00f40433          	add	x8,x8,x15

00000f70 <.LVL142>:
     f70:	00070793          	addi	x15,x14,0 # 1000000 <.LC1+0xffbe68>

00000f74 <.L29>:
     f74:	01000737          	lui	x14,0x1000
     f78:	00e47733          	and	x14,x8,x14
     f7c:	00070a63          	beq	x14,x0,f90 <.L30>
     f80:	ff000737          	lui	x14,0xff000
     f84:	fff70713          	addi	x14,x14,-1 # feffffff <.LC1+0xfeffbe67>
     f88:	00e47433          	and	x8,x8,x14
     f8c:	40088693          	addi	x13,x17,1024

00000f90 <.L30>:
     f90:	7fe00713          	addi	x14,x0,2046
     f94:	16d74a63          	blt	x14,x13,1108 <.L44>
     f98:	0037d713          	srli	x14,x15,0x3

00000f9c <.LVL146>:
     f9c:	01d41793          	slli	x15,x8,0x1d

00000fa0 <.LVL147>:
     fa0:	00e7e7b3          	or	x15,x15,x14

00000fa4 <.LVL148>:
     fa4:	00345413          	srli	x8,x8,0x3

00000fa8 <.L17>:
     fa8:	01469713          	slli	x14,x13,0x14
     fac:	00c41413          	slli	x8,x8,0xc

00000fb0 <.LVL150>:
     fb0:	7ff006b7          	lui	x13,0x7ff00

00000fb4 <.LVL151>:
     fb4:	00d77733          	and	x14,x14,x13
     fb8:	00c45413          	srli	x8,x8,0xc
     fbc:	00876433          	or	x8,x14,x8
     fc0:	01f81813          	slli	x16,x16,0x1f

00000fc4 <.LBE69>:
     fc4:	02c12083          	lw	x1,44(x2)

00000fc8 <.LBB70>:
     fc8:	01046733          	or	x14,x8,x16

00000fcc <.LBE70>:
     fcc:	02812403          	lw	x8,40(x2)
     fd0:	02412483          	lw	x9,36(x2)
     fd4:	02012903          	lw	x18,32(x2)
     fd8:	01c12983          	lw	x19,28(x2)
     fdc:	01812a03          	lw	x20,24(x2)
     fe0:	01412a83          	lw	x21,20(x2)
     fe4:	01012b03          	lw	x22,16(x2)
     fe8:	00c12b83          	lw	x23,12(x2)
     fec:	00078513          	addi	x10,x15,0
     ff0:	00070593          	addi	x11,x14,0
     ff4:	03010113          	addi	x2,x2,48
     ff8:	00008067          	jalr	x0,0(x1)

00000ffc <.L19>:
     ffc:	000a0813          	addi	x16,x20,0

00001000 <.L60>:
    1000:	00048413          	addi	x8,x9,0

00001004 <.LVL156>:
    1004:	00090793          	addi	x15,x18,0

00001008 <.LVL157>:
    1008:	000b0713          	addi	x14,x22,0

0000100c <.L22>:
    100c:	00200693          	addi	x13,x0,2
    1010:	0ed70c63          	beq	x14,x13,1108 <.L44>
    1014:	00300693          	addi	x13,x0,3
    1018:	0cd70e63          	beq	x14,x13,10f4 <.L42>
    101c:	00100693          	addi	x13,x0,1
    1020:	f2d714e3          	bne	x14,x13,f48 <.L27>

00001024 <.L45>:
    1024:	00000413          	addi	x8,x0,0

00001028 <.LVL160>:
    1028:	00000793          	addi	x15,x0,0

0000102c <.LVL161>:
    102c:	08c0006f          	jal	x0,10b8 <.L61>

00001030 <.L20>:
    1030:	000a8813          	addi	x16,x21,0

00001034 <.LBE77>:
    1034:	fd9ff06f          	jal	x0,100c <.L22>

00001038 <.L40>:
    1038:	00098893          	addi	x17,x19,0

0000103c <.LVL165>:
    103c:	f0dff06f          	jal	x0,f48 <.L27>

00001040 <.L28>:
    1040:	00100613          	addi	x12,x0,1
    1044:	40d60633          	sub	x12,x12,x13

00001048 <.LVL167>:
    1048:	03800713          	addi	x14,x0,56
    104c:	fcc74ce3          	blt	x14,x12,1024 <.L45>
    1050:	01f00713          	addi	x14,x0,31
    1054:	06c74663          	blt	x14,x12,10c0 <.L31>
    1058:	41e88893          	addi	x17,x17,1054
    105c:	01141733          	sll	x14,x8,x17
    1060:	00c7d6b3          	srl	x13,x15,x12
    1064:	011797b3          	sll	x15,x15,x17

00001068 <.LVL168>:
    1068:	00d76733          	or	x14,x14,x13
    106c:	00f037b3          	sltu	x15,x0,x15
    1070:	00f767b3          	or	x15,x14,x15

00001074 <.LVL169>:
    1074:	00c45433          	srl	x8,x8,x12

00001078 <.L32>:
    1078:	0077f713          	andi	x14,x15,7
    107c:	02070063          	beq	x14,x0,109c <.L34>
    1080:	00f7f713          	andi	x14,x15,15
    1084:	00400693          	addi	x13,x0,4
    1088:	00d70a63          	beq	x14,x13,109c <.L34>

0000108c <.LBB74>:
    108c:	00478713          	addi	x14,x15,4

00001090 <.LVL171>:
    1090:	00f737b3          	sltu	x15,x14,x15

00001094 <.LVL172>:
    1094:	00f40433          	add	x8,x8,x15

00001098 <.LVL173>:
    1098:	00070793          	addi	x15,x14,0

0000109c <.L34>:
    109c:	00800737          	lui	x14,0x800
    10a0:	00e47733          	and	x14,x8,x14
    10a4:	06071a63          	bne	x14,x0,1118 <.L47>

000010a8 <.LVL175>:
    10a8:	01d41713          	slli	x14,x8,0x1d
    10ac:	0037d793          	srli	x15,x15,0x3

000010b0 <.LVL176>:
    10b0:	00f767b3          	or	x15,x14,x15

000010b4 <.LVL177>:
    10b4:	00345413          	srli	x8,x8,0x3

000010b8 <.L61>:
    10b8:	00000693          	addi	x13,x0,0
    10bc:	eedff06f          	jal	x0,fa8 <.L17>

000010c0 <.L31>:
    10c0:	fe100713          	addi	x14,x0,-31
    10c4:	40d70733          	sub	x14,x14,x13
    10c8:	02000593          	addi	x11,x0,32
    10cc:	00e45733          	srl	x14,x8,x14
    10d0:	00000693          	addi	x13,x0,0
    10d4:	00b60663          	beq	x12,x11,10e0 <.L33>
    10d8:	43e88893          	addi	x17,x17,1086
    10dc:	011416b3          	sll	x13,x8,x17

000010e0 <.L33>:
    10e0:	00f6e7b3          	or	x15,x13,x15

000010e4 <.LVL180>:
    10e4:	00f037b3          	sltu	x15,x0,x15
    10e8:	00f767b3          	or	x15,x14,x15

000010ec <.LVL181>:
    10ec:	00000413          	addi	x8,x0,0
    10f0:	f89ff06f          	jal	x0,1078 <.L32>

000010f4 <.L42>:
    10f4:	00080437          	lui	x8,0x80
    10f8:	00000793          	addi	x15,x0,0
    10fc:	7ff00693          	addi	x13,x0,2047
    1100:	00000813          	addi	x16,x0,0

00001104 <.LVL183>:
    1104:	ea5ff06f          	jal	x0,fa8 <.L17>

00001108 <.L44>:
    1108:	00000413          	addi	x8,x0,0
    110c:	00000793          	addi	x15,x0,0
    1110:	7ff00693          	addi	x13,x0,2047
    1114:	e95ff06f          	jal	x0,fa8 <.L17>

00001118 <.L47>:
    1118:	00000413          	addi	x8,x0,0

0000111c <.LVL186>:
    111c:	00000793          	addi	x15,x0,0

00001120 <.LVL187>:
    1120:	00100693          	addi	x13,x0,1
    1124:	e85ff06f          	jal	x0,fa8 <.L17>

00001128 <__subdf3>:
    1128:	00100837          	lui	x16,0x100
    112c:	fff80813          	addi	x16,x16,-1 # fffff <.LC1+0xfbe67>

00001130 <.LBE2>:
    1130:	fe010113          	addi	x2,x2,-32

00001134 <.LBB3>:
    1134:	00b877b3          	and	x15,x16,x11

00001138 <.LVL1>:
    1138:	0145d713          	srli	x14,x11,0x14

0000113c <.LBB4>:
    113c:	00d87833          	and	x16,x16,x13
    1140:	0146d313          	srli	x6,x13,0x14

00001144 <.LBE4>:
    1144:	00812c23          	sw	x8,24(x2)
    1148:	00379793          	slli	x15,x15,0x3

0000114c <.LBB6>:
    114c:	7ff77413          	andi	x8,x14,2047

00001150 <.LBE6>:
    1150:	01d55713          	srli	x14,x10,0x1d
    1154:	00912a23          	sw	x9,20(x2)
    1158:	00f767b3          	or	x15,x14,x15

0000115c <.LBB9>:
    115c:	01f5d493          	srli	x9,x11,0x1f

00001160 <.LBE9>:
    1160:	01d65713          	srli	x14,x12,0x1d
    1164:	00351593          	slli	x11,x10,0x3

00001168 <.LBB13>:
    1168:	00381813          	slli	x16,x16,0x3

0000116c <.LVL6>:
    116c:	00112e23          	sw	x1,28(x2)
    1170:	01212823          	sw	x18,16(x2)
    1174:	01312623          	sw	x19,12(x2)

00001178 <.LBB15>:
    1178:	7ff37313          	andi	x6,x6,2047

0000117c <.LBE15>:
    117c:	7ff00513          	addi	x10,x0,2047

00001180 <.LBB16>:
    1180:	01f6d693          	srli	x13,x13,0x1f

00001184 <.LBE16>:
    1184:	01076733          	or	x14,x14,x16

00001188 <.LVL10>:
    1188:	00361613          	slli	x12,x12,0x3

0000118c <.LVL11>:
    118c:	00a31663          	bne	x6,x10,1198 <.L2>
    1190:	00c76533          	or	x10,x14,x12
    1194:	00051463          	bne	x10,x0,119c <.L3>

00001198 <.L2>:
    1198:	0016c693          	xori	x13,x13,1

0000119c <.L3>:
    119c:	40640833          	sub	x16,x8,x6

000011a0 <.LBE18>:
    11a0:	2c969863          	bne	x13,x9,1470 <.L4>

000011a4 <.LBB39>:
    11a4:	13005063          	bge	x0,x16,12c4 <.L5>

000011a8 <.LVL14>:
    11a8:	04031063          	bne	x6,x0,11e8 <.L6>
    11ac:	00c766b3          	or	x13,x14,x12

000011b0 <.LVL15>:
    11b0:	70068c63          	beq	x13,x0,18c8 <.L73>
    11b4:	fff80513          	addi	x10,x16,-1

000011b8 <.LVL16>:
    11b8:	02051063          	bne	x10,x0,11d8 <.L8>

000011bc <.LBB19>:
    11bc:	00c58633          	add	x12,x11,x12

000011c0 <.LVL17>:
    11c0:	00b63533          	sltu	x10,x12,x11

000011c4 <.LVL18>:
    11c4:	00e787b3          	add	x15,x15,x14

000011c8 <.LVL19>:
    11c8:	00a787b3          	add	x15,x15,x10

000011cc <.LBB20>:
    11cc:	00060593          	addi	x11,x12,0

000011d0 <.L114>:
    11d0:	00100413          	addi	x8,x0,1

000011d4 <.LBB41>:
    11d4:	0700006f          	jal	x0,1244 <.L9>

000011d8 <.L8>:
    11d8:	7ff00693          	addi	x13,x0,2047
    11dc:	02d81063          	bne	x16,x13,11fc <.L10>

000011e0 <.L83>:
    11e0:	7ff00413          	addi	x8,x0,2047

000011e4 <.LVL25>:
    11e4:	2140006f          	jal	x0,13f8 <.L56>

000011e8 <.L6>:
    11e8:	7ff00693          	addi	x13,x0,2047

000011ec <.LVL27>:
    11ec:	20d40663          	beq	x8,x13,13f8 <.L56>
    11f0:	008006b7          	lui	x13,0x800
    11f4:	00d76733          	or	x14,x14,x13
    11f8:	00080513          	addi	x10,x16,0

000011fc <.L10>:
    11fc:	03800693          	addi	x13,x0,56
    1200:	0aa6cc63          	blt	x13,x10,12b8 <.L11>
    1204:	01f00693          	addi	x13,x0,31
    1208:	06a6ce63          	blt	x13,x10,1284 <.L12>
    120c:	02000813          	addi	x16,x0,32
    1210:	40a80833          	sub	x16,x16,x10
    1214:	010716b3          	sll	x13,x14,x16
    1218:	00a658b3          	srl	x17,x12,x10
    121c:	01061633          	sll	x12,x12,x16

00001220 <.LVL30>:
    1220:	0116e6b3          	or	x13,x13,x17
    1224:	00c03633          	sltu	x12,x0,x12
    1228:	00c6e633          	or	x12,x13,x12

0000122c <.LVL31>:
    122c:	00a75733          	srl	x14,x14,x10

00001230 <.L13>:
    1230:	00b60633          	add	x12,x12,x11

00001234 <.LVL33>:
    1234:	00b63533          	sltu	x10,x12,x11
    1238:	00f70733          	add	x14,x14,x15

0000123c <.LVL34>:
    123c:	00a707b3          	add	x15,x14,x10

00001240 <.LBB24>:
    1240:	00060593          	addi	x11,x12,0

00001244 <.L9>:
    1244:	00800737          	lui	x14,0x800
    1248:	00e7f733          	and	x14,x15,x14
    124c:	1a070663          	beq	x14,x0,13f8 <.L56>

00001250 <.LVL37>:
    1250:	00140413          	addi	x8,x8,1 # 80001 <.LC1+0x7be69>

00001254 <.LVL38>:
    1254:	7ff00713          	addi	x14,x0,2047
    1258:	5ce40a63          	beq	x8,x14,182c <.L72>
    125c:	ff800737          	lui	x14,0xff800
    1260:	fff70713          	addi	x14,x14,-1 # ff7fffff <.LC1+0xff7fbe67>
    1264:	00e7f7b3          	and	x15,x15,x14

00001268 <.LVL39>:
    1268:	0015f513          	andi	x10,x11,1
    126c:	0015d713          	srli	x14,x11,0x1
    1270:	00a76533          	or	x10,x14,x10
    1274:	01f79593          	slli	x11,x15,0x1f
    1278:	00a5e5b3          	or	x11,x11,x10
    127c:	0017d793          	srli	x15,x15,0x1
    1280:	1780006f          	jal	x0,13f8 <.L56>

00001284 <.L12>:
    1284:	fe050693          	addi	x13,x10,-32
    1288:	02000893          	addi	x17,x0,32
    128c:	00d756b3          	srl	x13,x14,x13
    1290:	00000813          	addi	x16,x0,0
    1294:	01150863          	beq	x10,x17,12a4 <.L14>
    1298:	04000813          	addi	x16,x0,64
    129c:	40a80533          	sub	x10,x16,x10

000012a0 <.LVL41>:
    12a0:	00a71833          	sll	x16,x14,x10

000012a4 <.L14>:
    12a4:	00c86633          	or	x12,x16,x12

000012a8 <.LVL42>:
    12a8:	00c03633          	sltu	x12,x0,x12
    12ac:	00c6e633          	or	x12,x13,x12

000012b0 <.L112>:
    12b0:	00000713          	addi	x14,x0,0
    12b4:	f7dff06f          	jal	x0,1230 <.L13>

000012b8 <.L11>:
    12b8:	00c76633          	or	x12,x14,x12

000012bc <.LVL45>:
    12bc:	00c03633          	sltu	x12,x0,x12
    12c0:	ff1ff06f          	jal	x0,12b0 <.L112>

000012c4 <.L5>:
    12c4:	0e080263          	beq	x16,x0,13a8 <.L15>
    12c8:	40830533          	sub	x10,x6,x8

000012cc <.LVL47>:
    12cc:	02041e63          	bne	x8,x0,1308 <.L16>
    12d0:	00b7e6b3          	or	x13,x15,x11

000012d4 <.LVL48>:
    12d4:	52068c63          	beq	x13,x0,180c <.L63>
    12d8:	fff50693          	addi	x13,x10,-1

000012dc <.LVL49>:
    12dc:	00069c63          	bne	x13,x0,12f4 <.L17>

000012e0 <.LBB28>:
    12e0:	00c585b3          	add	x11,x11,x12

000012e4 <.LVL50>:
    12e4:	00e787b3          	add	x15,x15,x14

000012e8 <.LVL51>:
    12e8:	00c5b633          	sltu	x12,x11,x12

000012ec <.LVL52>:
    12ec:	00c787b3          	add	x15,x15,x12
    12f0:	ee1ff06f          	jal	x0,11d0 <.L114>

000012f4 <.L17>:
    12f4:	7ff00813          	addi	x16,x0,2047
    12f8:	03051263          	bne	x10,x16,131c <.L18>

000012fc <.L69>:
    12fc:	00070793          	addi	x15,x14,0

00001300 <.LVL55>:
    1300:	00060593          	addi	x11,x12,0

00001304 <.LVL56>:
    1304:	eddff06f          	jal	x0,11e0 <.L83>

00001308 <.L16>:
    1308:	7ff00693          	addi	x13,x0,2047

0000130c <.LVL58>:
    130c:	fed308e3          	beq	x6,x13,12fc <.L69>
    1310:	008006b7          	lui	x13,0x800
    1314:	00d7e7b3          	or	x15,x15,x13
    1318:	00050693          	addi	x13,x10,0

0000131c <.L18>:
    131c:	03800513          	addi	x10,x0,56
    1320:	06d54e63          	blt	x10,x13,139c <.L19>
    1324:	01f00513          	addi	x10,x0,31
    1328:	04d54063          	blt	x10,x13,1368 <.L20>
    132c:	02000813          	addi	x16,x0,32
    1330:	40d80833          	sub	x16,x16,x13
    1334:	01079533          	sll	x10,x15,x16
    1338:	00d5d8b3          	srl	x17,x11,x13
    133c:	010595b3          	sll	x11,x11,x16

00001340 <.LVL61>:
    1340:	01156533          	or	x10,x10,x17
    1344:	00b035b3          	sltu	x11,x0,x11
    1348:	00b56533          	or	x10,x10,x11

0000134c <.LVL62>:
    134c:	00d7d7b3          	srl	x15,x15,x13

00001350 <.L21>:
    1350:	00c505b3          	add	x11,x10,x12

00001354 <.LVL64>:
    1354:	00e787b3          	add	x15,x15,x14

00001358 <.LVL65>:
    1358:	00c5b633          	sltu	x12,x11,x12

0000135c <.LVL66>:
    135c:	00c787b3          	add	x15,x15,x12

00001360 <.LBB70>:
    1360:	00030413          	addi	x8,x6,0

00001364 <.LBB71>:
    1364:	ee1ff06f          	jal	x0,1244 <.L9>

00001368 <.L20>:
    1368:	fe068513          	addi	x10,x13,-32 # 7fffe0 <.LC1+0x7fbe48>
    136c:	02000893          	addi	x17,x0,32
    1370:	00a7d833          	srl	x16,x15,x10
    1374:	00000513          	addi	x10,x0,0
    1378:	01168863          	beq	x13,x17,1388 <.L22>
    137c:	04000513          	addi	x10,x0,64
    1380:	40d50533          	sub	x10,x10,x13
    1384:	00a79533          	sll	x10,x15,x10

00001388 <.L22>:
    1388:	00b56533          	or	x10,x10,x11
    138c:	00a03533          	sltu	x10,x0,x10
    1390:	00a86533          	or	x10,x16,x10

00001394 <.L113>:
    1394:	00000793          	addi	x15,x0,0
    1398:	fb9ff06f          	jal	x0,1350 <.L21>

0000139c <.L19>:
    139c:	00b7e533          	or	x10,x15,x11
    13a0:	00a03533          	sltu	x10,x0,x10
    13a4:	ff1ff06f          	jal	x0,1394 <.L113>

000013a8 <.L15>:
    13a8:	00140693          	addi	x13,x8,1

000013ac <.LVL73>:
    13ac:	7fe6f513          	andi	x10,x13,2046
    13b0:	08051863          	bne	x10,x0,1440 <.L23>
    13b4:	00b7e6b3          	or	x13,x15,x11
    13b8:	06041463          	bne	x8,x0,1420 <.L24>

000013bc <.LVL74>:
    13bc:	46068063          	beq	x13,x0,181c <.L67>
    13c0:	00c766b3          	or	x13,x14,x12
    13c4:	02068a63          	beq	x13,x0,13f8 <.L56>

000013c8 <.LBB32>:
    13c8:	00c58633          	add	x12,x11,x12

000013cc <.LVL75>:
    13cc:	00e787b3          	add	x15,x15,x14

000013d0 <.LVL76>:
    13d0:	00b63533          	sltu	x10,x12,x11
    13d4:	00a787b3          	add	x15,x15,x10

000013d8 <.LBE32>:
    13d8:	00800737          	lui	x14,0x800

000013dc <.LVL78>:
    13dc:	00e7f733          	and	x14,x15,x14

000013e0 <.LBB33>:
    13e0:	00060593          	addi	x11,x12,0

000013e4 <.LBE33>:
    13e4:	00070a63          	beq	x14,x0,13f8 <.L56>
    13e8:	ff800737          	lui	x14,0xff800
    13ec:	fff70713          	addi	x14,x14,-1 # ff7fffff <.LC1+0xff7fbe67>
    13f0:	00e7f7b3          	and	x15,x15,x14

000013f4 <.LVL80>:
    13f4:	00100413          	addi	x8,x0,1

000013f8 <.L56>:
    13f8:	0075f713          	andi	x14,x11,7
    13fc:	42070c63          	beq	x14,x0,1834 <.L57>
    1400:	00f5f713          	andi	x14,x11,15
    1404:	00400693          	addi	x13,x0,4
    1408:	42d70663          	beq	x14,x13,1834 <.L57>

0000140c <.LBB74>:
    140c:	00458713          	addi	x14,x11,4

00001410 <.LVL82>:
    1410:	00b73533          	sltu	x10,x14,x11
    1414:	00a787b3          	add	x15,x15,x10

00001418 <.LVL83>:
    1418:	00070593          	addi	x11,x14,0
    141c:	4180006f          	jal	x0,1834 <.L57>

00001420 <.L24>:
    1420:	ec068ee3          	beq	x13,x0,12fc <.L69>
    1424:	00c76633          	or	x12,x14,x12

00001428 <.LVL85>:
    1428:	da060ce3          	beq	x12,x0,11e0 <.L83>

0000142c <.L122>:
    142c:	00000493          	addi	x9,x0,0

00001430 <.LVL87>:
    1430:	004007b7          	lui	x15,0x400

00001434 <.LVL88>:
    1434:	00000593          	addi	x11,x0,0

00001438 <.L120>:
    1438:	7ff00413          	addi	x8,x0,2047

0000143c <.LVL90>:
    143c:	3f80006f          	jal	x0,1834 <.L57>

00001440 <.L23>:
    1440:	7ff00513          	addi	x10,x0,2047
    1444:	3ea68263          	beq	x13,x10,1828 <.L71>

00001448 <.LBB37>:
    1448:	00c58633          	add	x12,x11,x12

0000144c <.LVL92>:
    144c:	00b63533          	sltu	x10,x12,x11
    1450:	00e787b3          	add	x15,x15,x14

00001454 <.LVL93>:
    1454:	00a787b3          	add	x15,x15,x10

00001458 <.LBE37>:
    1458:	01f79513          	slli	x10,x15,0x1f
    145c:	00165613          	srli	x12,x12,0x1

00001460 <.LVL95>:
    1460:	00c565b3          	or	x11,x10,x12

00001464 <.LVL96>:
    1464:	0017d793          	srli	x15,x15,0x1
    1468:	00068413          	addi	x8,x13,0

0000146c <.LVL97>:
    146c:	f8dff06f          	jal	x0,13f8 <.L56>

00001470 <.L4>:
    1470:	0f005c63          	bge	x0,x16,1568 <.L25>

00001474 <.LVL99>:
    1474:	08031e63          	bne	x6,x0,1510 <.L26>
    1478:	00c766b3          	or	x13,x14,x12

0000147c <.LVL100>:
    147c:	44068663          	beq	x13,x0,18c8 <.L73>
    1480:	fff80513          	addi	x10,x16,-1

00001484 <.LVL101>:
    1484:	02051063          	bne	x10,x0,14a4 <.L27>

00001488 <.LBB43>:
    1488:	40c58633          	sub	x12,x11,x12

0000148c <.LVL102>:
    148c:	00c5b533          	sltu	x10,x11,x12

00001490 <.LVL103>:
    1490:	40e787b3          	sub	x15,x15,x14

00001494 <.LVL104>:
    1494:	40a787b3          	sub	x15,x15,x10

00001498 <.LBB44>:
    1498:	00060593          	addi	x11,x12,0

0000149c <.L117>:
    149c:	00100413          	addi	x8,x0,1

000014a0 <.LBB82>:
    14a0:	0540006f          	jal	x0,14f4 <.L28>

000014a4 <.L27>:
    14a4:	7ff00693          	addi	x13,x0,2047
    14a8:	d2d80ce3          	beq	x16,x13,11e0 <.L83>

000014ac <.L29>:
    14ac:	03800693          	addi	x13,x0,56
    14b0:	0aa6c663          	blt	x13,x10,155c <.L30>
    14b4:	01f00693          	addi	x13,x0,31
    14b8:	06a6c863          	blt	x13,x10,1528 <.L31>
    14bc:	02000813          	addi	x16,x0,32
    14c0:	40a80833          	sub	x16,x16,x10
    14c4:	010716b3          	sll	x13,x14,x16
    14c8:	00a658b3          	srl	x17,x12,x10
    14cc:	01061633          	sll	x12,x12,x16

000014d0 <.LVL110>:
    14d0:	0116e6b3          	or	x13,x13,x17
    14d4:	00c03633          	sltu	x12,x0,x12
    14d8:	00c6e633          	or	x12,x13,x12

000014dc <.LVL111>:
    14dc:	00a75733          	srl	x14,x14,x10

000014e0 <.L32>:
    14e0:	40c58633          	sub	x12,x11,x12

000014e4 <.LVL113>:
    14e4:	00c5b533          	sltu	x10,x11,x12
    14e8:	40e78733          	sub	x14,x15,x14

000014ec <.LVL114>:
    14ec:	40a707b3          	sub	x15,x14,x10

000014f0 <.LBB47>:
    14f0:	00060593          	addi	x11,x12,0

000014f4 <.L28>:
    14f4:	00800937          	lui	x18,0x800
    14f8:	0127f733          	and	x14,x15,x18
    14fc:	ee070ee3          	beq	x14,x0,13f8 <.L56>

00001500 <.LBB48>:
    1500:	fff90913          	addi	x18,x18,-1 # 7fffff <.LC1+0x7fbe67>
    1504:	0127f933          	and	x18,x15,x18

00001508 <.LVL117>:
    1508:	00058993          	addi	x19,x11,0
    150c:	2140006f          	jal	x0,1720 <.L48>

00001510 <.L26>:
    1510:	7ff00693          	addi	x13,x0,2047

00001514 <.LVL119>:
    1514:	eed402e3          	beq	x8,x13,13f8 <.L56>
    1518:	008006b7          	lui	x13,0x800
    151c:	00d76733          	or	x14,x14,x13
    1520:	00080513          	addi	x10,x16,0
    1524:	f89ff06f          	jal	x0,14ac <.L29>

00001528 <.L31>:
    1528:	fe050693          	addi	x13,x10,-32
    152c:	02000893          	addi	x17,x0,32
    1530:	00d756b3          	srl	x13,x14,x13
    1534:	00000813          	addi	x16,x0,0
    1538:	01150863          	beq	x10,x17,1548 <.L33>
    153c:	04000813          	addi	x16,x0,64
    1540:	40a80533          	sub	x10,x16,x10

00001544 <.LVL122>:
    1544:	00a71833          	sll	x16,x14,x10

00001548 <.L33>:
    1548:	00c86633          	or	x12,x16,x12

0000154c <.LVL123>:
    154c:	00c03633          	sltu	x12,x0,x12
    1550:	00c6e633          	or	x12,x13,x12

00001554 <.L115>:
    1554:	00000713          	addi	x14,x0,0
    1558:	f89ff06f          	jal	x0,14e0 <.L32>

0000155c <.L30>:
    155c:	00c76633          	or	x12,x14,x12

00001560 <.LVL126>:
    1560:	00c03633          	sltu	x12,x0,x12
    1564:	ff1ff06f          	jal	x0,1554 <.L115>

00001568 <.L25>:
    1568:	0e080863          	beq	x16,x0,1658 <.L34>
    156c:	40830533          	sub	x10,x6,x8

00001570 <.LVL128>:
    1570:	04041263          	bne	x8,x0,15b4 <.L35>
    1574:	00b7e833          	or	x16,x15,x11
    1578:	34080c63          	beq	x16,x0,18d0 <.L76>
    157c:	fff50813          	addi	x16,x10,-1

00001580 <.LVL129>:
    1580:	00081e63          	bne	x16,x0,159c <.L36>

00001584 <.LBB54>:
    1584:	40b605b3          	sub	x11,x12,x11

00001588 <.LVL130>:
    1588:	40f707b3          	sub	x15,x14,x15

0000158c <.LVL131>:
    158c:	00b63633          	sltu	x12,x12,x11

00001590 <.LVL132>:
    1590:	40c787b3          	sub	x15,x15,x12

00001594 <.LBE54>:
    1594:	00068493          	addi	x9,x13,0 # 800000 <.LC1+0x7fbe68>

00001598 <.LVL134>:
    1598:	f05ff06f          	jal	x0,149c <.L117>

0000159c <.L36>:
    159c:	7ff00893          	addi	x17,x0,2047
    15a0:	03151463          	bne	x10,x17,15c8 <.L37>

000015a4 <.L78>:
    15a4:	00070793          	addi	x15,x14,0

000015a8 <.LVL137>:
    15a8:	00060593          	addi	x11,x12,0

000015ac <.LBB84>:
    15ac:	7ff00413          	addi	x8,x0,2047

000015b0 <.LVL139>:
    15b0:	0d00006f          	jal	x0,1680 <.L118>

000015b4 <.L35>:
    15b4:	7ff00813          	addi	x16,x0,2047
    15b8:	ff0306e3          	beq	x6,x16,15a4 <.L78>
    15bc:	00800837          	lui	x16,0x800
    15c0:	0107e7b3          	or	x15,x15,x16
    15c4:	00050813          	addi	x16,x10,0

000015c8 <.L37>:
    15c8:	03800513          	addi	x10,x0,56
    15cc:	09054063          	blt	x10,x16,164c <.L38>
    15d0:	01f00513          	addi	x10,x0,31
    15d4:	05054263          	blt	x10,x16,1618 <.L39>
    15d8:	02000893          	addi	x17,x0,32
    15dc:	410888b3          	sub	x17,x17,x16
    15e0:	01179533          	sll	x10,x15,x17
    15e4:	0105de33          	srl	x28,x11,x16
    15e8:	011595b3          	sll	x11,x11,x17

000015ec <.LVL143>:
    15ec:	01c56533          	or	x10,x10,x28
    15f0:	00b035b3          	sltu	x11,x0,x11
    15f4:	00b56533          	or	x10,x10,x11

000015f8 <.LVL144>:
    15f8:	0107d7b3          	srl	x15,x15,x16

000015fc <.L40>:
    15fc:	40a605b3          	sub	x11,x12,x10

00001600 <.LVL146>:
    1600:	40f707b3          	sub	x15,x14,x15

00001604 <.LVL147>:
    1604:	00b63633          	sltu	x12,x12,x11

00001608 <.LVL148>:
    1608:	40c787b3          	sub	x15,x15,x12

0000160c <.LBB85>:
    160c:	00030413          	addi	x8,x6,0

00001610 <.LBB86>:
    1610:	00068493          	addi	x9,x13,0

00001614 <.LVL151>:
    1614:	ee1ff06f          	jal	x0,14f4 <.L28>

00001618 <.L39>:
    1618:	fe080513          	addi	x10,x16,-32 # 7fffe0 <.LC1+0x7fbe48>
    161c:	02000e13          	addi	x28,x0,32
    1620:	00a7d8b3          	srl	x17,x15,x10
    1624:	00000513          	addi	x10,x0,0
    1628:	01c80863          	beq	x16,x28,1638 <.L41>
    162c:	04000513          	addi	x10,x0,64
    1630:	41050533          	sub	x10,x10,x16
    1634:	00a79533          	sll	x10,x15,x10

00001638 <.L41>:
    1638:	00b56533          	or	x10,x10,x11
    163c:	00a03533          	sltu	x10,x0,x10
    1640:	00a8e533          	or	x10,x17,x10

00001644 <.L116>:
    1644:	00000793          	addi	x15,x0,0
    1648:	fb5ff06f          	jal	x0,15fc <.L40>

0000164c <.L38>:
    164c:	00b7e533          	or	x10,x15,x11
    1650:	00a03533          	sltu	x10,x0,x10
    1654:	ff1ff06f          	jal	x0,1644 <.L116>

00001658 <.L34>:
    1658:	00140513          	addi	x10,x8,1
    165c:	7fe57513          	andi	x10,x10,2046
    1660:	08051863          	bne	x10,x0,16f0 <.L42>

00001664 <.LBB87>:
    1664:	00b7e833          	or	x16,x15,x11

00001668 <.LBE87>:
    1668:	00c76533          	or	x10,x14,x12

0000166c <.LBB88>:
    166c:	06041263          	bne	x8,x0,16d0 <.L43>

00001670 <.LVL156>:
    1670:	00081c63          	bne	x16,x0,1688 <.L44>

00001674 <.LVL157>:
    1674:	26050663          	beq	x10,x0,18e0 <.L80>

00001678 <.LBE88>:
    1678:	00070793          	addi	x15,x14,0

0000167c <.LVL158>:
    167c:	00060593          	addi	x11,x12,0

00001680 <.L118>:
    1680:	00068493          	addi	x9,x13,0

00001684 <.LVL160>:
    1684:	d75ff06f          	jal	x0,13f8 <.L56>

00001688 <.L44>:
    1688:	d60508e3          	beq	x10,x0,13f8 <.L56>

0000168c <.LBB58>:
    168c:	40c58833          	sub	x16,x11,x12

00001690 <.LVL162>:
    1690:	0105b8b3          	sltu	x17,x11,x16
    1694:	40e78533          	sub	x10,x15,x14
    1698:	41150533          	sub	x10,x10,x17

0000169c <.LBE58>:
    169c:	008008b7          	lui	x17,0x800
    16a0:	011578b3          	and	x17,x10,x17
    16a4:	00088c63          	beq	x17,x0,16bc <.L45>

000016a8 <.LBB59>:
    16a8:	40b605b3          	sub	x11,x12,x11

000016ac <.LVL164>:
    16ac:	40f707b3          	sub	x15,x14,x15

000016b0 <.LVL165>:
    16b0:	00b63633          	sltu	x12,x12,x11

000016b4 <.LVL166>:
    16b4:	40c787b3          	sub	x15,x15,x12

000016b8 <.LBE59>:
    16b8:	fc9ff06f          	jal	x0,1680 <.L118>

000016bc <.L45>:
    16bc:	00a865b3          	or	x11,x16,x10

000016c0 <.LVL169>:
    16c0:	22058863          	beq	x11,x0,18f0 <.L81>
    16c4:	00050793          	addi	x15,x10,0

000016c8 <.LBB60>:
    16c8:	00080593          	addi	x11,x16,0
    16cc:	d2dff06f          	jal	x0,13f8 <.L56>

000016d0 <.L43>:
    16d0:	00081c63          	bne	x16,x0,16e8 <.L46>
    16d4:	22050263          	beq	x10,x0,18f8 <.L82>

000016d8 <.LBE90>:
    16d8:	00070793          	addi	x15,x14,0

000016dc <.LVL172>:
    16dc:	00060593          	addi	x11,x12,0

000016e0 <.LBB92>:
    16e0:	00068493          	addi	x9,x13,0

000016e4 <.LVL174>:
    16e4:	afdff06f          	jal	x0,11e0 <.L83>

000016e8 <.L46>:
    16e8:	ae050ce3          	beq	x10,x0,11e0 <.L83>
    16ec:	d41ff06f          	jal	x0,142c <.L122>

000016f0 <.L42>:
    16f0:	40c589b3          	sub	x19,x11,x12

000016f4 <.LVL177>:
    16f4:	0135b533          	sltu	x10,x11,x19
    16f8:	40e78933          	sub	x18,x15,x14
    16fc:	40a90933          	sub	x18,x18,x10

00001700 <.LBE61>:
    1700:	00800537          	lui	x10,0x800
    1704:	00a97533          	and	x10,x18,x10
    1708:	08050463          	beq	x10,x0,1790 <.L47>

0000170c <.LBB62>:
    170c:	40b609b3          	sub	x19,x12,x11

00001710 <.LVL179>:
    1710:	40f707b3          	sub	x15,x14,x15

00001714 <.LVL180>:
    1714:	01363633          	sltu	x12,x12,x19

00001718 <.LVL181>:
    1718:	40c78933          	sub	x18,x15,x12

0000171c <.LBE62>:
    171c:	00068493          	addi	x9,x13,0

00001720 <.L48>:
    1720:	08090263          	beq	x18,x0,17a4 <.L49>
    1724:	00090513          	addi	x10,x18,0
    1728:	3ec000ef          	jal	x1,1b14 <__clzsi2>

0000172c <.L50>:
    172c:	ff850713          	addi	x14,x10,-8 # 7ffff8 <.LC1+0x7fbe60>

00001730 <.LVL185>:
    1730:	01f00793          	addi	x15,x0,31
    1734:	08e7c063          	blt	x15,x14,17b4 <.L51>
    1738:	02000793          	addi	x15,x0,32
    173c:	40e787b3          	sub	x15,x15,x14
    1740:	00e91933          	sll	x18,x18,x14

00001744 <.LVL186>:
    1744:	00f9d7b3          	srl	x15,x19,x15
    1748:	0127e7b3          	or	x15,x15,x18

0000174c <.LVL187>:
    174c:	00e995b3          	sll	x11,x19,x14

00001750 <.L52>:
    1750:	0a874463          	blt	x14,x8,17f8 <.L53>
    1754:	40870733          	sub	x14,x14,x8

00001758 <.LVL189>:
    1758:	00170693          	addi	x13,x14,1

0000175c <.LVL190>:
    175c:	01f00613          	addi	x12,x0,31
    1760:	06d64263          	blt	x12,x13,17c4 <.L54>
    1764:	02000713          	addi	x14,x0,32
    1768:	40d70733          	sub	x14,x14,x13
    176c:	00e79633          	sll	x12,x15,x14
    1770:	00d5d533          	srl	x10,x11,x13
    1774:	00e595b3          	sll	x11,x11,x14

00001778 <.LVL191>:
    1778:	00a66633          	or	x12,x12,x10
    177c:	00b035b3          	sltu	x11,x0,x11
    1780:	00b665b3          	or	x11,x12,x11

00001784 <.LVL192>:
    1784:	00d7d7b3          	srl	x15,x15,x13

00001788 <.L119>:
    1788:	00000413          	addi	x8,x0,0

0000178c <.LVL194>:
    178c:	c6dff06f          	jal	x0,13f8 <.L56>

00001790 <.L47>:
    1790:	0129e5b3          	or	x11,x19,x18

00001794 <.LVL196>:
    1794:	f80596e3          	bne	x11,x0,1720 <.L48>
    1798:	00000793          	addi	x15,x0,0

0000179c <.LVL197>:
    179c:	00000413          	addi	x8,x0,0

000017a0 <.LVL198>:
    17a0:	1480006f          	jal	x0,18e8 <.L121>

000017a4 <.L49>:
    17a4:	00098513          	addi	x10,x19,0
    17a8:	36c000ef          	jal	x1,1b14 <__clzsi2>

000017ac <.LVL200>:
    17ac:	02050513          	addi	x10,x10,32
    17b0:	f7dff06f          	jal	x0,172c <.L50>

000017b4 <.L51>:
    17b4:	fd850793          	addi	x15,x10,-40
    17b8:	00f997b3          	sll	x15,x19,x15

000017bc <.LVL203>:
    17bc:	00000593          	addi	x11,x0,0
    17c0:	f91ff06f          	jal	x0,1750 <.L52>

000017c4 <.L54>:
    17c4:	fe170713          	addi	x14,x14,-31
    17c8:	02000613          	addi	x12,x0,32
    17cc:	00e7d733          	srl	x14,x15,x14
    17d0:	00000513          	addi	x10,x0,0
    17d4:	00c68863          	beq	x13,x12,17e4 <.L55>
    17d8:	04000513          	addi	x10,x0,64
    17dc:	40d50533          	sub	x10,x10,x13
    17e0:	00a79533          	sll	x10,x15,x10

000017e4 <.L55>:
    17e4:	00a5e533          	or	x10,x11,x10
    17e8:	00a03533          	sltu	x10,x0,x10
    17ec:	00a765b3          	or	x11,x14,x10

000017f0 <.LVL205>:
    17f0:	00000793          	addi	x15,x0,0
    17f4:	f95ff06f          	jal	x0,1788 <.L119>

000017f8 <.L53>:
    17f8:	40e40433          	sub	x8,x8,x14
    17fc:	ff800737          	lui	x14,0xff800

00001800 <.LVL208>:
    1800:	fff70713          	addi	x14,x14,-1 # ff7fffff <.LC1+0xff7fbe67>
    1804:	00e7f7b3          	and	x15,x15,x14
    1808:	bf1ff06f          	jal	x0,13f8 <.L56>

0000180c <.L63>:
    180c:	00070793          	addi	x15,x14,0

00001810 <.LVL211>:
    1810:	00060593          	addi	x11,x12,0

00001814 <.LBB94>:
    1814:	00050413          	addi	x8,x10,0

00001818 <.LVL213>:
    1818:	be1ff06f          	jal	x0,13f8 <.L56>

0000181c <.L67>:
    181c:	00070793          	addi	x15,x14,0

00001820 <.LVL215>:
    1820:	00060593          	addi	x11,x12,0

00001824 <.LVL216>:
    1824:	bd5ff06f          	jal	x0,13f8 <.L56>

00001828 <.L71>:
    1828:	7ff00413          	addi	x8,x0,2047

0000182c <.L72>:
    182c:	00000793          	addi	x15,x0,0
    1830:	00000593          	addi	x11,x0,0

00001834 <.L57>:
    1834:	00800737          	lui	x14,0x800
    1838:	00e7f733          	and	x14,x15,x14
    183c:	00070e63          	beq	x14,x0,1858 <.L58>

00001840 <.LVL220>:
    1840:	00140413          	addi	x8,x8,1

00001844 <.LVL221>:
    1844:	7ff00713          	addi	x14,x0,2047
    1848:	0ce40063          	beq	x8,x14,1908 <.L86>
    184c:	ff800737          	lui	x14,0xff800
    1850:	fff70713          	addi	x14,x14,-1 # ff7fffff <.LC1+0xff7fbe67>
    1854:	00e7f7b3          	and	x15,x15,x14

00001858 <.L58>:
    1858:	01d79713          	slli	x14,x15,0x1d
    185c:	0035d513          	srli	x10,x11,0x3
    1860:	00a76533          	or	x10,x14,x10

00001864 <.LVL223>:
    1864:	7ff00713          	addi	x14,x0,2047
    1868:	0037d793          	srli	x15,x15,0x3
    186c:	00e41e63          	bne	x8,x14,1888 <.L59>

00001870 <.LVL225>:
    1870:	00f56533          	or	x10,x10,x15

00001874 <.LVL226>:
    1874:	00000793          	addi	x15,x0,0

00001878 <.LVL227>:
    1878:	00050863          	beq	x10,x0,1888 <.L59>
    187c:	000807b7          	lui	x15,0x80
    1880:	00000513          	addi	x10,x0,0
    1884:	00000493          	addi	x9,x0,0

00001888 <.L59>:
    1888:	01441713          	slli	x14,x8,0x14
    188c:	7ff006b7          	lui	x13,0x7ff00
    1890:	00c79793          	slli	x15,x15,0xc

00001894 <.LBE98>:
    1894:	01c12083          	lw	x1,28(x2)
    1898:	01812403          	lw	x8,24(x2)

0000189c <.LBB99>:
    189c:	00d77733          	and	x14,x14,x13
    18a0:	00c7d793          	srli	x15,x15,0xc
    18a4:	01f49493          	slli	x9,x9,0x1f

000018a8 <.LVL230>:
    18a8:	00f767b3          	or	x15,x14,x15
    18ac:	0097e733          	or	x14,x15,x9

000018b0 <.LBE99>:
    18b0:	01012903          	lw	x18,16(x2)
    18b4:	01412483          	lw	x9,20(x2)
    18b8:	00c12983          	lw	x19,12(x2)
    18bc:	00070593          	addi	x11,x14,0
    18c0:	02010113          	addi	x2,x2,32
    18c4:	00008067          	jalr	x0,0(x1)

000018c8 <.L73>:
    18c8:	00080413          	addi	x8,x16,0

000018cc <.LVL233>:
    18cc:	b2dff06f          	jal	x0,13f8 <.L56>

000018d0 <.L76>:
    18d0:	00070793          	addi	x15,x14,0

000018d4 <.LVL235>:
    18d4:	00060593          	addi	x11,x12,0

000018d8 <.LBB102>:
    18d8:	00050413          	addi	x8,x10,0

000018dc <.LVL237>:
    18dc:	da5ff06f          	jal	x0,1680 <.L118>

000018e0 <.L80>:
    18e0:	00000793          	addi	x15,x0,0

000018e4 <.LVL239>:
    18e4:	00000593          	addi	x11,x0,0

000018e8 <.L121>:
    18e8:	00000493          	addi	x9,x0,0

000018ec <.LVL241>:
    18ec:	f49ff06f          	jal	x0,1834 <.L57>

000018f0 <.L81>:
    18f0:	00000793          	addi	x15,x0,0

000018f4 <.LVL243>:
    18f4:	ff5ff06f          	jal	x0,18e8 <.L121>

000018f8 <.L82>:
    18f8:	00000593          	addi	x11,x0,0

000018fc <.LVL245>:
    18fc:	00000493          	addi	x9,x0,0

00001900 <.LVL246>:
    1900:	004007b7          	lui	x15,0x400

00001904 <.LVL247>:
    1904:	b35ff06f          	jal	x0,1438 <.L120>

00001908 <.L86>:
    1908:	00000793          	addi	x15,x0,0

0000190c <.LVL249>:
    190c:	00000593          	addi	x11,x0,0

00001910 <.LVL250>:
    1910:	f49ff06f          	jal	x0,1858 <.L58>

00001914 <__fixdfsi>:
    1914:	0145d713          	srli	x14,x11,0x14
    1918:	001006b7          	lui	x13,0x100
    191c:	fff68793          	addi	x15,x13,-1 # fffff <.LC1+0xfbe67>
    1920:	7ff77713          	andi	x14,x14,2047

00001924 <.LBE2>:
    1924:	3fe00613          	addi	x12,x0,1022

00001928 <.LBB3>:
    1928:	00b7f7b3          	and	x15,x15,x11

0000192c <.LVL1>:
    192c:	01f5d593          	srli	x11,x11,0x1f

00001930 <.LBE3>:
    1930:	04e65e63          	bge	x12,x14,198c <.L6>
    1934:	41d00613          	addi	x12,x0,1053
    1938:	00e65a63          	bge	x12,x14,194c <.L3>

0000193c <.LVL3>:
    193c:	80000537          	lui	x10,0x80000

00001940 <.LVL4>:
    1940:	fff54513          	xori	x10,x10,-1
    1944:	00a58533          	add	x10,x11,x10

00001948 <.LVL5>:
    1948:	00008067          	jalr	x0,0(x1)

0000194c <.L3>:
    194c:	00d7e7b3          	or	x15,x15,x13
    1950:	43300693          	addi	x13,x0,1075
    1954:	40e686b3          	sub	x13,x13,x14
    1958:	01f00613          	addi	x12,x0,31
    195c:	02d64063          	blt	x12,x13,197c <.L4>

00001960 <.LVL8>:
    1960:	bed70713          	addi	x14,x14,-1043

00001964 <.LVL9>:
    1964:	00e797b3          	sll	x15,x15,x14

00001968 <.LVL10>:
    1968:	00d55533          	srl	x10,x10,x13

0000196c <.LVL11>:
    196c:	00a7e533          	or	x10,x15,x10

00001970 <.L5>:
    1970:	02058063          	beq	x11,x0,1990 <.L2>
    1974:	40a00533          	sub	x10,x0,x10

00001978 <.LVL13>:
    1978:	00008067          	jalr	x0,0(x1)

0000197c <.L4>:
    197c:	41300513          	addi	x10,x0,1043

00001980 <.LVL15>:
    1980:	40e50533          	sub	x10,x10,x14
    1984:	00a7d533          	srl	x10,x15,x10

00001988 <.LVL16>:
    1988:	fe9ff06f          	jal	x0,1970 <.L5>

0000198c <.L6>:
    198c:	00000513          	addi	x10,x0,0

00001990 <.L2>:
    1990:	00008067          	jalr	x0,0(x1)

00001994 <__floatsidf>:
    1994:	ff010113          	addi	x2,x2,-16
    1998:	00112623          	sw	x1,12(x2)
    199c:	00812423          	sw	x8,8(x2)
    19a0:	00912223          	sw	x9,4(x2)

000019a4 <.LBB10>:
    19a4:	08050663          	beq	x10,x0,1a30 <.L5>

000019a8 <.LBB3>:
    19a8:	41f55793          	srai	x15,x10,0x1f
    19ac:	00a7c433          	xor	x8,x15,x10
    19b0:	40f40433          	sub	x8,x8,x15
    19b4:	01f55493          	srli	x9,x10,0x1f

000019b8 <.LBB4>:
    19b8:	00040513          	addi	x10,x8,0

000019bc <.LVL3>:
    19bc:	158000ef          	jal	x1,1b14 <__clzsi2>

000019c0 <.LVL4>:
    19c0:	41e00713          	addi	x14,x0,1054

000019c4 <.LBE4>:
    19c4:	00a00793          	addi	x15,x0,10

000019c8 <.LBB5>:
    19c8:	40a70733          	sub	x14,x14,x10

000019cc <.LBE5>:
    19cc:	04a7c863          	blt	x15,x10,1a1c <.L4>
    19d0:	00b00793          	addi	x15,x0,11
    19d4:	40a787b3          	sub	x15,x15,x10
    19d8:	01550513          	addi	x10,x10,21 # 80000015 <.LC1+0x7fffbe7d>

000019dc <.LVL6>:
    19dc:	00f457b3          	srl	x15,x8,x15

000019e0 <.LVL7>:
    19e0:	00a41433          	sll	x8,x8,x10

000019e4 <.LVL8>:
    19e4:	00048513          	addi	x10,x9,0

000019e8 <.L2>:
    19e8:	00c79793          	slli	x15,x15,0xc

000019ec <.LVL10>:
    19ec:	01471713          	slli	x14,x14,0x14

000019f0 <.LVL11>:
    19f0:	00c7d793          	srli	x15,x15,0xc
    19f4:	01f51513          	slli	x10,x10,0x1f

000019f8 <.LVL12>:
    19f8:	00f767b3          	or	x15,x14,x15

000019fc <.LBE11>:
    19fc:	00c12083          	lw	x1,12(x2)

00001a00 <.LBB12>:
    1a00:	00a7e733          	or	x14,x15,x10

00001a04 <.LBE12>:
    1a04:	00040513          	addi	x10,x8,0
    1a08:	00812403          	lw	x8,8(x2)

00001a0c <.LVL14>:
    1a0c:	00412483          	lw	x9,4(x2)
    1a10:	00070593          	addi	x11,x14,0
    1a14:	01010113          	addi	x2,x2,16
    1a18:	00008067          	jalr	x0,0(x1)

00001a1c <.L4>:
    1a1c:	ff550513          	addi	x10,x10,-11

00001a20 <.LVL16>:
    1a20:	00a417b3          	sll	x15,x8,x10

00001a24 <.LVL17>:
    1a24:	00048513          	addi	x10,x9,0

00001a28 <.L7>:
    1a28:	00000413          	addi	x8,x0,0
    1a2c:	fbdff06f          	jal	x0,19e8 <.L2>

00001a30 <.L5>:
    1a30:	00000713          	addi	x14,x0,0
    1a34:	00000793          	addi	x15,x0,0
    1a38:	ff1ff06f          	jal	x0,1a28 <.L7>

00001a3c <__mulsi3>:
    1a3c:	00050613          	addi	x12,x10,0
    1a40:	00000513          	addi	x10,x0,0

00001a44 <.L1>:
    1a44:	0015f693          	andi	x13,x11,1
    1a48:	00068463          	beq	x13,x0,1a50 <.L2>
    1a4c:	00c50533          	add	x10,x10,x12

00001a50 <.L2>:
    1a50:	0015d593          	srli	x11,x11,0x1
    1a54:	00161613          	slli	x12,x12,0x1
    1a58:	fe0596e3          	bne	x11,x0,1a44 <.L1>
    1a5c:	00008067          	jalr	x0,0(x1)

00001a60 <__divsi3>:
    1a60:	06054063          	blt	x10,x0,1ac0 <.L10>
    1a64:	0605c663          	blt	x11,x0,1ad0 <.L11>

00001a68 <__udivsi3>:
    1a68:	00058613          	addi	x12,x11,0
    1a6c:	00050593          	addi	x11,x10,0
    1a70:	fff00513          	addi	x10,x0,-1
    1a74:	02060c63          	beq	x12,x0,1aac <.L5>
    1a78:	00100693          	addi	x13,x0,1
    1a7c:	00b67a63          	bgeu	x12,x11,1a90 <.L2>

00001a80 <.L1>:
    1a80:	00c05863          	bge	x0,x12,1a90 <.L2>
    1a84:	00161613          	slli	x12,x12,0x1
    1a88:	00169693          	slli	x13,x13,0x1
    1a8c:	feb66ae3          	bltu	x12,x11,1a80 <.L1>

00001a90 <.L2>:
    1a90:	00000513          	addi	x10,x0,0

00001a94 <.L3>:
    1a94:	00c5e663          	bltu	x11,x12,1aa0 <.L4>
    1a98:	40c585b3          	sub	x11,x11,x12
    1a9c:	00d56533          	or	x10,x10,x13

00001aa0 <.L4>:
    1aa0:	0016d693          	srli	x13,x13,0x1
    1aa4:	00165613          	srli	x12,x12,0x1
    1aa8:	fe0696e3          	bne	x13,x0,1a94 <.L3>

00001aac <.L5>:
    1aac:	00008067          	jalr	x0,0(x1)

00001ab0 <__umodsi3>:
    1ab0:	00008293          	addi	x5,x1,0
    1ab4:	fb5ff0ef          	jal	x1,1a68 <__udivsi3>
    1ab8:	00058513          	addi	x10,x11,0
    1abc:	00028067          	jalr	x0,0(x5)

00001ac0 <.L10>:
    1ac0:	40a00533          	sub	x10,x0,x10
    1ac4:	00b04863          	blt	x0,x11,1ad4 <.L12>
    1ac8:	40b005b3          	sub	x11,x0,x11
    1acc:	f9dff06f          	jal	x0,1a68 <__udivsi3>

00001ad0 <.L11>:
    1ad0:	40b005b3          	sub	x11,x0,x11

00001ad4 <.L12>:
    1ad4:	00008293          	addi	x5,x1,0
    1ad8:	f91ff0ef          	jal	x1,1a68 <__udivsi3>
    1adc:	40a00533          	sub	x10,x0,x10
    1ae0:	00028067          	jalr	x0,0(x5)

00001ae4 <__modsi3>:
    1ae4:	00008293          	addi	x5,x1,0
    1ae8:	0005ca63          	blt	x11,x0,1afc <.L31>
    1aec:	00054c63          	blt	x10,x0,1b04 <.L32>

00001af0 <.L30>:
    1af0:	f79ff0ef          	jal	x1,1a68 <__udivsi3>
    1af4:	00058513          	addi	x10,x11,0
    1af8:	00028067          	jalr	x0,0(x5)

00001afc <.L31>:
    1afc:	40b005b3          	sub	x11,x0,x11
    1b00:	fe0558e3          	bge	x10,x0,1af0 <.L30>

00001b04 <.L32>:
    1b04:	40a00533          	sub	x10,x0,x10
    1b08:	f61ff0ef          	jal	x1,1a68 <__udivsi3>
    1b0c:	40b00533          	sub	x10,x0,x11
    1b10:	00028067          	jalr	x0,0(x5)

00001b14 <__clzsi2>:
    1b14:	000107b7          	lui	x15,0x10
    1b18:	02f57a63          	bgeu	x10,x15,1b4c <.L2>
    1b1c:	0ff00793          	addi	x15,x0,255
    1b20:	00a7b7b3          	sltu	x15,x15,x10
    1b24:	00379793          	slli	x15,x15,0x3

00001b28 <.L3>:
    1b28:	00004737          	lui	x14,0x4
    1b2c:	02000693          	addi	x13,x0,32
    1b30:	40f686b3          	sub	x13,x13,x15
    1b34:	00f55533          	srl	x10,x10,x15

00001b38 <.LVL2>:
    1b38:	06870793          	addi	x15,x14,104 # 4068 <__clz_tab>

00001b3c <.LVL3>:
    1b3c:	00a78533          	add	x10,x15,x10
    1b40:	00054503          	lbu	x10,0(x10)

00001b44 <.LBE3>:
    1b44:	40a68533          	sub	x10,x13,x10
    1b48:	00008067          	jalr	x0,0(x1)

00001b4c <.L2>:
    1b4c:	01000737          	lui	x14,0x1000
    1b50:	01000793          	addi	x15,x0,16
    1b54:	fce56ae3          	bltu	x10,x14,1b28 <.L3>
    1b58:	01800793          	addi	x15,x0,24
    1b5c:	fcdff06f          	jal	x0,1b28 <.L3>

Disassembly of section .text.startup:

00001b60 <main>:
    1b60:	000047b7          	lui	x15,0x4
    1b64:	00078793          	addi	x15,x15,0 # 4000 <.LANCHOR0>
    1b68:	0007ae83          	lw	x29,0(x15)
    1b6c:	0047ae03          	lw	x28,4(x15)
    1b70:	0087a303          	lw	x6,8(x15)
    1b74:	00c7a883          	lw	x17,12(x15)
    1b78:	0107a803          	lw	x16,16(x15)
    1b7c:	0147a583          	lw	x11,20(x15)
    1b80:	0187a603          	lw	x12,24(x15)
    1b84:	01c7a683          	lw	x13,28(x15)
    1b88:	0207a703          	lw	x14,32(x15)
    1b8c:	0247a783          	lw	x15,36(x15)
    1b90:	f8010113          	addi	x2,x2,-128
    1b94:	00004537          	lui	x10,0x4
    1b98:	06112e23          	sw	x1,124(x2)
    1b9c:	06812c23          	sw	x8,120(x2)
    1ba0:	06912a23          	sw	x9,116(x2)
    1ba4:	07212823          	sw	x18,112(x2)
    1ba8:	07312623          	sw	x19,108(x2)
    1bac:	01d12c23          	sw	x29,24(x2)
    1bb0:	01c12e23          	sw	x28,28(x2)
    1bb4:	02612023          	sw	x6,32(x2)
    1bb8:	03112223          	sw	x17,36(x2)
    1bbc:	03012423          	sw	x16,40(x2)
    1bc0:	02b12623          	sw	x11,44(x2)
    1bc4:	02c12823          	sw	x12,48(x2)
    1bc8:	02d12a23          	sw	x13,52(x2)
    1bcc:	02e12c23          	sw	x14,56(x2)
    1bd0:	07412423          	sw	x20,104(x2)
    1bd4:	07512223          	sw	x21,100(x2)
    1bd8:	07612023          	sw	x22,96(x2)
    1bdc:	05712e23          	sw	x23,92(x2)
    1be0:	05812c23          	sw	x24,88(x2)
    1be4:	05912a23          	sw	x25,84(x2)
    1be8:	05a12823          	sw	x26,80(x2)
    1bec:	05b12623          	sw	x27,76(x2)
    1bf0:	16850513          	addi	x10,x10,360 # 4168 <.LC2>
    1bf4:	01810413          	addi	x8,x2,24
    1bf8:	02f12e23          	sw	x15,60(x2)
    1bfc:	04010493          	addi	x9,x2,64
    1c00:	b99fe0ef          	jal	x1,798 <my_printf>
    1c04:	00040993          	addi	x19,x8,0
    1c08:	00004937          	lui	x18,0x4

00001c0c <.L113>:
    1c0c:	0009a583          	lw	x11,0(x19)
    1c10:	17890513          	addi	x10,x18,376 # 4178 <.LC3>
    1c14:	00498993          	addi	x19,x19,4
    1c18:	b81fe0ef          	jal	x1,798 <my_printf>
    1c1c:	fe9998e3          	bne	x19,x9,1c0c <.L113>
    1c20:	000047b7          	lui	x15,0x4
    1c24:	18078513          	addi	x10,x15,384 # 4180 <.LC4>
    1c28:	b71fe0ef          	jal	x1,798 <my_printf>
    1c2c:	00700313          	addi	x6,x0,7
    1c30:	00012423          	sw	x0,8(x2)
    1c34:	00000d93          	addi	x27,x0,0
    1c38:	06200813          	addi	x16,x0,98
    1c3c:	00000c13          	addi	x24,x0,0
    1c40:	00d00513          	addi	x10,x0,13
    1c44:	00000b13          	addi	x22,x0,0
    1c48:	01500593          	addi	x11,x0,21
    1c4c:	00000a13          	addi	x20,x0,0
    1c50:	04f00613          	addi	x12,x0,79
    1c54:	00000393          	addi	x7,x0,0
    1c58:	04400693          	addi	x13,x0,68
    1c5c:	00012623          	sw	x0,12(x2)
    1c60:	03e00093          	addi	x1,x0,62
    1c64:	00012223          	sw	x0,4(x2)
    1c68:	00800793          	addi	x15,x0,8
    1c6c:	01000e13          	addi	x28,x0,16
    1c70:	00000f13          	addi	x30,x0,0
    1c74:	02300713          	addi	x14,x0,35
    1c78:	00000d13          	addi	x26,x0,0
    1c7c:	01900893          	addi	x17,x0,25
    1c80:	00100293          	addi	x5,x0,1
    1c84:	00200993          	addi	x19,x0,2
    1c88:	00300a93          	addi	x21,x0,3
    1c8c:	00400b93          	addi	x23,x0,4
    1c90:	00500c93          	addi	x25,x0,5
    1c94:	fff00e93          	addi	x29,x0,-1

00001c98 <.L114>:
    1c98:	0e078e63          	beq	x15,x0,1d94 <.L118>
    1c9c:	00e6dc63          	bge	x13,x14,1cb4 <.L119>
    1ca0:	00070f93          	addi	x31,x14,0 # 1000000 <.LC1+0xffbe68>
    1ca4:	00100393          	addi	x7,x0,1
    1ca8:	00068713          	addi	x14,x13,0
    1cac:	00100f13          	addi	x30,x0,1
    1cb0:	000f8693          	addi	x13,x31,0

00001cb4 <.L119>:
    1cb4:	0e578063          	beq	x15,x5,1d94 <.L118>
    1cb8:	00d65c63          	bge	x12,x13,1cd0 <.L120>
    1cbc:	00068f93          	addi	x31,x13,0
    1cc0:	00100a13          	addi	x20,x0,1
    1cc4:	00060693          	addi	x13,x12,0
    1cc8:	00100393          	addi	x7,x0,1
    1ccc:	000f8613          	addi	x12,x31,0

00001cd0 <.L120>:
    1cd0:	0d378263          	beq	x15,x19,1d94 <.L118>
    1cd4:	00c5dc63          	bge	x11,x12,1cec <.L121>
    1cd8:	00060f93          	addi	x31,x12,0
    1cdc:	00100b13          	addi	x22,x0,1
    1ce0:	00058613          	addi	x12,x11,0
    1ce4:	00100a13          	addi	x20,x0,1
    1ce8:	000f8593          	addi	x11,x31,0

00001cec <.L121>:
    1cec:	0b578463          	beq	x15,x21,1d94 <.L118>
    1cf0:	00b55c63          	bge	x10,x11,1d08 <.L122>
    1cf4:	00058f93          	addi	x31,x11,0
    1cf8:	00100c13          	addi	x24,x0,1
    1cfc:	00050593          	addi	x11,x10,0
    1d00:	00100b13          	addi	x22,x0,1
    1d04:	000f8513          	addi	x10,x31,0

00001d08 <.L122>:
    1d08:	09778663          	beq	x15,x23,1d94 <.L118>
    1d0c:	00a85c63          	bge	x16,x10,1d24 <.L123>
    1d10:	00050f93          	addi	x31,x10,0
    1d14:	00100d93          	addi	x27,x0,1
    1d18:	00080513          	addi	x10,x16,0
    1d1c:	00100c13          	addi	x24,x0,1
    1d20:	000f8813          	addi	x16,x31,0

00001d24 <.L123>:
    1d24:	07978863          	beq	x15,x25,1d94 <.L118>
    1d28:	01035e63          	bge	x6,x16,1d44 <.L124>
    1d2c:	00080f93          	addi	x31,x16,0
    1d30:	00100813          	addi	x16,x0,1
    1d34:	01012423          	sw	x16,8(x2)
    1d38:	00100d93          	addi	x27,x0,1
    1d3c:	00030813          	addi	x16,x6,0
    1d40:	000f8313          	addi	x6,x31,0

00001d44 <.L124>:
    1d44:	00600f93          	addi	x31,x0,6
    1d48:	05f78663          	beq	x15,x31,1d94 <.L118>
    1d4c:	026e5063          	bge	x28,x6,1d6c <.L125>
    1d50:	000e0f93          	addi	x31,x28,0
    1d54:	00100e13          	addi	x28,x0,1
    1d58:	01c12423          	sw	x28,8(x2)
    1d5c:	00030e13          	addi	x28,x6,0
    1d60:	00100313          	addi	x6,x0,1
    1d64:	00612223          	sw	x6,4(x2)
    1d68:	000f8313          	addi	x6,x31,0

00001d6c <.L125>:
    1d6c:	00800f93          	addi	x31,x0,8
    1d70:	03f79263          	bne	x15,x31,1d94 <.L118>
    1d74:	03c0d063          	bge	x1,x28,1d94 <.L118>
    1d78:	000e0f93          	addi	x31,x28,0
    1d7c:	00100e13          	addi	x28,x0,1
    1d80:	01c12623          	sw	x28,12(x2)
    1d84:	00008e13          	addi	x28,x1,0
    1d88:	00100093          	addi	x1,x0,1
    1d8c:	00112223          	sw	x1,4(x2)
    1d90:	000f8093          	addi	x1,x31,0

00001d94 <.L118>:
    1d94:	fff78793          	addi	x15,x15,-1
    1d98:	03d78063          	beq	x15,x29,1db8 <.L116>
    1d9c:	ef175ee3          	bge	x14,x17,1c98 <.L114>
    1da0:	00088f93          	addi	x31,x17,0 # 800000 <.LC1+0x7fbe68>
    1da4:	00100f13          	addi	x30,x0,1
    1da8:	00070893          	addi	x17,x14,0
    1dac:	00100d13          	addi	x26,x0,1
    1db0:	000f8713          	addi	x14,x31,0
    1db4:	ee5ff06f          	jal	x0,1c98 <.L114>

00001db8 <.L116>:
    1db8:	00412783          	lw	x15,4(x2)
    1dbc:	00078463          	beq	x15,x0,1dc4 <.L127>
    1dc0:	03c12c23          	sw	x28,56(x2)

00001dc4 <.L127>:
    1dc4:	00c12783          	lw	x15,12(x2)
    1dc8:	00078463          	beq	x15,x0,1dd0 <.L128>
    1dcc:	02112e23          	sw	x1,60(x2)

00001dd0 <.L128>:
    1dd0:	000d0463          	beq	x26,x0,1dd8 <.L129>
    1dd4:	01112c23          	sw	x17,24(x2)

00001dd8 <.L129>:
    1dd8:	000f0463          	beq	x30,x0,1de0 <.L130>
    1ddc:	00e12e23          	sw	x14,28(x2)

00001de0 <.L130>:
    1de0:	00038463          	beq	x7,x0,1de8 <.L131>
    1de4:	02d12023          	sw	x13,32(x2)

00001de8 <.L131>:
    1de8:	000a0463          	beq	x20,x0,1df0 <.L132>
    1dec:	02c12223          	sw	x12,36(x2)

00001df0 <.L132>:
    1df0:	000b0463          	beq	x22,x0,1df8 <.L133>
    1df4:	02b12423          	sw	x11,40(x2)

00001df8 <.L133>:
    1df8:	000c0463          	beq	x24,x0,1e00 <.L134>
    1dfc:	02a12623          	sw	x10,44(x2)

00001e00 <.L134>:
    1e00:	000d8463          	beq	x27,x0,1e08 <.L135>
    1e04:	03012823          	sw	x16,48(x2)

00001e08 <.L135>:
    1e08:	00812783          	lw	x15,8(x2)
    1e0c:	00078463          	beq	x15,x0,1e14 <.L136>
    1e10:	02612a23          	sw	x6,52(x2)

00001e14 <.L136>:
    1e14:	00004537          	lui	x10,0x4
    1e18:	18450513          	addi	x10,x10,388 # 4184 <.LC5>
    1e1c:	97dfe0ef          	jal	x1,798 <my_printf>

00001e20 <.L137>:
    1e20:	00042583          	lw	x11,0(x8)
    1e24:	17890513          	addi	x10,x18,376
    1e28:	00440413          	addi	x8,x8,4
    1e2c:	96dfe0ef          	jal	x1,798 <my_printf>
    1e30:	fe9418e3          	bne	x8,x9,1e20 <.L137>
    1e34:	000047b7          	lui	x15,0x4
    1e38:	18078513          	addi	x10,x15,384 # 4180 <.LC4>
    1e3c:	95dfe0ef          	jal	x1,798 <my_printf>
    1e40:	07c12083          	lw	x1,124(x2)
    1e44:	07812403          	lw	x8,120(x2)
    1e48:	07412483          	lw	x9,116(x2)
    1e4c:	07012903          	lw	x18,112(x2)
    1e50:	06c12983          	lw	x19,108(x2)
    1e54:	06812a03          	lw	x20,104(x2)
    1e58:	06412a83          	lw	x21,100(x2)
    1e5c:	06012b03          	lw	x22,96(x2)
    1e60:	05c12b83          	lw	x23,92(x2)
    1e64:	05812c03          	lw	x24,88(x2)
    1e68:	05412c83          	lw	x25,84(x2)
    1e6c:	05012d03          	lw	x26,80(x2)
    1e70:	04c12d83          	lw	x27,76(x2)
    1e74:	00000513          	addi	x10,x0,0
    1e78:	08010113          	addi	x2,x2,128
    1e7c:	00008067          	jalr	x0,0(x1)

Disassembly of section .riscv.attributes:

00000000 <.riscv.attributes>:
   0:	1b41                	c.addi	x22,-16
   2:	0000                	c.unimp
   4:	7200                	c.flw	f8,32(x12)
   6:	7369                	c.lui	x6,0xffffa
   8:	01007663          	bgeu	x0,x16,14 <.LASF43>
   c:	0011                	c.addi	x0,4
   e:	0000                	c.unimp
  10:	1004                	c.addi4spn	x9,x2,32
  12:	7205                	c.lui	x4,0xfffe1
  14:	3376                	c.fldsp	f6,376(x2)
  16:	6932                	c.flwsp	f18,12(x2)
  18:	7032                	c.flwsp	f0,44(x2)
  1a:	0030                	c.addi4spn	x12,x2,8

Disassembly of section .comment:

00000000 <.comment>:
   0:	3a434347          	fmsub.d	f6,f6,f4,f7,rmm
   4:	2820                	c.fld	f8,80(x8)
   6:	29554e47          	fmsub.s	f28,f10,f21,f5,rmm
   a:	3120                	c.fld	f8,96(x10)
   c:	2e30                	c.fld	f12,88(x12)
   e:	2e32                	c.fldsp	f28,264(x2)
  10:	0030                	c.addi4spn	x12,x2,8

Disassembly of section .debug_info:

00000000 <.Ldebug_info0>:
       0:	0251                	c.addi	x4,20
       2:	0000                	c.unimp
       4:	0004                	0x4
       6:	0000                	c.unimp
       8:	0000                	c.unimp
       a:	0104                	c.addi4spn	x9,x2,128
       c:	0000015b          	0x15b
      10:	290c                	c.fld	f11,16(x10)
      12:	0000                	c.unimp
      14:	d100                	c.sw	x8,32(x10)
      16:	0000                	c.unimp
      18:	3000                	c.fld	f8,32(x8)
      1a:	0009                	c.addi	x0,2
      1c:	8c00                	0x8c00
      1e:	0000                	c.unimp
      20:	0000                	c.unimp
      22:	0000                	c.unimp
      24:	0200                	c.addi4spn	x8,x2,256
      26:	0408                	c.addi4spn	x10,x2,512
      28:	00000763          	beq	x0,x0,36 <printf_num+0x6>
      2c:	00005503          	lhu	x10,0(x0) # 0 <.Ldebug_info0>
      30:	0200                	c.addi4spn	x8,x2,256
      32:	0d50                	c.addi4spn	x12,x2,660
      34:	0038                	c.addi4spn	x14,x2,8
      36:	0000                	c.unimp
      38:	0404                	c.addi4spn	x9,x2,512
      3a:	6905                	c.lui	x18,0x1
      3c:	746e                	c.flwsp	f8,248(x2)
      3e:	0200                	c.addi4spn	x8,x2,256
      40:	0601                	c.addi	x12,0
      42:	001d                	c.addi	x0,7
      44:	0000                	c.unimp
      46:	0802                	c.slli64	x16
      48:	3c05                	c.jal	fffffa78 <.LC1+0xffffb8e0>
      4a:	0001                	c.addi	x0,0
      4c:	0200                	c.addi4spn	x8,x2,256
      4e:	0801                	c.addi	x16,0
      50:	0000001b          	0x1b
      54:	0402                	c.slli64	x8
      56:	0000c407          	flq	f8,0(x1)
      5a:	0200                	c.addi4spn	x8,x2,256
      5c:	0708                	c.addi4spn	x10,x2,896
      5e:	00ba                	c.slli	x1,0xe
      60:	0000                	c.unimp
      62:	0202                	c.slli64	x4
      64:	00006807          	0x6807
      68:	0300                	c.addi4spn	x8,x2,384
      6a:	0014                	0x14
      6c:	0000                	c.unimp
      6e:	250f4803          	lbu	x16,592(x30)
      72:	0000                	c.unimp
      74:	0500                	c.addi4spn	x8,x2,640
      76:	0308                	c.addi4spn	x10,x2,384
      78:	00bf034f          	fnmadd.s	f6,f30,f11,f0,rne
      7c:	0000                	c.unimp
      7e:	0806                	c.slli	x16,0x1
      80:	0000                	c.unimp
      82:	0300                	c.addi4spn	x8,x2,384
      84:	00540e57          	0x540e57
      88:	0000                	c.unimp
      8a:	2004                	c.fld	f9,0(x8)
      8c:	0000                	c.unimp
      8e:	0e06                	c.slli	x28,0x1
      90:	0000                	c.unimp
      92:	0300                	c.addi4spn	x8,x2,384
      94:	0e58                	c.addi4spn	x14,x2,788
      96:	0054                	c.addi4spn	x13,x2,4
      98:	0000                	c.unimp
      9a:	1404                	c.addi4spn	x9,x2,544
      9c:	040c                	c.addi4spn	x11,x2,512
      9e:	70786507          	0x70786507
      a2:	0300                	c.addi4spn	x8,x2,384
      a4:	0e59                	c.addi	x28,22
      a6:	0054                	c.addi4spn	x13,x2,4
      a8:	0000                	c.unimp
      aa:	0b04                	c.addi4spn	x9,x2,400
      ac:	0401                	c.addi	x8,0
      ae:	6306                	c.flwsp	f6,64(x2)
      b0:	0000                	c.unimp
      b2:	0300                	c.addi4spn	x8,x2,384
      b4:	0e5a                	c.slli	x28,0x16
      b6:	0054                	c.addi4spn	x13,x2,4
      b8:	0000                	c.unimp
      ba:	0104                	c.addi4spn	x9,x2,128
      bc:	0400                	c.addi4spn	x8,x2,512
      be:	0800                	c.addi4spn	x8,x2,16
      c0:	014a                	c.slli	x2,0x12
      c2:	0000                	c.unimp
      c4:	0308                	c.addi4spn	x10,x2,384
      c6:	074c                	c.addi4spn	x11,x2,900
      c8:	00e5                	c.addi	x1,25
      ca:	0000                	c.unimp
      cc:	6609                	c.lui	x12,0x2
      ce:	746c                	c.flw	f11,108(x8)
      d0:	0300                	c.addi4spn	x8,x2,384
      d2:	0a4e                	c.slli	x20,0x13
      d4:	0069                	c.addi	x0,26
      d6:	0000                	c.unimp
      d8:	560a                	c.lwsp	x12,160(x2)
      da:	0001                	c.addi	x0,0
      dc:	0300                	c.addi4spn	x8,x2,384
      de:	055c                	c.addi4spn	x15,x2,644
      e0:	0075                	c.addi	x0,29
      e2:	0000                	c.unimp
      e4:	0b00                	c.addi4spn	x8,x2,400
      e6:	0000                	c.unimp
      e8:	0000                	c.unimp
      ea:	2301                	c.jal	5ea <.LASF23+0x1>
      ec:	2c01                	c.jal	2fc <.L37+0x8>
      ee:	0000                	c.unimp
      f0:	3000                	c.fld	f8,32(x8)
      f2:	0009                	c.addi	x0,2
      f4:	8c00                	0x8c00
      f6:	0000                	c.unimp
      f8:	0100                	c.addi4spn	x8,x2,128
      fa:	469c                	c.lw	x15,8(x13)
      fc:	0002                	c.slli64	x0
      fe:	0c00                	c.addi4spn	x8,x2,528
     100:	0061                	c.addi	x0,24
     102:	2301                	c.jal	602 <.LASF23+0x19>
     104:	6911                	c.lui	x18,0x4
     106:	0000                	c.unimp
     108:	0000                	c.unimp
     10a:	0000                	c.unimp
     10c:	0c00                	c.addi4spn	x8,x2,528
     10e:	0062                	c.slli	x0,0x18
     110:	2301                	c.jal	610 <.LASF23+0x27>
     112:	0000691b          	0x691b
     116:	2800                	c.fld	f8,16(x8)
     118:	0000                	c.unimp
     11a:	0d00                	c.addi4spn	x8,x2,656
     11c:	0080                	c.addi4spn	x8,x2,64
     11e:	0000                	c.unimp
     120:	2501                	c.jal	720 <.LASF14+0xe>
     122:	00003803          	0x3803
     126:	0000                	c.unimp
     128:	080d                	c.addi	x16,3
     12a:	0002                	c.slli64	x0
     12c:	0100                	c.addi4spn	x8,x2,128
     12e:	0325                	c.addi	x6,9
     130:	0038                	c.addi4spn	x14,x2,8
     132:	0000                	c.unimp
     134:	0e00                	c.addi4spn	x8,x2,784
     136:	5f41                	c.li	x30,-16
     138:	26010063          	beq	x2,x0,398 <.LASF26+0x1>
     13c:	00024603          	lbu	x12,0(x4) # fffe1000 <.LC1+0xfffdce68>
     140:	0f00                	c.addi4spn	x8,x2,912
     142:	5f41                	c.li	x30,-16
     144:	26010073          	0x26010073
     148:	00024603          	lbu	x12,0(x4) # 0 <.Ldebug_info0>
     14c:	0600                	c.addi4spn	x8,x2,768
     14e:	ff08007b          	0xff08007b
     152:	9f1a                	c.add	x30,x6
     154:	655f410f          	0x655f410f
     158:	0100                	c.addi4spn	x8,x2,128
     15a:	0326                	c.slli	x6,0x9
     15c:	0246                	c.slli	x4,0x11
     15e:	0000                	c.unimp
     160:	5e01                	c.li	x28,-32
     162:	9610                	0x9610
     164:	0000                	c.unimp
     166:	0100                	c.addi4spn	x8,x2,128
     168:	0326                	c.slli	x6,0x9
     16a:	024d                	c.addi	x4,19
     16c:	0000                	c.unimp
     16e:	5601                	c.li	x12,-32
     170:	7b10                	c.flw	f12,48(x14)
     172:	0000                	c.unimp
     174:	0100                	c.addi4spn	x8,x2,128
     176:	0326                	c.slli	x6,0x9
     178:	024d                	c.addi	x4,19
     17a:	0000                	c.unimp
     17c:	6101                	0x6101
     17e:	420e                	c.lwsp	x4,192(x2)
     180:	635f 0100 0327      	0x3270100635f
     186:	0246                	c.slli	x4,0x11
     188:	0000                	c.unimp
     18a:	735f420f          	0x735f420f
     18e:	0100                	c.addi4spn	x8,x2,128
     190:	02460327          	0x2460327
     194:	0000                	c.unimp
     196:	7d06                	c.flwsp	f26,96(x2)
     198:	0800                	c.addi4spn	x8,x2,16
     19a:	1aff                	0x1aff
     19c:	0f9f 5f42 0065      	0x655f420f9f
     1a2:	2701                	c.jal	8a2 <.Ldebug_abbrev0+0x6>
     1a4:	00024603          	lbu	x12,0(x4) # 0 <.Ldebug_info0>
     1a8:	0100                	c.addi4spn	x8,x2,128
     1aa:	1160                	c.addi4spn	x8,x2,172
     1ac:	00b0                	c.addi4spn	x12,x2,72
     1ae:	0000                	c.unimp
     1b0:	2701                	c.jal	8b0 <.L95+0x4>
     1b2:	00024d03          	lbu	x26,0(x4) # 0 <.Ldebug_info0>
     1b6:	7000                	c.flw	f8,32(x8)
     1b8:	0000                	c.unimp
     1ba:	1000                	c.addi4spn	x8,x2,32
     1bc:	00b5                	c.addi	x1,13
     1be:	0000                	c.unimp
     1c0:	2701                	c.jal	8c0 <.L95+0x14>
     1c2:	00024d03          	lbu	x26,0(x4) # 0 <.Ldebug_info0>
     1c6:	0100                	c.addi4spn	x8,x2,128
     1c8:	0f5f 0072 2801      	0x280100720f5f
     1ce:	00002c0b          	0x2c0b
     1d2:	0100                	c.addi4spn	x8,x2,128
     1d4:	125a                	c.slli	x4,0x36
     1d6:	0000                	c.unimp
     1d8:	0000                	c.unimp
     1da:	000001eb          	0x1eb
     1de:	00009b13          	slli	x22,x1,0x0
     1e2:	0100                	c.addi4spn	x8,x2,128
     1e4:	00bf032b          	0xbf032b
     1e8:	0000                	c.unimp
     1ea:	1200                	c.addi4spn	x8,x2,288
     1ec:	0028                	c.addi4spn	x10,x2,8
     1ee:	0000                	c.unimp
     1f0:	0201                	c.addi	x4,0
     1f2:	0000                	c.unimp
     1f4:	00009b13          	slli	x22,x1,0x0
     1f8:	0100                	c.addi4spn	x8,x2,128
     1fa:	032c                	c.addi4spn	x11,x2,392
     1fc:	000000bf 02131400 	0x2131400000000bf
     204:	0000                	c.unimp
     206:	00008513          	addi	x10,x1,0
     20a:	0100                	c.addi4spn	x8,x2,128
     20c:	032d                	c.addi	x6,11
     20e:	0038                	c.addi4spn	x14,x2,8
     210:	0000                	c.unimp
     212:	1400                	c.addi4spn	x8,x2,544
     214:	0225                	c.addi	x4,9
     216:	0000                	c.unimp
     218:	00008513          	addi	x10,x1,0
     21c:	0100                	c.addi4spn	x8,x2,128
     21e:	032d                	c.addi	x6,11
     220:	0038                	c.addi4spn	x14,x2,8
     222:	0000                	c.unimp
     224:	1400                	c.addi4spn	x8,x2,544
     226:	00000237          	lui	x4,0x0
     22a:	00008513          	addi	x10,x1,0
     22e:	0100                	c.addi4spn	x8,x2,128
     230:	032d                	c.addi	x6,11
     232:	0038                	c.addi4spn	x14,x2,8
     234:	0000                	c.unimp
     236:	1500                	c.addi4spn	x8,x2,672
     238:	00008513          	addi	x10,x1,0
     23c:	0100                	c.addi4spn	x8,x2,128
     23e:	032d                	c.addi	x6,11
     240:	0038                	c.addi4spn	x14,x2,8
     242:	0000                	c.unimp
     244:	0000                	c.unimp
     246:	0402                	c.slli64	x8
     248:	4105                	c.li	x2,1
     24a:	0001                	c.addi	x0,0
     24c:	0200                	c.addi4spn	x8,x2,256
     24e:	0704                	c.addi4spn	x9,x2,896
     250:	000000bf  	0x24f00000000bf

00000255 <.Ldebug_info0>:
     255:	0000024f          	fnmadd.s	f4,f0,f0,f0,rne
     259:	0004                	0x4
     25b:	0000014b          	fnmsub.s	f2,f0,f0,f0,rne
     25f:	0104                	c.addi4spn	x9,x2,128
     261:	0000015b          	0x15b
     265:	150c                	c.addi4spn	x11,x2,672
     267:	0002                	c.slli64	x0
     269:	d100                	c.sw	x8,32(x10)
     26b:	0000                	c.unimp
     26d:	bc00                	c.fsd	f8,56(x8)
     26f:	0009                	c.addi	x0,2
     271:	e400                	c.fsw	f8,8(x8)
     273:	0000                	c.unimp
     275:	4a00                	c.lw	x8,16(x12)
     277:	0002                	c.slli64	x0
     279:	0200                	c.addi4spn	x8,x2,256
     27b:	0408                	c.addi4spn	x10,x2,512
     27d:	00000763          	beq	x0,x0,28b <.L35+0x7>
     281:	00005503          	lhu	x10,0(x0) # 0 <.Ldebug_info0>
     285:	0200                	c.addi4spn	x8,x2,256
     287:	0d50                	c.addi4spn	x12,x2,660
     289:	0038                	c.addi4spn	x14,x2,8
     28b:	0000                	c.unimp
     28d:	0404                	c.addi4spn	x9,x2,512
     28f:	6905                	c.lui	x18,0x1
     291:	746e                	c.flwsp	f8,248(x2)
     293:	0200                	c.addi4spn	x8,x2,256
     295:	0601                	c.addi	x12,0
     297:	001d                	c.addi	x0,7
     299:	0000                	c.unimp
     29b:	0802                	c.slli64	x16
     29d:	3c05                	c.jal	fffffccd <.LC1+0xffffbb35>
     29f:	0001                	c.addi	x0,0
     2a1:	0200                	c.addi4spn	x8,x2,256
     2a3:	0801                	c.addi	x16,0
     2a5:	0000001b          	0x1b
     2a9:	0402                	c.slli64	x8
     2ab:	0000c407          	flq	f8,0(x1)
     2af:	0200                	c.addi4spn	x8,x2,256
     2b1:	0708                	c.addi4spn	x10,x2,896
     2b3:	00ba                	c.slli	x1,0xe
     2b5:	0000                	c.unimp
     2b7:	0202                	c.slli64	x4
     2b9:	00006807          	0x6807
     2bd:	0300                	c.addi4spn	x8,x2,384
     2bf:	0014                	0x14
     2c1:	0000                	c.unimp
     2c3:	250f4803          	lbu	x16,592(x30)
     2c7:	0000                	c.unimp
     2c9:	0500                	c.addi4spn	x8,x2,640
     2cb:	0308                	c.addi4spn	x10,x2,384
     2cd:	00bf034f          	fnmadd.s	f6,f30,f11,f0,rne
     2d1:	0000                	c.unimp
     2d3:	0806                	c.slli	x16,0x1
     2d5:	0000                	c.unimp
     2d7:	0300                	c.addi4spn	x8,x2,384
     2d9:	00540e57          	0x540e57
     2dd:	0000                	c.unimp
     2df:	2004                	c.fld	f9,0(x8)
     2e1:	0000                	c.unimp
     2e3:	0e06                	c.slli	x28,0x1
     2e5:	0000                	c.unimp
     2e7:	0300                	c.addi4spn	x8,x2,384
     2e9:	0e58                	c.addi4spn	x14,x2,788
     2eb:	0054                	c.addi4spn	x13,x2,4
     2ed:	0000                	c.unimp
     2ef:	1404                	c.addi4spn	x9,x2,544
     2f1:	040c                	c.addi4spn	x11,x2,512
     2f3:	70786507          	0x70786507
     2f7:	0300                	c.addi4spn	x8,x2,384
     2f9:	0e59                	c.addi	x28,22
     2fb:	0054                	c.addi4spn	x13,x2,4
     2fd:	0000                	c.unimp
     2ff:	0b04                	c.addi4spn	x9,x2,400
     301:	0401                	c.addi	x8,0
     303:	6306                	c.flwsp	f6,64(x2)
     305:	0000                	c.unimp
     307:	0300                	c.addi4spn	x8,x2,384
     309:	0e5a                	c.slli	x28,0x16
     30b:	0054                	c.addi4spn	x13,x2,4
     30d:	0000                	c.unimp
     30f:	0104                	c.addi4spn	x9,x2,128
     311:	0400                	c.addi4spn	x8,x2,512
     313:	0800                	c.addi4spn	x8,x2,16
     315:	014a                	c.slli	x2,0x12
     317:	0000                	c.unimp
     319:	0308                	c.addi4spn	x10,x2,384
     31b:	074c                	c.addi4spn	x11,x2,900
     31d:	00e5                	c.addi	x1,25
     31f:	0000                	c.unimp
     321:	6609                	c.lui	x12,0x2
     323:	746c                	c.flw	f11,108(x8)
     325:	0300                	c.addi4spn	x8,x2,384
     327:	0a4e                	c.slli	x20,0x13
     329:	0069                	c.addi	x0,26
     32b:	0000                	c.unimp
     32d:	560a                	c.lwsp	x12,160(x2)
     32f:	0001                	c.addi	x0,0
     331:	0300                	c.addi4spn	x8,x2,384
     333:	055c                	c.addi4spn	x15,x2,644
     335:	0075                	c.addi	x0,29
     337:	0000                	c.unimp
     339:	0b00                	c.addi4spn	x8,x2,400
     33b:	020d                	c.addi	x4,3
     33d:	0000                	c.unimp
     33f:	2301                	c.jal	83f <.L91+0xf>
     341:	2c01                	c.jal	551 <.LASF22+0x5>
     343:	0000                	c.unimp
     345:	bc00                	c.fsd	f8,56(x8)
     347:	0009                	c.addi	x0,2
     349:	e400                	c.fsw	f8,8(x8)
     34b:	0000                	c.unimp
     34d:	0100                	c.addi4spn	x8,x2,128
     34f:	449c                	c.lw	x15,8(x9)
     351:	0002                	c.slli64	x0
     353:	0c00                	c.addi4spn	x8,x2,528
     355:	0061                	c.addi	x0,24
     357:	2301                	c.jal	857 <.LLST15+0x3>
     359:	6911                	c.lui	x18,0x4
     35b:	0000                	c.unimp
     35d:	a400                	c.fsd	f8,8(x8)
     35f:	0000                	c.unimp
     361:	0c00                	c.addi4spn	x8,x2,528
     363:	0062                	c.slli	x0,0x18
     365:	2301                	c.jal	865 <.LLST15+0x11>
     367:	0000691b          	0x691b
     36b:	cc00                	c.sw	x8,24(x8)
     36d:	0000                	c.unimp
     36f:	0d00                	c.addi4spn	x8,x2,656
     371:	0080                	c.addi4spn	x8,x2,64
     373:	0000                	c.unimp
     375:	2501                	c.jal	975 <.LBE8+0xd>
     377:	00003803          	0x3803
     37b:	0000                	c.unimp
     37d:	080d                	c.addi	x16,3
     37f:	0002                	c.slli64	x0
     381:	0100                	c.addi4spn	x8,x2,128
     383:	0325                	c.addi	x6,9
     385:	0038                	c.addi4spn	x14,x2,8
     387:	0000                	c.unimp
     389:	0e00                	c.addi4spn	x8,x2,784
     38b:	5f41                	c.li	x30,-16
     38d:	26010063          	beq	x2,x0,5ed <.LASF23+0x4>
     391:	00024403          	lbu	x8,0(x4) # 0 <.Ldebug_info0>
     395:	0f00                	c.addi4spn	x8,x2,912
     397:	5f41                	c.li	x30,-16
     399:	26010073          	0x26010073
     39d:	00024403          	lbu	x8,0(x4) # 0 <.Ldebug_info0>
     3a1:	0400                	c.addi4spn	x8,x2,512
     3a3:	0001                	c.addi	x0,0
     3a5:	1000                	c.addi4spn	x8,x2,32
     3a7:	5f41                	c.li	x30,-16
     3a9:	0065                	c.addi	x0,25
     3ab:	2601                	c.jal	6ab <.LASF31+0x12>
     3ad:	00024403          	lbu	x8,0(x4) # 0 <.Ldebug_info0>
     3b1:	0100                	c.addi4spn	x8,x2,128
     3b3:	1160                	c.addi4spn	x8,x2,172
     3b5:	0096                	c.slli	x1,0x5
     3b7:	0000                	c.unimp
     3b9:	2601                	c.jal	6b9 <.LASF31+0x20>
     3bb:	00024b03          	lbu	x22,0(x4) # 0 <.Ldebug_info0>
     3bf:	0100                	c.addi4spn	x8,x2,128
     3c1:	1156                	c.slli	x2,0x35
     3c3:	0000007b          	0x7b
     3c7:	2601                	c.jal	6c7 <.L82+0xb>
     3c9:	00024b03          	lbu	x22,0(x4) # 0 <.Ldebug_info0>
     3cd:	0100                	c.addi4spn	x8,x2,128
     3cf:	0e61                	c.addi	x28,24
     3d1:	5f42                	c.lwsp	x30,48(x2)
     3d3:	27010063          	beq	x2,x16,633 <.L77+0x7>
     3d7:	00024403          	lbu	x8,0(x4) # 0 <.Ldebug_info0>
     3db:	1000                	c.addi4spn	x8,x2,32
     3dd:	5f42                	c.lwsp	x30,48(x2)
     3df:	27010073          	0x27010073
     3e3:	00024403          	lbu	x8,0(x4) # 0 <.Ldebug_info0>
     3e7:	0100                	c.addi4spn	x8,x2,128
     3e9:	105d                	c.addi	x0,-9
     3eb:	5f42                	c.lwsp	x30,48(x2)
     3ed:	0065                	c.addi	x0,25
     3ef:	2701                	c.jal	aef <.LBE6+0x7>
     3f1:	00024403          	lbu	x8,0(x4) # 0 <.Ldebug_info0>
     3f5:	0100                	c.addi4spn	x8,x2,128
     3f7:	00b0125b          	0xb0125b
     3fb:	0000                	c.unimp
     3fd:	2701                	c.jal	afd <.LVL4+0x1>
     3ff:	00024b03          	lbu	x22,0(x4) # 0 <.Ldebug_info0>
     403:	5900                	c.lw	x8,48(x10)
     405:	0001                	c.addi	x0,0
     407:	1100                	c.addi4spn	x8,x2,160
     409:	00b5                	c.addi	x1,13
     40b:	0000                	c.unimp
     40d:	2701                	c.jal	b0d <.LVL6+0x1>
     40f:	00024b03          	lbu	x22,0(x4) # 0 <.Ldebug_info0>
     413:	0100                	c.addi4spn	x8,x2,128
     415:	105e                	c.slli	x0,0x37
     417:	0072                	c.slli	x0,0x1c
     419:	2801                	c.jal	429 <.LASF59+0x1>
     41b:	00002c0b          	0x2c0b
     41f:	0100                	c.addi4spn	x8,x2,128
     421:	135a                	c.slli	x6,0x36
     423:	0048                	c.addi4spn	x10,x2,4
     425:	0000                	c.unimp
     427:	000001e3          	beq	x0,x0,c29 <.L9+0x1>
     42b:	9b14                	0x9b14
     42d:	0000                	c.unimp
     42f:	0100                	c.addi4spn	x8,x2,128
     431:	00bf032b          	0xbf032b
     435:	0000                	c.unimp
     437:	1300                	c.addi4spn	x8,x2,416
     439:	0060                	c.addi4spn	x8,x2,12
     43b:	0000                	c.unimp
     43d:	01f9                	c.addi	x3,30
     43f:	0000                	c.unimp
     441:	9b14                	0x9b14
     443:	0000                	c.unimp
     445:	0100                	c.addi4spn	x8,x2,128
     447:	032c                	c.addi4spn	x11,x2,392
     449:	000000bf 020b1500 	0x20b1500000000bf
     451:	0000                	c.unimp
     453:	8514                	0x8514
     455:	0000                	c.unimp
     457:	0100                	c.addi4spn	x8,x2,128
     459:	032d                	c.addi	x6,11
     45b:	0038                	c.addi4spn	x14,x2,8
     45d:	0000                	c.unimp
     45f:	1500                	c.addi4spn	x8,x2,672
     461:	021d                	c.addi	x4,7
     463:	0000                	c.unimp
     465:	8514                	0x8514
     467:	0000                	c.unimp
     469:	0100                	c.addi4spn	x8,x2,128
     46b:	032d                	c.addi	x6,11
     46d:	0038                	c.addi4spn	x14,x2,8
     46f:	0000                	c.unimp
     471:	1600                	c.addi4spn	x8,x2,800
     473:	0078                	c.addi4spn	x14,x2,12
     475:	0000                	c.unimp
     477:	4112                	c.lwsp	x2,4(x2)
     479:	0002                	c.slli64	x0
     47b:	0100                	c.addi4spn	x8,x2,128
     47d:	032d                	c.addi	x6,11
     47f:	0038                	c.addi4spn	x14,x2,8
     481:	0000                	c.unimp
     483:	0182                	c.slli64	x3
     485:	0000                	c.unimp
     487:	5312                	c.lwsp	x6,36(x2)
     489:	0002                	c.slli64	x0
     48b:	0100                	c.addi4spn	x8,x2,128
     48d:	032d                	c.addi	x6,11
     48f:	0038                	c.addi4spn	x14,x2,8
     491:	0000                	c.unimp
     493:	01a1                	c.addi	x3,8
     495:	0000                	c.unimp
     497:	0000                	c.unimp
     499:	0402                	c.slli64	x8
     49b:	4105                	c.li	x2,1
     49d:	0001                	c.addi	x0,0
     49f:	0200                	c.addi4spn	x8,x2,256
     4a1:	0704                	c.addi4spn	x9,x2,896
     4a3:	000000bf  	0x9e200000000bf

000004a8 <.Ldebug_info0>:
     4a8:	09e2                	c.slli	x19,0x18
     4aa:	0000                	c.unimp
     4ac:	0004                	0x4
     4ae:	02a9                	c.addi	x5,10
     4b0:	0000                	c.unimp
     4b2:	0104                	c.addi4spn	x9,x2,128
     4b4:	0000015b          	0x15b
     4b8:	010c                	c.addi4spn	x11,x2,128
     4ba:	d1000003          	lb	x0,-752(x0) # fffffd10 <.LC1+0xffffbb78>
     4be:	0000                	c.unimp
     4c0:	a000                	c.fsd	f8,0(x8)
     4c2:	000a                	c.slli	x0,0x2
     4c4:	8800                	0x8800
     4c6:	0006                	c.slli	x0,0x1
     4c8:	2900                	c.fld	f8,16(x10)
     4ca:	0005                	c.addi	x0,1
     4cc:	0200                	c.addi4spn	x8,x2,256
     4ce:	0408                	c.addi4spn	x10,x2,512
     4d0:	00000763          	beq	x0,x0,4de <.LASF20+0x3>
     4d4:	69050403          	lb	x8,1680(x10)
     4d8:	746e                	c.flwsp	f8,248(x2)
     4da:	0200                	c.addi4spn	x8,x2,256
     4dc:	0601                	c.addi	x12,0
     4de:	001d                	c.addi	x0,7
     4e0:	0000                	c.unimp
     4e2:	0802                	c.slli64	x16
     4e4:	3c05                	c.jal	ffffff14 <.LC1+0xffffbd7c>
     4e6:	0001                	c.addi	x0,0
     4e8:	0200                	c.addi4spn	x8,x2,256
     4ea:	0801                	c.addi	x16,0
     4ec:	0000001b          	0x1b
     4f0:	0402                	c.slli64	x8
     4f2:	0000c407          	flq	f8,0(x1)
     4f6:	0200                	c.addi4spn	x8,x2,256
     4f8:	0708                	c.addi4spn	x10,x2,896
     4fa:	00ba                	c.slli	x1,0xe
     4fc:	0000                	c.unimp
     4fe:	9f04                	0x9f04
     500:	0002                	c.slli64	x0
     502:	0200                	c.addi4spn	x8,x2,256
     504:	014e                	c.slli	x2,0x13
     506:	6316                	c.flwsp	f6,68(x2)
     508:	0000                	c.unimp
     50a:	0200                	c.addi4spn	x8,x2,256
     50c:	0702                	c.slli64	x14
     50e:	0068                	c.addi4spn	x10,x2,12
     510:	0000                	c.unimp
     512:	1405                	c.addi	x8,-31
     514:	0000                	c.unimp
     516:	0300                	c.addi4spn	x8,x2,384
     518:	0f48                	c.addi4spn	x10,x2,916
     51a:	0025                	c.addi	x0,9
     51c:	0000                	c.unimp
     51e:	0806                	c.slli	x16,0x1
     520:	c0034f03          	lbu	x30,-1024(x6) # ffff9c00 <.LC1+0xffff5a68>
     524:	0000                	c.unimp
     526:	0700                	c.addi4spn	x8,x2,896
     528:	0008                	0x8
     52a:	0000                	c.unimp
     52c:	480e5703          	lhu	x14,1152(x28)
     530:	0000                	c.unimp
     532:	0400                	c.addi4spn	x8,x2,512
     534:	0020                	c.addi4spn	x8,x2,8
     536:	0700                	c.addi4spn	x8,x2,896
     538:	000e                	c.slli	x0,0x3
     53a:	0000                	c.unimp
     53c:	480e5803          	lhu	x16,1152(x28)
     540:	0000                	c.unimp
     542:	0400                	c.addi4spn	x8,x2,512
     544:	0c14                	c.addi4spn	x13,x2,528
     546:	0804                	c.addi4spn	x9,x2,16
     548:	7865                	c.lui	x16,0xffff9
     54a:	0070                	c.addi4spn	x12,x2,12
     54c:	480e5903          	lhu	x18,1152(x28)
     550:	0000                	c.unimp
     552:	0400                	c.addi4spn	x8,x2,512
     554:	0704010b          	0x704010b
     558:	00000063          	beq	x0,x0,558 <.L61+0x4>
     55c:	480e5a03          	lhu	x20,1152(x28)
     560:	0000                	c.unimp
     562:	0400                	c.addi4spn	x8,x2,512
     564:	0001                	c.addi	x0,0
     566:	0004                	0x4
     568:	4a09                	c.li	x20,2
     56a:	0001                	c.addi	x0,0
     56c:	0800                	c.addi4spn	x8,x2,16
     56e:	e6074c03          	lbu	x24,-416(x14)
     572:	0000                	c.unimp
     574:	0a00                	c.addi4spn	x8,x2,272
     576:	6c66                	c.flwsp	f24,88(x2)
     578:	0074                	c.addi4spn	x13,x2,12
     57a:	6a0a4e03          	lbu	x28,1696(x20)
     57e:	0000                	c.unimp
     580:	0b00                	c.addi4spn	x8,x2,400
     582:	0156                	c.slli	x2,0x15
     584:	0000                	c.unimp
     586:	76055c03          	lhu	x24,1888(x10)
     58a:	0000                	c.unimp
     58c:	0000                	c.unimp
     58e:	280c                	c.fld	f11,16(x8)
     590:	0004                	0x4
     592:	0100                	c.addi4spn	x8,x2,128
     594:	006a0123          	sb	x6,2(x20)
     598:	0000                	c.unimp
     59a:	0aa0                	c.addi4spn	x8,x2,344
     59c:	0000                	c.unimp
     59e:	0688                	c.addi4spn	x10,x2,832
     5a0:	0000                	c.unimp
     5a2:	9c01                	0x9c01
     5a4:	09be                	c.slli	x19,0xf
     5a6:	0000                	c.unimp
     5a8:	610d                	c.addi16sp	x2,160
     5aa:	0100                	c.addi4spn	x8,x2,128
     5ac:	006a1223          	sh	x6,4(x20)
     5b0:	0000                	c.unimp
     5b2:	01d9                	c.addi	x3,22
     5b4:	0000                	c.unimp
     5b6:	620d                	c.lui	x4,0x3
     5b8:	0100                	c.addi4spn	x8,x2,128
     5ba:	006a1c23          	sh	x6,24(x20)
     5be:	0000                	c.unimp
     5c0:	0261                	c.addi	x4,24
     5c2:	0000                	c.unimp
     5c4:	800e                	c.mv	x0,x3
     5c6:	0000                	c.unimp
     5c8:	0100                	c.addi4spn	x8,x2,128
     5ca:	0325                	c.addi	x6,9
     5cc:	002c                	c.addi4spn	x11,x2,8
     5ce:	0000                	c.unimp
     5d0:	02e9                	c.addi	x5,26
     5d2:	0000                	c.unimp
     5d4:	0002080f          	0x2080f
     5d8:	0100                	c.addi4spn	x8,x2,128
     5da:	0325                	c.addi	x6,9
     5dc:	002c                	c.addi4spn	x11,x2,8
     5de:	0000                	c.unimp
     5e0:	1000                	c.addi4spn	x8,x2,32
     5e2:	5f41                	c.li	x30,-16
     5e4:	26010063          	beq	x2,x0,844 <.L91+0x14>
     5e8:	0009be03          	0x9be03
     5ec:	0900                	c.addi4spn	x8,x2,144
     5ee:	10000003          	lb	x0,256(x0) # 100 <.LASF18+0x2f>
     5f2:	5f41                	c.li	x30,-16
     5f4:	26010073          	0x26010073
     5f8:	0009be03          	0x9be03
     5fc:	5400                	c.lw	x8,40(x8)
     5fe:	10000003          	lb	x0,256(x0) # 100 <.LASF18+0x2f>
     602:	5f41                	c.li	x30,-16
     604:	0065                	c.addi	x0,25
     606:	2601                	c.jal	906 <.L94+0x22>
     608:	0009be03          	0x9be03
     60c:	9c00                	0x9c00
     60e:	0e000003          	lb	x0,224(x0) # e0 <.LASF18+0xf>
     612:	0096                	c.slli	x1,0x5
     614:	0000                	c.unimp
     616:	2601                	c.jal	916 <.L96+0xe>
     618:	0009c503          	lbu	x10,0(x19)
     61c:	4800                	c.lw	x8,16(x8)
     61e:	0004                	0x4
     620:	0e00                	c.addi4spn	x8,x2,784
     622:	0000007b          	0x7b
     626:	2601                	c.jal	926 <.L111+0x2>
     628:	0009c503          	lbu	x10,0(x19)
     62c:	ca00                	c.sw	x8,16(x12)
     62e:	0004                	0x4
     630:	1000                	c.addi4spn	x8,x2,32
     632:	5f42                	c.lwsp	x30,48(x2)
     634:	27010063          	beq	x2,x16,894 <.L90+0x1c>
     638:	0009be03          	0x9be03
     63c:	7d00                	c.flw	f8,56(x10)
     63e:	0005                	c.addi	x0,1
     640:	1000                	c.addi4spn	x8,x2,32
     642:	5f42                	c.lwsp	x30,48(x2)
     644:	27010073          	0x27010073
     648:	0009be03          	0x9be03
     64c:	bd00                	c.fsd	f8,56(x10)
     64e:	0005                	c.addi	x0,1
     650:	1000                	c.addi4spn	x8,x2,32
     652:	5f42                	c.lwsp	x30,48(x2)
     654:	0065                	c.addi	x0,25
     656:	2701                	c.jal	d56 <.LLST45+0x3>
     658:	0009be03          	0x9be03
     65c:	1500                	c.addi4spn	x8,x2,672
     65e:	0006                	c.slli	x0,0x1
     660:	0e00                	c.addi4spn	x8,x2,784
     662:	00b0                	c.addi4spn	x12,x2,72
     664:	0000                	c.unimp
     666:	2701                	c.jal	d66 <.LBB29+0x6>
     668:	0009c503          	lbu	x10,0(x19)
     66c:	cc00                	c.sw	x8,24(x8)
     66e:	0006                	c.slli	x0,0x1
     670:	0e00                	c.addi4spn	x8,x2,784
     672:	00b5                	c.addi	x1,13
     674:	0000                	c.unimp
     676:	2701                	c.jal	d76 <.LBB30+0x6>
     678:	0009c503          	lbu	x10,0(x19)
     67c:	4300                	c.lw	x8,0(x14)
     67e:	10000007          	0x10000007
     682:	5f52                	c.lwsp	x30,52(x2)
     684:	28010063          	beq	x2,x0,904 <.L94+0x20>
     688:	0009be03          	0x9be03
     68c:	bf00                	c.fsd	f8,56(x14)
     68e:	10000007          	0x10000007
     692:	5f52                	c.lwsp	x30,52(x2)
     694:	28010073          	0x28010073
     698:	0009be03          	0x9be03
     69c:	ea00                	c.fsw	f8,16(x12)
     69e:	10000007          	0x10000007
     6a2:	5f52                	c.lwsp	x30,52(x2)
     6a4:	0065                	c.addi	x0,25
     6a6:	2801                	c.jal	6b6 <.LASF31+0x1d>
     6a8:	0009be03          	0x9be03
     6ac:	5400                	c.lw	x8,40(x8)
     6ae:	0008                	0x8
     6b0:	0e00                	c.addi4spn	x8,x2,784
     6b2:	03fd                	c.addi	x7,31
     6b4:	0000                	c.unimp
     6b6:	2801                	c.jal	6c6 <.L82+0xa>
     6b8:	0009c503          	lbu	x10,0(x19)
     6bc:	e300                	c.fsw	f8,0(x14)
     6be:	0008                	0x8
     6c0:	0e00                	c.addi4spn	x8,x2,784
     6c2:	04c8                	c.addi4spn	x10,x2,580
     6c4:	0000                	c.unimp
     6c6:	2801                	c.jal	6d6 <.LLST11+0xa>
     6c8:	0009c503          	lbu	x10,0(x19)
     6cc:	e700                	c.fsw	f8,8(x14)
     6ce:	0009                	c.addi	x0,2
     6d0:	1100                	c.addi4spn	x8,x2,160
     6d2:	0072                	c.slli	x0,0x1c
     6d4:	2901                	c.jal	ae4 <.LVL1>
     6d6:	6a0a                	c.flwsp	f20,128(x2)
     6d8:	0000                	c.unimp
     6da:	1200                	c.addi4spn	x8,x2,288
     6dc:	0098                	c.addi4spn	x14,x2,64
     6de:	0000                	c.unimp
     6e0:	0249                	c.addi	x4,18
     6e2:	0000                	c.unimp
     6e4:	00009b13          	slli	x22,x1,0x0
     6e8:	0100                	c.addi4spn	x8,x2,128
     6ea:	032c                	c.addi4spn	x11,x2,392
     6ec:	00c0                	c.addi4spn	x8,x2,68
     6ee:	0000                	c.unimp
     6f0:	1200                	c.addi4spn	x8,x2,288
     6f2:	00d0                	c.addi4spn	x12,x2,68
     6f4:	0000                	c.unimp
     6f6:	0275                	c.addi	x4,29
     6f8:	0000                	c.unimp
     6fa:	d30e                	c.swsp	x3,164(x2)
     6fc:	0002                	c.slli64	x0
     6fe:	0100                	c.addi4spn	x8,x2,128
     700:	032c                	c.addi4spn	x11,x2,392
     702:	09be                	c.slli	x19,0xf
     704:	0000                	c.unimp
     706:	0a4c                	c.addi4spn	x11,x2,276
     708:	0000                	c.unimp
     70a:	a014                	c.fsd	f13,0(x8)
     70c:	dc00000b          	0xdc00000b
     710:	0009                	c.addi	x0,2
     712:	1400                	c.addi4spn	x8,x2,544
     714:	0bd8                	c.addi4spn	x14,x2,468
     716:	0000                	c.unimp
     718:	09dc                	c.addi4spn	x15,x2,212
     71a:	0000                	c.unimp
     71c:	1200                	c.addi4spn	x8,x2,288
     71e:	00e8                	c.addi4spn	x10,x2,76
     720:	0000                	c.unimp
     722:	0000028b          	0x28b
     726:	00009b13          	slli	x22,x1,0x0
     72a:	0100                	c.addi4spn	x8,x2,128
     72c:	032d                	c.addi	x6,11
     72e:	00c0                	c.addi4spn	x8,x2,68
     730:	0000                	c.unimp
     732:	1200                	c.addi4spn	x8,x2,288
     734:	0100                	c.addi4spn	x8,x2,128
     736:	0000                	c.unimp
     738:	000002b7          	lui	x5,0x0
     73c:	d30e                	c.swsp	x3,164(x2)
     73e:	0002                	c.slli64	x0
     740:	0100                	c.addi4spn	x8,x2,128
     742:	032d                	c.addi	x6,11
     744:	09be                	c.slli	x19,0xf
     746:	0000                	c.unimp
     748:	0a80                	c.addi4spn	x8,x2,336
     74a:	0000                	c.unimp
     74c:	3c14                	c.fld	f13,56(x8)
     74e:	000c                	0xc
     750:	dc00                	c.sw	x8,56(x8)
     752:	0009                	c.addi	x0,2
     754:	1400                	c.addi4spn	x8,x2,544
     756:	0c78                	c.addi4spn	x14,x2,540
     758:	0000                	c.unimp
     75a:	09dc                	c.addi4spn	x15,x2,212
     75c:	0000                	c.unimp
     75e:	1500                	c.addi4spn	x8,x2,672
     760:	0cc8                	c.addi4spn	x10,x2,596
     762:	0000                	c.unimp
     764:	025c                	c.addi4spn	x15,x2,260
     766:	0000                	c.unimp
     768:	0000086b          	0x86b
     76c:	600e                	c.flwsp	f0,192(x2)
     76e:	0004                	0x4
     770:	0100                	c.addi4spn	x8,x2,128
     772:	032e                	c.slli	x6,0xb
     774:	09cc                	c.addi4spn	x11,x2,212
     776:	0000                	c.unimp
     778:	0ab4                	c.addi4spn	x13,x2,344
     77a:	0000                	c.unimp
     77c:	1812                	c.slli	x16,0x24
     77e:	0001                	c.addi	x0,0
     780:	fe00                	c.fsw	f8,56(x12)
     782:	0e000007          	0xe000007
     786:	0490                	c.addi4spn	x12,x2,576
     788:	0000                	c.unimp
     78a:	2e01                	c.jal	a9a <.L6+0x6>
     78c:	0009c503          	lbu	x10,0(x19)
     790:	f100                	c.fsw	f8,32(x10)
     792:	000a                	c.slli	x0,0x2
     794:	0e00                	c.addi4spn	x8,x2,784
     796:	04ac                	c.addi4spn	x11,x2,584
     798:	0000                	c.unimp
     79a:	2e01                	c.jal	aaa <.LBB3+0x2>
     79c:	0009c503          	lbu	x10,0(x19)
     7a0:	0400                	c.addi4spn	x8,x2,512
     7a2:	0e00000b          	0xe00000b
     7a6:	00000397          	auipc	x7,0x0
     7aa:	2e01                	c.jal	aba <.LLST20+0x6>
     7ac:	0009c503          	lbu	x10,0(x19)
     7b0:	2200                	c.fld	f8,0(x12)
     7b2:	0e00000b          	0xe00000b
     7b6:	0431                	c.addi	x8,12
     7b8:	0000                	c.unimp
     7ba:	2e01                	c.jal	aca <.LBE4+0x6>
     7bc:	0009c503          	lbu	x10,0(x19)
     7c0:	3500                	c.fld	f8,40(x10)
     7c2:	1200000b          	0x1200000b
     7c6:	0130                	c.addi4spn	x12,x2,136
     7c8:	0000                	c.unimp
     7ca:	00000447          	fmsub.s	f8,f0,f0,f0,rne
     7ce:	780e                	c.flwsp	f16,224(x2)
     7d0:	0004                	0x4
     7d2:	0100                	c.addi4spn	x8,x2,128
     7d4:	032e                	c.slli	x6,0xb
     7d6:	09c5                	c.addi	x19,17
     7d8:	0000                	c.unimp
     7da:	00000b53          	fadd.s	f22,f0,f0,rne
     7de:	f30e                	c.fswsp	f3,164(x2)
     7e0:	01000003          	lb	x0,16(x0) # 10 <.LASF10+0x2>
     7e4:	032e                	c.slli	x6,0xb
     7e6:	09c5                	c.addi	x19,17
     7e8:	0000                	c.unimp
     7ea:	0b66                	c.slli	x22,0x19
     7ec:	0000                	c.unimp
     7ee:	ce0e                	c.swsp	x3,28(x2)
     7f0:	0002                	c.slli64	x0
     7f2:	0100                	c.addi4spn	x8,x2,128
     7f4:	032e                	c.slli	x6,0xb
     7f6:	09c5                	c.addi	x19,17
     7f8:	0000                	c.unimp
     7fa:	0b84                	c.addi4spn	x9,x2,464
     7fc:	0000                	c.unimp
     7fe:	f80e                	c.fswsp	f3,48(x2)
     800:	01000003          	lb	x0,16(x0) # 10 <.LASF10+0x2>
     804:	032e                	c.slli	x6,0xb
     806:	09c5                	c.addi	x19,17
     808:	0000                	c.unimp
     80a:	0ba2                	c.slli	x23,0x8
     80c:	0000                	c.unimp
     80e:	9a0e                	c.add	x20,x3
     810:	0002                	c.slli64	x0
     812:	0100                	c.addi4spn	x8,x2,128
     814:	032e                	c.slli	x6,0xb
     816:	0056                	c.slli	x0,0x15
     818:	0000                	c.unimp
     81a:	0bc0                	c.addi4spn	x8,x2,468
     81c:	0000                	c.unimp
     81e:	1a0e                	c.slli	x20,0x23
     820:	0004                	0x4
     822:	0100                	c.addi4spn	x8,x2,128
     824:	032e                	c.slli	x6,0xb
     826:	0056                	c.slli	x0,0x15
     828:	0000                	c.unimp
     82a:	00000bd3          	fadd.s	f23,f0,f0,rne
     82e:	950e                	c.add	x10,x3
     830:	0002                	c.slli64	x0
     832:	0100                	c.addi4spn	x8,x2,128
     834:	032e                	c.slli	x6,0xb
     836:	0056                	c.slli	x0,0x15
     838:	0000                	c.unimp
     83a:	0be6                	c.slli	x23,0x19
     83c:	0000                	c.unimp
     83e:	020e                	c.slli	x4,0x3
     840:	0004                	0x4
     842:	0100                	c.addi4spn	x8,x2,128
     844:	032e                	c.slli	x6,0xb
     846:	0056                	c.slli	x0,0x15
     848:	0000                	c.unimp
     84a:	0bf9                	c.addi	x23,30
     84c:	0000                	c.unimp
     84e:	e015                	c.bnez	x8,872 <.LLST15+0x1e>
     850:	000c                	0xc
     852:	1000                	c.addi4spn	x8,x2,32
     854:	0000                	c.unimp
     856:	d000                	c.sw	x8,32(x8)
     858:	16000003          	lb	x0,352(x0) # 160 <.LASF16+0x5>
     85c:	000002a7          	0x2a7
     860:	2e01                	c.jal	b70 <.LVL19>
     862:	0009c503          	lbu	x10,0(x19)
     866:	0100                	c.addi4spn	x8,x2,128
     868:	165a                	c.slli	x12,0x36
     86a:	02ad                	c.addi	x5,11
     86c:	0000                	c.unimp
     86e:	2e01                	c.jal	b7e <.LVL19+0xe>
     870:	0009c503          	lbu	x10,0(x19)
     874:	0100                	c.addi4spn	x8,x2,128
     876:	f015005b          	0xf015005b
     87a:	000c                	0xc
     87c:	1000                	c.addi4spn	x8,x2,32
     87e:	0000                	c.unimp
     880:	fa00                	c.fsw	f8,48(x12)
     882:	16000003          	lb	x0,352(x0) # 160 <.LASF16+0x5>
     886:	000002a7          	0x2a7
     88a:	2e01                	c.jal	b9a <.LBB17+0x6>
     88c:	0009c503          	lbu	x10,0(x19)
     890:	0100                	c.addi4spn	x8,x2,128
     892:	165a                	c.slli	x12,0x36
     894:	02ad                	c.addi	x5,11
     896:	0000                	c.unimp
     898:	2e01                	c.jal	ba8 <.LVL23+0x4>
     89a:	0009c503          	lbu	x10,0(x19)
     89e:	0100                	c.addi4spn	x8,x2,128
     8a0:	0015005b          	0x15005b
     8a4:	000d                	c.addi	x0,3
     8a6:	1000                	c.addi4spn	x8,x2,32
     8a8:	0000                	c.unimp
     8aa:	2400                	c.fld	f8,8(x8)
     8ac:	0004                	0x4
     8ae:	1600                	c.addi4spn	x8,x2,800
     8b0:	000002a7          	0x2a7
     8b4:	2e01                	c.jal	bc4 <.LVL25>
     8b6:	0009c503          	lbu	x10,0(x19)
     8ba:	0100                	c.addi4spn	x8,x2,128
     8bc:	165a                	c.slli	x12,0x36
     8be:	02ad                	c.addi	x5,11
     8c0:	0000                	c.unimp
     8c2:	2e01                	c.jal	bd2 <.LVL27+0x6>
     8c4:	0009c503          	lbu	x10,0(x19)
     8c8:	0100                	c.addi4spn	x8,x2,128
     8ca:	4817005b          	0x4817005b
     8ce:	0001                	c.addi	x0,0
     8d0:	1600                	c.addi4spn	x8,x2,800
     8d2:	000002a7          	0x2a7
     8d6:	2e01                	c.jal	be6 <.LLST31>
     8d8:	0009c503          	lbu	x10,0(x19)
     8dc:	0100                	c.addi4spn	x8,x2,128
     8de:	165a                	c.slli	x12,0x36
     8e0:	02ad                	c.addi	x5,11
     8e2:	0000                	c.unimp
     8e4:	2e01                	c.jal	bf4 <.L3+0x4>
     8e6:	0009c503          	lbu	x10,0(x19)
     8ea:	0100                	c.addi4spn	x8,x2,128
     8ec:	1200005b          	0x1200005b
     8f0:	0160                	c.addi4spn	x8,x2,140
     8f2:	0000                	c.unimp
     8f4:	0569                	c.addi	x10,26
     8f6:	0000                	c.unimp
     8f8:	780e                	c.flwsp	f16,224(x2)
     8fa:	0004                	0x4
     8fc:	0100                	c.addi4spn	x8,x2,128
     8fe:	032e                	c.slli	x6,0xb
     900:	09c5                	c.addi	x19,17
     902:	0000                	c.unimp
     904:	0c0c                	c.addi4spn	x11,x2,528
     906:	0000                	c.unimp
     908:	f30e                	c.fswsp	f3,164(x2)
     90a:	01000003          	lb	x0,16(x0) # 10 <.LASF10+0x2>
     90e:	032e                	c.slli	x6,0xb
     910:	09c5                	c.addi	x19,17
     912:	0000                	c.unimp
     914:	0c2a                	c.slli	x24,0xa
     916:	0000                	c.unimp
     918:	ce0e                	c.swsp	x3,28(x2)
     91a:	0002                	c.slli64	x0
     91c:	0100                	c.addi4spn	x8,x2,128
     91e:	032e                	c.slli	x6,0xb
     920:	09c5                	c.addi	x19,17
     922:	0000                	c.unimp
     924:	00000c53          	fadd.s	f24,f0,f0,rne
     928:	f80e                	c.fswsp	f3,48(x2)
     92a:	01000003          	lb	x0,16(x0) # 10 <.LASF10+0x2>
     92e:	032e                	c.slli	x6,0xb
     930:	09c5                	c.addi	x19,17
     932:	0000                	c.unimp
     934:	0c66                	c.slli	x24,0x19
     936:	0000                	c.unimp
     938:	00029a13          	slli	x20,x5,0x0
     93c:	0100                	c.addi4spn	x8,x2,128
     93e:	032e                	c.slli	x6,0xb
     940:	0056                	c.slli	x0,0x15
     942:	0000                	c.unimp
     944:	00041a13          	slli	x20,x8,0x0
     948:	0100                	c.addi4spn	x8,x2,128
     94a:	032e                	c.slli	x6,0xb
     94c:	0056                	c.slli	x0,0x15
     94e:	0000                	c.unimp
     950:	950e                	c.add	x10,x3
     952:	0002                	c.slli64	x0
     954:	0100                	c.addi4spn	x8,x2,128
     956:	032e                	c.slli	x6,0xb
     958:	0056                	c.slli	x0,0x15
     95a:	0000                	c.unimp
     95c:	0c84                	c.addi4spn	x9,x2,592
     95e:	0000                	c.unimp
     960:	020e                	c.slli	x4,0x3
     962:	0004                	0x4
     964:	0100                	c.addi4spn	x8,x2,128
     966:	032e                	c.slli	x6,0xb
     968:	0056                	c.slli	x0,0x15
     96a:	0000                	c.unimp
     96c:	00000c97          	auipc	x25,0x0
     970:	5015                	c.li	x0,-27
     972:	000d                	c.addi	x0,3
     974:	1000                	c.addi4spn	x8,x2,32
     976:	0000                	c.unimp
     978:	f200                	c.fsw	f8,32(x12)
     97a:	0004                	0x4
     97c:	1600                	c.addi4spn	x8,x2,800
     97e:	000002a7          	0x2a7
     982:	2e01                	c.jal	c92 <.L10+0x2>
     984:	0009c503          	lbu	x10,0(x19)
     988:	0100                	c.addi4spn	x8,x2,128
     98a:	165a                	c.slli	x12,0x36
     98c:	02ad                	c.addi	x5,11
     98e:	0000                	c.unimp
     990:	2e01                	c.jal	ca0 <.LVL57>
     992:	0009c503          	lbu	x10,0(x19)
     996:	0100                	c.addi4spn	x8,x2,128
     998:	6015005b          	0x6015005b
     99c:	000d                	c.addi	x0,3
     99e:	1000                	c.addi4spn	x8,x2,32
     9a0:	0000                	c.unimp
     9a2:	1c00                	c.addi4spn	x8,x2,560
     9a4:	0005                	c.addi	x0,1
     9a6:	1600                	c.addi4spn	x8,x2,800
     9a8:	000002a7          	0x2a7
     9ac:	2e01                	c.jal	cbc <.LVL62>
     9ae:	0009c503          	lbu	x10,0(x19)
     9b2:	0100                	c.addi4spn	x8,x2,128
     9b4:	165a                	c.slli	x12,0x36
     9b6:	02ad                	c.addi	x5,11
     9b8:	0000                	c.unimp
     9ba:	2e01                	c.jal	cca <.L16+0x2>
     9bc:	0009c503          	lbu	x10,0(x19)
     9c0:	0100                	c.addi4spn	x8,x2,128
     9c2:	7015005b          	0x7015005b
     9c6:	000d                	c.addi	x0,3
     9c8:	1000                	c.addi4spn	x8,x2,32
     9ca:	0000                	c.unimp
     9cc:	4600                	c.lw	x8,8(x12)
     9ce:	0005                	c.addi	x0,1
     9d0:	1600                	c.addi4spn	x8,x2,800
     9d2:	000002a7          	0x2a7
     9d6:	2e01                	c.jal	ce6 <.LLST41>
     9d8:	0009c503          	lbu	x10,0(x19)
     9dc:	0100                	c.addi4spn	x8,x2,128
     9de:	165a                	c.slli	x12,0x36
     9e0:	02ad                	c.addi	x5,11
     9e2:	0000                	c.unimp
     9e4:	2e01                	c.jal	cf4 <.LBB23+0x4>
     9e6:	0009c503          	lbu	x10,0(x19)
     9ea:	0100                	c.addi4spn	x8,x2,128
     9ec:	8017005b          	0x8017005b
     9f0:	0001                	c.addi	x0,0
     9f2:	1600                	c.addi4spn	x8,x2,800
     9f4:	000002a7          	0x2a7
     9f8:	2e01                	c.jal	d08 <.LLST42+0x4>
     9fa:	0009c503          	lbu	x10,0(x19)
     9fe:	0100                	c.addi4spn	x8,x2,128
     a00:	165a                	c.slli	x12,0x36
     a02:	02ad                	c.addi	x5,11
     a04:	0000                	c.unimp
     a06:	2e01                	c.jal	d16 <.LBB25+0x6>
     a08:	0009c503          	lbu	x10,0(x19)
     a0c:	0100                	c.addi4spn	x8,x2,128
     a0e:	1200005b          	0x1200005b
     a12:	0198                	c.addi4spn	x14,x2,192
     a14:	0000                	c.unimp
     a16:	0000068b          	0x68b
     a1a:	780e                	c.flwsp	f16,224(x2)
     a1c:	0004                	0x4
     a1e:	0100                	c.addi4spn	x8,x2,128
     a20:	032e                	c.slli	x6,0xb
     a22:	09c5                	c.addi	x19,17
     a24:	0000                	c.unimp
     a26:	0caa                	c.slli	x25,0xa
     a28:	0000                	c.unimp
     a2a:	f30e                	c.fswsp	f3,164(x2)
     a2c:	01000003          	lb	x0,16(x0) # 10 <.LASF10+0x2>
     a30:	032e                	c.slli	x6,0xb
     a32:	09c5                	c.addi	x19,17
     a34:	0000                	c.unimp
     a36:	0cc8                	c.addi4spn	x10,x2,596
     a38:	0000                	c.unimp
     a3a:	ce0e                	c.swsp	x3,28(x2)
     a3c:	0002                	c.slli64	x0
     a3e:	0100                	c.addi4spn	x8,x2,128
     a40:	032e                	c.slli	x6,0xb
     a42:	09c5                	c.addi	x19,17
     a44:	0000                	c.unimp
     a46:	0ce6                	c.slli	x25,0x19
     a48:	0000                	c.unimp
     a4a:	f80e                	c.fswsp	f3,48(x2)
     a4c:	01000003          	lb	x0,16(x0) # 10 <.LASF10+0x2>
     a50:	032e                	c.slli	x6,0xb
     a52:	09c5                	c.addi	x19,17
     a54:	0000                	c.unimp
     a56:	0d04                	c.addi4spn	x9,x2,656
     a58:	0000                	c.unimp
     a5a:	00029a13          	slli	x20,x5,0x0
     a5e:	0100                	c.addi4spn	x8,x2,128
     a60:	032e                	c.slli	x6,0xb
     a62:	0056                	c.slli	x0,0x15
     a64:	0000                	c.unimp
     a66:	00041a13          	slli	x20,x8,0x0
     a6a:	0100                	c.addi4spn	x8,x2,128
     a6c:	032e                	c.slli	x6,0xb
     a6e:	0056                	c.slli	x0,0x15
     a70:	0000                	c.unimp
     a72:	950e                	c.add	x10,x3
     a74:	0002                	c.slli64	x0
     a76:	0100                	c.addi4spn	x8,x2,128
     a78:	032e                	c.slli	x6,0xb
     a7a:	0056                	c.slli	x0,0x15
     a7c:	0000                	c.unimp
     a7e:	0d22                	c.slli	x26,0x8
     a80:	0000                	c.unimp
     a82:	020e                	c.slli	x4,0x3
     a84:	0004                	0x4
     a86:	0100                	c.addi4spn	x8,x2,128
     a88:	032e                	c.slli	x6,0xb
     a8a:	0056                	c.slli	x0,0x15
     a8c:	0000                	c.unimp
     a8e:	0d40                	c.addi4spn	x8,x2,660
     a90:	0000                	c.unimp
     a92:	d415                	c.beqz	x8,9be <__ledf2+0x2>
     a94:	000d                	c.addi	x0,3
     a96:	1000                	c.addi4spn	x8,x2,32
     a98:	0000                	c.unimp
     a9a:	1400                	c.addi4spn	x8,x2,544
     a9c:	0006                	c.slli	x0,0x1
     a9e:	1600                	c.addi4spn	x8,x2,800
     aa0:	000002a7          	0x2a7
     aa4:	2e01                	c.jal	db4 <.LVL91>
     aa6:	0009c503          	lbu	x10,0(x19)
     aaa:	0100                	c.addi4spn	x8,x2,128
     aac:	165a                	c.slli	x12,0x36
     aae:	02ad                	c.addi	x5,11
     ab0:	0000                	c.unimp
     ab2:	2e01                	c.jal	dc2 <.LVL93+0x2>
     ab4:	0009c503          	lbu	x10,0(x19)
     ab8:	0100                	c.addi4spn	x8,x2,128
     aba:	e415005b          	0xe415005b
     abe:	000d                	c.addi	x0,3
     ac0:	1000                	c.addi4spn	x8,x2,32
     ac2:	0000                	c.unimp
     ac4:	3e00                	c.fld	f8,56(x12)
     ac6:	0006                	c.slli	x0,0x1
     ac8:	1600                	c.addi4spn	x8,x2,800
     aca:	000002a7          	0x2a7
     ace:	2e01                	c.jal	dde <.LBB36+0xa>
     ad0:	0009c503          	lbu	x10,0(x19)
     ad4:	0100                	c.addi4spn	x8,x2,128
     ad6:	165a                	c.slli	x12,0x36
     ad8:	02ad                	c.addi	x5,11
     ada:	0000                	c.unimp
     adc:	2e01                	c.jal	dec <.LVL99>
     ade:	0009c503          	lbu	x10,0(x19)
     ae2:	0100                	c.addi4spn	x8,x2,128
     ae4:	f415005b          	0xf415005b
     ae8:	000d                	c.addi	x0,3
     aea:	1000                	c.addi4spn	x8,x2,32
     aec:	0000                	c.unimp
     aee:	6800                	c.flw	f8,16(x8)
     af0:	0006                	c.slli	x0,0x1
     af2:	1600                	c.addi4spn	x8,x2,800
     af4:	000002a7          	0x2a7
     af8:	2e01                	c.jal	e08 <.LBB39+0x4>
     afa:	0009c503          	lbu	x10,0(x19)
     afe:	0100                	c.addi4spn	x8,x2,128
     b00:	165a                	c.slli	x12,0x36
     b02:	02ad                	c.addi	x5,11
     b04:	0000                	c.unimp
     b06:	2e01                	c.jal	e16 <.LLST51+0x4>
     b08:	0009c503          	lbu	x10,0(x19)
     b0c:	0100                	c.addi4spn	x8,x2,128
     b0e:	b017005b          	0xb017005b
     b12:	0001                	c.addi	x0,0
     b14:	1600                	c.addi4spn	x8,x2,800
     b16:	000002a7          	0x2a7
     b1a:	2e01                	c.jal	e2a <.L25+0x2>
     b1c:	0009c503          	lbu	x10,0(x19)
     b20:	0100                	c.addi4spn	x8,x2,128
     b22:	165a                	c.slli	x12,0x36
     b24:	02ad                	c.addi	x5,11
     b26:	0000                	c.unimp
     b28:	2e01                	c.jal	e38 <.LVL107>
     b2a:	0009c503          	lbu	x10,0(x19)
     b2e:	0100                	c.addi4spn	x8,x2,128
     b30:	1200005b          	0x1200005b
     b34:	01c8                	c.addi4spn	x10,x2,196
     b36:	0000                	c.unimp
     b38:	07ad                	c.addi	x15,11
     b3a:	0000                	c.unimp
     b3c:	780e                	c.flwsp	f16,224(x2)
     b3e:	0004                	0x4
     b40:	0100                	c.addi4spn	x8,x2,128
     b42:	032e                	c.slli	x6,0xb
     b44:	09c5                	c.addi	x19,17
     b46:	0000                	c.unimp
     b48:	00000d53          	fadd.s	f26,f0,f0,rne
     b4c:	f30e                	c.fswsp	f3,164(x2)
     b4e:	01000003          	lb	x0,16(x0) # 10 <.LASF10+0x2>
     b52:	032e                	c.slli	x6,0xb
     b54:	09c5                	c.addi	x19,17
     b56:	0000                	c.unimp
     b58:	0d7c                	c.addi4spn	x15,x2,668
     b5a:	0000                	c.unimp
     b5c:	ce0e                	c.swsp	x3,28(x2)
     b5e:	0002                	c.slli64	x0
     b60:	0100                	c.addi4spn	x8,x2,128
     b62:	032e                	c.slli	x6,0xb
     b64:	09c5                	c.addi	x19,17
     b66:	0000                	c.unimp
     b68:	0da5                	c.addi	x27,9
     b6a:	0000                	c.unimp
     b6c:	f80e                	c.fswsp	f3,48(x2)
     b6e:	01000003          	lb	x0,16(x0) # 10 <.LASF10+0x2>
     b72:	032e                	c.slli	x6,0xb
     b74:	09c5                	c.addi	x19,17
     b76:	0000                	c.unimp
     b78:	00000dc3          	fmadd.s	f27,f0,f0,f0,rne
     b7c:	00029a13          	slli	x20,x5,0x0
     b80:	0100                	c.addi4spn	x8,x2,128
     b82:	032e                	c.slli	x6,0xb
     b84:	0056                	c.slli	x0,0x15
     b86:	0000                	c.unimp
     b88:	00041a13          	slli	x20,x8,0x0
     b8c:	0100                	c.addi4spn	x8,x2,128
     b8e:	032e                	c.slli	x6,0xb
     b90:	0056                	c.slli	x0,0x15
     b92:	0000                	c.unimp
     b94:	950e                	c.add	x10,x3
     b96:	0002                	c.slli64	x0
     b98:	0100                	c.addi4spn	x8,x2,128
     b9a:	032e                	c.slli	x6,0xb
     b9c:	0056                	c.slli	x0,0x15
     b9e:	0000                	c.unimp
     ba0:	0de1                	c.addi	x27,24
     ba2:	0000                	c.unimp
     ba4:	020e                	c.slli	x4,0x3
     ba6:	0004                	0x4
     ba8:	0100                	c.addi4spn	x8,x2,128
     baa:	032e                	c.slli	x6,0xb
     bac:	0056                	c.slli	x0,0x15
     bae:	0000                	c.unimp
     bb0:	0dff                	0xdff
     bb2:	0000                	c.unimp
     bb4:	4815                	c.li	x16,5
     bb6:	000e                	c.slli	x0,0x3
     bb8:	1000                	c.addi4spn	x8,x2,32
     bba:	0000                	c.unimp
     bbc:	3600                	c.fld	f8,40(x12)
     bbe:	16000007          	0x16000007
     bc2:	000002a7          	0x2a7
     bc6:	2e01                	c.jal	ed6 <.LBB55+0x2>
     bc8:	0009c503          	lbu	x10,0(x19)
     bcc:	0100                	c.addi4spn	x8,x2,128
     bce:	165a                	c.slli	x12,0x36
     bd0:	02ad                	c.addi	x5,11
     bd2:	0000                	c.unimp
     bd4:	2e01                	c.jal	ee4 <.LBB58>
     bd6:	0009c503          	lbu	x10,0(x19)
     bda:	0100                	c.addi4spn	x8,x2,128
     bdc:	5815005b          	0x5815005b
     be0:	000e                	c.slli	x0,0x3
     be2:	1000                	c.addi4spn	x8,x2,32
     be4:	0000                	c.unimp
     be6:	6000                	c.flw	f8,0(x8)
     be8:	16000007          	0x16000007
     bec:	000002a7          	0x2a7
     bf0:	2e01                	c.jal	f00 <.LVL130>
     bf2:	0009c503          	lbu	x10,0(x19)
     bf6:	0100                	c.addi4spn	x8,x2,128
     bf8:	165a                	c.slli	x12,0x36
     bfa:	02ad                	c.addi	x5,11
     bfc:	0000                	c.unimp
     bfe:	2e01                	c.jal	f0e <.LBB62+0x6>
     c00:	0009c503          	lbu	x10,0(x19)
     c04:	0100                	c.addi4spn	x8,x2,128
     c06:	6815005b          	0x6815005b
     c0a:	000e                	c.slli	x0,0x3
     c0c:	1000                	c.addi4spn	x8,x2,32
     c0e:	0000                	c.unimp
     c10:	8a00                	0x8a00
     c12:	16000007          	0x16000007
     c16:	000002a7          	0x2a7
     c1a:	2e01                	c.jal	f2a <.LBE19+0x6>
     c1c:	0009c503          	lbu	x10,0(x19)
     c20:	0100                	c.addi4spn	x8,x2,128
     c22:	165a                	c.slli	x12,0x36
     c24:	02ad                	c.addi	x5,11
     c26:	0000                	c.unimp
     c28:	2e01                	c.jal	f38 <.LVL136>
     c2a:	0009c503          	lbu	x10,0(x19)
     c2e:	0100                	c.addi4spn	x8,x2,128
     c30:	f017005b          	0xf017005b
     c34:	0001                	c.addi	x0,0
     c36:	1600                	c.addi4spn	x8,x2,800
     c38:	000002a7          	0x2a7
     c3c:	2e01                	c.jal	f4c <.LVL139>
     c3e:	0009c503          	lbu	x10,0(x19)
     c42:	0100                	c.addi4spn	x8,x2,128
     c44:	165a                	c.slli	x12,0x36
     c46:	02ad                	c.addi	x5,11
     c48:	0000                	c.unimp
     c4a:	2e01                	c.jal	f5a <.LLST59+0xb>
     c4c:	0009c503          	lbu	x10,0(x19)
     c50:	0100                	c.addi4spn	x8,x2,128
     c52:	1200005b          	0x1200005b
     c56:	0208                	c.addi4spn	x10,x2,256
     c58:	0000                	c.unimp
     c5a:	000007d7          	0x7d7
     c5e:	7d0e                	c.flwsp	f26,224(x2)
     c60:	0004                	0x4
     c62:	0100                	c.addi4spn	x8,x2,128
     c64:	032e                	c.slli	x6,0xb
     c66:	09c5                	c.addi	x19,17
     c68:	0000                	c.unimp
     c6a:	0e12                	c.slli	x28,0x4
     c6c:	0000                	c.unimp
     c6e:	4d0e                	c.lwsp	x26,192(x2)
     c70:	0004                	0x4
     c72:	0100                	c.addi4spn	x8,x2,128
     c74:	032e                	c.slli	x6,0xb
     c76:	09c5                	c.addi	x19,17
     c78:	0000                	c.unimp
     c7a:	0e25                	c.addi	x28,9
     c7c:	0000                	c.unimp
     c7e:	1700                	c.addi4spn	x8,x2,928
     c80:	0238                	c.addi4spn	x14,x2,264
     c82:	0000                	c.unimp
     c84:	7d0e                	c.flwsp	f26,224(x2)
     c86:	0004                	0x4
     c88:	0100                	c.addi4spn	x8,x2,128
     c8a:	032e                	c.slli	x6,0xb
     c8c:	09c5                	c.addi	x19,17
     c8e:	0000                	c.unimp
     c90:	0e71                	c.addi	x28,28
     c92:	0000                	c.unimp
     c94:	4d0e                	c.lwsp	x26,192(x2)
     c96:	0004                	0x4
     c98:	0100                	c.addi4spn	x8,x2,128
     c9a:	032e                	c.slli	x6,0xb
     c9c:	09c5                	c.addi	x19,17
     c9e:	0000                	c.unimp
     ca0:	0e84                	c.addi4spn	x9,x2,848
     ca2:	0000                	c.unimp
     ca4:	0000                	c.unimp
     ca6:	00025017          	auipc	x0,0x25
     caa:	0e00                	c.addi4spn	x8,x2,784
     cac:	032e                	c.slli	x6,0xb
     cae:	0000                	c.unimp
     cb0:	2e01                	c.jal	fc0 <.LLST0>
     cb2:	00002c03          	lw	x24,0(x0) # 0 <.Ldebug_info0>
     cb6:	d000                	c.sw	x8,32(x8)
     cb8:	000e                	c.slli	x0,0x3
     cba:	1700                	c.addi4spn	x8,x2,928
     cbc:	0268                	c.addi4spn	x10,x2,268
     cbe:	0000                	c.unimp
     cc0:	070e                	c.slli	x14,0x3
     cc2:	0004                	0x4
     cc4:	0100                	c.addi4spn	x8,x2,128
     cc6:	032e                	c.slli	x6,0xb
     cc8:	09be                	c.slli	x19,0xf
     cca:	0000                	c.unimp
     ccc:	00000eef          	jal	x29,ccc <.LVL65>
     cd0:	440e                	c.lwsp	x8,192(x2)
     cd2:	01000003          	lb	x0,16(x0) # 10 <.LASF10+0x2>
     cd6:	032e                	c.slli	x6,0xb
     cd8:	09be                	c.slli	x19,0xf
     cda:	0000                	c.unimp
     cdc:	00000f0f          	0xf0f
     ce0:	6b0e                	c.flwsp	f22,192(x2)
     ce2:	01000003          	lb	x0,16(x0) # 10 <.LASF10+0x2>
     ce6:	032e                	c.slli	x6,0xb
     ce8:	09be                	c.slli	x19,0xf
     cea:	0000                	c.unimp
     cec:	00000f2f          	0xf2f
     cf0:	590e                	c.lwsp	x18,224(x2)
     cf2:	01000003          	lb	x0,16(x0) # 10 <.LASF10+0x2>
     cf6:	032e                	c.slli	x6,0xb
     cf8:	09be                	c.slli	x19,0xf
     cfa:	0000                	c.unimp
     cfc:	00000f4f          	fnmadd.s	f30,f0,f0,f0,rne
     d00:	b30e                	c.fsdsp	f3,416(x2)
     d02:	01000003          	lb	x0,16(x0) # 10 <.LASF10+0x2>
     d06:	032e                	c.slli	x6,0xb
     d08:	09c5                	c.addi	x19,17
     d0a:	0000                	c.unimp
     d0c:	00000f63          	beq	x0,x0,d2a <.LBB26+0x2>
     d10:	0000                	c.unimp
     d12:	1500                	c.addi4spn	x8,x2,672
     d14:	0f64                	c.addi4spn	x9,x2,924
     d16:	0000                	c.unimp
     d18:	0010                	0x10
     d1a:	0000                	c.unimp
     d1c:	0889                	c.addi	x17,2
     d1e:	0000                	c.unimp
     d20:	5f10                	c.lw	x12,56(x14)
     d22:	785f 0100 032f      	0x32f0100785f
     d28:	09c5                	c.addi	x19,17
     d2a:	0000                	c.unimp
     d2c:	0f9a                	c.slli	x31,0x6
     d2e:	0000                	c.unimp
     d30:	1800                	c.addi4spn	x8,x2,48
     d32:	0000089b          	0x89b
     d36:	5f11                	c.li	x30,-28
     d38:	785f 0100 032f      	0x32f0100785f
     d3e:	09c5                	c.addi	x19,17
     d40:	0000                	c.unimp
     d42:	1800                	c.addi4spn	x8,x2,48
     d44:	08ad                	c.addi	x17,11
     d46:	0000                	c.unimp
     d48:	5f11                	c.li	x30,-28
     d4a:	785f 0100 032f      	0x32f0100785f
     d50:	09c5                	c.addi	x19,17
     d52:	0000                	c.unimp
     d54:	1200                	c.addi4spn	x8,x2,288
     d56:	02a0                	c.addi4spn	x8,x2,328
     d58:	0000                	c.unimp
     d5a:	000009ab          	0x9ab
     d5e:	0002b313          	sltiu	x6,x5,0
     d62:	0100                	c.addi4spn	x8,x2,128
     d64:	002c032f          	0x2c032f
     d68:	0000                	c.unimp
     d6a:	3618                	c.fld	f14,40(x12)
     d6c:	0009                	c.addi	x0,2
     d6e:	1300                	c.addi4spn	x8,x2,416
     d70:	03c5                	c.addi	x7,17
     d72:	0000                	c.unimp
     d74:	2f01                	c.jal	1484 <.LVL101>
     d76:	0009be03          	0x9be03
     d7a:	1300                	c.addi4spn	x8,x2,416
     d7c:	0380                	c.addi4spn	x8,x2,448
     d7e:	0000                	c.unimp
     d80:	2f01                	c.jal	1490 <.LVL103>
     d82:	0009be03          	0x9be03
     d86:	1300                	c.addi4spn	x8,x2,416
     d88:	03dc                	c.addi4spn	x15,x2,452
     d8a:	0000                	c.unimp
     d8c:	2f01                	c.jal	149c <.L117>
     d8e:	0009be03          	0x9be03
     d92:	1300                	c.addi4spn	x8,x2,416
     d94:	0265                	c.addi	x4,25
     d96:	0000                	c.unimp
     d98:	2f01                	c.jal	14a8 <.L27+0x4>
     d9a:	0009c503          	lbu	x10,0(x19)
     d9e:	1300                	c.addi4spn	x8,x2,416
     da0:	027d                	c.addi	x4,31
     da2:	0000                	c.unimp
     da4:	2f01                	c.jal	14b4 <.L29+0x8>
     da6:	0009c503          	lbu	x10,0(x19)
     daa:	1800                	c.addi4spn	x8,x2,48
     dac:	0915                	c.addi	x18,5
     dae:	0000                	c.unimp
     db0:	5f11                	c.li	x30,-28
     db2:	785f 0100 032f      	0x32f0100785f
     db8:	09c5                	c.addi	x19,17
     dba:	0000                	c.unimp
     dbc:	1800                	c.addi4spn	x8,x2,48
     dbe:	00000927          	0x927
     dc2:	5f11                	c.li	x30,-28
     dc4:	785f 0100 032f      	0x32f0100785f
     dca:	09c5                	c.addi	x19,17
     dcc:	0000                	c.unimp
     dce:	1900                	c.addi4spn	x8,x2,176
     dd0:	5f11                	c.li	x30,-28
     dd2:	785f 0100 032f      	0x32f0100785f
     dd8:	09c5                	c.addi	x19,17
     dda:	0000                	c.unimp
     ddc:	0000                	c.unimp
     dde:	8c15                	c.sub	x8,x13
     de0:	0010                	0x10
     de2:	1000                	c.addi4spn	x8,x2,32
     de4:	0000                	c.unimp
     de6:	5400                	c.lw	x8,40(x8)
     de8:	0009                	c.addi	x0,2
     dea:	1000                	c.addi4spn	x8,x2,32
     dec:	5f5f 0078 2f01      	0x2f0100785f5f
     df2:	0009c503          	lbu	x10,0(x19)
     df6:	ad00                	c.fsd	f8,24(x10)
     df8:	0000000f          	fence	unknown,unknown
     dfc:	6618                	c.flw	f14,8(x12)
     dfe:	0009                	c.addi	x0,2
     e00:	1100                	c.addi4spn	x8,x2,160
     e02:	5f5f 0078 2f01      	0x2f0100785f5f
     e08:	0009c503          	lbu	x10,0(x19)
     e0c:	0000                	c.unimp
     e0e:	7818                	c.flw	f14,48(x8)
     e10:	0009                	c.addi	x0,2
     e12:	1100                	c.addi4spn	x8,x2,160
     e14:	5f5f 0078 2f01      	0x2f0100785f5f
     e1a:	0009c503          	lbu	x10,0(x19)
     e1e:	0000                	c.unimp
     e20:	8a18                	0x8a18
     e22:	0009                	c.addi	x0,2
     e24:	1100                	c.addi4spn	x8,x2,160
     e26:	5f5f 0078 2f01      	0x2f0100785f5f
     e2c:	0009c503          	lbu	x10,0(x19)
     e30:	0000                	c.unimp
     e32:	9c18                	0x9c18
     e34:	0009                	c.addi	x0,2
     e36:	1100                	c.addi4spn	x8,x2,160
     e38:	5f5f 0078 2f01      	0x2f0100785f5f
     e3e:	0009c503          	lbu	x10,0(x19)
     e42:	0000                	c.unimp
     e44:	1119                	c.addi	x2,-26
     e46:	5f5f 0078 2f01      	0x2f0100785f5f
     e4c:	0009c503          	lbu	x10,0(x19)
     e50:	0000                	c.unimp
     e52:	1700                	c.addi4spn	x8,x2,928
     e54:	0288                	c.addi4spn	x10,x2,320
     e56:	0000                	c.unimp
     e58:	0002ee13          	ori	x28,x5,0
     e5c:	0100                	c.addi4spn	x8,x2,128
     e5e:	00c0032f          	0xc0032f
     e62:	0000                	c.unimp
     e64:	0000                	c.unimp
     e66:	0402                	c.slli64	x8
     e68:	4105                	c.li	x2,1
     e6a:	0001                	c.addi	x0,0
     e6c:	0200                	c.addi4spn	x8,x2,256
     e6e:	0704                	c.addi4spn	x9,x2,896
     e70:	000000bf 0009c51a 	0x9c51a000000bf
     e78:	dc00                	c.sw	x8,56(x8)
     e7a:	0009                	c.addi	x0,2
     e7c:	1b00                	c.addi4spn	x8,x2,432
     e7e:	0048                	c.addi4spn	x10,x2,4
     e80:	0000                	c.unimp
     e82:	1f1c0003          	lb	x0,497(x24)
     e86:	0004                	0x4
     e88:	1f00                	c.addi4spn	x8,x2,944
     e8a:	0004                	0x4
	...

00000e8e <.Ldebug_info0>:
     e8e:	057d                	c.addi	x10,31
     e90:	0000                	c.unimp
     e92:	0004                	0x4
     e94:	0000043f 015b0104 	0x15b01040000043f
     e9c:	0000                	c.unimp
     e9e:	bc0c                	c.fsd	f11,56(x8)
     ea0:	0005                	c.addi	x0,1
     ea2:	d100                	c.sw	x8,32(x10)
     ea4:	0000                	c.unimp
     ea6:	2800                	c.fld	f8,16(x8)
     ea8:	0011                	c.addi	x0,4
     eaa:	ec00                	c.fsw	f8,24(x8)
     eac:	48000007          	0x48000007
     eb0:	0015                	c.addi	x0,5
     eb2:	0200                	c.addi4spn	x8,x2,256
     eb4:	0408                	c.addi4spn	x10,x2,512
     eb6:	00000763          	beq	x0,x0,ec4 <.LBB54>
     eba:	69050403          	lb	x8,1680(x10)
     ebe:	746e                	c.flwsp	f8,248(x2)
     ec0:	0200                	c.addi4spn	x8,x2,256
     ec2:	0601                	c.addi	x12,0
     ec4:	001d                	c.addi	x0,7
     ec6:	0000                	c.unimp
     ec8:	0802                	c.slli64	x16
     eca:	3c05                	c.jal	8fa <.L94+0x16>
     ecc:	0001                	c.addi	x0,0
     ece:	0200                	c.addi4spn	x8,x2,256
     ed0:	0801                	c.addi	x16,0
     ed2:	0000001b          	0x1b
     ed6:	0402                	c.slli64	x8
     ed8:	0000c407          	flq	f8,0(x1)
     edc:	0200                	c.addi4spn	x8,x2,256
     ede:	0708                	c.addi4spn	x10,x2,896
     ee0:	00ba                	c.slli	x1,0xe
     ee2:	0000                	c.unimp
     ee4:	0202                	c.slli64	x4
     ee6:	00006807          	0x6807
     eea:	0400                	c.addi4spn	x8,x2,512
     eec:	0014                	0x14
     eee:	0000                	c.unimp
     ef0:	4802                	c.lwsp	x16,0(x2)
     ef2:	0000250f          	0x250f
     ef6:	0500                	c.addi4spn	x8,x2,640
     ef8:	0208                	c.addi4spn	x10,x2,256
     efa:	00b3034f          	fnmadd.s	f6,f6,f11,f0,rne
     efe:	0000                	c.unimp
     f00:	0806                	c.slli	x16,0x1
     f02:	0000                	c.unimp
     f04:	0200                	c.addi4spn	x8,x2,256
     f06:	00480e57          	0x480e57
     f0a:	0000                	c.unimp
     f0c:	2004                	c.fld	f9,0(x8)
     f0e:	0000                	c.unimp
     f10:	0e06                	c.slli	x28,0x1
     f12:	0000                	c.unimp
     f14:	0200                	c.addi4spn	x8,x2,256
     f16:	0e58                	c.addi4spn	x14,x2,788
     f18:	0048                	c.addi4spn	x10,x2,4
     f1a:	0000                	c.unimp
     f1c:	1404                	c.addi4spn	x9,x2,544
     f1e:	040c                	c.addi4spn	x11,x2,512
     f20:	70786507          	0x70786507
     f24:	0200                	c.addi4spn	x8,x2,256
     f26:	0e59                	c.addi	x28,22
     f28:	0048                	c.addi4spn	x10,x2,4
     f2a:	0000                	c.unimp
     f2c:	0b04                	c.addi4spn	x9,x2,400
     f2e:	0401                	c.addi	x8,0
     f30:	6306                	c.flwsp	f6,64(x2)
     f32:	0000                	c.unimp
     f34:	0200                	c.addi4spn	x8,x2,256
     f36:	0e5a                	c.slli	x28,0x16
     f38:	0048                	c.addi4spn	x10,x2,4
     f3a:	0000                	c.unimp
     f3c:	0104                	c.addi4spn	x9,x2,128
     f3e:	0400                	c.addi4spn	x8,x2,512
     f40:	0800                	c.addi4spn	x8,x2,16
     f42:	014a                	c.slli	x2,0x12
     f44:	0000                	c.unimp
     f46:	0208                	c.addi4spn	x10,x2,256
     f48:	074c                	c.addi4spn	x11,x2,900
     f4a:	00d9                	c.addi	x1,22
     f4c:	0000                	c.unimp
     f4e:	6609                	c.lui	x12,0x2
     f50:	746c                	c.flw	f11,108(x8)
     f52:	0200                	c.addi4spn	x8,x2,256
     f54:	0a4e                	c.slli	x20,0x13
     f56:	005d                	c.addi	x0,23
     f58:	0000                	c.unimp
     f5a:	560a                	c.lwsp	x12,160(x2)
     f5c:	0001                	c.addi	x0,0
     f5e:	0200                	c.addi4spn	x8,x2,256
     f60:	055c                	c.addi4spn	x15,x2,644
     f62:	0069                	c.addi	x0,26
     f64:	0000                	c.unimp
     f66:	0b00                	c.addi4spn	x8,x2,400
     f68:	0514                	c.addi4spn	x13,x2,640
     f6a:	0000                	c.unimp
     f6c:	2301                	c.jal	146c <.LVL97>
     f6e:	5d01                	c.li	x26,-32
     f70:	0000                	c.unimp
     f72:	2800                	c.fld	f8,16(x8)
     f74:	0011                	c.addi	x0,4
     f76:	ec00                	c.fsw	f8,24(x8)
     f78:	01000007          	0x1000007
     f7c:	699c                	c.flw	f15,16(x11)
     f7e:	0005                	c.addi	x0,1
     f80:	0c00                	c.addi4spn	x8,x2,528
     f82:	0061                	c.addi	x0,24
     f84:	2301                	c.jal	1484 <.LVL101>
     f86:	5d12                	c.lwsp	x26,36(x2)
     f88:	0000                	c.unimp
     f8a:	c000                	c.sw	x8,0(x8)
     f8c:	0c00000f          	fence	io,unknown
     f90:	0062                	c.slli	x0,0x18
     f92:	2301                	c.jal	1492 <.LVL103+0x2>
     f94:	5d1c                	c.lw	x15,56(x10)
     f96:	0000                	c.unimp
     f98:	e800                	c.fsw	f8,16(x8)
     f9a:	0d00000f          	fence	iow,unknown
     f9e:	0080                	c.addi4spn	x8,x2,64
     fa0:	0000                	c.unimp
     fa2:	2501                	c.jal	15a2 <.L36+0x6>
     fa4:	00002c03          	lw	x24,0(x0) # 0 <.Ldebug_info0>
     fa8:	1000                	c.addi4spn	x8,x2,32
     faa:	0010                	0x10
     fac:	0e00                	c.addi4spn	x8,x2,784
     fae:	0208                	c.addi4spn	x10,x2,256
     fb0:	0000                	c.unimp
     fb2:	2501                	c.jal	15b2 <.LVL139+0x2>
     fb4:	00002c03          	lw	x24,0(x0) # 0 <.Ldebug_info0>
     fb8:	0000                	c.unimp
     fba:	635f410f          	0x635f410f
     fbe:	0100                	c.addi4spn	x8,x2,128
     fc0:	0326                	c.slli	x6,0x9
     fc2:	0569                	c.addi	x10,26
     fc4:	0000                	c.unimp
     fc6:	4110                	c.lw	x12,0(x10)
     fc8:	735f 0100 0326      	0x3260100735f
     fce:	0569                	c.addi	x10,26
     fd0:	0000                	c.unimp
     fd2:	1060                	c.addi4spn	x8,x2,44
     fd4:	0000                	c.unimp
     fd6:	4110                	c.lw	x12,0(x10)
     fd8:	655f 0100 0326      	0x3260100655f
     fde:	0569                	c.addi	x10,26
     fe0:	0000                	c.unimp
     fe2:	1102                	c.slli	x2,0x20
     fe4:	0000                	c.unimp
     fe6:	960d                	c.srai	x12,0x23
     fe8:	0000                	c.unimp
     fea:	0100                	c.addi4spn	x8,x2,128
     fec:	0326                	c.slli	x6,0x9
     fee:	0570                	c.addi4spn	x12,x2,652
     ff0:	0000                	c.unimp
     ff2:	000011f3          	csrrw	x3,ustatus,x0
     ff6:	7b0d                	c.lui	x22,0xfffe3
     ff8:	0000                	c.unimp
     ffa:	0100                	c.addi4spn	x8,x2,128
     ffc:	0326                	c.slli	x6,0x9
     ffe:	0570                	c.addi4spn	x12,x2,652
    1000:	0000                	c.unimp
    1002:	1350                	c.addi4spn	x12,x2,420
    1004:	0000                	c.unimp
    1006:	635f420f          	0x635f420f
    100a:	0100                	c.addi4spn	x8,x2,128
    100c:	05690327          	0x5690327
    1010:	0000                	c.unimp
    1012:	4210                	c.lw	x12,0(x12)
    1014:	735f 0100 0327      	0x3270100735f
    101a:	0569                	c.addi	x10,26
    101c:	0000                	c.unimp
    101e:	14b5                	c.addi	x9,-19
    1020:	0000                	c.unimp
    1022:	4210                	c.lw	x12,0(x12)
    1024:	655f 0100 0327      	0x3270100655f
    102a:	0569                	c.addi	x10,26
    102c:	0000                	c.unimp
    102e:	0000153b          	0x153b
    1032:	b00d                	c.j	854 <.LLST15>
    1034:	0000                	c.unimp
    1036:	0100                	c.addi4spn	x8,x2,128
    1038:	05700327          	0x5700327
    103c:	0000                	c.unimp
    103e:	157a                	c.slli	x10,0x3e
    1040:	0000                	c.unimp
    1042:	b50d                	c.j	e64 <.LVL113+0x4>
    1044:	0000                	c.unimp
    1046:	0100                	c.addi4spn	x8,x2,128
    1048:	05700327          	0x5700327
    104c:	0000                	c.unimp
    104e:	168a                	c.slli	x13,0x22
    1050:	0000                	c.unimp
    1052:	635f520f          	0x635f520f
    1056:	0100                	c.addi4spn	x8,x2,128
    1058:	0328                	c.addi4spn	x10,x2,392
    105a:	0569                	c.addi	x10,26
    105c:	0000                	c.unimp
    105e:	5210                	c.lw	x12,32(x12)
    1060:	735f 0100 0328      	0x3280100735f
    1066:	0569                	c.addi	x10,26
    1068:	0000                	c.unimp
    106a:	00001713          	slli	x14,x0,0x0
    106e:	5210                	c.lw	x12,32(x12)
    1070:	655f 0100 0328      	0x3280100655f
    1076:	0569                	c.addi	x10,26
    1078:	0000                	c.unimp
    107a:	17c0                	c.addi4spn	x8,x2,996
    107c:	0000                	c.unimp
    107e:	fd0d                	c.bnez	x10,fb8 <.LVL151+0x4>
    1080:	01000003          	lb	x0,16(x0) # 10 <.LASF10+0x2>
    1084:	0328                	c.addi4spn	x10,x2,392
    1086:	0570                	c.addi4spn	x12,x2,652
    1088:	0000                	c.unimp
    108a:	1925                	c.addi	x18,-23
    108c:	0000                	c.unimp
    108e:	c80d                	c.beqz	x8,10c0 <.L31>
    1090:	0004                	0x4
    1092:	0100                	c.addi4spn	x8,x2,128
    1094:	0328                	c.addi4spn	x10,x2,392
    1096:	0570                	c.addi4spn	x12,x2,652
    1098:	0000                	c.unimp
    109a:	00001b5b          	0x1b5b
    109e:	0100720f          	0x100720f
    10a2:	0a29                	c.addi	x20,10
    10a4:	005d                	c.addi	x0,23
    10a6:	0000                	c.unimp
    10a8:	c011                	c.beqz	x8,10ac <.LVL175+0x4>
    10aa:	0002                	c.slli64	x0
    10ac:	3000                	c.fld	f8,32(x8)
    10ae:	0002                	c.slli64	x0
    10b0:	1200                	c.addi4spn	x8,x2,288
    10b2:	0000009b          	0x9b
    10b6:	2c01                	c.jal	12c6 <.L5+0x2>
    10b8:	0000b303          	0xb303
    10bc:	0000                	c.unimp
    10be:	e811                	c.bnez	x8,10d2 <.L31+0x12>
    10c0:	0002                	c.slli64	x0
    10c2:	4600                	c.lw	x8,8(x12)
    10c4:	0002                	c.slli64	x0
    10c6:	1200                	c.addi4spn	x8,x2,288
    10c8:	0000009b          	0x9b
    10cc:	2d01                	c.jal	16dc <.LVL172>
    10ce:	0000b303          	0xb303
    10d2:	0000                	c.unimp
    10d4:	3011                	c.jal	8d8 <.L100+0xc>
    10d6:	2c000003          	lb	x0,704(x0) # 2c0 <.Ldebug_ranges0>
    10da:	13000003          	lb	x0,304(x0) # 130 <printf_deci.part.0+0x2c>
    10de:	05ad                	c.addi	x11,11
    10e0:	0000                	c.unimp
    10e2:	2e01                	c.jal	13f2 <.LBE33+0xe>
    10e4:	0011fc03          	0x11fc03
    10e8:	1300                	c.addi4spn	x8,x2,416
    10ea:	05b2                	c.slli	x11,0xc
    10ec:	0000                	c.unimp
    10ee:	2e01                	c.jal	13fe <.L56+0x6>
    10f0:	00131c03          	lh	x24,1(x6)
    10f4:	1300                	c.addi4spn	x8,x2,416
    10f6:	000005b7          	lui	x11,0x0
    10fa:	2e01                	c.jal	140a <.L56+0x12>
    10fc:	00124403          	lbu	x8,1(x4) # 3001 <.Ldebug_line0+0x318>
    1100:	1300                	c.addi4spn	x8,x2,416
    1102:	04d2                	c.slli	x9,0x14
    1104:	0000                	c.unimp
    1106:	2e01                	c.jal	1416 <.LVL82+0x6>
    1108:	0013f803          	0x13f803
    110c:	0d00                	c.addi4spn	x8,x2,656
    110e:	0578                	c.addi4spn	x14,x2,652
    1110:	0000                	c.unimp
    1112:	2e01                	c.jal	1422 <.L24+0x2>
    1114:	00002c03          	lw	x24,0(x0) # 0 <.Ldebug_info0>
    1118:	4900                	c.lw	x8,16(x10)
    111a:	001d                	c.addi	x0,7
    111c:	1100                	c.addi4spn	x8,x2,160
    111e:	0390                	c.addi4spn	x12,x2,448
    1120:	0000                	c.unimp
    1122:	02a9                	c.addi	x5,10
    1124:	0000                	c.unimp
    1126:	5f10                	c.lw	x12,56(x14)
    1128:	785f 0100 032e      	0x32e0100785f
    112e:	0570                	c.addi4spn	x12,x2,652
    1130:	0000                	c.unimp
    1132:	00001e43          	fmadd.s	f28,f0,f0,f0,rtz
    1136:	1100                	c.addi4spn	x8,x2,160
    1138:	03c0                	c.addi4spn	x8,x2,452
    113a:	0000                	c.unimp
    113c:	000002c3          	fmadd.s	f5,f0,f0,f0,rne
    1140:	5f10                	c.lw	x12,56(x14)
    1142:	785f 0100 032e      	0x32e0100785f
    1148:	0570                	c.addi4spn	x12,x2,652
    114a:	0000                	c.unimp
    114c:	1e56                	c.slli	x28,0x35
    114e:	0000                	c.unimp
    1150:	1100                	c.addi4spn	x8,x2,160
    1152:	03a8                	c.addi4spn	x10,x2,456
    1154:	0000                	c.unimp
    1156:	02dd                	c.addi	x5,23
    1158:	0000                	c.unimp
    115a:	5f10                	c.lw	x12,56(x14)
    115c:	785f 0100 032e      	0x32e0100785f
    1162:	0570                	c.addi4spn	x12,x2,652
    1164:	0000                	c.unimp
    1166:	1e69                	c.addi	x28,-6
    1168:	0000                	c.unimp
    116a:	1400                	c.addi4spn	x8,x2,544
    116c:	1350                	c.addi4spn	x12,x2,420
    116e:	0000                	c.unimp
    1170:	0010                	0x10
    1172:	0000                	c.unimp
    1174:	000002fb          	0x2fb
    1178:	5f10                	c.lw	x12,56(x14)
    117a:	785f 0100 032e      	0x32e0100785f
    1180:	0570                	c.addi4spn	x12,x2,652
    1182:	0000                	c.unimp
    1184:	1e7c                	c.addi4spn	x15,x2,828
    1186:	0000                	c.unimp
    1188:	1100                	c.addi4spn	x8,x2,160
    118a:	03d8                	c.addi4spn	x14,x2,452
    118c:	0000                	c.unimp
    118e:	0315                	c.addi	x6,5
    1190:	0000                	c.unimp
    1192:	5f10                	c.lw	x12,56(x14)
    1194:	785f 0100 032e      	0x32e0100785f
    119a:	0570                	c.addi4spn	x12,x2,652
    119c:	0000                	c.unimp
    119e:	00001e8f          	0x1e8f
    11a2:	1500                	c.addi4spn	x8,x2,672
    11a4:	03f0                	c.addi4spn	x12,x2,460
    11a6:	0000                	c.unimp
    11a8:	5f10                	c.lw	x12,56(x14)
    11aa:	785f 0100 032e      	0x32e0100785f
    11b0:	0570                	c.addi4spn	x12,x2,652
    11b2:	0000                	c.unimp
    11b4:	1ea2                	c.slli	x29,0x28
    11b6:	0000                	c.unimp
    11b8:	0000                	c.unimp
    11ba:	0811                	c.addi	x16,4
    11bc:	0004                	0x4
    11be:	8e00                	0x8e00
    11c0:	0004                	0x4
    11c2:	1300                	c.addi4spn	x8,x2,416
    11c4:	04f0                	c.addi4spn	x12,x2,588
    11c6:	0000                	c.unimp
    11c8:	2e01                	c.jal	14d8 <.LVL110+0x8>
    11ca:	0014ac03          	lw	x24,1(x9)
    11ce:	1300                	c.addi4spn	x8,x2,416
    11d0:	04cd                	c.addi	x9,19
    11d2:	0000                	c.unimp
    11d4:	2e01                	c.jal	14e4 <.LVL113>
    11d6:	0015c803          	lbu	x16,1(x11) # 1 <.Ldebug_info0+0x1>
    11da:	1300                	c.addi4spn	x8,x2,416
    11dc:	04f5                	c.addi	x9,29
    11de:	0000                	c.unimp
    11e0:	2e01                	c.jal	14f0 <.LBB47>
    11e2:	0014f403          	0x14f403
    11e6:	1300                	c.addi4spn	x8,x2,416
    11e8:	0000050f          	0x50f
    11ec:	2e01                	c.jal	14fc <.L28+0x8>
    11ee:	00172003          	lw	x0,1(x14)
    11f2:	1300                	c.addi4spn	x8,x2,416
    11f4:	05a4                	c.addi4spn	x9,x2,712
    11f6:	0000                	c.unimp
    11f8:	2e01                	c.jal	1508 <.LVL117>
    11fa:	0013f803          	0x13f803
    11fe:	0d00                	c.addi4spn	x8,x2,656
    1200:	0578                	c.addi4spn	x14,x2,652
    1202:	0000                	c.unimp
    1204:	2e01                	c.jal	1514 <.LVL119>
    1206:	00002c03          	lw	x24,0(x0) # 0 <.Ldebug_info0>
    120a:	d500                	c.sw	x8,40(x10)
    120c:	001e                	c.slli	x0,0x7
    120e:	1100                	c.addi4spn	x8,x2,160
    1210:	0470                	c.addi4spn	x12,x2,524
    1212:	0000                	c.unimp
    1214:	0000039b          	0x39b
    1218:	5f10                	c.lw	x12,56(x14)
    121a:	785f 0100 032e      	0x32e0100785f
    1220:	0570                	c.addi4spn	x12,x2,652
    1222:	0000                	c.unimp
    1224:	1fcd                	c.addi	x31,-13
    1226:	0000                	c.unimp
    1228:	1100                	c.addi4spn	x8,x2,160
    122a:	0488                	c.addi4spn	x10,x2,576
    122c:	0000                	c.unimp
    122e:	03b5                	c.addi	x7,13
    1230:	0000                	c.unimp
    1232:	5f10                	c.lw	x12,56(x14)
    1234:	785f 0100 032e      	0x32e0100785f
    123a:	0570                	c.addi4spn	x12,x2,652
    123c:	0000                	c.unimp
    123e:	1fe0                	c.addi4spn	x8,x2,1020
    1240:	0000                	c.unimp
    1242:	1400                	c.addi4spn	x8,x2,544
    1244:	1584                	c.addi4spn	x9,x2,736
    1246:	0000                	c.unimp
    1248:	0010                	0x10
    124a:	0000                	c.unimp
    124c:	000003d3          	fadd.s	f7,f0,f0,rne
    1250:	5f10                	c.lw	x12,56(x14)
    1252:	785f 0100 032e      	0x32e0100785f
    1258:	0570                	c.addi4spn	x12,x2,652
    125a:	0000                	c.unimp
    125c:	00001ff3          	csrrw	x31,ustatus,x0
    1260:	1400                	c.addi4spn	x8,x2,544
    1262:	15fc                	c.addi4spn	x15,x2,748
    1264:	0000                	c.unimp
    1266:	0010                	0x10
    1268:	0000                	c.unimp
    126a:	03f1                	c.addi	x7,28
    126c:	0000                	c.unimp
    126e:	5f10                	c.lw	x12,56(x14)
    1270:	785f 0100 032e      	0x32e0100785f
    1276:	0570                	c.addi4spn	x12,x2,652
    1278:	0000                	c.unimp
    127a:	2006                	c.fldsp	f0,64(x2)
    127c:	0000                	c.unimp
    127e:	1100                	c.addi4spn	x8,x2,160
    1280:	04c0                	c.addi4spn	x8,x2,580
    1282:	0000                	c.unimp
    1284:	0000040b          	0x40b
    1288:	5f10                	c.lw	x12,56(x14)
    128a:	785f 0100 032e      	0x32e0100785f
    1290:	0570                	c.addi4spn	x12,x2,652
    1292:	0000                	c.unimp
    1294:	2019                	c.jal	129a <.L12+0x16>
    1296:	0000                	c.unimp
    1298:	1400                	c.addi4spn	x8,x2,544
    129a:	16a8                	c.addi4spn	x10,x2,872
    129c:	0000                	c.unimp
    129e:	0010                	0x10
    12a0:	0000                	c.unimp
    12a2:	0429                	c.addi	x8,10
    12a4:	0000                	c.unimp
    12a6:	5f10                	c.lw	x12,56(x14)
    12a8:	785f 0100 032e      	0x32e0100785f
    12ae:	0570                	c.addi4spn	x12,x2,652
    12b0:	0000                	c.unimp
    12b2:	00002037          	lui	x0,0x2
    12b6:	1400                	c.addi4spn	x8,x2,544
    12b8:	16f0                	c.addi4spn	x12,x2,876
    12ba:	0000                	c.unimp
    12bc:	0010                	0x10
    12be:	0000                	c.unimp
    12c0:	00000447          	fmsub.s	f8,f0,f0,f0,rne
    12c4:	5f10                	c.lw	x12,56(x14)
    12c6:	785f 0100 032e      	0x32e0100785f
    12cc:	0570                	c.addi4spn	x12,x2,652
    12ce:	0000                	c.unimp
    12d0:	204a                	c.fldsp	f0,144(x2)
    12d2:	0000                	c.unimp
    12d4:	1400                	c.addi4spn	x8,x2,544
    12d6:	170c                	c.addi4spn	x11,x2,928
    12d8:	0000                	c.unimp
    12da:	0010                	0x10
    12dc:	0000                	c.unimp
    12de:	0465                	c.addi	x8,25
    12e0:	0000                	c.unimp
    12e2:	5f10                	c.lw	x12,56(x14)
    12e4:	785f 0100 032e      	0x32e0100785f
    12ea:	0570                	c.addi4spn	x12,x2,652
    12ec:	0000                	c.unimp
    12ee:	2078                	c.fld	f14,192(x8)
    12f0:	0000                	c.unimp
    12f2:	1500                	c.addi4spn	x8,x2,672
    12f4:	04a0                	c.addi4spn	x8,x2,584
    12f6:	0000                	c.unimp
    12f8:	1d0d                	c.addi	x26,-29
    12fa:	0005                	c.addi	x0,1
    12fc:	0100                	c.addi4spn	x8,x2,128
    12fe:	032e                	c.slli	x6,0xb
    1300:	002c                	c.addi4spn	x11,x2,8
    1302:	0000                	c.unimp
    1304:	0000208b          	0x208b
    1308:	2c16                	c.fldsp	f24,320(x2)
    130a:	77000017          	auipc	x0,0x77000
    130e:	0005                	c.addi	x0,1
    1310:	1600                	c.addi4spn	x8,x2,800
    1312:	17ac                	c.addi4spn	x11,x2,1000
    1314:	0000                	c.unimp
    1316:	00000577          	0x577
    131a:	0000                	c.unimp
    131c:	d811                	c.beqz	x8,1230 <.L13>
    131e:	0004                	0x4
    1320:	5600                	c.lw	x8,40(x12)
    1322:	0005                	c.addi	x0,1
    1324:	1200                	c.addi4spn	x8,x2,288
    1326:	00000533          	add	x10,x0,x0
    132a:	2f01                	c.jal	1a3a <.L5+0xa>
    132c:	00002c03          	lw	x24,0(x0) # 0 <.Ldebug_info0>
    1330:	1700                	c.addi4spn	x8,x2,928
    1332:	00000517          	auipc	x10,0x0
    1336:	8f12                	c.mv	x30,x4
    1338:	0005                	c.addi	x0,1
    133a:	0100                	c.addi4spn	x8,x2,128
    133c:	0569032f          	0x569032f
    1340:	0000                	c.unimp
    1342:	db12                	c.swsp	x4,180(x2)
    1344:	0004                	0x4
    1346:	0100                	c.addi4spn	x8,x2,128
    1348:	0569032f          	0x569032f
    134c:	0000                	c.unimp
    134e:	fa12                	c.fswsp	f4,52(x2)
    1350:	0004                	0x4
    1352:	0100                	c.addi4spn	x8,x2,128
    1354:	0569032f          	0x569032f
    1358:	0000                	c.unimp
    135a:	4c12                	c.lwsp	x24,4(x2)
    135c:	0005                	c.addi	x0,1
    135e:	0100                	c.addi4spn	x8,x2,128
    1360:	0570032f          	0x570032f
    1364:	0000                	c.unimp
    1366:	6212                	c.flwsp	f4,4(x2)
    1368:	0005                	c.addi	x0,1
    136a:	0100                	c.addi4spn	x8,x2,128
    136c:	0570032f          	0x570032f
    1370:	0000                	c.unimp
    1372:	0004f617          	auipc	x12,0x4f
    1376:	0f00                	c.addi4spn	x8,x2,912
    1378:	5f5f 0078 2f01      	0x2f0100785f5f
    137e:	00057003          	0x57003
    1382:	0000                	c.unimp
    1384:	00050817          	auipc	x16,0x50
    1388:	0f00                	c.addi4spn	x8,x2,912
    138a:	5f5f 0078 2f01      	0x2f0100785f5f
    1390:	00057003          	0x57003
    1394:	0000                	c.unimp
    1396:	0f18                	c.addi4spn	x14,x2,912
    1398:	5f5f 0078 2f01      	0x2f0100785f5f
    139e:	00057003          	0x57003
    13a2:	0000                	c.unimp
    13a4:	1400                	c.addi4spn	x8,x2,544
    13a6:	140c                	c.addi4spn	x11,x2,544
    13a8:	0000                	c.unimp
    13aa:	0014                	0x14
    13ac:	0000                	c.unimp
    13ae:	0535                	c.addi	x10,13
    13b0:	0000                	c.unimp
    13b2:	5f10                	c.lw	x12,56(x14)
    13b4:	785f 0100 032f      	0x32f0100785f
    13ba:	0570                	c.addi4spn	x12,x2,652
    13bc:	0000                	c.unimp
    13be:	20fa                	c.fldsp	f1,408(x2)
    13c0:	0000                	c.unimp
    13c2:	1700                	c.addi4spn	x8,x2,928
    13c4:	00000547          	fmsub.s	f10,f0,f0,f0,rne
    13c8:	785f5f0f          	0x785f5f0f
    13cc:	0100                	c.addi4spn	x8,x2,128
    13ce:	0570032f          	0x570032f
    13d2:	0000                	c.unimp
    13d4:	1800                	c.addi4spn	x8,x2,48
    13d6:	785f5f0f          	0x785f5f0f
    13da:	0100                	c.addi4spn	x8,x2,128
    13dc:	0570032f          	0x570032f
    13e0:	0000                	c.unimp
    13e2:	0000                	c.unimp
    13e4:	f815                	c.bnez	x8,1318 <.LVL58+0xc>
    13e6:	0004                	0x4
    13e8:	1200                	c.addi4spn	x8,x2,288
    13ea:	02ee                	c.slli	x5,0x1b
    13ec:	0000                	c.unimp
    13ee:	2f01                	c.jal	1afe <.L31+0x2>
    13f0:	0000b303          	0xb303
    13f4:	0000                	c.unimp
    13f6:	0200                	c.addi4spn	x8,x2,256
    13f8:	0504                	c.addi4spn	x9,x2,640
    13fa:	0141                	c.addi	x2,16
    13fc:	0000                	c.unimp
    13fe:	0402                	c.slli64	x8
    1400:	0000bf07          	fld	f30,0(x1)
    1404:	1900                	c.addi4spn	x8,x2,176
    1406:	041f 0000 041f      	0x41f0000041f
    140c:	0000                	c.unimp
	...

0000140f <.Ldebug_info0>:
    140f:	000001e3          	beq	x0,x0,1c11 <.L113+0x5>
    1413:	0004                	0x4
    1415:	05b2                	c.slli	x11,0xc
    1417:	0000                	c.unimp
    1419:	0104                	c.addi4spn	x9,x2,128
    141b:	0000015b          	0x15b
    141f:	e90c                	c.fsw	f11,16(x10)
    1421:	0005                	c.addi	x0,1
    1423:	d100                	c.sw	x8,32(x10)
    1425:	0000                	c.unimp
    1427:	1400                	c.addi4spn	x8,x2,544
    1429:	0019                	c.addi	x0,6
    142b:	8000                	0x8000
    142d:	0000                	c.unimp
    142f:	ba00                	c.fsd	f8,48(x12)
    1431:	0025                	c.addi	x0,9
    1433:	0200                	c.addi4spn	x8,x2,256
    1435:	0408                	c.addi4spn	x10,x2,512
    1437:	00000763          	beq	x0,x0,1445 <.L23+0x5>
    143b:	69050403          	lb	x8,1680(x10) # 19c2 <.LVL4+0x2>
    143f:	746e                	c.flwsp	f8,248(x2)
    1441:	0200                	c.addi4spn	x8,x2,256
    1443:	0601                	c.addi	x12,0
    1445:	001d                	c.addi	x0,7
    1447:	0000                	c.unimp
    1449:	3504                	c.fld	f9,40(x10)
    144b:	0006                	c.slli	x0,0x1
    144d:	0200                	c.addi4spn	x8,x2,256
    144f:	0148                	c.addi4spn	x10,x2,132
    1451:	2c0d                	c.jal	1683 <.L118+0x3>
    1453:	0000                	c.unimp
    1455:	0200                	c.addi4spn	x8,x2,256
    1457:	0508                	c.addi4spn	x10,x2,640
    1459:	013c                	c.addi4spn	x15,x2,136
    145b:	0000                	c.unimp
    145d:	0102                	c.slli64	x2
    145f:	1b08                	c.addi4spn	x10,x2,432
    1461:	0000                	c.unimp
    1463:	0400                	c.addi4spn	x8,x2,512
    1465:	0634                	c.addi4spn	x13,x2,776
    1467:	0000                	c.unimp
    1469:	4b02                	c.lwsp	x22,0(x2)
    146b:	1601                	c.addi	x12,-32
    146d:	0062                	c.slli	x0,0x18
    146f:	0000                	c.unimp
    1471:	0402                	c.slli64	x8
    1473:	0000c407          	flq	f8,0(x1)
    1477:	0200                	c.addi4spn	x8,x2,256
    1479:	0708                	c.addi4spn	x10,x2,896
    147b:	00ba                	c.slli	x1,0xe
    147d:	0000                	c.unimp
    147f:	0202                	c.slli64	x4
    1481:	00006807          	0x6807
    1485:	0500                	c.addi4spn	x8,x2,640
    1487:	0014                	0x14
    1489:	0000                	c.unimp
    148b:	250f4803          	lbu	x16,592(x30)
    148f:	0000                	c.unimp
    1491:	0600                	c.addi4spn	x8,x2,768
    1493:	0308                	c.addi4spn	x10,x2,384
    1495:	00cd034f          	fnmadd.s	f6,f26,f12,f0,rne
    1499:	0000                	c.unimp
    149b:	00000807          	0x807
    149f:	0300                	c.addi4spn	x8,x2,384
    14a1:	00620e57          	0x620e57
    14a5:	0000                	c.unimp
    14a7:	2004                	c.fld	f9,0(x8)
    14a9:	0000                	c.unimp
    14ab:	00000e07          	0xe07
    14af:	0300                	c.addi4spn	x8,x2,384
    14b1:	0e58                	c.addi4spn	x14,x2,788
    14b3:	0062                	c.slli	x0,0x18
    14b5:	0000                	c.unimp
    14b7:	1404                	c.addi4spn	x9,x2,544
    14b9:	040c                	c.addi4spn	x11,x2,512
    14bb:	6508                	c.flw	f10,8(x10)
    14bd:	7078                	c.flw	f14,100(x8)
    14bf:	0300                	c.addi4spn	x8,x2,384
    14c1:	0e59                	c.addi	x28,22
    14c3:	0062                	c.slli	x0,0x18
    14c5:	0000                	c.unimp
    14c7:	0b04                	c.addi4spn	x9,x2,400
    14c9:	0401                	c.addi	x8,0
    14cb:	00006307          	0x6307
    14cf:	0300                	c.addi4spn	x8,x2,384
    14d1:	0e5a                	c.slli	x28,0x16
    14d3:	0062                	c.slli	x0,0x18
    14d5:	0000                	c.unimp
    14d7:	0104                	c.addi4spn	x9,x2,128
    14d9:	0400                	c.addi4spn	x8,x2,512
    14db:	0900                	c.addi4spn	x8,x2,144
    14dd:	014a                	c.slli	x2,0x12
    14df:	0000                	c.unimp
    14e1:	0308                	c.addi4spn	x10,x2,384
    14e3:	074c                	c.addi4spn	x11,x2,900
    14e5:	000000f3          	0xf3
    14e9:	660a                	c.flwsp	f12,128(x2)
    14eb:	746c                	c.flw	f11,108(x8)
    14ed:	0300                	c.addi4spn	x8,x2,384
    14ef:	0a4e                	c.slli	x20,0x13
    14f1:	00000077          	0x77
    14f5:	0001560b          	0x1560b
    14f9:	0300                	c.addi4spn	x8,x2,384
    14fb:	055c                	c.addi4spn	x15,x2,644
    14fd:	00000083          	lb	x1,0(x0) # 0 <.Ldebug_info0>
    1501:	0c00                	c.addi4spn	x8,x2,528
    1503:	062a                	c.slli	x12,0xa
    1505:	0000                	c.unimp
    1507:	2301                	c.jal	1a07 <.LBE12+0x3>
    1509:	3a01                	c.jal	e19 <.LVL103+0x1>
    150b:	0000                	c.unimp
    150d:	1400                	c.addi4spn	x8,x2,544
    150f:	0019                	c.addi	x0,6
    1511:	8000                	0x8000
    1513:	0000                	c.unimp
    1515:	0100                	c.addi4spn	x8,x2,128
    1517:	d89c                	c.sw	x15,48(x9)
    1519:	0001                	c.addi	x0,0
    151b:	0d00                	c.addi4spn	x8,x2,656
    151d:	0061                	c.addi	x0,24
    151f:	2301                	c.jal	1a1f <.L4+0x3>
    1521:	00007713          	andi	x14,x0,0
    1525:	0d00                	c.addi4spn	x8,x2,656
    1527:	0021                	c.addi	x0,8
    1529:	0e00                	c.addi4spn	x8,x2,784
    152b:	0080                	c.addi4spn	x8,x2,64
    152d:	0000                	c.unimp
    152f:	2501                	c.jal	1b2f <.L3+0x7>
    1531:	00002c03          	lw	x24,0(x0) # 0 <.Ldebug_info0>
    1535:	9500                	0x9500
    1537:	0021                	c.addi	x0,8
    1539:	0f00                	c.addi4spn	x8,x2,912
    153b:	0208                	c.addi4spn	x10,x2,256
    153d:	0000                	c.unimp
    153f:	2501                	c.jal	1b3f <.LVL3+0x3>
    1541:	00002c03          	lw	x24,0(x0) # 0 <.Ldebug_info0>
    1545:	0000                	c.unimp
    1547:	4110                	c.lw	x12,0(x10)
    1549:	635f 0100 0326      	0x3260100635f
    154f:	01d8                	c.addi4spn	x14,x2,196
    1551:	0000                	c.unimp
    1553:	4111                	c.li	x2,4
    1555:	735f 0100 0326      	0x3260100735f
    155b:	01d8                	c.addi4spn	x14,x2,196
    155d:	0000                	c.unimp
    155f:	7b06                	c.flwsp	f22,96(x2)
    1561:	0800                	c.addi4spn	x8,x2,16
    1563:	1aff                	0x1aff
    1565:	129f 5f41 0065      	0x655f41129f
    156b:	2601                	c.jal	186b <.LVL223+0x7>
    156d:	0001d803          	lhu	x16,0(x3)
    1571:	a900                	c.fsd	f8,16(x10)
    1573:	0021                	c.addi	x0,8
    1575:	0e00                	c.addi4spn	x8,x2,784
    1577:	0096                	c.slli	x1,0x5
    1579:	0000                	c.unimp
    157b:	2601                	c.jal	187b <.LVL227+0x3>
    157d:	0001df03          	lhu	x30,0(x3)
    1581:	d500                	c.sw	x8,40(x10)
    1583:	0021                	c.addi	x0,8
    1585:	0e00                	c.addi4spn	x8,x2,784
    1587:	0000007b          	0x7b
    158b:	2601                	c.jal	188b <.L59+0x3>
    158d:	0001df03          	lhu	x30,0(x3)
    1591:	0100                	c.addi4spn	x8,x2,128
    1593:	0022                	c.slli	x0,0x8
    1595:	1200                	c.addi4spn	x8,x2,288
    1597:	0072                	c.slli	x0,0x1c
    1599:	2701                	c.jal	1c99 <.L114+0x1>
    159b:	0000550b          	0x550b
    159f:	4200                	c.lw	x8,0(x12)
    15a1:	0022                	c.slli	x0,0x8
    15a3:	1300                	c.addi4spn	x8,x2,416
    15a5:	0510                	c.addi4spn	x12,x2,640
    15a7:	0000                	c.unimp
    15a9:	000001ab          	0x1ab
    15ad:	9b14                	0x9b14
    15af:	0000                	c.unimp
    15b1:	0100                	c.addi4spn	x8,x2,128
    15b3:	032a                	c.slli	x6,0xa
    15b5:	00cd                	c.addi	x1,19
    15b7:	0000                	c.unimp
    15b9:	1500                	c.addi4spn	x8,x2,672
    15bb:	01bd                	c.addi	x3,15
    15bd:	0000                	c.unimp
    15bf:	1714                	c.addi4spn	x13,x2,928
    15c1:	0006                	c.slli	x0,0x1
    15c3:	0100                	c.addi4spn	x8,x2,128
    15c5:	002c032b          	0x2c032b
    15c9:	0000                	c.unimp
    15cb:	1600                	c.addi4spn	x8,x2,800
    15cd:	194c                	c.addi4spn	x11,x2,180
    15cf:	0000                	c.unimp
    15d1:	0040                	c.addi4spn	x8,x2,4
    15d3:	0000                	c.unimp
    15d5:	170e                	c.slli	x14,0x23
    15d7:	0006                	c.slli	x0,0x1
    15d9:	0100                	c.addi4spn	x8,x2,128
    15db:	002c032b          	0x2c032b
    15df:	0000                	c.unimp
    15e1:	227a                	c.fldsp	f4,408(x2)
    15e3:	0000                	c.unimp
    15e5:	0000                	c.unimp
    15e7:	0402                	c.slli64	x8
    15e9:	4105                	c.li	x2,1
    15eb:	0001                	c.addi	x0,0
    15ed:	0200                	c.addi4spn	x8,x2,256
    15ef:	0704                	c.addi4spn	x9,x2,896
    15f1:	000000bf  	0x29700000000bf

000015f6 <.Ldebug_info0>:
    15f6:	00000297          	auipc	x5,0x0
    15fa:	0004                	0x4
    15fc:	0710                	c.addi4spn	x12,x2,896
    15fe:	0000                	c.unimp
    1600:	0104                	c.addi4spn	x9,x2,128
    1602:	0000015b          	0x15b
    1606:	3c0c                	c.fld	f11,56(x8)
    1608:	0006                	c.slli	x0,0x1
    160a:	d100                	c.sw	x8,32(x10)
    160c:	0000                	c.unimp
    160e:	9400                	0x9400
    1610:	0019                	c.addi	x0,6
    1612:	a800                	c.fsd	f8,16(x8)
    1614:	0000                	c.unimp
    1616:	c800                	c.sw	x8,16(x8)
    1618:	02000027          	0x2000027
    161c:	0504                	c.addi4spn	x9,x2,640
    161e:	6e69                	c.lui	x28,0x1a
    1620:	0074                	c.addi4spn	x13,x2,12
    1622:	1d060103          	lb	x2,464(x12) # 50542 <.LC1+0x4c3aa>
    1626:	0000                	c.unimp
    1628:	0400                	c.addi4spn	x8,x2,512
    162a:	0635                	c.addi	x12,13
    162c:	0000                	c.unimp
    162e:	4802                	c.lwsp	x16,0(x2)
    1630:	0d01                	c.addi	x26,0
    1632:	0025                	c.addi	x0,9
    1634:	0000                	c.unimp
    1636:	3c050803          	lb	x16,960(x10)
    163a:	0001                	c.addi	x0,0
    163c:	0300                	c.addi4spn	x8,x2,384
    163e:	0801                	c.addi	x16,0
    1640:	0000001b          	0x1b
    1644:	3404                	c.fld	f9,40(x8)
    1646:	0006                	c.slli	x0,0x1
    1648:	0200                	c.addi4spn	x8,x2,256
    164a:	5b16014b          	fnmsub.d	f2,f12,f17,f11,rne
    164e:	0000                	c.unimp
    1650:	0300                	c.addi4spn	x8,x2,384
    1652:	0704                	c.addi4spn	x9,x2,896
    1654:	00c4                	c.addi4spn	x9,x2,68
    1656:	0000                	c.unimp
    1658:	ba070803          	lb	x16,-1120(x14)
    165c:	0000                	c.unimp
    165e:	0300                	c.addi4spn	x8,x2,384
    1660:	0702                	c.slli64	x14
    1662:	0068                	c.addi4spn	x10,x2,12
    1664:	0000                	c.unimp
    1666:	1405                	c.addi	x8,-31
    1668:	0000                	c.unimp
    166a:	0300                	c.addi4spn	x8,x2,384
    166c:	0f48                	c.addi4spn	x10,x2,916
    166e:	007c                	c.addi4spn	x15,x2,12
    1670:	0000                	c.unimp
    1672:	63040803          	lb	x16,1584(x8)
    1676:	06000007          	0x6000007
    167a:	0308                	c.addi4spn	x10,x2,384
    167c:	00cd034f          	fnmadd.s	f6,f26,f12,f0,rne
    1680:	0000                	c.unimp
    1682:	00000807          	0x807
    1686:	0300                	c.addi4spn	x8,x2,384
    1688:	005b0e57          	0x5b0e57
    168c:	0000                	c.unimp
    168e:	2004                	c.fld	f9,0(x8)
    1690:	0000                	c.unimp
    1692:	00000e07          	0xe07
    1696:	0300                	c.addi4spn	x8,x2,384
    1698:	0e58                	c.addi4spn	x14,x2,788
    169a:	0000005b          	0x5b
    169e:	1404                	c.addi4spn	x9,x2,544
    16a0:	040c                	c.addi4spn	x11,x2,512
    16a2:	6508                	c.flw	f10,8(x10)
    16a4:	7078                	c.flw	f14,100(x8)
    16a6:	0300                	c.addi4spn	x8,x2,384
    16a8:	0e59                	c.addi	x28,22
    16aa:	0000005b          	0x5b
    16ae:	0b04                	c.addi4spn	x9,x2,400
    16b0:	0401                	c.addi	x8,0
    16b2:	00006307          	0x6307
    16b6:	0300                	c.addi4spn	x8,x2,384
    16b8:	0e5a                	c.slli	x28,0x16
    16ba:	0000005b          	0x5b
    16be:	0104                	c.addi4spn	x9,x2,128
    16c0:	0400                	c.addi4spn	x8,x2,512
    16c2:	0900                	c.addi4spn	x8,x2,144
    16c4:	014a                	c.slli	x2,0x12
    16c6:	0000                	c.unimp
    16c8:	0308                	c.addi4spn	x10,x2,384
    16ca:	074c                	c.addi4spn	x11,x2,900
    16cc:	000000f3          	0xf3
    16d0:	660a                	c.flwsp	f12,128(x2)
    16d2:	746c                	c.flw	f11,108(x8)
    16d4:	0300                	c.addi4spn	x8,x2,384
    16d6:	0a4e                	c.slli	x20,0x13
    16d8:	0070                	c.addi4spn	x12,x2,12
    16da:	0000                	c.unimp
    16dc:	0001560b          	0x1560b
    16e0:	0300                	c.addi4spn	x8,x2,384
    16e2:	055c                	c.addi4spn	x15,x2,644
    16e4:	00000083          	lb	x1,0(x0) # 0 <.Ldebug_info0>
    16e8:	0c00                	c.addi4spn	x8,x2,528
    16ea:	0699                	c.addi	x13,6
    16ec:	0000                	c.unimp
    16ee:	2401                	c.jal	18ee <.LVL241+0x2>
    16f0:	7001                	c.lui	x0,0xfffe0
    16f2:	0000                	c.unimp
    16f4:	9400                	0x9400
    16f6:	0019                	c.addi	x0,6
    16f8:	a800                	c.fsd	f8,16(x8)
    16fa:	0000                	c.unimp
    16fc:	0100                	c.addi4spn	x8,x2,128
    16fe:	839c                	0x839c
    1700:	0002                	c.slli64	x0
    1702:	0d00                	c.addi4spn	x8,x2,656
    1704:	0069                	c.addi	x0,26
    1706:	2401                	c.jal	1906 <.LVL247+0x2>
    1708:	3315                	c.jal	142c <.L122>
    170a:	0000                	c.unimp
    170c:	8e00                	0x8e00
    170e:	0022                	c.slli	x0,0x8
    1710:	0e00                	c.addi4spn	x8,x2,784
    1712:	5f41                	c.li	x30,-16
    1714:	26010063          	beq	x2,x0,1974 <.L5+0x4>
    1718:	00028303          	lb	x6,0(x5) # 15f6 <.Ldebug_info0>
    171c:	0f00                	c.addi4spn	x8,x2,912
    171e:	5f41                	c.li	x30,-16
    1720:	26010073          	0x26010073
    1724:	00028303          	lb	x6,0(x5)
    1728:	ba00                	c.fsd	f8,48(x12)
    172a:	0022                	c.slli	x0,0x8
    172c:	0f00                	c.addi4spn	x8,x2,912
    172e:	5f41                	c.li	x30,-16
    1730:	0065                	c.addi	x0,25
    1732:	2601                	c.jal	1a32 <.L5+0x2>
    1734:	00028303          	lb	x6,0(x5)
    1738:	e300                	c.fsw	f8,0(x14)
    173a:	0022                	c.slli	x0,0x8
    173c:	1000                	c.addi4spn	x8,x2,32
    173e:	0096                	c.slli	x1,0x5
    1740:	0000                	c.unimp
    1742:	2601                	c.jal	1a42 <__mulsi3+0x6>
    1744:	00028a03          	lb	x20,0(x5)
    1748:	0100                	c.addi4spn	x8,x2,128
    174a:	10000023          	sb	x0,256(x0) # 100 <.LASF18+0x2f>
    174e:	0000007b          	0x7b
    1752:	2601                	c.jal	1a52 <.L2+0x2>
    1754:	00028a03          	lb	x20,0(x5)
    1758:	3600                	c.fld	f8,40(x12)
    175a:	0e000023          	sb	x0,224(x0) # e0 <.LASF18+0xf>
    175e:	0061                	c.addi	x0,24
    1760:	2701                	c.jal	1e60 <.LLST18+0xa>
    1762:	700a                	c.flwsp	f0,160(x2)
    1764:	0000                	c.unimp
    1766:	1100                	c.addi4spn	x8,x2,160
    1768:	0528                	c.addi4spn	x10,x2,648
    176a:	0000                	c.unimp
    176c:	0270                	c.addi4spn	x12,x2,268
    176e:	0000                	c.unimp
    1770:	6c12                	c.flwsp	f24,4(x2)
    1772:	0006                	c.slli	x0,0x1
    1774:	0100                	c.addi4spn	x8,x2,128
    1776:	0329                	c.addi	x6,10
    1778:	00054813          	xori	x16,x10,0
    177c:	1000                	c.addi4spn	x8,x2,32
    177e:	0679                	c.addi	x12,30
    1780:	0000                	c.unimp
    1782:	2901                	c.jal	1b92 <main+0x32>
    1784:	00004e03          	lbu	x28,0(x0) # 0 <.Ldebug_info0>
    1788:	6c00                	c.flw	f8,24(x8)
    178a:	11000023          	sb	x16,256(x0) # 100 <.LASF18+0x2f>
    178e:	0560                	c.addi4spn	x8,x2,652
    1790:	0000                	c.unimp
    1792:	01ba                	c.slli	x3,0xe
    1794:	0000                	c.unimp
    1796:	8910                	0x8910
    1798:	0006                	c.slli	x0,0x1
    179a:	0100                	c.addi4spn	x8,x2,128
    179c:	0329                	c.addi	x6,10
    179e:	0025                	c.addi	x0,9
    17a0:	0000                	c.unimp
    17a2:	000023af          	amoadd.w	x7,x0,(x0)
    17a6:	c014                	c.sw	x13,0(x8)
    17a8:	0019                	c.addi	x0,6
    17aa:	9100                	0x9100
    17ac:	0002                	c.slli64	x0
    17ae:	0000                	c.unimp
    17b0:	1615                	c.addi	x12,-27
    17b2:	00000533          	add	x10,x0,x0
    17b6:	2901                	c.jal	1bc6 <main+0x66>
    17b8:	00002503          	lw	x10,0(x0) # 0 <.Ldebug_info0>
    17bc:	1700                	c.addi4spn	x8,x2,928
    17be:	0000023b          	0x23b
    17c2:	8f16                	c.mv	x30,x5
    17c4:	0005                	c.addi	x0,1
    17c6:	0100                	c.addi4spn	x8,x2,128
    17c8:	0329                	c.addi	x6,10
    17ca:	00000283          	lb	x5,0(x0) # 0 <.Ldebug_info0>
    17ce:	db16                	c.swsp	x5,180(x2)
    17d0:	0004                	0x4
    17d2:	0100                	c.addi4spn	x8,x2,128
    17d4:	0329                	c.addi	x6,10
    17d6:	00000283          	lb	x5,0(x0) # 0 <.Ldebug_info0>
    17da:	fa16                	c.fswsp	f5,52(x2)
    17dc:	0004                	0x4
    17de:	0100                	c.addi4spn	x8,x2,128
    17e0:	0329                	c.addi	x6,10
    17e2:	00000283          	lb	x5,0(x0) # 0 <.Ldebug_info0>
    17e6:	4c16                	c.lwsp	x24,68(x2)
    17e8:	0005                	c.addi	x0,1
    17ea:	0100                	c.addi4spn	x8,x2,128
    17ec:	0329                	c.addi	x6,10
    17ee:	028a                	c.slli	x5,0x2
    17f0:	0000                	c.unimp
    17f2:	6216                	c.flwsp	f4,68(x2)
    17f4:	0005                	c.addi	x0,1
    17f6:	0100                	c.addi4spn	x8,x2,128
    17f8:	0329                	c.addi	x6,10
    17fa:	028a                	c.slli	x5,0x2
    17fc:	0000                	c.unimp
    17fe:	00021a17          	auipc	x20,0x21
    1802:	0e00                	c.addi4spn	x8,x2,784
    1804:	5f5f 0078 2901      	0x290100785f5f
    180a:	00028a03          	lb	x20,0(x5)
    180e:	0000                	c.unimp
    1810:	00022c17          	auipc	x24,0x22
    1814:	0e00                	c.addi4spn	x8,x2,784
    1816:	5f5f 0078 2901      	0x290100785f5f
    181c:	00028a03          	lb	x20,0(x5)
    1820:	0000                	c.unimp
    1822:	0e15                	c.addi	x28,5
    1824:	5f5f 0078 2901      	0x290100785f5f
    182a:	00028a03          	lb	x20,0(x5)
    182e:	0000                	c.unimp
    1830:	1700                	c.addi4spn	x8,x2,928
    1832:	024d                	c.addi	x4,19
    1834:	0000                	c.unimp
    1836:	5f0e                	c.lwsp	x30,224(x2)
    1838:	785f 0100 0329      	0x3290100785f
    183e:	028a                	c.slli	x5,0x2
    1840:	0000                	c.unimp
    1842:	1700                	c.addi4spn	x8,x2,928
    1844:	025f 0000 5f0e      	0x5f0e0000025f
    184a:	785f 0100 0329      	0x3290100785f
    1850:	028a                	c.slli	x5,0x2
    1852:	0000                	c.unimp
    1854:	1500                	c.addi4spn	x8,x2,672
    1856:	5f0e                	c.lwsp	x30,224(x2)
    1858:	785f 0100 0329      	0x3290100785f
    185e:	028a                	c.slli	x5,0x2
    1860:	0000                	c.unimp
    1862:	0000                	c.unimp
    1864:	0000                	c.unimp
    1866:	00057813          	andi	x16,x10,0
    186a:	1600                	c.addi4spn	x8,x2,800
    186c:	02ee                	c.slli	x5,0x1b
    186e:	0000                	c.unimp
    1870:	2a01                	c.jal	1980 <.LVL15>
    1872:	0000cd03          	lbu	x26,0(x1)
    1876:	0000                	c.unimp
    1878:	0300                	c.addi4spn	x8,x2,384
    187a:	0504                	c.addi4spn	x9,x2,640
    187c:	0141                	c.addi	x2,16
    187e:	0000                	c.unimp
    1880:	bf070403          	lb	x8,-1040(x14)
    1884:	0000                	c.unimp
    1886:	1800                	c.addi4spn	x8,x2,48
    1888:	041f 0000 041f      	0x41f0000041f
    188e:	0000                	c.unimp
    1890:	2200                	c.fld	f8,0(x12)
    1892:	0000                	c.unimp
    1894:	0200                	c.addi4spn	x8,x2,256
    1896:	7400                	c.flw	f8,40(x8)
    1898:	0008                	0x8
    189a:	0400                	c.addi4spn	x8,x2,512
    189c:	1001                	c.addi	x0,-32
    189e:	002a                	c.slli	x0,0xa
    18a0:	3c00                	c.fld	f8,56(x8)
    18a2:	001a                	c.slli	x0,0x6
    18a4:	6000                	c.flw	f8,0(x8)
    18a6:	001a                	c.slli	x0,0x6
    18a8:	a500                	c.fsd	f8,8(x10)
    18aa:	0006                	c.slli	x0,0x1
    18ac:	d100                	c.sw	x8,32(x10)
    18ae:	0000                	c.unimp
    18b0:	d700                	c.sw	x8,40(x14)
    18b2:	0006                	c.slli	x0,0x1
    18b4:	0100                	c.addi4spn	x8,x2,128
    18b6:	2280                	c.fld	f8,0(x13)
    18b8:	0000                	c.unimp
    18ba:	0200                	c.addi4spn	x8,x2,256
    18bc:	8800                	0x8800
    18be:	0008                	0x8
    18c0:	0400                	c.addi4spn	x8,x2,512
    18c2:	a201                	c.j	19c2 <.LVL4+0x2>
    18c4:	002a                	c.slli	x0,0xa
    18c6:	6000                	c.flw	f8,0(x8)
    18c8:	001a                	c.slli	x0,0x6
    18ca:	1400                	c.addi4spn	x8,x2,544
    18cc:	e300001b          	0xe300001b
    18d0:	0006                	c.slli	x0,0x1
    18d2:	d100                	c.sw	x8,32(x10)
    18d4:	0000                	c.unimp
    18d6:	d700                	c.sw	x8,40(x14)
    18d8:	0006                	c.slli	x0,0x1
    18da:	0100                	c.addi4spn	x8,x2,128
    18dc:	                	c.lw	x8,0(x9)

000018dd <.Ldebug_info0>:
    18dd:	0140                	c.addi4spn	x8,x2,132
    18df:	0000                	c.unimp
    18e1:	0004                	0x4
    18e3:	089c                	c.addi4spn	x15,x2,80
    18e5:	0000                	c.unimp
    18e7:	0104                	c.addi4spn	x9,x2,128
    18e9:	0000015b          	0x15b
    18ed:	260c                	c.fld	f11,8(x12)
    18ef:	d1000007          	0xd1000007
    18f3:	0000                	c.unimp
    18f5:	1400                	c.addi4spn	x8,x2,544
    18f7:	4c00001b          	0x4c00001b
    18fb:	0000                	c.unimp
    18fd:	0a00                	c.addi4spn	x8,x2,272
    18ff:	002c                	c.addi4spn	x11,x2,8
    1901:	0200                	c.addi4spn	x8,x2,256
    1903:	0504                	c.addi4spn	x9,x2,640
    1905:	6e69                	c.lui	x28,0x1a
    1907:	0074                	c.addi4spn	x13,x2,12
    1909:	c4070403          	lb	x8,-960(x14)
    190d:	0000                	c.unimp
    190f:	0300                	c.addi4spn	x8,x2,384
    1911:	0508                	c.addi4spn	x10,x2,640
    1913:	013c                	c.addi4spn	x15,x2,136
    1915:	0000                	c.unimp
    1917:	5e041003          	lh	x0,1504(x8)
    191b:	03000007          	0x3000007
    191f:	0601                	c.addi	x12,0
    1921:	001d                	c.addi	x0,7
    1923:	0000                	c.unimp
    1925:	1b080103          	lb	x2,432(x16) # 51534 <.LC1+0x4d39c>
    1929:	0000                	c.unimp
    192b:	0300                	c.addi4spn	x8,x2,384
    192d:	0502                	c.slli64	x10
    192f:	0780                	c.addi4spn	x8,x2,960
    1931:	0000                	c.unimp
    1933:	68070203          	lb	x4,1664(x14)
    1937:	0000                	c.unimp
    1939:	0300                	c.addi4spn	x8,x2,384
    193b:	0504                	c.addi4spn	x9,x2,640
    193d:	0141                	c.addi	x2,16
    193f:	0000                	c.unimp
    1941:	bf070403          	lb	x8,-1040(x14)
    1945:	0000                	c.unimp
    1947:	0300                	c.addi4spn	x8,x2,384
    1949:	0708                	c.addi4spn	x10,x2,896
    194b:	00ba                	c.slli	x1,0xe
    194d:	0000                	c.unimp
    194f:	24080103          	lb	x2,576(x16)
    1953:	0000                	c.unimp
    1955:	0400                	c.addi4spn	x8,x2,512
    1957:	0778                	c.addi4spn	x14,x2,908
    1959:	0000                	c.unimp
    195b:	7b02                	c.flwsp	f22,32(x2)
    195d:	4816                	c.lwsp	x16,68(x2)
    195f:	0000                	c.unimp
    1961:	0500                	c.addi4spn	x8,x2,640
    1963:	0079                	c.addi	x0,30
    1965:	0000                	c.unimp
    1967:	3504                	c.fld	f9,40(x10)
    1969:	0006                	c.slli	x0,0x1
    196b:	0200                	c.addi4spn	x8,x2,256
    196d:	0f80                	c.addi4spn	x8,x2,976
    196f:	0025                	c.addi	x0,9
    1971:	0000                	c.unimp
    1973:	3404                	c.fld	f9,40(x8)
    1975:	0006                	c.slli	x0,0x1
    1977:	0200                	c.addi4spn	x8,x2,256
    1979:	1681                	c.addi	x13,-32
    197b:	002c                	c.addi4spn	x11,x2,8
    197d:	0000                	c.unimp
    197f:	72040403          	lb	x8,1824(x8)
    1983:	03000007          	0x3000007
    1987:	0308                	c.addi4spn	x10,x2,384
    1989:	076a                	c.slli	x14,0x1a
    198b:	0000                	c.unimp
    198d:	63040803          	lb	x16,1584(x8)
    1991:	03000007          	0x3000007
    1995:	0310                	c.addi4spn	x12,x2,384
    1997:	0712                	c.slli	x14,0x4
    1999:	0000                	c.unimp
    199b:	56032003          	lw	x0,1376(x6)
    199f:	06000007          	0x6000007
    19a3:	0085                	c.addi	x1,1
    19a5:	0000                	c.unimp
    19a7:	00d5                	c.addi	x1,21
    19a9:	0000                	c.unimp
    19ab:	00002c07          	flw	f24,0(x0) # 0 <.Ldebug_info0>
    19af:	ff00                	c.fsw	f8,56(x14)
    19b1:	0500                	c.addi4spn	x8,x2,640
    19b3:	00c5                	c.addi	x1,17
    19b5:	0000                	c.unimp
    19b7:	4c08                	c.lw	x10,24(x8)
    19b9:	02000007          	0x2000007
    19bd:	0202                	c.slli64	x4
    19bf:	d516                	c.swsp	x5,168(x2)
    19c1:	0000                	c.unimp
    19c3:	0900                	c.addi4spn	x8,x2,144
    19c5:	041f 0000 c201      	0xc2010000041f
    19cb:	0102                	c.slli64	x2
    19cd:	0025                	c.addi	x0,9
    19cf:	0000                	c.unimp
    19d1:	1b14                	c.addi4spn	x13,x2,432
    19d3:	0000                	c.unimp
    19d5:	004c                	c.addi4spn	x11,x2,4
    19d7:	0000                	c.unimp
    19d9:	9c01                	0x9c01
    19db:	780a                	c.flwsp	f16,160(x2)
    19dd:	0100                	c.addi4spn	x8,x2,128
    19df:	02c2                	c.slli	x5,0x10
    19e1:	9612                	c.add	x12,x4
    19e3:	0000                	c.unimp
    19e5:	e700                	c.fsw	f8,8(x14)
    19e7:	0b000023          	sb	x16,160(x0) # a0 <.LASF18+0x5>
    19eb:	6572                	c.flwsp	f10,28(x2)
    19ed:	0074                	c.addi4spn	x13,x2,12
    19ef:	c401                	c.beqz	x8,19f7 <.LVL11+0x7>
    19f1:	0902                	c.slli64	x18
    19f3:	008a                	c.slli	x1,0x2
    19f5:	0000                	c.unimp
    19f7:	900c                	0x900c
    19f9:	0005                	c.addi	x0,1
    19fb:	0d00                	c.addi4spn	x8,x2,656
    19fd:	0721                	c.addi	x14,8
    19ff:	0000                	c.unimp
    1a01:	c601                	c.beqz	x12,1a09 <.LBE12+0x5>
    1a03:	0302                	c.slli64	x6
    1a05:	0096                	c.slli	x1,0x5
    1a07:	0000                	c.unimp
    1a09:	00002413          	slti	x8,x0,0
    1a0d:	5f0e                	c.lwsp	x30,224(x2)
    1a0f:	615f 0100 02c6      	0x2c60100615f
    1a15:	00009603          	lh	x12,0(x1)
    1a19:	3f00                	c.fld	f8,56(x14)
    1a1b:	0024                	c.addi4spn	x9,x2,8
    1a1d:	0000                	c.unimp
	...

00001a21 <.Ldebug_info0>:
    1a21:	000000d3          	fadd.s	f1,f0,f0,rne
    1a25:	0004                	0x4
    1a27:	0966                	c.slli	x18,0x19
    1a29:	0000                	c.unimp
    1a2b:	0104                	c.addi4spn	x9,x2,128
    1a2d:	0000015b          	0x15b
    1a31:	260c                	c.fld	f11,8(x12)
    1a33:	d1000007          	0xd1000007
    1a37:	0000                	c.unimp
    1a39:	e900                	c.fsw	f8,16(x10)
    1a3b:	002c                	c.addi4spn	x11,x2,8
    1a3d:	0200                	c.addi4spn	x8,x2,256
    1a3f:	0504                	c.addi4spn	x9,x2,640
    1a41:	6e69                	c.lui	x28,0x1a
    1a43:	0074                	c.addi4spn	x13,x2,12
    1a45:	c4070403          	lb	x8,-960(x14)
    1a49:	0000                	c.unimp
    1a4b:	0300                	c.addi4spn	x8,x2,384
    1a4d:	0508                	c.addi4spn	x10,x2,640
    1a4f:	013c                	c.addi4spn	x15,x2,136
    1a51:	0000                	c.unimp
    1a53:	5e041003          	lh	x0,1504(x8)
    1a57:	03000007          	0x3000007
    1a5b:	0601                	c.addi	x12,0
    1a5d:	001d                	c.addi	x0,7
    1a5f:	0000                	c.unimp
    1a61:	1b080103          	lb	x2,432(x16)
    1a65:	0000                	c.unimp
    1a67:	0300                	c.addi4spn	x8,x2,384
    1a69:	0502                	c.slli64	x10
    1a6b:	0780                	c.addi4spn	x8,x2,960
    1a6d:	0000                	c.unimp
    1a6f:	68070203          	lb	x4,1664(x14)
    1a73:	0000                	c.unimp
    1a75:	0300                	c.addi4spn	x8,x2,384
    1a77:	0504                	c.addi4spn	x9,x2,640
    1a79:	0141                	c.addi	x2,16
    1a7b:	0000                	c.unimp
    1a7d:	bf070403          	lb	x8,-1040(x14)
    1a81:	0000                	c.unimp
    1a83:	0300                	c.addi4spn	x8,x2,384
    1a85:	0708                	c.addi4spn	x10,x2,896
    1a87:	00ba                	c.slli	x1,0xe
    1a89:	0000                	c.unimp
    1a8b:	24080103          	lb	x2,576(x16)
    1a8f:	0000                	c.unimp
    1a91:	0400                	c.addi4spn	x8,x2,512
    1a93:	0778                	c.addi4spn	x14,x2,908
    1a95:	0000                	c.unimp
    1a97:	7b01                	c.lui	x22,0xfffe0
    1a99:	4016                	0x4016
    1a9b:	0000                	c.unimp
    1a9d:	0500                	c.addi4spn	x8,x2,640
    1a9f:	0071                	c.addi	x0,28
    1aa1:	0000                	c.unimp
    1aa3:	72040403          	lb	x8,1824(x8)
    1aa7:	03000007          	0x3000007
    1aab:	0308                	c.addi4spn	x10,x2,384
    1aad:	076a                	c.slli	x14,0x1a
    1aaf:	0000                	c.unimp
    1ab1:	63040803          	lb	x16,1584(x8)
    1ab5:	03000007          	0x3000007
    1ab9:	0310                	c.addi4spn	x12,x2,384
    1abb:	0712                	c.slli	x14,0x4
    1abd:	0000                	c.unimp
    1abf:	56032003          	lw	x0,1376(x6)
    1ac3:	06000007          	0x6000007
    1ac7:	007d                	c.addi	x0,31
    1ac9:	0000                	c.unimp
    1acb:	00b5                	c.addi	x1,13
    1acd:	0000                	c.unimp
    1acf:	00002407          	flw	f8,0(x0) # 0 <.Ldebug_info0>
    1ad3:	ff00                	c.fsw	f8,56(x14)
    1ad5:	0500                	c.addi4spn	x8,x2,640
    1ad7:	00a5                	c.addi	x1,9
    1ad9:	0000                	c.unimp
    1adb:	4c08                	c.lw	x10,24(x8)
    1add:	01000007          	0x1000007
    1ae1:	0202                	c.slli64	x4
    1ae3:	b516                	c.fsdsp	f5,168(x2)
    1ae5:	0000                	c.unimp
    1ae7:	0900                	c.addi4spn	x8,x2,144
    1ae9:	00ba                	c.slli	x1,0xe
    1aeb:	0000                	c.unimp
    1aed:	b202                	c.fsdsp	f0,288(x2)
    1aef:	0f02                	c.slli64	x30
    1af1:	0305                	c.addi	x6,1
    1af3:	4068                	c.lw	x10,68(x8)
    1af5:	0000                	c.unimp
	...

Disassembly of section .debug_abbrev:

00000000 <.Ldebug_abbrev0>:
   0:	1101                	c.addi	x2,-32
   2:	2501                	c.jal	602 <.LASF23+0x19>
   4:	130e                	c.slli	x6,0x23
   6:	1b0e030b          	0x1b0e030b
   a:	110e                	c.slli	x2,0x23
   c:	1201                	c.addi	x4,-32
   e:	1006                	c.slli	x0,0x21
  10:	02000017          	auipc	x0,0x2000
  14:	0024                	c.addi4spn	x9,x2,8
  16:	0b3e0b0b          	0xb3e0b0b
  1a:	00000e03          	lb	x28,0(x0) # 0 <.Ldebug_abbrev0>
  1e:	03001603          	lh	x12,48(x0) # 30 <printf_num>
  22:	3a0e                	c.fldsp	f20,224(x2)
  24:	390b3b0b          	0x390b3b0b
  28:	0013490b          	0x13490b
  2c:	0400                	c.addi4spn	x8,x2,512
  2e:	0024                	c.addi4spn	x9,x2,8
  30:	0b3e0b0b          	0xb3e0b0b
  34:	00000803          	lb	x16,0(x0) # 0 <.Ldebug_abbrev0>
  38:	1305                	c.addi	x6,-31
  3a:	0b01                	c.addi	x22,0
  3c:	3b0b3a0b          	0x3b0b3a0b
  40:	010b390b          	0x10b390b
  44:	06000013          	addi	x0,x0,96
  48:	000d                	c.addi	x0,3
  4a:	0b3a0e03          	lb	x28,179(x20) # 228b1 <.LC1+0x1e719>
  4e:	0b390b3b          	0xb390b3b
  52:	1349                	c.addi	x6,-14
  54:	0b0d0b0b          	0xb0d0b0b
  58:	0b0c                	c.addi4spn	x11,x2,400
  5a:	0b38                	c.addi4spn	x14,x2,408
  5c:	0000                	c.unimp
  5e:	03000d07          	0x3000d07
  62:	3a08                	c.fld	f10,48(x12)
  64:	390b3b0b          	0x390b3b0b
  68:	0b13490b          	0xb13490b
  6c:	0c0b0d0b          	0xc0b0d0b
  70:	000b380b          	0xb380b
  74:	0800                	c.addi4spn	x8,x2,16
  76:	0e030117          	auipc	x2,0xe030
  7a:	0b3a0b0b          	0xb3a0b0b
  7e:	0b390b3b          	0xb390b3b
  82:	1301                	c.addi	x6,-32
  84:	0000                	c.unimp
  86:	0d09                	c.addi	x26,2
  88:	0300                	c.addi4spn	x8,x2,384
  8a:	3a08                	c.fld	f10,48(x12)
  8c:	390b3b0b          	0x390b3b0b
  90:	0013490b          	0x13490b
  94:	0a00                	c.addi4spn	x8,x2,272
  96:	000d                	c.addi	x0,3
  98:	0b3a0e03          	lb	x28,179(x20)
  9c:	0b390b3b          	0xb390b3b
  a0:	1349                	c.addi	x6,-14
  a2:	0000                	c.unimp
  a4:	3f012e0b          	0x3f012e0b
  a8:	0319                	c.addi	x6,6
  aa:	3a0e                	c.fldsp	f20,224(x2)
  ac:	390b3b0b          	0x390b3b0b
  b0:	4919270b          	0x4919270b
  b4:	12011113          	0x12011113
  b8:	4006                	0x4006
  ba:	9718                	0x9718
  bc:	1942                	c.slli	x18,0x30
  be:	1301                	c.addi	x6,-32
  c0:	0000                	c.unimp
  c2:	050c                	c.addi4spn	x11,x2,640
  c4:	0300                	c.addi4spn	x8,x2,384
  c6:	3a08                	c.fld	f10,48(x12)
  c8:	390b3b0b          	0x390b3b0b
  cc:	0213490b          	0x213490b
  d0:	0d000017          	auipc	x0,0xd000
  d4:	0034                	c.addi4spn	x13,x2,8
  d6:	0b3a0e03          	lb	x28,179(x20)
  da:	0b390b3b          	0xb390b3b
  de:	1349                	c.addi	x6,-14
  e0:	0b1c                	c.addi4spn	x15,x2,400
  e2:	0000                	c.unimp
  e4:	340e                	c.fldsp	f8,224(x2)
  e6:	0300                	c.addi4spn	x8,x2,384
  e8:	3a08                	c.fld	f10,48(x12)
  ea:	390b3b0b          	0x390b3b0b
  ee:	0013490b          	0x13490b
  f2:	0f00                	c.addi4spn	x8,x2,912
  f4:	0034                	c.addi4spn	x13,x2,8
  f6:	0b3a0803          	lb	x16,179(x20)
  fa:	0b390b3b          	0xb390b3b
  fe:	1349                	c.addi	x6,-14
 100:	1802                	c.slli	x16,0x20
 102:	0000                	c.unimp
 104:	3410                	c.fld	f12,40(x8)
 106:	0300                	c.addi4spn	x8,x2,384
 108:	3a0e                	c.fldsp	f20,224(x2)
 10a:	390b3b0b          	0x390b3b0b
 10e:	0213490b          	0x213490b
 112:	0018                	0x18
 114:	1100                	c.addi4spn	x8,x2,160
 116:	0034                	c.addi4spn	x13,x2,8
 118:	0b3a0e03          	lb	x28,179(x20)
 11c:	0b390b3b          	0xb390b3b
 120:	1349                	c.addi	x6,-14
 122:	1702                	c.slli	x14,0x20
 124:	0000                	c.unimp
 126:	0b12                	c.slli	x22,0x4
 128:	5501                	c.li	x10,-32
 12a:	00130117          	auipc	x2,0x130
 12e:	1300                	c.addi4spn	x8,x2,416
 130:	0034                	c.addi4spn	x13,x2,8
 132:	0b3a0e03          	lb	x28,179(x20)
 136:	0b390b3b          	0xb390b3b
 13a:	1349                	c.addi	x6,-14
 13c:	0000                	c.unimp
 13e:	0b14                	c.addi4spn	x13,x2,400
 140:	0101                	c.addi	x2,0
 142:	15000013          	addi	x0,x0,336
 146:	0000010b          	0x10b
	...

0000014b <.Ldebug_abbrev0>:
 14b:	1101                	c.addi	x2,-32
 14d:	2501                	c.jal	74d <.LASF20+0x1>
 14f:	130e                	c.slli	x6,0x23
 151:	1b0e030b          	0x1b0e030b
 155:	110e                	c.slli	x2,0x23
 157:	1201                	c.addi	x4,-32
 159:	1006                	c.slli	x0,0x21
 15b:	02000017          	auipc	x0,0x2000
 15f:	0024                	c.addi4spn	x9,x2,8
 161:	0b3e0b0b          	0xb3e0b0b
 165:	00000e03          	lb	x28,0(x0) # 0 <.Ldebug_abbrev0>
 169:	03001603          	lh	x12,48(x0) # 30 <printf_num>
 16d:	3a0e                	c.fldsp	f20,224(x2)
 16f:	390b3b0b          	0x390b3b0b
 173:	0013490b          	0x13490b
 177:	0400                	c.addi4spn	x8,x2,512
 179:	0024                	c.addi4spn	x9,x2,8
 17b:	0b3e0b0b          	0xb3e0b0b
 17f:	00000803          	lb	x16,0(x0) # 0 <.Ldebug_abbrev0>
 183:	1305                	c.addi	x6,-31
 185:	0b01                	c.addi	x22,0
 187:	3b0b3a0b          	0x3b0b3a0b
 18b:	010b390b          	0x10b390b
 18f:	06000013          	addi	x0,x0,96
 193:	000d                	c.addi	x0,3
 195:	0b3a0e03          	lb	x28,179(x20)
 199:	0b390b3b          	0xb390b3b
 19d:	1349                	c.addi	x6,-14
 19f:	0b0d0b0b          	0xb0d0b0b
 1a3:	0b0c                	c.addi4spn	x11,x2,400
 1a5:	0b38                	c.addi4spn	x14,x2,408
 1a7:	0000                	c.unimp
 1a9:	03000d07          	0x3000d07
 1ad:	3a08                	c.fld	f10,48(x12)
 1af:	390b3b0b          	0x390b3b0b
 1b3:	0b13490b          	0xb13490b
 1b7:	0c0b0d0b          	0xc0b0d0b
 1bb:	000b380b          	0xb380b
 1bf:	0800                	c.addi4spn	x8,x2,16
 1c1:	0e030117          	auipc	x2,0xe030
 1c5:	0b3a0b0b          	0xb3a0b0b
 1c9:	0b390b3b          	0xb390b3b
 1cd:	1301                	c.addi	x6,-32
 1cf:	0000                	c.unimp
 1d1:	0d09                	c.addi	x26,2
 1d3:	0300                	c.addi4spn	x8,x2,384
 1d5:	3a08                	c.fld	f10,48(x12)
 1d7:	390b3b0b          	0x390b3b0b
 1db:	0013490b          	0x13490b
 1df:	0a00                	c.addi4spn	x8,x2,272
 1e1:	000d                	c.addi	x0,3
 1e3:	0b3a0e03          	lb	x28,179(x20)
 1e7:	0b390b3b          	0xb390b3b
 1eb:	1349                	c.addi	x6,-14
 1ed:	0000                	c.unimp
 1ef:	3f012e0b          	0x3f012e0b
 1f3:	0319                	c.addi	x6,6
 1f5:	3a0e                	c.fldsp	f20,224(x2)
 1f7:	390b3b0b          	0x390b3b0b
 1fb:	4919270b          	0x4919270b
 1ff:	12011113          	0x12011113
 203:	4006                	0x4006
 205:	9718                	0x9718
 207:	1942                	c.slli	x18,0x30
 209:	1301                	c.addi	x6,-32
 20b:	0000                	c.unimp
 20d:	050c                	c.addi4spn	x11,x2,640
 20f:	0300                	c.addi4spn	x8,x2,384
 211:	3a08                	c.fld	f10,48(x12)
 213:	390b3b0b          	0x390b3b0b
 217:	0213490b          	0x213490b
 21b:	0d000017          	auipc	x0,0xd000
 21f:	0034                	c.addi4spn	x13,x2,8
 221:	0b3a0e03          	lb	x28,179(x20)
 225:	0b390b3b          	0xb390b3b
 229:	1349                	c.addi	x6,-14
 22b:	0b1c                	c.addi4spn	x15,x2,400
 22d:	0000                	c.unimp
 22f:	340e                	c.fldsp	f8,224(x2)
 231:	0300                	c.addi4spn	x8,x2,384
 233:	3a08                	c.fld	f10,48(x12)
 235:	390b3b0b          	0x390b3b0b
 239:	0013490b          	0x13490b
 23d:	0f00                	c.addi4spn	x8,x2,912
 23f:	0034                	c.addi4spn	x13,x2,8
 241:	0b3a0803          	lb	x16,179(x20)
 245:	0b390b3b          	0xb390b3b
 249:	1349                	c.addi	x6,-14
 24b:	1702                	c.slli	x14,0x20
 24d:	0000                	c.unimp
 24f:	3410                	c.fld	f12,40(x8)
 251:	0300                	c.addi4spn	x8,x2,384
 253:	3a08                	c.fld	f10,48(x12)
 255:	390b3b0b          	0x390b3b0b
 259:	0213490b          	0x213490b
 25d:	0018                	0x18
 25f:	1100                	c.addi4spn	x8,x2,160
 261:	0034                	c.addi4spn	x13,x2,8
 263:	0b3a0e03          	lb	x28,179(x20)
 267:	0b390b3b          	0xb390b3b
 26b:	1349                	c.addi	x6,-14
 26d:	1802                	c.slli	x16,0x20
 26f:	0000                	c.unimp
 271:	3412                	c.fldsp	f8,288(x2)
 273:	0300                	c.addi4spn	x8,x2,384
 275:	3a0e                	c.fldsp	f20,224(x2)
 277:	390b3b0b          	0x390b3b0b
 27b:	0213490b          	0x213490b
 27f:	13000017          	auipc	x0,0x13000
 283:	1755010b          	0x1755010b
 287:	1301                	c.addi	x6,-32
 289:	0000                	c.unimp
 28b:	3414                	c.fld	f13,40(x8)
 28d:	0300                	c.addi4spn	x8,x2,384
 28f:	3a0e                	c.fldsp	f20,224(x2)
 291:	390b3b0b          	0x390b3b0b
 295:	0013490b          	0x13490b
 299:	1500                	c.addi4spn	x8,x2,672
 29b:	1301010b          	0x1301010b
 29f:	0000                	c.unimp
 2a1:	0b16                	c.slli	x22,0x5
 2a3:	5501                	c.li	x10,-32
 2a5:	00000017          	auipc	x0,0x0

000002a9 <.Ldebug_abbrev0>:
 2a9:	1101                	c.addi	x2,-32
 2ab:	2501                	c.jal	8ab <.Ldebug_abbrev0+0xf>
 2ad:	130e                	c.slli	x6,0x23
 2af:	1b0e030b          	0x1b0e030b
 2b3:	110e                	c.slli	x2,0x23
 2b5:	1201                	c.addi	x4,-32
 2b7:	1006                	c.slli	x0,0x21
 2b9:	02000017          	auipc	x0,0x2000
 2bd:	0024                	c.addi4spn	x9,x2,8
 2bf:	0b3e0b0b          	0xb3e0b0b
 2c3:	00000e03          	lb	x28,0(x0) # 0 <.Ldebug_abbrev0>
 2c7:	0b002403          	lw	x8,176(x0) # b0 <.LASF15>
 2cb:	030b3e0b          	0x30b3e0b
 2cf:	0008                	0x8
 2d1:	0400                	c.addi4spn	x8,x2,512
 2d3:	0016                	c.slli	x0,0x5
 2d5:	0b3a0e03          	lb	x28,179(x20)
 2d9:	0b39053b          	0xb39053b
 2dd:	1349                	c.addi	x6,-14
 2df:	0000                	c.unimp
 2e1:	1605                	c.addi	x12,-31
 2e3:	0300                	c.addi4spn	x8,x2,384
 2e5:	3a0e                	c.fldsp	f20,224(x2)
 2e7:	390b3b0b          	0x390b3b0b
 2eb:	0013490b          	0x13490b
 2ef:	0600                	c.addi4spn	x8,x2,768
 2f1:	0b0b0113          	addi	x2,x22,176 # fffe00b0 <.LC1+0xfffdbf18>
 2f5:	0b3a                	c.slli	x22,0xe
 2f7:	0b390b3b          	0xb390b3b
 2fb:	1301                	c.addi	x6,-32
 2fd:	0000                	c.unimp
 2ff:	03000d07          	0x3000d07
 303:	3a0e                	c.fldsp	f20,224(x2)
 305:	390b3b0b          	0x390b3b0b
 309:	0b13490b          	0xb13490b
 30d:	0c0b0d0b          	0xc0b0d0b
 311:	000b380b          	0xb380b
 315:	0800                	c.addi4spn	x8,x2,16
 317:	000d                	c.addi	x0,3
 319:	0b3a0803          	lb	x16,179(x20)
 31d:	0b390b3b          	0xb390b3b
 321:	1349                	c.addi	x6,-14
 323:	0b0d0b0b          	0xb0d0b0b
 327:	0b0c                	c.addi4spn	x11,x2,400
 329:	0b38                	c.addi4spn	x14,x2,408
 32b:	0000                	c.unimp
 32d:	1709                	c.addi	x14,-30
 32f:	0301                	c.addi	x6,0
 331:	0b0e                	c.slli	x22,0x3
 333:	3b0b3a0b          	0x3b0b3a0b
 337:	010b390b          	0x10b390b
 33b:	0a000013          	addi	x0,x0,160
 33f:	000d                	c.addi	x0,3
 341:	0b3a0803          	lb	x16,179(x20)
 345:	0b390b3b          	0xb390b3b
 349:	1349                	c.addi	x6,-14
 34b:	0000                	c.unimp
 34d:	03000d0b          	0x3000d0b
 351:	3a0e                	c.fldsp	f20,224(x2)
 353:	390b3b0b          	0x390b3b0b
 357:	0013490b          	0x13490b
 35b:	0c00                	c.addi4spn	x8,x2,528
 35d:	012e                	c.slli	x2,0xb
 35f:	0e03193f 0b3b0b3a 	0xb3b0b3a0e03193f
 367:	0b39                	c.addi	x22,14
 369:	13491927          	0x13491927
 36d:	0111                	c.addi	x2,4
 36f:	0612                	c.slli	x12,0x4
 371:	1840                	c.addi4spn	x8,x2,52
 373:	01194297          	auipc	x5,0x1194
 377:	0d000013          	addi	x0,x0,208
 37b:	0005                	c.addi	x0,1
 37d:	0b3a0803          	lb	x16,179(x20)
 381:	0b390b3b          	0xb390b3b
 385:	1349                	c.addi	x6,-14
 387:	1702                	c.slli	x14,0x20
 389:	0000                	c.unimp
 38b:	340e                	c.fldsp	f8,224(x2)
 38d:	0300                	c.addi4spn	x8,x2,384
 38f:	3a0e                	c.fldsp	f20,224(x2)
 391:	390b3b0b          	0x390b3b0b
 395:	0213490b          	0x213490b
 399:	0f000017          	auipc	x0,0xf000
 39d:	0034                	c.addi4spn	x13,x2,8
 39f:	0b3a0e03          	lb	x28,179(x20)
 3a3:	0b390b3b          	0xb390b3b
 3a7:	1349                	c.addi	x6,-14
 3a9:	0b1c                	c.addi4spn	x15,x2,400
 3ab:	0000                	c.unimp
 3ad:	3410                	c.fld	f12,40(x8)
 3af:	0300                	c.addi4spn	x8,x2,384
 3b1:	3a08                	c.fld	f10,48(x12)
 3b3:	390b3b0b          	0x390b3b0b
 3b7:	0213490b          	0x213490b
 3bb:	11000017          	auipc	x0,0x11000
 3bf:	0034                	c.addi4spn	x13,x2,8
 3c1:	0b3a0803          	lb	x16,179(x20)
 3c5:	0b390b3b          	0xb390b3b
 3c9:	1349                	c.addi	x6,-14
 3cb:	0000                	c.unimp
 3cd:	0b12                	c.slli	x22,0x4
 3cf:	5501                	c.li	x10,-32
 3d1:	00130117          	auipc	x2,0x130
 3d5:	1300                	c.addi4spn	x8,x2,416
 3d7:	0034                	c.addi4spn	x13,x2,8
 3d9:	0b3a0e03          	lb	x28,179(x20)
 3dd:	0b390b3b          	0xb390b3b
 3e1:	1349                	c.addi	x6,-14
 3e3:	0000                	c.unimp
 3e5:	8914                	0x8914
 3e7:	0182                	c.slli64	x3
 3e9:	1100                	c.addi4spn	x8,x2,160
 3eb:	3101                	c.jal	ffffffeb <.LC1+0xffffbe53>
 3ed:	15000013          	addi	x0,x0,336
 3f1:	0111010b          	0x111010b
 3f5:	0612                	c.slli	x12,0x4
 3f7:	1301                	c.addi	x6,-32
 3f9:	0000                	c.unimp
 3fb:	3416                	c.fldsp	f8,352(x2)
 3fd:	0300                	c.addi4spn	x8,x2,384
 3ff:	3a0e                	c.fldsp	f20,224(x2)
 401:	390b3b0b          	0x390b3b0b
 405:	0213490b          	0x213490b
 409:	0018                	0x18
 40b:	1700                	c.addi4spn	x8,x2,928
 40d:	1755010b          	0x1755010b
 411:	0000                	c.unimp
 413:	0b18                	c.addi4spn	x14,x2,400
 415:	0101                	c.addi	x2,0
 417:	19000013          	addi	x0,x0,400
 41b:	0000010b          	0x10b
 41f:	011a                	c.slli	x2,0x6
 421:	4901                	c.li	x18,0
 423:	00130113          	addi	x2,x6,1
 427:	1b00                	c.addi4spn	x8,x2,432
 429:	0021                	c.addi	x0,8
 42b:	1349                	c.addi	x6,-14
 42d:	00000b2f          	0xb2f
 431:	2e1c                	c.fld	f15,24(x12)
 433:	3f00                	c.fld	f8,56(x14)
 435:	3c19                	c.jal	fffffe4b <.LC1+0xffffbcb3>
 437:	6e19                	c.lui	x28,0x6
 439:	030e                	c.slli	x6,0x3
 43b:	000e                	c.slli	x0,0x3
	...

0000043f <.Ldebug_abbrev0>:
 43f:	1101                	c.addi	x2,-32
 441:	2501                	c.jal	a41 <.LVL15+0x1>
 443:	130e                	c.slli	x6,0x23
 445:	1b0e030b          	0x1b0e030b
 449:	110e                	c.slli	x2,0x23
 44b:	1201                	c.addi	x4,-32
 44d:	1006                	c.slli	x0,0x21
 44f:	02000017          	auipc	x0,0x2000
 453:	0024                	c.addi4spn	x9,x2,8
 455:	0b3e0b0b          	0xb3e0b0b
 459:	00000e03          	lb	x28,0(x0) # 0 <.Ldebug_abbrev0>
 45d:	0b002403          	lw	x8,176(x0) # b0 <.LASF15>
 461:	030b3e0b          	0x30b3e0b
 465:	0008                	0x8
 467:	0400                	c.addi4spn	x8,x2,512
 469:	0016                	c.slli	x0,0x5
 46b:	0b3a0e03          	lb	x28,179(x20)
 46f:	0b390b3b          	0xb390b3b
 473:	1349                	c.addi	x6,-14
 475:	0000                	c.unimp
 477:	1305                	c.addi	x6,-31
 479:	0b01                	c.addi	x22,0
 47b:	3b0b3a0b          	0x3b0b3a0b
 47f:	010b390b          	0x10b390b
 483:	06000013          	addi	x0,x0,96
 487:	000d                	c.addi	x0,3
 489:	0b3a0e03          	lb	x28,179(x20)
 48d:	0b390b3b          	0xb390b3b
 491:	1349                	c.addi	x6,-14
 493:	0b0d0b0b          	0xb0d0b0b
 497:	0b0c                	c.addi4spn	x11,x2,400
 499:	0b38                	c.addi4spn	x14,x2,408
 49b:	0000                	c.unimp
 49d:	03000d07          	0x3000d07
 4a1:	3a08                	c.fld	f10,48(x12)
 4a3:	390b3b0b          	0x390b3b0b
 4a7:	0b13490b          	0xb13490b
 4ab:	0c0b0d0b          	0xc0b0d0b
 4af:	000b380b          	0xb380b
 4b3:	0800                	c.addi4spn	x8,x2,16
 4b5:	0e030117          	auipc	x2,0xe030
 4b9:	0b3a0b0b          	0xb3a0b0b
 4bd:	0b390b3b          	0xb390b3b
 4c1:	1301                	c.addi	x6,-32
 4c3:	0000                	c.unimp
 4c5:	0d09                	c.addi	x26,2
 4c7:	0300                	c.addi4spn	x8,x2,384
 4c9:	3a08                	c.fld	f10,48(x12)
 4cb:	390b3b0b          	0x390b3b0b
 4cf:	0013490b          	0x13490b
 4d3:	0a00                	c.addi4spn	x8,x2,272
 4d5:	000d                	c.addi	x0,3
 4d7:	0b3a0e03          	lb	x28,179(x20)
 4db:	0b390b3b          	0xb390b3b
 4df:	1349                	c.addi	x6,-14
 4e1:	0000                	c.unimp
 4e3:	3f012e0b          	0x3f012e0b
 4e7:	0319                	c.addi	x6,6
 4e9:	3a0e                	c.fldsp	f20,224(x2)
 4eb:	390b3b0b          	0x390b3b0b
 4ef:	4919270b          	0x4919270b
 4f3:	12011113          	0x12011113
 4f7:	4006                	0x4006
 4f9:	9718                	0x9718
 4fb:	1942                	c.slli	x18,0x30
 4fd:	1301                	c.addi	x6,-32
 4ff:	0000                	c.unimp
 501:	050c                	c.addi4spn	x11,x2,640
 503:	0300                	c.addi4spn	x8,x2,384
 505:	3a08                	c.fld	f10,48(x12)
 507:	390b3b0b          	0x390b3b0b
 50b:	0213490b          	0x213490b
 50f:	0d000017          	auipc	x0,0xd000
 513:	0034                	c.addi4spn	x13,x2,8
 515:	0b3a0e03          	lb	x28,179(x20)
 519:	0b390b3b          	0xb390b3b
 51d:	1349                	c.addi	x6,-14
 51f:	1702                	c.slli	x14,0x20
 521:	0000                	c.unimp
 523:	340e                	c.fldsp	f8,224(x2)
 525:	0300                	c.addi4spn	x8,x2,384
 527:	3a0e                	c.fldsp	f20,224(x2)
 529:	390b3b0b          	0x390b3b0b
 52d:	1c13490b          	0x1c13490b
 531:	0f00000b          	0xf00000b
 535:	0034                	c.addi4spn	x13,x2,8
 537:	0b3a0803          	lb	x16,179(x20)
 53b:	0b390b3b          	0xb390b3b
 53f:	1349                	c.addi	x6,-14
 541:	0000                	c.unimp
 543:	3410                	c.fld	f12,40(x8)
 545:	0300                	c.addi4spn	x8,x2,384
 547:	3a08                	c.fld	f10,48(x12)
 549:	390b3b0b          	0x390b3b0b
 54d:	0213490b          	0x213490b
 551:	11000017          	auipc	x0,0x11000
 555:	1755010b          	0x1755010b
 559:	1301                	c.addi	x6,-32
 55b:	0000                	c.unimp
 55d:	3412                	c.fldsp	f8,288(x2)
 55f:	0300                	c.addi4spn	x8,x2,384
 561:	3a0e                	c.fldsp	f20,224(x2)
 563:	390b3b0b          	0x390b3b0b
 567:	0013490b          	0x13490b
 56b:	1300                	c.addi4spn	x8,x2,416
 56d:	000a                	c.slli	x0,0x2
 56f:	0b3a0e03          	lb	x28,179(x20)
 573:	0b390b3b          	0xb390b3b
 577:	0111                	c.addi	x2,4
 579:	0000                	c.unimp
 57b:	0b14                	c.addi4spn	x13,x2,400
 57d:	1101                	c.addi	x2,-32
 57f:	1201                	c.addi	x4,-32
 581:	0106                	c.slli	x2,0x1
 583:	15000013          	addi	x0,x0,336
 587:	1755010b          	0x1755010b
 58b:	0000                	c.unimp
 58d:	8916                	c.mv	x18,x5
 58f:	0182                	c.slli64	x3
 591:	1100                	c.addi4spn	x8,x2,160
 593:	3101                	c.jal	193 <.LLST4+0x11>
 595:	17000013          	addi	x0,x0,368
 599:	1301010b          	0x1301010b
 59d:	0000                	c.unimp
 59f:	0b18                	c.addi4spn	x14,x2,400
 5a1:	0001                	c.addi	x0,0
 5a3:	1900                	c.addi4spn	x8,x2,176
 5a5:	002e                	c.slli	x0,0xb
 5a7:	193c193f 0e030e6e 	0xe030e6e193c193f
 5af:	0000                	c.unimp
	...

000005b2 <.Ldebug_abbrev0>:
 5b2:	1101                	c.addi	x2,-32
 5b4:	2501                	c.jal	bb4 <.LVL23+0x10>
 5b6:	130e                	c.slli	x6,0x23
 5b8:	1b0e030b          	0x1b0e030b
 5bc:	110e                	c.slli	x2,0x23
 5be:	1201                	c.addi	x4,-32
 5c0:	1006                	c.slli	x0,0x21
 5c2:	02000017          	auipc	x0,0x2000
 5c6:	0024                	c.addi4spn	x9,x2,8
 5c8:	0b3e0b0b          	0xb3e0b0b
 5cc:	00000e03          	lb	x28,0(x0) # 0 <.Ldebug_abbrev0>
 5d0:	0b002403          	lw	x8,176(x0) # b0 <.LASF15>
 5d4:	030b3e0b          	0x30b3e0b
 5d8:	0008                	0x8
 5da:	0400                	c.addi4spn	x8,x2,512
 5dc:	0016                	c.slli	x0,0x5
 5de:	0b3a0e03          	lb	x28,179(x20)
 5e2:	0b39053b          	0xb39053b
 5e6:	1349                	c.addi	x6,-14
 5e8:	0000                	c.unimp
 5ea:	1605                	c.addi	x12,-31
 5ec:	0300                	c.addi4spn	x8,x2,384
 5ee:	3a0e                	c.fldsp	f20,224(x2)
 5f0:	390b3b0b          	0x390b3b0b
 5f4:	0013490b          	0x13490b
 5f8:	0600                	c.addi4spn	x8,x2,768
 5fa:	0b0b0113          	addi	x2,x22,176
 5fe:	0b3a                	c.slli	x22,0xe
 600:	0b390b3b          	0xb390b3b
 604:	1301                	c.addi	x6,-32
 606:	0000                	c.unimp
 608:	03000d07          	0x3000d07
 60c:	3a0e                	c.fldsp	f20,224(x2)
 60e:	390b3b0b          	0x390b3b0b
 612:	0b13490b          	0xb13490b
 616:	0c0b0d0b          	0xc0b0d0b
 61a:	000b380b          	0xb380b
 61e:	0800                	c.addi4spn	x8,x2,16
 620:	000d                	c.addi	x0,3
 622:	0b3a0803          	lb	x16,179(x20)
 626:	0b390b3b          	0xb390b3b
 62a:	1349                	c.addi	x6,-14
 62c:	0b0d0b0b          	0xb0d0b0b
 630:	0b0c                	c.addi4spn	x11,x2,400
 632:	0b38                	c.addi4spn	x14,x2,408
 634:	0000                	c.unimp
 636:	1709                	c.addi	x14,-30
 638:	0301                	c.addi	x6,0
 63a:	0b0e                	c.slli	x22,0x3
 63c:	3b0b3a0b          	0x3b0b3a0b
 640:	010b390b          	0x10b390b
 644:	0a000013          	addi	x0,x0,160
 648:	000d                	c.addi	x0,3
 64a:	0b3a0803          	lb	x16,179(x20)
 64e:	0b390b3b          	0xb390b3b
 652:	1349                	c.addi	x6,-14
 654:	0000                	c.unimp
 656:	03000d0b          	0x3000d0b
 65a:	3a0e                	c.fldsp	f20,224(x2)
 65c:	390b3b0b          	0x390b3b0b
 660:	0013490b          	0x13490b
 664:	0c00                	c.addi4spn	x8,x2,528
 666:	012e                	c.slli	x2,0xb
 668:	0e03193f 0b3b0b3a 	0xb3b0b3a0e03193f
 670:	0b39                	c.addi	x22,14
 672:	13491927          	0x13491927
 676:	0111                	c.addi	x2,4
 678:	0612                	c.slli	x12,0x4
 67a:	1840                	c.addi4spn	x8,x2,52
 67c:	01194297          	auipc	x5,0x1194
 680:	0d000013          	addi	x0,x0,208
 684:	0005                	c.addi	x0,1
 686:	0b3a0803          	lb	x16,179(x20)
 68a:	0b390b3b          	0xb390b3b
 68e:	1349                	c.addi	x6,-14
 690:	1702                	c.slli	x14,0x20
 692:	0000                	c.unimp
 694:	340e                	c.fldsp	f8,224(x2)
 696:	0300                	c.addi4spn	x8,x2,384
 698:	3a0e                	c.fldsp	f20,224(x2)
 69a:	390b3b0b          	0x390b3b0b
 69e:	0213490b          	0x213490b
 6a2:	0f000017          	auipc	x0,0xf000
 6a6:	0034                	c.addi4spn	x13,x2,8
 6a8:	0b3a0e03          	lb	x28,179(x20)
 6ac:	0b390b3b          	0xb390b3b
 6b0:	1349                	c.addi	x6,-14
 6b2:	0b1c                	c.addi4spn	x15,x2,400
 6b4:	0000                	c.unimp
 6b6:	3410                	c.fld	f12,40(x8)
 6b8:	0300                	c.addi4spn	x8,x2,384
 6ba:	3a08                	c.fld	f10,48(x12)
 6bc:	390b3b0b          	0x390b3b0b
 6c0:	0013490b          	0x13490b
 6c4:	1100                	c.addi4spn	x8,x2,160
 6c6:	0034                	c.addi4spn	x13,x2,8
 6c8:	0b3a0803          	lb	x16,179(x20)
 6cc:	0b390b3b          	0xb390b3b
 6d0:	1349                	c.addi	x6,-14
 6d2:	1802                	c.slli	x16,0x20
 6d4:	0000                	c.unimp
 6d6:	3412                	c.fldsp	f8,288(x2)
 6d8:	0300                	c.addi4spn	x8,x2,384
 6da:	3a08                	c.fld	f10,48(x12)
 6dc:	390b3b0b          	0x390b3b0b
 6e0:	0213490b          	0x213490b
 6e4:	13000017          	auipc	x0,0x13000
 6e8:	1755010b          	0x1755010b
 6ec:	1301                	c.addi	x6,-32
 6ee:	0000                	c.unimp
 6f0:	3414                	c.fld	f13,40(x8)
 6f2:	0300                	c.addi4spn	x8,x2,384
 6f4:	3a0e                	c.fldsp	f20,224(x2)
 6f6:	390b3b0b          	0x390b3b0b
 6fa:	0013490b          	0x13490b
 6fe:	1500                	c.addi4spn	x8,x2,672
 700:	1301010b          	0x1301010b
 704:	0000                	c.unimp
 706:	0b16                	c.slli	x22,0x5
 708:	1101                	c.addi	x2,-32
 70a:	1201                	c.addi	x4,-32
 70c:	0006                	c.slli	x0,0x1
	...

00000710 <.Ldebug_abbrev0>:
 710:	1101                	c.addi	x2,-32
 712:	2501                	c.jal	d12 <.LBB25+0x2>
 714:	130e                	c.slli	x6,0x23
 716:	1b0e030b          	0x1b0e030b
 71a:	110e                	c.slli	x2,0x23
 71c:	1201                	c.addi	x4,-32
 71e:	1006                	c.slli	x0,0x21
 720:	02000017          	auipc	x0,0x2000
 724:	0024                	c.addi4spn	x9,x2,8
 726:	0b3e0b0b          	0xb3e0b0b
 72a:	00000803          	lb	x16,0(x0) # 0 <.Ldebug_abbrev0>
 72e:	0b002403          	lw	x8,176(x0) # b0 <.LASF15>
 732:	030b3e0b          	0x30b3e0b
 736:	000e                	c.slli	x0,0x3
 738:	0400                	c.addi4spn	x8,x2,512
 73a:	0016                	c.slli	x0,0x5
 73c:	0b3a0e03          	lb	x28,179(x20)
 740:	0b39053b          	0xb39053b
 744:	1349                	c.addi	x6,-14
 746:	0000                	c.unimp
 748:	1605                	c.addi	x12,-31
 74a:	0300                	c.addi4spn	x8,x2,384
 74c:	3a0e                	c.fldsp	f20,224(x2)
 74e:	390b3b0b          	0x390b3b0b
 752:	0013490b          	0x13490b
 756:	0600                	c.addi4spn	x8,x2,768
 758:	0b0b0113          	addi	x2,x22,176
 75c:	0b3a                	c.slli	x22,0xe
 75e:	0b390b3b          	0xb390b3b
 762:	1301                	c.addi	x6,-32
 764:	0000                	c.unimp
 766:	03000d07          	0x3000d07
 76a:	3a0e                	c.fldsp	f20,224(x2)
 76c:	390b3b0b          	0x390b3b0b
 770:	0b13490b          	0xb13490b
 774:	0c0b0d0b          	0xc0b0d0b
 778:	000b380b          	0xb380b
 77c:	0800                	c.addi4spn	x8,x2,16
 77e:	000d                	c.addi	x0,3
 780:	0b3a0803          	lb	x16,179(x20)
 784:	0b390b3b          	0xb390b3b
 788:	1349                	c.addi	x6,-14
 78a:	0b0d0b0b          	0xb0d0b0b
 78e:	0b0c                	c.addi4spn	x11,x2,400
 790:	0b38                	c.addi4spn	x14,x2,408
 792:	0000                	c.unimp
 794:	1709                	c.addi	x14,-30
 796:	0301                	c.addi	x6,0
 798:	0b0e                	c.slli	x22,0x3
 79a:	3b0b3a0b          	0x3b0b3a0b
 79e:	010b390b          	0x10b390b
 7a2:	0a000013          	addi	x0,x0,160
 7a6:	000d                	c.addi	x0,3
 7a8:	0b3a0803          	lb	x16,179(x20)
 7ac:	0b390b3b          	0xb390b3b
 7b0:	1349                	c.addi	x6,-14
 7b2:	0000                	c.unimp
 7b4:	03000d0b          	0x3000d0b
 7b8:	3a0e                	c.fldsp	f20,224(x2)
 7ba:	390b3b0b          	0x390b3b0b
 7be:	0013490b          	0x13490b
 7c2:	0c00                	c.addi4spn	x8,x2,528
 7c4:	012e                	c.slli	x2,0xb
 7c6:	0e03193f 0b3b0b3a 	0xb3b0b3a0e03193f
 7ce:	0b39                	c.addi	x22,14
 7d0:	13491927          	0x13491927
 7d4:	0111                	c.addi	x2,4
 7d6:	0612                	c.slli	x12,0x4
 7d8:	1840                	c.addi4spn	x8,x2,52
 7da:	01194297          	auipc	x5,0x1194
 7de:	0d000013          	addi	x0,x0,208
 7e2:	0005                	c.addi	x0,1
 7e4:	0b3a0803          	lb	x16,179(x20)
 7e8:	0b390b3b          	0xb390b3b
 7ec:	1349                	c.addi	x6,-14
 7ee:	1702                	c.slli	x14,0x20
 7f0:	0000                	c.unimp
 7f2:	340e                	c.fldsp	f8,224(x2)
 7f4:	0300                	c.addi4spn	x8,x2,384
 7f6:	3a08                	c.fld	f10,48(x12)
 7f8:	390b3b0b          	0x390b3b0b
 7fc:	0013490b          	0x13490b
 800:	0f00                	c.addi4spn	x8,x2,912
 802:	0034                	c.addi4spn	x13,x2,8
 804:	0b3a0803          	lb	x16,179(x20)
 808:	0b390b3b          	0xb390b3b
 80c:	1349                	c.addi	x6,-14
 80e:	1702                	c.slli	x14,0x20
 810:	0000                	c.unimp
 812:	3410                	c.fld	f12,40(x8)
 814:	0300                	c.addi4spn	x8,x2,384
 816:	3a0e                	c.fldsp	f20,224(x2)
 818:	390b3b0b          	0x390b3b0b
 81c:	0213490b          	0x213490b
 820:	11000017          	auipc	x0,0x11000
 824:	1755010b          	0x1755010b
 828:	1301                	c.addi	x6,-32
 82a:	0000                	c.unimp
 82c:	0a12                	c.slli	x20,0x4
 82e:	0300                	c.addi4spn	x8,x2,384
 830:	3a0e                	c.fldsp	f20,224(x2)
 832:	390b3b0b          	0x390b3b0b
 836:	1300000b          	0x1300000b
 83a:	1755010b          	0x1755010b
 83e:	0000                	c.unimp
 840:	8914                	0x8914
 842:	0182                	c.slli64	x3
 844:	1100                	c.addi4spn	x8,x2,160
 846:	3101                	c.jal	446 <.L45+0x2>
 848:	15000013          	addi	x0,x0,336
 84c:	0000010b          	0x10b
 850:	3416                	c.fldsp	f8,352(x2)
 852:	0300                	c.addi4spn	x8,x2,384
 854:	3a0e                	c.fldsp	f20,224(x2)
 856:	390b3b0b          	0x390b3b0b
 85a:	0013490b          	0x13490b
 85e:	1700                	c.addi4spn	x8,x2,928
 860:	1301010b          	0x1301010b
 864:	0000                	c.unimp
 866:	2e18                	c.fld	f14,24(x12)
 868:	3f00                	c.fld	f8,56(x14)
 86a:	3c19                	c.jal	280 <.LASF51+0x3>
 86c:	6e19                	c.lui	x28,0x6
 86e:	030e                	c.slli	x6,0x3
 870:	000e                	c.slli	x0,0x3
 872:	0000                	c.unimp
 874:	1101                	c.addi	x2,-32
 876:	1000                	c.addi4spn	x8,x2,32
 878:	1106                	c.slli	x2,0x21
 87a:	1201                	c.addi	x4,-32
 87c:	0301                	c.addi	x6,0
 87e:	1b0e                	c.slli	x22,0x23
 880:	250e                	c.fldsp	f10,192(x2)
 882:	130e                	c.slli	x6,0x23
 884:	0005                	c.addi	x0,1
 886:	0000                	c.unimp
 888:	1101                	c.addi	x2,-32
 88a:	1000                	c.addi4spn	x8,x2,32
 88c:	1106                	c.slli	x2,0x21
 88e:	1201                	c.addi	x4,-32
 890:	0301                	c.addi	x6,0
 892:	1b0e                	c.slli	x22,0x23
 894:	250e                	c.fldsp	f10,192(x2)
 896:	130e                	c.slli	x6,0x23
 898:	0005                	c.addi	x0,1
	...

0000089c <.Ldebug_abbrev0>:
 89c:	1101                	c.addi	x2,-32
 89e:	2501                	c.jal	e9e <.L26+0x2>
 8a0:	130e                	c.slli	x6,0x23
 8a2:	1b0e030b          	0x1b0e030b
 8a6:	110e                	c.slli	x2,0x23
 8a8:	1201                	c.addi	x4,-32
 8aa:	1006                	c.slli	x0,0x21
 8ac:	02000017          	auipc	x0,0x2000
 8b0:	0024                	c.addi4spn	x9,x2,8
 8b2:	0b3e0b0b          	0xb3e0b0b
 8b6:	00000803          	lb	x16,0(x0) # 0 <.Ldebug_abbrev0>
 8ba:	0b002403          	lw	x8,176(x0) # b0 <.LASF15>
 8be:	030b3e0b          	0x30b3e0b
 8c2:	000e                	c.slli	x0,0x3
 8c4:	0400                	c.addi4spn	x8,x2,512
 8c6:	0016                	c.slli	x0,0x5
 8c8:	0b3a0e03          	lb	x28,179(x20)
 8cc:	0b390b3b          	0xb390b3b
 8d0:	1349                	c.addi	x6,-14
 8d2:	0000                	c.unimp
 8d4:	2605                	c.jal	bf4 <.L3+0x4>
 8d6:	4900                	c.lw	x8,16(x10)
 8d8:	06000013          	addi	x0,x0,96
 8dc:	0101                	c.addi	x2,0
 8de:	1349                	c.addi	x6,-14
 8e0:	1301                	c.addi	x6,-32
 8e2:	0000                	c.unimp
 8e4:	49002107          	flw	f2,1168(x0) # 490 <.LASF24>
 8e8:	000b2f13          	slti	x30,x22,0
 8ec:	0800                	c.addi4spn	x8,x2,16
 8ee:	0034                	c.addi4spn	x13,x2,8
 8f0:	0b3a0e03          	lb	x28,179(x20)
 8f4:	0b39053b          	0xb39053b
 8f8:	1349                	c.addi	x6,-14
 8fa:	193c193f 2e090000 	0x2e090000193c193f
 902:	3f01                	c.jal	812 <.LLST14+0x28>
 904:	0319                	c.addi	x6,6
 906:	3a0e                	c.fldsp	f20,224(x2)
 908:	39053b0b          	0x39053b0b
 90c:	4919270b          	0x4919270b
 910:	12011113          	0x12011113
 914:	4006                	0x4006
 916:	9718                	0x9718
 918:	1942                	c.slli	x18,0x30
 91a:	0000                	c.unimp
 91c:	050a                	c.slli	x10,0x2
 91e:	0300                	c.addi4spn	x8,x2,384
 920:	3a08                	c.fld	f10,48(x12)
 922:	39053b0b          	0x39053b0b
 926:	0213490b          	0x213490b
 92a:	0b000017          	auipc	x0,0xb000
 92e:	0034                	c.addi4spn	x13,x2,8
 930:	0b3a0803          	lb	x16,179(x20)
 934:	0b39053b          	0xb39053b
 938:	1349                	c.addi	x6,-14
 93a:	0000                	c.unimp
 93c:	0b0c                	c.addi4spn	x11,x2,400
 93e:	5501                	c.li	x10,-32
 940:	0d000017          	auipc	x0,0xd000
 944:	0034                	c.addi4spn	x13,x2,8
 946:	0b3a0e03          	lb	x28,179(x20)
 94a:	0b39053b          	0xb39053b
 94e:	1349                	c.addi	x6,-14
 950:	1702                	c.slli	x14,0x20
 952:	0000                	c.unimp
 954:	340e                	c.fldsp	f8,224(x2)
 956:	0300                	c.addi4spn	x8,x2,384
 958:	3a08                	c.fld	f10,48(x12)
 95a:	39053b0b          	0x39053b0b
 95e:	0213490b          	0x213490b
 962:	00000017          	auipc	x0,0x0

00000966 <.Ldebug_abbrev0>:
 966:	1101                	c.addi	x2,-32
 968:	2501                	c.jal	f68 <.LVL140>
 96a:	130e                	c.slli	x6,0x23
 96c:	1b0e030b          	0x1b0e030b
 970:	100e                	c.slli	x0,0x23
 972:	02000017          	auipc	x0,0x2000
 976:	0024                	c.addi4spn	x9,x2,8
 978:	0b3e0b0b          	0xb3e0b0b
 97c:	00000803          	lb	x16,0(x0) # 0 <.Ldebug_abbrev0>
 980:	0b002403          	lw	x8,176(x0) # b0 <.LASF15>
 984:	030b3e0b          	0x30b3e0b
 988:	000e                	c.slli	x0,0x3
 98a:	0400                	c.addi4spn	x8,x2,512
 98c:	0016                	c.slli	x0,0x5
 98e:	0b3a0e03          	lb	x28,179(x20)
 992:	0b390b3b          	0xb390b3b
 996:	1349                	c.addi	x6,-14
 998:	0000                	c.unimp
 99a:	2605                	c.jal	cba <.L38+0x2>
 99c:	4900                	c.lw	x8,16(x10)
 99e:	06000013          	addi	x0,x0,96
 9a2:	0101                	c.addi	x2,0
 9a4:	1349                	c.addi	x6,-14
 9a6:	1301                	c.addi	x6,-32
 9a8:	0000                	c.unimp
 9aa:	49002107          	flw	f2,1168(x0) # 490 <.LASF24>
 9ae:	000b2f13          	slti	x30,x22,0
 9b2:	0800                	c.addi4spn	x8,x2,16
 9b4:	0034                	c.addi4spn	x13,x2,8
 9b6:	0b3a0e03          	lb	x28,179(x20)
 9ba:	0b39053b          	0xb39053b
 9be:	1349                	c.addi	x6,-14
 9c0:	193c193f 34090000 	0x34090000193c193f
 9c8:	4700                	c.lw	x8,8(x14)
 9ca:	3b0b3a13          	sltiu	x20,x22,944
 9ce:	3905                	c.jal	5fe <.LASF23+0x15>
 9d0:	0018020b          	0x18020b
	...

Disassembly of section .debug_loc:

00000000 <.LLST0>:
       0:	0000                	c.unimp
       2:	0000                	c.unimp
       4:	0020                	c.addi4spn	x8,x2,8
       6:	0000                	c.unimp
       8:	0006                	c.slli	x0,0x1
       a:	935a                	c.add	x6,x22
       c:	5b04                	c.lw	x9,48(x14)
       e:	00200493          	addi	x9,x0,2
      12:	0000                	c.unimp
      14:	008c                	c.addi4spn	x11,x2,64
      16:	0000                	c.unimp
      18:	0006                	c.slli	x0,0x1
      1a:	0af503f3          	0xaf503f3
      1e:	9f25                	0x9f25
	...

00000028 <.LLST1>:
      28:	0000                	c.unimp
      2a:	0000                	c.unimp
      2c:	004c                	c.addi4spn	x11,x2,4
      2e:	0000                	c.unimp
      30:	0006                	c.slli	x0,0x1
      32:	935c                	0x935c
      34:	5d04                	c.lw	x9,56(x10)
      36:	004c0493          	addi	x9,x24,4 # 23814 <.LC1+0x1f67c>
      3a:	0000                	c.unimp
      3c:	0050                	c.addi4spn	x12,x2,4
      3e:	0000                	c.unimp
      40:	0006                	c.slli	x0,0x1
      42:	0cf503f3          	0xcf503f3
      46:	9f25                	0x9f25
      48:	0050                	c.addi4spn	x12,x2,4
      4a:	0000                	c.unimp
      4c:	0058                	c.addi4spn	x14,x2,4
      4e:	0000                	c.unimp
      50:	0006                	c.slli	x0,0x1
      52:	935c                	0x935c
      54:	5d04                	c.lw	x9,56(x10)
      56:	00580493          	addi	x9,x16,5
      5a:	0000                	c.unimp
      5c:	008c                	c.addi4spn	x11,x2,64
      5e:	0000                	c.unimp
      60:	0006                	c.slli	x0,0x1
      62:	0cf503f3          	0xcf503f3
      66:	9f25                	0x9f25
	...

00000070 <.LLST2>:
      70:	0030                	c.addi4spn	x12,x2,8
      72:	0000                	c.unimp
      74:	004c                	c.addi4spn	x11,x2,4
      76:	0000                	c.unimp
      78:	0001                	c.addi	x0,0
      7a:	4c5c                	c.lw	x15,28(x8)
      7c:	0000                	c.unimp
      7e:	5000                	c.lw	x8,32(x8)
      80:	0000                	c.unimp
      82:	0100                	c.addi4spn	x8,x2,128
      84:	6e00                	c.flw	f8,24(x12)
      86:	0050                	c.addi4spn	x12,x2,4
      88:	0000                	c.unimp
      8a:	0058                	c.addi4spn	x14,x2,4
      8c:	0000                	c.unimp
      8e:	0001                	c.addi	x0,0
      90:	585c                	c.lw	x15,52(x8)
      92:	0000                	c.unimp
      94:	8c00                	0x8c00
      96:	0000                	c.unimp
      98:	0100                	c.addi4spn	x8,x2,128
      9a:	6e00                	c.flw	f8,24(x12)
	...

000000a4 <.LLST0>:
      a4:	0000                	c.unimp
      a6:	0000                	c.unimp
      a8:	0020                	c.addi4spn	x8,x2,8
      aa:	0000                	c.unimp
      ac:	0006                	c.slli	x0,0x1
      ae:	935a                	c.add	x6,x22
      b0:	5b04                	c.lw	x9,48(x14)
      b2:	00200493          	addi	x9,x0,2
      b6:	0000                	c.unimp
      b8:	00e4                	c.addi4spn	x9,x2,76
      ba:	0000                	c.unimp
      bc:	0006                	c.slli	x0,0x1
      be:	0af503f3          	0xaf503f3
      c2:	9f25                	0x9f25
	...

000000cc <.LLST1>:
      cc:	0000                	c.unimp
      ce:	0000                	c.unimp
      d0:	006c                	c.addi4spn	x11,x2,12
      d2:	0000                	c.unimp
      d4:	0006                	c.slli	x0,0x1
      d6:	935c                	0x935c
      d8:	5d04                	c.lw	x9,56(x10)
      da:	006c0493          	addi	x9,x24,6
      de:	0000                	c.unimp
      e0:	00d4                	c.addi4spn	x13,x2,68
      e2:	0000                	c.unimp
      e4:	0006                	c.slli	x0,0x1
      e6:	0cf503f3          	0xcf503f3
      ea:	9f25                	0x9f25
      ec:	00d4                	c.addi4spn	x13,x2,68
      ee:	0000                	c.unimp
      f0:	00e4                	c.addi4spn	x9,x2,76
      f2:	0000                	c.unimp
      f4:	0006                	c.slli	x0,0x1
      f6:	935c                	0x935c
      f8:	5d04                	c.lw	x9,56(x10)
      fa:	00000493          	addi	x9,x0,0
      fe:	0000                	c.unimp
     100:	0000                	c.unimp
	...

00000104 <.LLST2>:
     104:	0020                	c.addi4spn	x8,x2,8
     106:	0000                	c.unimp
     108:	0048                	c.addi4spn	x10,x2,4
     10a:	0000                	c.unimp
     10c:	0001                	c.addi	x0,0
     10e:	4c5a                	c.lwsp	x24,148(x2)
     110:	0000                	c.unimp
     112:	8400                	0x8400
     114:	0000                	c.unimp
     116:	0100                	c.addi4spn	x8,x2,128
     118:	5a00                	c.lw	x8,48(x12)
     11a:	0088                	c.addi4spn	x10,x2,64
     11c:	0000                	c.unimp
     11e:	008c                	c.addi4spn	x11,x2,64
     120:	0000                	c.unimp
     122:	0001                	c.addi	x0,0
     124:	985a                	c.add	x16,x22
     126:	0000                	c.unimp
     128:	a000                	c.fsd	f8,0(x8)
     12a:	0000                	c.unimp
     12c:	0100                	c.addi4spn	x8,x2,128
     12e:	5a00                	c.lw	x8,48(x12)
     130:	00a4                	c.addi4spn	x9,x2,72
     132:	0000                	c.unimp
     134:	00b8                	c.addi4spn	x14,x2,72
     136:	0000                	c.unimp
     138:	0001                	c.addi	x0,0
     13a:	bc5a                	c.fsdsp	f22,56(x2)
     13c:	0000                	c.unimp
     13e:	c000                	c.sw	x8,0(x8)
     140:	0000                	c.unimp
     142:	0100                	c.addi4spn	x8,x2,128
     144:	5a00                	c.lw	x8,48(x12)
     146:	00c4                	c.addi4spn	x9,x2,68
     148:	0000                	c.unimp
     14a:	00e4                	c.addi4spn	x9,x2,76
     14c:	0000                	c.unimp
     14e:	0001                	c.addi	x0,0
     150:	005a                	c.slli	x0,0x16
     152:	0000                	c.unimp
     154:	0000                	c.unimp
     156:	0000                	c.unimp
	...

00000159 <.LLST3>:
     159:	0030                	c.addi4spn	x12,x2,8
     15b:	0000                	c.unimp
     15d:	006c                	c.addi4spn	x11,x2,12
     15f:	0000                	c.unimp
     161:	0001                	c.addi	x0,0
     163:	6c5c                	c.flw	f15,28(x8)
     165:	0000                	c.unimp
     167:	d400                	c.sw	x8,40(x8)
     169:	0000                	c.unimp
     16b:	0100                	c.addi4spn	x8,x2,128
     16d:	6c00                	c.flw	f8,24(x8)
     16f:	00d4                	c.addi4spn	x13,x2,68
     171:	0000                	c.unimp
     173:	00e4                	c.addi4spn	x9,x2,76
     175:	0000                	c.unimp
     177:	0001                	c.addi	x0,0
     179:	005c                	c.addi4spn	x15,x2,4
     17b:	0000                	c.unimp
     17d:	0000                	c.unimp
     17f:	0000                	c.unimp
	...

00000182 <.LLST4>:
     182:	0064                	c.addi4spn	x9,x2,12
     184:	0000                	c.unimp
     186:	0068                	c.addi4spn	x10,x2,12
     188:	0000                	c.unimp
     18a:	0001                	c.addi	x0,0
     18c:	d85f 0000 e400      	0xe4000000d85f
     192:	0000                	c.unimp
     194:	0200                	c.addi4spn	x8,x2,256
     196:	3000                	c.fld	f8,32(x8)
     198:	009f 0000 0000      	0x9f
     19e:	0000                	c.unimp
	...

000001a1 <.LLST5>:
     1a1:	0070                	c.addi4spn	x12,x2,12
     1a3:	0000                	c.unimp
     1a5:	007c                	c.addi4spn	x15,x2,12
     1a7:	0000                	c.unimp
     1a9:	0002                	c.slli64	x0
     1ab:	9f30                	0x9f30
     1ad:	0088                	c.addi4spn	x10,x2,64
     1af:	0000                	c.unimp
     1b1:	00b4                	c.addi4spn	x13,x2,72
     1b3:	0000                	c.unimp
     1b5:	0002                	c.slli64	x0
     1b7:	9f30                	0x9f30
     1b9:	00c4                	c.addi4spn	x9,x2,68
     1bb:	0000                	c.unimp
     1bd:	00cc                	c.addi4spn	x11,x2,68
     1bf:	0000                	c.unimp
     1c1:	0002                	c.slli64	x0
     1c3:	9f31                	0x9f31
     1c5:	00cc                	c.addi4spn	x11,x2,68
     1c7:	0000                	c.unimp
     1c9:	00d4                	c.addi4spn	x13,x2,68
     1cb:	0000                	c.unimp
     1cd:	0002                	c.slli64	x0
     1cf:	9f30                	0x9f30
	...

000001d9 <.LLST0>:
     1d9:	0000                	c.unimp
     1db:	0000                	c.unimp
     1dd:	0070                	c.addi4spn	x12,x2,12
     1df:	0000                	c.unimp
     1e1:	0006                	c.slli	x0,0x1
     1e3:	935a                	c.add	x6,x22
     1e5:	5b04                	c.lw	x9,48(x14)
     1e7:	00700493          	addi	x9,x0,7
     1eb:	0000                	c.unimp
     1ed:	00ec                	c.addi4spn	x11,x2,76
     1ef:	0000                	c.unimp
     1f1:	0006                	c.slli	x0,0x1
     1f3:	0af503f3          	0xaf503f3
     1f7:	9f25                	0x9f25
     1f9:	00ec                	c.addi4spn	x11,x2,76
     1fb:	0000                	c.unimp
     1fd:	00fc                	c.addi4spn	x15,x2,76
     1ff:	0000                	c.unimp
     201:	0006                	c.slli	x0,0x1
     203:	935a                	c.add	x6,x22
     205:	5b04                	c.lw	x9,48(x14)
     207:	00fc0493          	addi	x9,x24,15
     20b:	0000                	c.unimp
     20d:	0134                	c.addi4spn	x13,x2,136
     20f:	0000                	c.unimp
     211:	0006                	c.slli	x0,0x1
     213:	0af503f3          	0xaf503f3
     217:	9f25                	0x9f25
     219:	0134                	c.addi4spn	x13,x2,136
     21b:	0000                	c.unimp
     21d:	00000137          	lui	x2,0x0
     221:	0006                	c.slli	x0,0x1
     223:	935a                	c.add	x6,x22
     225:	5b04                	c.lw	x9,48(x14)
     227:	01370493          	addi	x9,x14,19
     22b:	0000                	c.unimp
     22d:	0150                	c.addi4spn	x12,x2,132
     22f:	0000                	c.unimp
     231:	0006                	c.slli	x0,0x1
     233:	0af503f3          	0xaf503f3
     237:	9f25                	0x9f25
     239:	0150                	c.addi4spn	x12,x2,132
     23b:	0000                	c.unimp
     23d:	0188                	c.addi4spn	x10,x2,192
     23f:	0000                	c.unimp
     241:	0006                	c.slli	x0,0x1
     243:	935a                	c.add	x6,x22
     245:	5b04                	c.lw	x9,48(x14)
     247:	01880493          	addi	x9,x16,24
     24b:	0000                	c.unimp
     24d:	0688                	c.addi4spn	x10,x2,832
     24f:	0000                	c.unimp
     251:	0006                	c.slli	x0,0x1
     253:	0af503f3          	0xaf503f3
     257:	9f25                	0x9f25
	...

00000261 <.LLST1>:
     261:	0000                	c.unimp
     263:	0000                	c.unimp
     265:	0070                	c.addi4spn	x12,x2,12
     267:	0000                	c.unimp
     269:	0006                	c.slli	x0,0x1
     26b:	935c                	0x935c
     26d:	5d04                	c.lw	x9,56(x10)
     26f:	00700493          	addi	x9,x0,7
     273:	0000                	c.unimp
     275:	00ec                	c.addi4spn	x11,x2,76
     277:	0000                	c.unimp
     279:	0006                	c.slli	x0,0x1
     27b:	0cf503f3          	0xcf503f3
     27f:	9f25                	0x9f25
     281:	00ec                	c.addi4spn	x11,x2,76
     283:	0000                	c.unimp
     285:	00ff                	0xff
     287:	0000                	c.unimp
     289:	0006                	c.slli	x0,0x1
     28b:	935c                	0x935c
     28d:	5d04                	c.lw	x9,56(x10)
     28f:	00ff0493          	addi	x9,x30,15
     293:	0000                	c.unimp
     295:	0134                	c.addi4spn	x13,x2,136
     297:	0000                	c.unimp
     299:	0006                	c.slli	x0,0x1
     29b:	0cf503f3          	0xcf503f3
     29f:	9f25                	0x9f25
     2a1:	0134                	c.addi4spn	x13,x2,136
     2a3:	0000                	c.unimp
     2a5:	00000137          	lui	x2,0x0
     2a9:	0006                	c.slli	x0,0x1
     2ab:	935c                	0x935c
     2ad:	5d04                	c.lw	x9,56(x10)
     2af:	01370493          	addi	x9,x14,19
     2b3:	0000                	c.unimp
     2b5:	0150                	c.addi4spn	x12,x2,132
     2b7:	0000                	c.unimp
     2b9:	0006                	c.slli	x0,0x1
     2bb:	0cf503f3          	0xcf503f3
     2bf:	9f25                	0x9f25
     2c1:	0150                	c.addi4spn	x12,x2,132
     2c3:	0000                	c.unimp
     2c5:	0188                	c.addi4spn	x10,x2,192
     2c7:	0000                	c.unimp
     2c9:	0006                	c.slli	x0,0x1
     2cb:	935c                	0x935c
     2cd:	5d04                	c.lw	x9,56(x10)
     2cf:	01880493          	addi	x9,x16,24
     2d3:	0000                	c.unimp
     2d5:	0688                	c.addi4spn	x10,x2,832
     2d7:	0000                	c.unimp
     2d9:	0006                	c.slli	x0,0x1
     2db:	0cf503f3          	0xcf503f3
     2df:	9f25                	0x9f25
	...

000002e9 <.LLST2>:
     2e9:	0000                	c.unimp
     2eb:	0000                	c.unimp
     2ed:	0074                	c.addi4spn	x13,x2,12
     2ef:	0000                	c.unimp
     2f1:	0002                	c.slli64	x0
     2f3:	9f30                	0x9f30
     2f5:	00ec                	c.addi4spn	x11,x2,76
     2f7:	0000                	c.unimp
     2f9:	0188                	c.addi4spn	x10,x2,192
     2fb:	0000                	c.unimp
     2fd:	0002                	c.slli64	x0
     2ff:	9f30                	0x9f30
	...

00000309 <.LLST3>:
     309:	0070                	c.addi4spn	x12,x2,12
     30b:	0000                	c.unimp
     30d:	0074                	c.addi4spn	x13,x2,12
     30f:	0000                	c.unimp
     311:	0002                	c.slli64	x0
     313:	9f30                	0x9f30
     315:	0074                	c.addi4spn	x13,x2,12
     317:	0000                	c.unimp
     319:	00ec                	c.addi4spn	x11,x2,76
     31b:	0000                	c.unimp
     31d:	0001                	c.addi	x0,0
     31f:	8866                	c.mv	x16,x25
     321:	0001                	c.addi	x0,0
     323:	2800                	c.fld	f8,16(x8)
     325:	01000003          	lb	x0,16(x0) # 10 <.LASF10+0x2>
     329:	6600                	c.flw	f8,8(x12)
     32b:	055c                	c.addi4spn	x15,x2,644
     32d:	0000                	c.unimp
     32f:	0584                	c.addi4spn	x9,x2,704
     331:	0000                	c.unimp
     333:	0001                	c.addi	x0,0
     335:	9066                	c.add	x0,x25
     337:	0005                	c.addi	x0,1
     339:	9800                	0x9800
     33b:	0005                	c.addi	x0,1
     33d:	0100                	c.addi4spn	x8,x2,128
     33f:	6600                	c.flw	f8,8(x12)
     341:	0654                	c.addi4spn	x13,x2,772
     343:	0000                	c.unimp
     345:	0668                	c.addi4spn	x10,x2,780
     347:	0000                	c.unimp
     349:	0001                	c.addi	x0,0
     34b:	0066                	c.slli	x0,0x19
     34d:	0000                	c.unimp
     34f:	0000                	c.unimp
     351:	0000                	c.unimp
	...

00000354 <.LLST4>:
     354:	0048                	c.addi4spn	x10,x2,4
     356:	0000                	c.unimp
     358:	0238                	c.addi4spn	x14,x2,264
     35a:	0000                	c.unimp
     35c:	0006                	c.slli	x0,0x1
     35e:	0084                	c.addi4spn	x9,x2,64
     360:	ff08                	c.fsw	f10,56(x14)
     362:	9f1a                	c.add	x30,x6
     364:	055c                	c.addi4spn	x15,x2,644
     366:	0000                	c.unimp
     368:	0584                	c.addi4spn	x9,x2,704
     36a:	0000                	c.unimp
     36c:	0006                	c.slli	x0,0x1
     36e:	0084                	c.addi4spn	x9,x2,64
     370:	ff08                	c.fsw	f10,56(x14)
     372:	9f1a                	c.add	x30,x6
     374:	0590                	c.addi4spn	x12,x2,704
     376:	0000                	c.unimp
     378:	0598                	c.addi4spn	x14,x2,704
     37a:	0000                	c.unimp
     37c:	0006                	c.slli	x0,0x1
     37e:	0084                	c.addi4spn	x9,x2,64
     380:	ff08                	c.fsw	f10,56(x14)
     382:	9f1a                	c.add	x30,x6
     384:	0654                	c.addi4spn	x13,x2,772
     386:	0000                	c.unimp
     388:	0668                	c.addi4spn	x10,x2,780
     38a:	0000                	c.unimp
     38c:	0006                	c.slli	x0,0x1
     38e:	0084                	c.addi4spn	x9,x2,64
     390:	ff08                	c.fsw	f10,56(x14)
     392:	9f1a                	c.add	x30,x6
	...

0000039c <.LLST5>:
     39c:	0044                	c.addi4spn	x9,x2,4
     39e:	0000                	c.unimp
     3a0:	0070                	c.addi4spn	x12,x2,12
     3a2:	0000                	c.unimp
     3a4:	00830007          	0x830007
     3a8:	ff0a                	c.fswsp	f2,188(x2)
     3aa:	1aff                	0x1aff
     3ac:	709f 0000 c000      	0xc0000000709f
     3b2:	0000                	c.unimp
     3b4:	0100                	c.addi4spn	x8,x2,128
     3b6:	6300                	c.flw	f8,0(x14)
     3b8:	00ec                	c.addi4spn	x11,x2,76
     3ba:	0000                	c.unimp
     3bc:	012c                	c.addi4spn	x11,x2,136
     3be:	0000                	c.unimp
     3c0:	00830007          	0x830007
     3c4:	ff0a                	c.fswsp	f2,188(x2)
     3c6:	1aff                	0x1aff
     3c8:	349f 0001 6000      	0x60000001349f
     3ce:	0001                	c.addi	x0,0
     3d0:	0700                	c.addi4spn	x8,x2,896
     3d2:	8300                	0x8300
     3d4:	0a00                	c.addi4spn	x8,x2,272
     3d6:	ffff                	0xffff
     3d8:	9f1a                	c.add	x30,x6
     3da:	0160                	c.addi4spn	x8,x2,140
     3dc:	0000                	c.unimp
     3de:	0168                	c.addi4spn	x10,x2,140
     3e0:	0000                	c.unimp
     3e2:	0009                	c.addi	x0,2
     3e4:	2544007b          	0x2544007b
     3e8:	ff0a                	c.fswsp	f2,188(x2)
     3ea:	689f1a07          	0x689f1a07
     3ee:	0001                	c.addi	x0,0
     3f0:	7000                	c.flw	f8,32(x8)
     3f2:	0001                	c.addi	x0,0
     3f4:	0700                	c.addi4spn	x8,x2,896
     3f6:	8300                	0x8300
     3f8:	0a00                	c.addi4spn	x8,x2,272
     3fa:	ffff                	0xffff
     3fc:	9f1a                	c.add	x30,x6
     3fe:	0170                	c.addi4spn	x12,x2,140
     400:	0000                	c.unimp
     402:	0178                	c.addi4spn	x14,x2,140
     404:	0000                	c.unimp
     406:	0009                	c.addi	x0,2
     408:	2544007b          	0x2544007b
     40c:	ff0a                	c.fswsp	f2,188(x2)
     40e:	789f1a07          	0x789f1a07
     412:	0001                	c.addi	x0,0
     414:	8000                	0x8000
     416:	0001                	c.addi	x0,0
     418:	0700                	c.addi4spn	x8,x2,896
     41a:	8300                	0x8300
     41c:	0a00                	c.addi4spn	x8,x2,272
     41e:	ffff                	0xffff
     420:	9f1a                	c.add	x30,x6
     422:	0180                	c.addi4spn	x8,x2,192
     424:	0000                	c.unimp
     426:	0188                	c.addi4spn	x10,x2,192
     428:	0000                	c.unimp
     42a:	0009                	c.addi	x0,2
     42c:	2544007b          	0x2544007b
     430:	ff0a                	c.fswsp	f2,188(x2)
     432:	889f1a07          	0x889f1a07
     436:	0001                	c.addi	x0,0
     438:	2800                	c.fld	f8,16(x8)
     43a:	0002                	c.slli64	x0
     43c:	0100                	c.addi4spn	x8,x2,128
     43e:	6300                	c.flw	f8,0(x14)
	...

00000448 <.LLST6>:
     448:	0000                	c.unimp
     44a:	0000                	c.unimp
     44c:	006c                	c.addi4spn	x11,x2,12
     44e:	0000                	c.unimp
     450:	0001                	c.addi	x0,0
     452:	6c5a                	c.flwsp	f24,148(x2)
     454:	0000                	c.unimp
     456:	ec00                	c.fsw	f8,24(x8)
     458:	0000                	c.unimp
     45a:	0100                	c.addi4spn	x8,x2,128
     45c:	6200                	c.flw	f8,0(x12)
     45e:	00ec                	c.addi4spn	x11,x2,76
     460:	0000                	c.unimp
     462:	0128                	c.addi4spn	x10,x2,136
     464:	0000                	c.unimp
     466:	0001                	c.addi	x0,0
     468:	2858                	c.fld	f14,144(x8)
     46a:	0001                	c.addi	x0,0
     46c:	3400                	c.fld	f8,40(x8)
     46e:	0001                	c.addi	x0,0
     470:	0100                	c.addi4spn	x8,x2,128
     472:	6200                	c.flw	f8,0(x12)
     474:	0134                	c.addi4spn	x13,x2,136
     476:	0000                	c.unimp
     478:	0148                	c.addi4spn	x10,x2,132
     47a:	0000                	c.unimp
     47c:	0001                	c.addi	x0,0
     47e:	4858                	c.lw	x14,20(x8)
     480:	0001                	c.addi	x0,0
     482:	5000                	c.lw	x8,32(x8)
     484:	0001                	c.addi	x0,0
     486:	0200                	c.addi4spn	x8,x2,256
     488:	3000                	c.fld	f8,32(x8)
     48a:	509f 0001 8800      	0x88000001509f
     490:	0001                	c.addi	x0,0
     492:	0100                	c.addi4spn	x8,x2,128
     494:	5800                	c.lw	x8,48(x8)
     496:	0188                	c.addi4spn	x10,x2,192
     498:	0000                	c.unimp
     49a:	023c                	c.addi4spn	x15,x2,264
     49c:	0000                	c.unimp
     49e:	0001                	c.addi	x0,0
     4a0:	5c62                	c.lwsp	x24,56(x2)
     4a2:	0005                	c.addi	x0,1
     4a4:	8400                	0x8400
     4a6:	0005                	c.addi	x0,1
     4a8:	0100                	c.addi4spn	x8,x2,128
     4aa:	6200                	c.flw	f8,0(x12)
     4ac:	0590                	c.addi4spn	x12,x2,704
     4ae:	0000                	c.unimp
     4b0:	0598                	c.addi4spn	x14,x2,704
     4b2:	0000                	c.unimp
     4b4:	0001                	c.addi	x0,0
     4b6:	5462                	c.lwsp	x8,56(x2)
     4b8:	0006                	c.slli	x0,0x1
     4ba:	6800                	c.flw	f8,16(x8)
     4bc:	0006                	c.slli	x0,0x1
     4be:	0100                	c.addi4spn	x8,x2,128
     4c0:	6200                	c.flw	f8,0(x12)
	...

000004ca <.LLST7>:
     4ca:	0044                	c.addi4spn	x9,x2,4
     4cc:	0000                	c.unimp
     4ce:	0054                	c.addi4spn	x13,x2,4
     4d0:	0000                	c.unimp
     4d2:	0001                	c.addi	x0,0
     4d4:	5459                	c.li	x8,-10
     4d6:	0000                	c.unimp
     4d8:	5c00                	c.lw	x8,56(x8)
     4da:	0000                	c.unimp
     4dc:	0700                	c.addi4spn	x8,x2,896
     4de:	7900                	c.flw	f8,48(x10)
     4e0:	4000                	c.lw	x8,0(x8)
     4e2:	2440                	c.fld	f8,136(x8)
     4e4:	9f21                	0x9f21
     4e6:	005c                	c.addi4spn	x15,x2,4
     4e8:	0000                	c.unimp
     4ea:	0068                	c.addi4spn	x10,x2,12
     4ec:	0000                	c.unimp
     4ee:	007b000b          	0x7b000b
     4f2:	243c                	c.fld	f15,72(x8)
     4f4:	253c                	c.fld	f15,72(x10)
     4f6:	4040                	c.lw	x8,4(x8)
     4f8:	2124                	c.fld	f9,64(x10)
     4fa:	689f 0000 1c00      	0x1c000000689f
     500:	0001                	c.addi	x0,0
     502:	0100                	c.addi4spn	x8,x2,128
     504:	5900                	c.lw	x8,48(x10)
     506:	0124                	c.addi4spn	x9,x2,136
     508:	0000                	c.unimp
     50a:	0144                	c.addi4spn	x9,x2,132
     50c:	0000                	c.unimp
     50e:	0001                	c.addi	x0,0
     510:	4859                	c.li	x16,22
     512:	0001                	c.addi	x0,0
     514:	6c00                	c.flw	f8,24(x8)
     516:	0001                	c.addi	x0,0
     518:	0100                	c.addi4spn	x8,x2,128
     51a:	5900                	c.lw	x8,48(x10)
     51c:	016c                	c.addi4spn	x11,x2,140
     51e:	0000                	c.unimp
     520:	0178                	c.addi4spn	x14,x2,140
     522:	0000                	c.unimp
     524:	007b0007          	0x7b0007
     528:	243c                	c.fld	f15,72(x8)
     52a:	253c                	c.fld	f15,72(x10)
     52c:	789f 0001 7c00      	0x7c000001789f
     532:	0001                	c.addi	x0,0
     534:	0100                	c.addi4spn	x8,x2,128
     536:	5900                	c.lw	x8,48(x10)
     538:	017c                	c.addi4spn	x15,x2,140
     53a:	0000                	c.unimp
     53c:	0188                	c.addi4spn	x10,x2,192
     53e:	0000                	c.unimp
     540:	007b0007          	0x7b0007
     544:	243c                	c.fld	f15,72(x8)
     546:	253c                	c.fld	f15,72(x10)
     548:	889f 0001 2c00      	0x2c000001889f
     54e:	01000003          	lb	x0,16(x0) # 10 <.LASF10+0x2>
     552:	5900                	c.lw	x8,48(x10)
     554:	055c                	c.addi4spn	x15,x2,644
     556:	0000                	c.unimp
     558:	0584                	c.addi4spn	x9,x2,704
     55a:	0000                	c.unimp
     55c:	0001                	c.addi	x0,0
     55e:	9059                	c.srli	x8,0x36
     560:	0005                	c.addi	x0,1
     562:	9800                	0x9800
     564:	0005                	c.addi	x0,1
     566:	0100                	c.addi4spn	x8,x2,128
     568:	5900                	c.lw	x8,48(x10)
     56a:	0654                	c.addi4spn	x13,x2,772
     56c:	0000                	c.unimp
     56e:	0668                	c.addi4spn	x10,x2,780
     570:	0000                	c.unimp
     572:	0001                	c.addi	x0,0
     574:	0059                	c.addi	x0,22
     576:	0000                	c.unimp
     578:	0000                	c.unimp
     57a:	0000                	c.unimp
	...

0000057d <.LLST8>:
     57d:	00b0                	c.addi4spn	x12,x2,72
     57f:	0000                	c.unimp
     581:	00b4                	c.addi4spn	x13,x2,72
     583:	0000                	c.unimp
     585:	0002                	c.slli64	x0
     587:	9f30                	0x9f30
     589:	00b4                	c.addi4spn	x13,x2,72
     58b:	0000                	c.unimp
     58d:	00ec                	c.addi4spn	x11,x2,76
     58f:	0000                	c.unimp
     591:	0001                	c.addi	x0,0
     593:	285e                	c.fldsp	f16,464(x2)
     595:	0002                	c.slli64	x0
     597:	8000                	0x8000
     599:	0002                	c.slli64	x0
     59b:	0100                	c.addi4spn	x8,x2,128
     59d:	5e00                	c.lw	x8,56(x12)
     59f:	055c                	c.addi4spn	x15,x2,644
     5a1:	0000                	c.unimp
     5a3:	056c                	c.addi4spn	x11,x2,652
     5a5:	0000                	c.unimp
     5a7:	0001                	c.addi	x0,0
     5a9:	905e                	c.add	x0,x23
     5ab:	0005                	c.addi	x0,1
     5ad:	9800                	0x9800
     5af:	0005                	c.addi	x0,1
     5b1:	0100                	c.addi4spn	x8,x2,128
     5b3:	5e00                	c.lw	x8,56(x12)
	...

000005bd <.LLST9>:
     5bd:	0088                	c.addi4spn	x10,x2,64
     5bf:	0000                	c.unimp
     5c1:	00ec                	c.addi4spn	x11,x2,76
     5c3:	0000                	c.unimp
     5c5:	0006                	c.slli	x0,0x1
     5c7:	0085                	c.addi	x1,1
     5c9:	ff08                	c.fsw	f10,56(x14)
     5cb:	9f1a                	c.add	x30,x6
     5cd:	0188                	c.addi4spn	x10,x2,192
     5cf:	0000                	c.unimp
     5d1:	022c                	c.addi4spn	x11,x2,264
     5d3:	0000                	c.unimp
     5d5:	0006                	c.slli	x0,0x1
     5d7:	0085                	c.addi	x1,1
     5d9:	ff08                	c.fsw	f10,56(x14)
     5db:	9f1a                	c.add	x30,x6
     5dd:	055c                	c.addi4spn	x15,x2,644
     5df:	0000                	c.unimp
     5e1:	0584                	c.addi4spn	x9,x2,704
     5e3:	0000                	c.unimp
     5e5:	0006                	c.slli	x0,0x1
     5e7:	0085                	c.addi	x1,1
     5e9:	ff08                	c.fsw	f10,56(x14)
     5eb:	9f1a                	c.add	x30,x6
     5ed:	0590                	c.addi4spn	x12,x2,704
     5ef:	0000                	c.unimp
     5f1:	0598                	c.addi4spn	x14,x2,704
     5f3:	0000                	c.unimp
     5f5:	0006                	c.slli	x0,0x1
     5f7:	0085                	c.addi	x1,1
     5f9:	ff08                	c.fsw	f10,56(x14)
     5fb:	9f1a                	c.add	x30,x6
     5fd:	0654                	c.addi4spn	x13,x2,772
     5ff:	0000                	c.unimp
     601:	0668                	c.addi4spn	x10,x2,780
     603:	0000                	c.unimp
     605:	0006                	c.slli	x0,0x1
     607:	0085                	c.addi	x1,1
     609:	ff08                	c.fsw	f10,56(x14)
     60b:	9f1a                	c.add	x30,x6
	...

00000615 <.LLST10>:
     615:	0084                	c.addi4spn	x9,x2,64
     617:	0000                	c.unimp
     619:	00ac                	c.addi4spn	x11,x2,72
     61b:	0000                	c.unimp
     61d:	007a0007          	0x7a0007
     621:	ff0a                	c.fswsp	f2,188(x2)
     623:	1aff                	0x1aff
     625:	ac9f 0000 b000      	0xb0000000ac9f
     62b:	0000                	c.unimp
     62d:	0800                	c.addi4spn	x8,x2,16
     62f:	7a00                	c.flw	f8,48(x12)
     631:	07ff                	0x7ff
     633:	ff0a                	c.fswsp	f2,188(x2)
     635:	1aff                	0x1aff
     637:	b09f 0000 ec00      	0xec000000b09f
     63d:	0000                	c.unimp
     63f:	0100                	c.addi4spn	x8,x2,128
     641:	5a00                	c.lw	x8,48(x12)
     643:	0188                	c.addi4spn	x10,x2,192
     645:	0000                	c.unimp
     647:	0198                	c.addi4spn	x14,x2,192
     649:	0000                	c.unimp
     64b:	007a0007          	0x7a0007
     64f:	ff0a                	c.fswsp	f2,188(x2)
     651:	1aff                	0x1aff
     653:	d09f 0001 d400      	0xd4000001d09f
     659:	0001                	c.addi	x0,0
     65b:	0700                	c.addi4spn	x8,x2,896
     65d:	7a00                	c.flw	f8,48(x12)
     65f:	0a00                	c.addi4spn	x8,x2,272
     661:	ffff                	0xffff
     663:	9f1a                	c.add	x30,x6
     665:	01f0                	c.addi4spn	x12,x2,204
     667:	0000                	c.unimp
     669:	0200                	c.addi4spn	x8,x2,256
     66b:	0000                	c.unimp
     66d:	007a0007          	0x7a0007
     671:	ff0a                	c.fswsp	f2,188(x2)
     673:	1aff                	0x1aff
     675:	089f 0002 1000      	0x10000002089f
     67b:	0002                	c.slli64	x0
     67d:	0700                	c.addi4spn	x8,x2,896
     67f:	7a00                	c.flw	f8,48(x12)
     681:	0a00                	c.addi4spn	x8,x2,272
     683:	ffff                	0xffff
     685:	9f1a                	c.add	x30,x6
     687:	0218                	c.addi4spn	x14,x2,256
     689:	0000                	c.unimp
     68b:	0220                	c.addi4spn	x8,x2,264
     68d:	0000                	c.unimp
     68f:	007a0007          	0x7a0007
     693:	ff0a                	c.fswsp	f2,188(x2)
     695:	1aff                	0x1aff
     697:	289f 0002 4400      	0x44000002289f
     69d:	0002                	c.slli64	x0
     69f:	0100                	c.addi4spn	x8,x2,128
     6a1:	5a00                	c.lw	x8,48(x12)
     6a3:	055c                	c.addi4spn	x15,x2,644
     6a5:	0000                	c.unimp
     6a7:	0584                	c.addi4spn	x9,x2,704
     6a9:	0000                	c.unimp
     6ab:	0001                	c.addi	x0,0
     6ad:	905a                	c.add	x0,x22
     6af:	0005                	c.addi	x0,1
     6b1:	9800                	0x9800
     6b3:	0005                	c.addi	x0,1
     6b5:	0100                	c.addi4spn	x8,x2,128
     6b7:	5a00                	c.lw	x8,48(x12)
     6b9:	0654                	c.addi4spn	x13,x2,772
     6bb:	0000                	c.unimp
     6bd:	0668                	c.addi4spn	x10,x2,780
     6bf:	0000                	c.unimp
     6c1:	0001                	c.addi	x0,0
     6c3:	005a                	c.slli	x0,0x16
     6c5:	0000                	c.unimp
     6c7:	0000                	c.unimp
     6c9:	0000                	c.unimp
	...

000006cc <.LLST11>:
     6cc:	0074                	c.addi4spn	x13,x2,12
     6ce:	0000                	c.unimp
     6d0:	00b0                	c.addi4spn	x12,x2,72
     6d2:	0000                	c.unimp
     6d4:	0001                	c.addi	x0,0
     6d6:	0000b067          	0xb067
     6da:	ec00                	c.fsw	f8,24(x8)
     6dc:	0000                	c.unimp
     6de:	0100                	c.addi4spn	x8,x2,128
     6e0:	5f00                	c.lw	x8,56(x14)
     6e2:	0188                	c.addi4spn	x10,x2,192
     6e4:	0000                	c.unimp
     6e6:	01c4                	c.addi4spn	x9,x2,196
     6e8:	0000                	c.unimp
     6ea:	0001                	c.addi	x0,0
     6ec:	0001c467          	0x1c467
     6f0:	d000                	c.sw	x8,32(x8)
     6f2:	0001                	c.addi	x0,0
     6f4:	0100                	c.addi4spn	x8,x2,128
     6f6:	5f00                	c.lw	x8,56(x14)
     6f8:	01d0                	c.addi4spn	x12,x2,196
     6fa:	0000                	c.unimp
     6fc:	01e8                	c.addi4spn	x10,x2,204
     6fe:	0000                	c.unimp
     700:	0001                	c.addi	x0,0
     702:	0001e867          	0x1e867
     706:	f000                	c.fsw	f8,32(x8)
     708:	0001                	c.addi	x0,0
     70a:	0200                	c.addi4spn	x8,x2,256
     70c:	3000                	c.fld	f8,32(x8)
     70e:	f09f 0001 2800      	0x28000001f09f
     714:	0002                	c.slli64	x0
     716:	0100                	c.addi4spn	x8,x2,128
     718:	6700                	c.flw	f8,8(x14)
     71a:	0228                	c.addi4spn	x10,x2,264
     71c:	0000                	c.unimp
     71e:	02d0                	c.addi4spn	x12,x2,324
     720:	0000                	c.unimp
     722:	0001                	c.addi	x0,0
     724:	5c5f 0005 6800      	0x680000055c5f
     72a:	0005                	c.addi	x0,1
     72c:	0100                	c.addi4spn	x8,x2,128
     72e:	5f00                	c.lw	x8,56(x14)
     730:	0590                	c.addi4spn	x12,x2,704
     732:	0000                	c.unimp
     734:	0598                	c.addi4spn	x14,x2,704
     736:	0000                	c.unimp
     738:	0001                	c.addi	x0,0
     73a:	005f 0000 0000      	0x5f
     740:	0000                	c.unimp
	...

00000743 <.LLST12>:
     743:	0084                	c.addi4spn	x9,x2,64
     745:	0000                	c.unimp
     747:	0094                	c.addi4spn	x13,x2,64
     749:	0000                	c.unimp
     74b:	0001                	c.addi	x0,0
     74d:	9458                	0x9458
     74f:	0000                	c.unimp
     751:	9c00                	0x9c00
     753:	0000                	c.unimp
     755:	0700                	c.addi4spn	x8,x2,896
     757:	7800                	c.flw	f8,48(x8)
     759:	4000                	c.lw	x8,0(x8)
     75b:	2440                	c.fld	f8,136(x8)
     75d:	9f21                	0x9f21
     75f:	00a8                	c.addi4spn	x10,x2,72
     761:	0000                	c.unimp
     763:	00ec                	c.addi4spn	x11,x2,76
     765:	0000                	c.unimp
     767:	0001                	c.addi	x0,0
     769:	8858                	0x8858
     76b:	0001                	c.addi	x0,0
     76d:	b800                	c.fsd	f8,48(x8)
     76f:	0001                	c.addi	x0,0
     771:	0100                	c.addi4spn	x8,x2,128
     773:	5800                	c.lw	x8,48(x8)
     775:	01c0                	c.addi4spn	x8,x2,196
     777:	0000                	c.unimp
     779:	01e4                	c.addi4spn	x9,x2,204
     77b:	0000                	c.unimp
     77d:	0001                	c.addi	x0,0
     77f:	e858                	c.fsw	f14,20(x8)
     781:	0001                	c.addi	x0,0
     783:	0c00                	c.addi4spn	x8,x2,528
     785:	0002                	c.slli64	x0
     787:	0100                	c.addi4spn	x8,x2,128
     789:	5800                	c.lw	x8,48(x8)
     78b:	0218                	c.addi4spn	x14,x2,256
     78d:	0000                	c.unimp
     78f:	021c                	c.addi4spn	x15,x2,256
     791:	0000                	c.unimp
     793:	0001                	c.addi	x0,0
     795:	2858                	c.fld	f14,144(x8)
     797:	0002                	c.slli64	x0
     799:	ac00                	c.fsd	f8,24(x8)
     79b:	0002                	c.slli64	x0
     79d:	0100                	c.addi4spn	x8,x2,128
     79f:	5800                	c.lw	x8,48(x8)
     7a1:	055c                	c.addi4spn	x15,x2,644
     7a3:	0000                	c.unimp
     7a5:	0564                	c.addi4spn	x9,x2,652
     7a7:	0000                	c.unimp
     7a9:	0001                	c.addi	x0,0
     7ab:	9058                	0x9058
     7ad:	0005                	c.addi	x0,1
     7af:	9800                	0x9800
     7b1:	0005                	c.addi	x0,1
     7b3:	0100                	c.addi4spn	x8,x2,128
     7b5:	5800                	c.lw	x8,48(x8)
	...

000007bf <.LLST13>:
     7bf:	0228                	c.addi4spn	x10,x2,264
     7c1:	0000                	c.unimp
     7c3:	04a8                	c.addi4spn	x10,x2,584
     7c5:	0000                	c.unimp
     7c7:	0002                	c.slli64	x0
     7c9:	9f30                	0x9f30
     7cb:	056c                	c.addi4spn	x11,x2,652
     7cd:	0000                	c.unimp
     7cf:	0584                	c.addi4spn	x9,x2,704
     7d1:	0000                	c.unimp
     7d3:	0001                	c.addi	x0,0
     7d5:	985e                	c.add	x16,x23
     7d7:	0005                	c.addi	x0,1
     7d9:	a000                	c.fsd	f8,0(x8)
     7db:	0005                	c.addi	x0,1
     7dd:	0200                	c.addi4spn	x8,x2,256
     7df:	3000                	c.fld	f8,32(x8)
     7e1:	009f 0000 0000      	0x9f
     7e7:	0000                	c.unimp
	...

000007ea <.LLST14>:
     7ea:	00cc                	c.addi4spn	x11,x2,68
     7ec:	0000                	c.unimp
     7ee:	00ec                	c.addi4spn	x11,x2,76
     7f0:	0000                	c.unimp
     7f2:	0001                	c.addi	x0,0
     7f4:	2860                	c.fld	f8,208(x8)
     7f6:	0002                	c.slli64	x0
     7f8:	2400                	c.fld	f8,8(x8)
     7fa:	0005                	c.addi	x0,1
     7fc:	0100                	c.addi4spn	x8,x2,128
     7fe:	6000                	c.flw	f8,0(x8)
     800:	055c                	c.addi4spn	x15,x2,644
     802:	0000                	c.unimp
     804:	0560                	c.addi4spn	x8,x2,652
     806:	0000                	c.unimp
     808:	0001                	c.addi	x0,0
     80a:	6060                	c.flw	f8,68(x8)
     80c:	0005                	c.addi	x0,1
     80e:	6c00                	c.flw	f8,24(x8)
     810:	0005                	c.addi	x0,1
     812:	0600                	c.addi4spn	x8,x2,768
     814:	8400                	0x8400
     816:	0800                	c.addi4spn	x8,x2,16
     818:	1aff                	0x1aff
     81a:	6c9f 0005 9400      	0x940000056c9f
     820:	0005                	c.addi	x0,1
     822:	0100                	c.addi4spn	x8,x2,128
     824:	6000                	c.flw	f8,0(x8)
     826:	0594                	c.addi4spn	x13,x2,704
     828:	0000                	c.unimp
     82a:	0598                	c.addi4spn	x14,x2,704
     82c:	0000                	c.unimp
     82e:	0006                	c.slli	x0,0x1
     830:	0085                	c.addi	x1,1
     832:	ff08                	c.fsw	f10,56(x14)
     834:	9f1a                	c.add	x30,x6
     836:	0598                	c.addi4spn	x14,x2,704
     838:	0000                	c.unimp
     83a:	0664                	c.addi4spn	x9,x2,780
     83c:	0000                	c.unimp
     83e:	0001                	c.addi	x0,0
     840:	6860                	c.flw	f8,84(x8)
     842:	0006                	c.slli	x0,0x1
     844:	8800                	0x8800
     846:	0006                	c.slli	x0,0x1
     848:	0100                	c.addi4spn	x8,x2,128
     84a:	6000                	c.flw	f8,0(x8)
	...

00000854 <.LLST15>:
     854:	00d0                	c.addi4spn	x12,x2,68
     856:	0000                	c.unimp
     858:	00ec                	c.addi4spn	x11,x2,76
     85a:	0000                	c.unimp
     85c:	0001                	c.addi	x0,0
     85e:	2861                	c.jal	8f6 <.L94+0x12>
     860:	0002                	c.slli64	x0
     862:	ac00                	c.fsd	f8,24(x8)
     864:	0004                	0x4
     866:	0100                	c.addi4spn	x8,x2,128
     868:	6100                	c.flw	f8,0(x10)
     86a:	04ac                	c.addi4spn	x11,x2,584
     86c:	0000                	c.unimp
     86e:	0514                	c.addi4spn	x13,x2,640
     870:	0000                	c.unimp
     872:	0001                	c.addi	x0,0
     874:	5c5d                	c.li	x24,-9
     876:	0005                	c.addi	x0,1
     878:	8400                	0x8400
     87a:	0005                	c.addi	x0,1
     87c:	0100                	c.addi4spn	x8,x2,128
     87e:	6100                	c.flw	f8,0(x10)
     880:	0590                	c.addi4spn	x12,x2,704
     882:	0000                	c.unimp
     884:	059c                	c.addi4spn	x15,x2,704
     886:	0000                	c.unimp
     888:	0001                	c.addi	x0,0
     88a:	9c61                	0x9c61
     88c:	0005                	c.addi	x0,1
     88e:	a000                	c.fsd	f8,0(x8)
     890:	0005                	c.addi	x0,1
     892:	0300                	c.addi4spn	x8,x2,384
     894:	8300                	0x8300
     896:	9f01                	0x9f01
     898:	05a0                	c.addi4spn	x8,x2,712
     89a:	0000                	c.unimp
     89c:	05a8                	c.addi4spn	x10,x2,712
     89e:	0000                	c.unimp
     8a0:	0001                	c.addi	x0,0
     8a2:	a85d                	c.j	958 <.LBB6>
     8a4:	0005                	c.addi	x0,1
     8a6:	0800                	c.addi4spn	x8,x2,16
     8a8:	0006                	c.slli	x0,0x1
     8aa:	0100                	c.addi4spn	x8,x2,128
     8ac:	5c00                	c.lw	x8,56(x8)
     8ae:	0608                	c.addi4spn	x10,x2,768
     8b0:	0000                	c.unimp
     8b2:	0618                	c.addi4spn	x14,x2,768
     8b4:	0000                	c.unimp
     8b6:	0002                	c.slli64	x0
     8b8:	9f30                	0x9f30
     8ba:	0620                	c.addi4spn	x8,x2,776
     8bc:	0000                	c.unimp
     8be:	0654                	c.addi4spn	x13,x2,772
     8c0:	0000                	c.unimp
     8c2:	0001                	c.addi	x0,0
     8c4:	545c                	c.lw	x15,44(x8)
     8c6:	0006                	c.slli	x0,0x1
     8c8:	6800                	c.flw	f8,16(x8)
     8ca:	0006                	c.slli	x0,0x1
     8cc:	0100                	c.addi4spn	x8,x2,128
     8ce:	6100                	c.flw	f8,0(x10)
     8d0:	0678                	c.addi4spn	x14,x2,780
     8d2:	0000                	c.unimp
     8d4:	0688                	c.addi4spn	x10,x2,832
     8d6:	0000                	c.unimp
     8d8:	0001                	c.addi	x0,0
     8da:	005c                	c.addi4spn	x15,x2,4
     8dc:	0000                	c.unimp
     8de:	0000                	c.unimp
     8e0:	0000                	c.unimp
	...

000008e3 <.LLST16>:
     8e3:	0484                	c.addi4spn	x9,x2,576
     8e5:	0000                	c.unimp
     8e7:	0498                	c.addi4spn	x14,x2,576
     8e9:	0000                	c.unimp
     8eb:	0001                	c.addi	x0,0
     8ed:	a45f 0004 cc00      	0xcc000004a45f
     8f3:	0004                	0x4
     8f5:	0100                	c.addi4spn	x8,x2,128
     8f7:	5f00                	c.lw	x8,56(x14)
     8f9:	04cc                	c.addi4spn	x11,x2,580
     8fb:	0000                	c.unimp
     8fd:	04d0                	c.addi4spn	x12,x2,580
     8ff:	0000                	c.unimp
     901:	7c7e0003          	lb	x0,1991(x28) # 67c7 <.LC1+0x262f>
     905:	d09f 0004 d400      	0xd4000004d09f
     90b:	0004                	0x4
     90d:	0100                	c.addi4spn	x8,x2,128
     90f:	5e00                	c.lw	x8,56(x12)
     911:	04d4                	c.addi4spn	x13,x2,580
     913:	0000                	c.unimp
     915:	04f0                	c.addi4spn	x12,x2,588
     917:	0000                	c.unimp
     919:	0001                	c.addi	x0,0
     91b:	f05f 0004 fc00      	0xfc000004f05f
     921:	0004                	0x4
     923:	0a00                	c.addi4spn	x8,x2,272
     925:	7f00                	c.flw	f8,56(x14)
     927:	3300                	c.fld	f8,32(x14)
     929:	7825                	c.lui	x16,0xfffe9
     92b:	4d00                	c.lw	x8,24(x10)
     92d:	2124                	c.fld	f9,64(x10)
     92f:	fc9f 0004 0000      	0x4fc9f
     935:	0005                	c.addi	x0,1
     937:	0800                	c.addi4spn	x8,x2,16
     939:	7800                	c.flw	f8,48(x8)
     93b:	4d00                	c.lw	x8,24(x10)
     93d:	7e24                	c.flw	f9,120(x12)
     93f:	2100                	c.fld	f8,0(x10)
     941:	009f 0005 0400      	0x4000005009f
     947:	0005                	c.addi	x0,1
     949:	0600                	c.addi4spn	x8,x2,768
     94b:	7e00                	c.flw	f8,56(x12)
     94d:	7f00                	c.flw	f8,56(x14)
     94f:	2100                	c.fld	f8,0(x10)
     951:	049f 0005 0800      	0x8000005049f
     957:	0005                	c.addi	x0,1
     959:	0800                	c.addi4spn	x8,x2,16
     95b:	7800                	c.flw	f8,48(x8)
     95d:	4d00                	c.lw	x8,24(x10)
     95f:	7e24                	c.flw	f9,120(x12)
     961:	2100                	c.fld	f8,0(x10)
     963:	089f 0005 5c00      	0x5c000005089f
     969:	0005                	c.addi	x0,1
     96b:	0100                	c.addi4spn	x8,x2,128
     96d:	5f00                	c.lw	x8,56(x14)
     96f:	056c                	c.addi4spn	x11,x2,652
     971:	0000                	c.unimp
     973:	058c                	c.addi4spn	x11,x2,704
     975:	0000                	c.unimp
     977:	0001                	c.addi	x0,0
     979:	985f 0005 c800      	0xc8000005985f
     97f:	0005                	c.addi	x0,1
     981:	0100                	c.addi4spn	x8,x2,128
     983:	5f00                	c.lw	x8,56(x14)
     985:	05d4                	c.addi4spn	x13,x2,708
     987:	0000                	c.unimp
     989:	05f4                	c.addi4spn	x13,x2,716
     98b:	0000                	c.unimp
     98d:	0001                	c.addi	x0,0
     98f:	f45f 0005 f800      	0xf8000005f45f
     995:	0005                	c.addi	x0,1
     997:	0300                	c.addi4spn	x8,x2,384
     999:	7e00                	c.flw	f8,56(x12)
     99b:	9f7c                	0x9f7c
     99d:	05f8                	c.addi4spn	x14,x2,716
     99f:	0000                	c.unimp
     9a1:	05fc                	c.addi4spn	x15,x2,716
     9a3:	0000                	c.unimp
     9a5:	0001                	c.addi	x0,0
     9a7:	fc5e                	c.fswsp	f23,56(x2)
     9a9:	0005                	c.addi	x0,1
     9ab:	1000                	c.addi4spn	x8,x2,32
     9ad:	0006                	c.slli	x0,0x1
     9af:	0100                	c.addi4spn	x8,x2,128
     9b1:	5f00                	c.lw	x8,56(x14)
     9b3:	0614                	c.addi4spn	x13,x2,768
     9b5:	0000                	c.unimp
     9b7:	0618                	c.addi4spn	x14,x2,768
     9b9:	0000                	c.unimp
     9bb:	0001                	c.addi	x0,0
     9bd:	205f 0006 4400      	0x44000006205f
     9c3:	0006                	c.slli	x0,0x1
     9c5:	0100                	c.addi4spn	x8,x2,128
     9c7:	5f00                	c.lw	x8,56(x14)
     9c9:	064c                	c.addi4spn	x11,x2,772
     9cb:	0000                	c.unimp
     9cd:	0654                	c.addi4spn	x13,x2,772
     9cf:	0000                	c.unimp
     9d1:	0001                	c.addi	x0,0
     9d3:	785f 0006 8000      	0x80000006785f
     9d9:	0006                	c.slli	x0,0x1
     9db:	0100                	c.addi4spn	x8,x2,128
     9dd:	5f00                	c.lw	x8,56(x14)
	...

000009e7 <.LLST17>:
     9e7:	0484                	c.addi4spn	x9,x2,576
     9e9:	0000                	c.unimp
     9eb:	04f0                	c.addi4spn	x12,x2,588
     9ed:	0000                	c.unimp
     9ef:	0001                	c.addi	x0,0
     9f1:	f058                	c.fsw	f14,36(x8)
     9f3:	0004                	0x4
     9f5:	0800                	c.addi4spn	x8,x2,16
     9f7:	0005                	c.addi	x0,1
     9f9:	0500                	c.addi4spn	x8,x2,640
     9fb:	7800                	c.flw	f8,48(x8)
     9fd:	3300                	c.fld	f8,32(x14)
     9ff:	9f25                	0x9f25
     a01:	0508                	c.addi4spn	x10,x2,640
     a03:	0000                	c.unimp
     a05:	0510                	c.addi4spn	x12,x2,640
     a07:	0000                	c.unimp
     a09:	0001                	c.addi	x0,0
     a0b:	6c58                	c.flw	f14,28(x8)
     a0d:	0005                	c.addi	x0,1
     a0f:	8800                	0x8800
     a11:	0005                	c.addi	x0,1
     a13:	0100                	c.addi4spn	x8,x2,128
     a15:	5800                	c.lw	x8,48(x8)
     a17:	0598                	c.addi4spn	x14,x2,704
     a19:	0000                	c.unimp
     a1b:	0618                	c.addi4spn	x14,x2,768
     a1d:	0000                	c.unimp
     a1f:	0001                	c.addi	x0,0
     a21:	2058                	c.fld	f14,128(x8)
     a23:	0006                	c.slli	x0,0x1
     a25:	4c00                	c.lw	x8,24(x8)
     a27:	0006                	c.slli	x0,0x1
     a29:	0100                	c.addi4spn	x8,x2,128
     a2b:	5800                	c.lw	x8,48(x8)
     a2d:	064c                	c.addi4spn	x11,x2,772
     a2f:	0000                	c.unimp
     a31:	0654                	c.addi4spn	x13,x2,772
     a33:	0000                	c.unimp
     a35:	0002                	c.slli64	x0
     a37:	9f30                	0x9f30
     a39:	0678                	c.addi4spn	x14,x2,780
     a3b:	0000                	c.unimp
     a3d:	067c                	c.addi4spn	x15,x2,780
     a3f:	0000                	c.unimp
     a41:	0001                	c.addi	x0,0
     a43:	0058                	c.addi4spn	x14,x2,4
     a45:	0000                	c.unimp
     a47:	0000                	c.unimp
     a49:	0000                	c.unimp
	...

00000a4c <.LLST18>:
     a4c:	0100                	c.addi4spn	x8,x2,128
     a4e:	0000                	c.unimp
     a50:	0104                	c.addi4spn	x9,x2,128
     a52:	0000                	c.unimp
     a54:	0001                	c.addi	x0,0
     a56:	045a                	c.slli	x8,0x16
     a58:	0001                	c.addi	x0,0
     a5a:	3400                	c.fld	f8,40(x8)
     a5c:	0001                	c.addi	x0,0
     a5e:	0100                	c.addi4spn	x8,x2,128
     a60:	5e00                	c.lw	x8,56(x12)
     a62:	0138                	c.addi4spn	x14,x2,136
     a64:	0000                	c.unimp
     a66:	0140                	c.addi4spn	x8,x2,132
     a68:	0000                	c.unimp
     a6a:	0001                	c.addi	x0,0
     a6c:	405a                	0x405a
     a6e:	0001                	c.addi	x0,0
     a70:	5000                	c.lw	x8,32(x8)
     a72:	0001                	c.addi	x0,0
     a74:	0100                	c.addi4spn	x8,x2,128
     a76:	5e00                	c.lw	x8,56(x12)
	...

00000a80 <.LLST19>:
     a80:	019c                	c.addi4spn	x15,x2,192
     a82:	0000                	c.unimp
     a84:	01a0                	c.addi4spn	x8,x2,200
     a86:	0000                	c.unimp
     a88:	0001                	c.addi	x0,0
     a8a:	a05a                	c.fsdsp	f22,0(x2)
     a8c:	0001                	c.addi	x0,0
     a8e:	d000                	c.sw	x8,32(x8)
     a90:	0001                	c.addi	x0,0
     a92:	0100                	c.addi4spn	x8,x2,128
     a94:	5d00                	c.lw	x8,56(x10)
     a96:	01d8                	c.addi4spn	x14,x2,196
     a98:	0000                	c.unimp
     a9a:	01e0                	c.addi4spn	x8,x2,204
     a9c:	0000                	c.unimp
     a9e:	0001                	c.addi	x0,0
     aa0:	e05a                	c.fswsp	f22,0(x2)
     aa2:	0001                	c.addi	x0,0
     aa4:	f000                	c.fsw	f8,32(x8)
     aa6:	0001                	c.addi	x0,0
     aa8:	0100                	c.addi4spn	x8,x2,128
     aaa:	5d00                	c.lw	x8,56(x10)
	...

00000ab4 <.LLST20>:
     ab4:	02b0                	c.addi4spn	x12,x2,328
     ab6:	0000                	c.unimp
     ab8:	0334                	c.addi4spn	x13,x2,392
     aba:	0000                	c.unimp
     abc:	000d                	c.addi	x0,3
     abe:	936c                	0x936c
     ac0:	8504                	0x8504
     ac2:	8e00                	0x8e00
     ac4:	2200                	c.fld	f8,0(x12)
     ac6:	939f 9304 3408      	0x34089304939f
     acc:	a8000003          	lb	x0,-1408(x0) # fffffa80 <.LC1+0xffffb8e8>
     ad0:	0004                	0x4
     ad2:	0500                	c.addi4spn	x8,x2,640
     ad4:	6c00                	c.flw	f8,24(x8)
     ad6:	0c930493          	addi	x9,x6,201
     ada:	0598                	c.addi4spn	x14,x2,704
     adc:	0000                	c.unimp
     ade:	05a0                	c.addi4spn	x8,x2,712
     ae0:	0000                	c.unimp
     ae2:	0005                	c.addi	x0,1
     ae4:	936c                	0x936c
     ae6:	9304                	0x9304
     ae8:	000c                	0xc
     aea:	0000                	c.unimp
     aec:	0000                	c.unimp
     aee:	0000                	c.unimp
	...

00000af1 <.LLST21>:
     af1:	0334                	c.addi4spn	x13,x2,392
     af3:	0000                	c.unimp
     af5:	041c                	c.addi4spn	x15,x2,512
     af7:	0000                	c.unimp
     af9:	0001                	c.addi	x0,0
     afb:	006d                	c.addi	x0,27
     afd:	0000                	c.unimp
     aff:	0000                	c.unimp
     b01:	0000                	c.unimp
	...

00000b04 <.LLST22>:
     b04:	0330                	c.addi4spn	x12,x2,392
     b06:	0000                	c.unimp
     b08:	04a8                	c.addi4spn	x10,x2,584
     b0a:	0000                	c.unimp
     b0c:	0001                	c.addi	x0,0
     b0e:	0005986f          	jal	x16,59b0e <.LC1+0x55976>
     b12:	a000                	c.fsd	f8,0(x8)
     b14:	0005                	c.addi	x0,1
     b16:	0100                	c.addi4spn	x8,x2,128
     b18:	6f00                	c.flw	f8,24(x14)
	...

00000b22 <.LLST23>:
     b22:	03a8                	c.addi4spn	x10,x2,456
     b24:	0000                	c.unimp
     b26:	042c                	c.addi4spn	x11,x2,520
     b28:	0000                	c.unimp
     b2a:	0001                	c.addi	x0,0
     b2c:	0056                	c.slli	x0,0x15
     b2e:	0000                	c.unimp
     b30:	0000                	c.unimp
     b32:	0000                	c.unimp
	...

00000b35 <.LLST24>:
     b35:	03a4                	c.addi4spn	x9,x2,456
     b37:	0000                	c.unimp
     b39:	04a8                	c.addi4spn	x10,x2,584
     b3b:	0000                	c.unimp
     b3d:	0001                	c.addi	x0,0
     b3f:	9855                	c.andi	x8,-11
     b41:	0005                	c.addi	x0,1
     b43:	a000                	c.fsd	f8,0(x8)
     b45:	0005                	c.addi	x0,1
     b47:	0100                	c.addi4spn	x8,x2,128
     b49:	5500                	c.lw	x8,40(x10)
	...

00000b53 <.LLST25>:
     b53:	0250                	c.addi4spn	x12,x2,260
     b55:	0000                	c.unimp
     b57:	029c                	c.addi4spn	x15,x2,320
     b59:	0000                	c.unimp
     b5b:	0001                	c.addi	x0,0
     b5d:	00000057          	0x57
     b61:	0000                	c.unimp
     b63:	0000                	c.unimp
	...

00000b66 <.LLST26>:
     b66:	0260                	c.addi4spn	x8,x2,268
     b68:	0000                	c.unimp
     b6a:	0284                	c.addi4spn	x9,x2,320
     b6c:	0000                	c.unimp
     b6e:	0001                	c.addi	x0,0
     b70:	8c56                	c.mv	x24,x21
     b72:	0002                	c.slli64	x0
     b74:	fc00                	c.fsw	f8,56(x8)
     b76:	0002                	c.slli64	x0
     b78:	0100                	c.addi4spn	x8,x2,128
     b7a:	5e00                	c.lw	x8,56(x12)
	...

00000b84 <.LLST27>:
     b84:	0270                	c.addi4spn	x12,x2,268
     b86:	0000                	c.unimp
     b88:	0278                	c.addi4spn	x14,x2,268
     b8a:	0000                	c.unimp
     b8c:	0001                	c.addi	x0,0
     b8e:	785a                	c.flwsp	f16,180(x2)
     b90:	0002                	c.slli64	x0
     b92:	9800                	0x9800
     b94:	0002                	c.slli64	x0
     b96:	0100                	c.addi4spn	x8,x2,128
     b98:	6c00                	c.flw	f8,24(x8)
	...

00000ba2 <.LLST28>:
     ba2:	028c                	c.addi4spn	x11,x2,320
     ba4:	0000                	c.unimp
     ba6:	0294                	c.addi4spn	x13,x2,320
     ba8:	0000                	c.unimp
     baa:	0001                	c.addi	x0,0
     bac:	945a                	c.add	x8,x22
     bae:	0002                	c.slli64	x0
     bb0:	1400                	c.addi4spn	x8,x2,544
     bb2:	0004                	0x4
     bb4:	0100                	c.addi4spn	x8,x2,128
     bb6:	6e00                	c.flw	f8,24(x12)
	...

00000bc0 <.LLST29>:
     bc0:	0228                	c.addi4spn	x10,x2,264
     bc2:	0000                	c.unimp
     bc4:	023c                	c.addi4spn	x15,x2,264
     bc6:	0000                	c.unimp
     bc8:	0001                	c.addi	x0,0
     bca:	0062                	c.slli	x0,0x18
     bcc:	0000                	c.unimp
     bce:	0000                	c.unimp
     bd0:	0000                	c.unimp
	...

00000bd3 <.LLST30>:
     bd3:	0234                	c.addi4spn	x13,x2,264
     bd5:	0000                	c.unimp
     bd7:	02d0                	c.addi4spn	x12,x2,324
     bd9:	0000                	c.unimp
     bdb:	0001                	c.addi	x0,0
     bdd:	005f 0000 0000      	0x5f
     be3:	0000                	c.unimp
	...

00000be6 <.LLST31>:
     be6:	0234                	c.addi4spn	x13,x2,264
     be8:	0000                	c.unimp
     bea:	0314                	c.addi4spn	x13,x2,384
     bec:	0000                	c.unimp
     bee:	0001                	c.addi	x0,0
     bf0:	0000006f          	jal	x0,bf0 <.L3>
     bf4:	0000                	c.unimp
     bf6:	0000                	c.unimp
	...

00000bf9 <.LLST32>:
     bf9:	0240                	c.addi4spn	x8,x2,260
     bfb:	0000                	c.unimp
     bfd:	039c                	c.addi4spn	x15,x2,448
     bff:	0000                	c.unimp
     c01:	0001                	c.addi	x0,0
     c03:	0055                	c.addi	x0,21
     c05:	0000                	c.unimp
     c07:	0000                	c.unimp
     c09:	0000                	c.unimp
	...

00000c0c <.LLST33>:
     c0c:	02c0                	c.addi4spn	x8,x2,324
     c0e:	0000                	c.unimp
     c10:	02c8                	c.addi4spn	x10,x2,324
     c12:	0000                	c.unimp
     c14:	0001                	c.addi	x0,0
     c16:	c85a                	c.swsp	x22,16(x2)
     c18:	0002                	c.slli64	x0
     c1a:	2000                	c.fld	f8,0(x8)
     c1c:	01000003          	lb	x0,16(x0) # 10 <.LASF10+0x2>
     c20:	6d00                	c.flw	f8,24(x10)
	...

00000c2a <.LLST34>:
     c2a:	02d0                	c.addi4spn	x12,x2,324
     c2c:	0000                	c.unimp
     c2e:	02d8                	c.addi4spn	x14,x2,324
     c30:	0000                	c.unimp
     c32:	0001                	c.addi	x0,0
     c34:	d85a                	c.swsp	x22,48(x2)
     c36:	0002                	c.slli64	x0
     c38:	f400                	c.fsw	f8,40(x8)
     c3a:	0002                	c.slli64	x0
     c3c:	0100                	c.addi4spn	x8,x2,128
     c3e:	5f00                	c.lw	x8,56(x14)
     c40:	02fc                	c.addi4spn	x15,x2,332
     c42:	0000                	c.unimp
     c44:	0318                	c.addi4spn	x14,x2,384
     c46:	0000                	c.unimp
     c48:	0001                	c.addi	x0,0
     c4a:	005d                	c.addi	x0,23
     c4c:	0000                	c.unimp
     c4e:	0000                	c.unimp
     c50:	0000                	c.unimp
	...

00000c53 <.LLST35>:
     c53:	02e0                	c.addi4spn	x8,x2,332
     c55:	0000                	c.unimp
     c57:	0354                	c.addi4spn	x13,x2,388
     c59:	0000                	c.unimp
     c5b:	0001                	c.addi	x0,0
     c5d:	0056                	c.slli	x0,0x15
     c5f:	0000                	c.unimp
     c61:	0000                	c.unimp
     c63:	0000                	c.unimp
	...

00000c66 <.LLST36>:
     c66:	02fc                	c.addi4spn	x15,x2,332
     c68:	0000                	c.unimp
     c6a:	0308                	c.addi4spn	x10,x2,384
     c6c:	0000                	c.unimp
     c6e:	0001                	c.addi	x0,0
     c70:	085a                	c.slli	x16,0x16
     c72:	44000003          	lb	x0,1088(x0) # 440 <.Ldebug_abbrev0+0x1>
     c76:	01000003          	lb	x0,16(x0) # 10 <.LASF10+0x2>
     c7a:	5e00                	c.lw	x8,56(x12)
	...

00000c84 <.LLST37>:
     c84:	02b0                	c.addi4spn	x12,x2,328
     c86:	0000                	c.unimp
     c88:	0314                	c.addi4spn	x13,x2,384
     c8a:	0000                	c.unimp
     c8c:	0001                	c.addi	x0,0
     c8e:	0000006f          	jal	x0,c8e <.LVL55+0x6>
     c92:	0000                	c.unimp
     c94:	0000                	c.unimp
	...

00000c97 <.LLST38>:
     c97:	02b0                	c.addi4spn	x12,x2,328
     c99:	0000                	c.unimp
     c9b:	03f4                	c.addi4spn	x13,x2,460
     c9d:	0000                	c.unimp
     c9f:	0001                	c.addi	x0,0
     ca1:	00000057          	0x57
     ca5:	0000                	c.unimp
     ca7:	0000                	c.unimp
	...

00000caa <.LLST39>:
     caa:	0344                	c.addi4spn	x9,x2,388
     cac:	0000                	c.unimp
     cae:	034c                	c.addi4spn	x11,x2,388
     cb0:	0000                	c.unimp
     cb2:	0001                	c.addi	x0,0
     cb4:	4c5a                	c.lwsp	x24,148(x2)
     cb6:	98000003          	lb	x0,-1664(x0) # fffff980 <.LC1+0xffffb7e8>
     cba:	01000003          	lb	x0,16(x0) # 10 <.LASF10+0x2>
     cbe:	5e00                	c.lw	x8,56(x12)
	...

00000cc8 <.LLST40>:
     cc8:	0354                	c.addi4spn	x13,x2,388
     cca:	0000                	c.unimp
     ccc:	0378                	c.addi4spn	x14,x2,396
     cce:	0000                	c.unimp
     cd0:	0001                	c.addi	x0,0
     cd2:	8056                	c.mv	x0,x21
     cd4:	c8000003          	lb	x0,-896(x0) # fffffc80 <.LC1+0xffffbae8>
     cd8:	01000003          	lb	x0,16(x0) # 10 <.LASF10+0x2>
     cdc:	5f00                	c.lw	x8,56(x14)
	...

00000ce6 <.LLST41>:
     ce6:	0364                	c.addi4spn	x9,x2,396
     ce8:	0000                	c.unimp
     cea:	036c                	c.addi4spn	x11,x2,396
     cec:	0000                	c.unimp
     cee:	0001                	c.addi	x0,0
     cf0:	6c5a                	c.flwsp	f24,148(x2)
     cf2:	8c000003          	lb	x0,-1856(x0) # fffff8c0 <.LC1+0xffffb728>
     cf6:	01000003          	lb	x0,16(x0) # 10 <.LASF10+0x2>
     cfa:	6400                	c.flw	f8,8(x8)
	...

00000d04 <.LLST42>:
     d04:	0380                	c.addi4spn	x8,x2,448
     d06:	0000                	c.unimp
     d08:	0388                	c.addi4spn	x10,x2,448
     d0a:	0000                	c.unimp
     d0c:	0001                	c.addi	x0,0
     d0e:	885a                	c.mv	x16,x22
     d10:	b4000003          	lb	x0,-1216(x0) # fffffb40 <.LC1+0xffffb9a8>
     d14:	01000003          	lb	x0,16(x0) # 10 <.LASF10+0x2>
     d18:	5c00                	c.lw	x8,56(x8)
	...

00000d22 <.LLST43>:
     d22:	0334                	c.addi4spn	x13,x2,392
     d24:	0000                	c.unimp
     d26:	04a8                	c.addi4spn	x10,x2,584
     d28:	0000                	c.unimp
     d2a:	0001                	c.addi	x0,0
     d2c:	9866                	c.add	x16,x25
     d2e:	0005                	c.addi	x0,1
     d30:	a000                	c.fsd	f8,0(x8)
     d32:	0005                	c.addi	x0,1
     d34:	0100                	c.addi4spn	x8,x2,128
     d36:	6600                	c.flw	f8,8(x12)
	...

00000d40 <.LLST44>:
     d40:	0334                	c.addi4spn	x13,x2,392
     d42:	0000                	c.unimp
     d44:	039c                	c.addi4spn	x15,x2,448
     d46:	0000                	c.unimp
     d48:	0001                	c.addi	x0,0
     d4a:	0055                	c.addi	x0,21
     d4c:	0000                	c.unimp
     d4e:	0000                	c.unimp
     d50:	0000                	c.unimp
	...

00000d53 <.LLST45>:
     d53:	03b8                	c.addi4spn	x14,x2,456
     d55:	0000                	c.unimp
     d57:	03c0                	c.addi4spn	x8,x2,452
     d59:	0000                	c.unimp
     d5b:	0001                	c.addi	x0,0
     d5d:	c05a                	c.swsp	x22,0(x2)
     d5f:	a8000003          	lb	x0,-1408(x0) # fffffa80 <.LC1+0xffffb8e8>
     d63:	0004                	0x4
     d65:	0100                	c.addi4spn	x8,x2,128
     d67:	6200                	c.flw	f8,0(x12)
     d69:	0598                	c.addi4spn	x14,x2,704
     d6b:	0000                	c.unimp
     d6d:	05a0                	c.addi4spn	x8,x2,712
     d6f:	0000                	c.unimp
     d71:	0001                	c.addi	x0,0
     d73:	0062                	c.slli	x0,0x18
     d75:	0000                	c.unimp
     d77:	0000                	c.unimp
     d79:	0000                	c.unimp
	...

00000d7c <.LLST46>:
     d7c:	03c8                	c.addi4spn	x10,x2,452
     d7e:	0000                	c.unimp
     d80:	03d0                	c.addi4spn	x12,x2,452
     d82:	0000                	c.unimp
     d84:	0001                	c.addi	x0,0
     d86:	d05a                	c.swsp	x22,32(x2)
     d88:	ec000003          	lb	x0,-320(x0) # fffffec0 <.LC1+0xffffbd28>
     d8c:	01000003          	lb	x0,16(x0) # 10 <.LASF10+0x2>
     d90:	5f00                	c.lw	x8,56(x14)
     d92:	03f4                	c.addi4spn	x13,x2,460
     d94:	0000                	c.unimp
     d96:	0460                	c.addi4spn	x8,x2,524
     d98:	0000                	c.unimp
     d9a:	0001                	c.addi	x0,0
     d9c:	005f 0000 0000      	0x5f
     da2:	0000                	c.unimp
	...

00000da5 <.LLST47>:
     da5:	03d8                	c.addi4spn	x14,x2,452
     da7:	0000                	c.unimp
     da9:	04a8                	c.addi4spn	x10,x2,584
     dab:	0000                	c.unimp
     dad:	0001                	c.addi	x0,0
     daf:	9859                	c.andi	x8,-10
     db1:	0005                	c.addi	x0,1
     db3:	a000                	c.fsd	f8,0(x8)
     db5:	0005                	c.addi	x0,1
     db7:	0100                	c.addi4spn	x8,x2,128
     db9:	5900                	c.lw	x8,48(x10)
	...

00000dc3 <.LLST48>:
     dc3:	03f4                	c.addi4spn	x13,x2,460
     dc5:	0000                	c.unimp
     dc7:	04a8                	c.addi4spn	x10,x2,584
     dc9:	0000                	c.unimp
     dcb:	0001                	c.addi	x0,0
     dcd:	00059857          	0x59857
     dd1:	a000                	c.fsd	f8,0(x8)
     dd3:	0005                	c.addi	x0,1
     dd5:	0100                	c.addi4spn	x8,x2,128
     dd7:	5700                	c.lw	x8,40(x14)
	...

00000de1 <.LLST49>:
     de1:	03a8                	c.addi4spn	x10,x2,456
     de3:	0000                	c.unimp
     de5:	04a8                	c.addi4spn	x10,x2,584
     de7:	0000                	c.unimp
     de9:	0001                	c.addi	x0,0
     deb:	9866                	c.add	x16,x25
     ded:	0005                	c.addi	x0,1
     def:	a000                	c.fsd	f8,0(x8)
     df1:	0005                	c.addi	x0,1
     df3:	0100                	c.addi4spn	x8,x2,128
     df5:	6600                	c.flw	f8,8(x12)
	...

00000dff <.LLST50>:
     dff:	03a8                	c.addi4spn	x10,x2,456
     e01:	0000                	c.unimp
     e03:	03f4                	c.addi4spn	x13,x2,460
     e05:	0000                	c.unimp
     e07:	0001                	c.addi	x0,0
     e09:	00000057          	0x57
     e0d:	0000                	c.unimp
     e0f:	0000                	c.unimp
	...

00000e12 <.LLST51>:
     e12:	041c                	c.addi4spn	x15,x2,512
     e14:	0000                	c.unimp
     e16:	0438                	c.addi4spn	x14,x2,520
     e18:	0000                	c.unimp
     e1a:	0001                	c.addi	x0,0
     e1c:	006d                	c.addi	x0,27
     e1e:	0000                	c.unimp
     e20:	0000                	c.unimp
     e22:	0000                	c.unimp
	...

00000e25 <.LLST52>:
     e25:	0420                	c.addi4spn	x8,x2,520
     e27:	0000                	c.unimp
     e29:	0424                	c.addi4spn	x9,x2,520
     e2b:	0000                	c.unimp
     e2d:	0011                	c.addi	x0,4
     e2f:	007e                	c.slli	x0,0x1f
     e31:	4b40                	c.lw	x8,20(x14)
     e33:	2224                	c.fld	f9,64(x12)
     e35:	4b40008f          	0x4b40008f
     e39:	2224                	c.fld	f9,64(x12)
     e3b:	082d                	c.addi	x16,11
     e3d:	1aff                	0x1aff
     e3f:	249f 0004 3800      	0x38000004249f
     e45:	0004                	0x4
     e47:	1f00                	c.addi4spn	x8,x2,944
     e49:	7e00                	c.flw	f8,56(x12)
     e4b:	4000                	c.lw	x8,0(x8)
     e4d:	8f22244b          	fnmsub.q	f8,f4,f18,f17,rdn
     e51:	4000                	c.lw	x8,0(x8)
     e53:	2d22244b          	0x2d22244b
     e57:	0078                	c.addi4spn	x14,x2,12
     e59:	4b40                	c.lw	x8,20(x14)
     e5b:	2224                	c.fld	f9,64(x12)
     e5d:	008d                	c.addi	x1,3
     e5f:	4b40                	c.lw	x8,20(x14)
     e61:	2224                	c.fld	f9,64(x12)
     e63:	212d                	c.jal	128d <.L12+0x9>
     e65:	ff08                	c.fsw	f10,56(x14)
     e67:	9f1a                	c.add	x30,x6
	...

00000e71 <.LLST53>:
     e71:	042c                	c.addi4spn	x11,x2,520
     e73:	0000                	c.unimp
     e75:	044c                	c.addi4spn	x11,x2,516
     e77:	0000                	c.unimp
     e79:	0001                	c.addi	x0,0
     e7b:	0056                	c.slli	x0,0x15
     e7d:	0000                	c.unimp
     e7f:	0000                	c.unimp
     e81:	0000                	c.unimp
	...

00000e84 <.LLST54>:
     e84:	0430                	c.addi4spn	x12,x2,520
     e86:	0000                	c.unimp
     e88:	0434                	c.addi4spn	x13,x2,520
     e8a:	0000                	c.unimp
     e8c:	0011                	c.addi	x0,4
     e8e:	007c                	c.addi4spn	x15,x2,12
     e90:	4b40                	c.lw	x8,20(x14)
     e92:	2224                	c.fld	f9,64(x12)
     e94:	0075                	c.addi	x0,29
     e96:	4b40                	c.lw	x8,20(x14)
     e98:	2224                	c.fld	f9,64(x12)
     e9a:	082d                	c.addi	x16,11
     e9c:	1aff                	0x1aff
     e9e:	349f 0004 4800      	0x48000004349f
     ea4:	0004                	0x4
     ea6:	1f00                	c.addi4spn	x8,x2,944
     ea8:	7c00                	c.flw	f8,56(x8)
     eaa:	4000                	c.lw	x8,0(x8)
     eac:	7522244b          	0x7522244b
     eb0:	4000                	c.lw	x8,0(x8)
     eb2:	2d22244b          	0x2d22244b
     eb6:	4b40007b          	0x4b40007b
     eba:	2224                	c.fld	f9,64(x12)
     ebc:	0076                	c.slli	x0,0x1d
     ebe:	4b40                	c.lw	x8,20(x14)
     ec0:	2224                	c.fld	f9,64(x12)
     ec2:	212d                	c.jal	12ec <.LVL52>
     ec4:	ff08                	c.fsw	f10,56(x14)
     ec6:	9f1a                	c.add	x30,x6
	...

00000ed0 <.LLST55>:
     ed0:	0468                	c.addi4spn	x10,x2,524
     ed2:	0000                	c.unimp
     ed4:	0478                	c.addi4spn	x14,x2,524
     ed6:	0000                	c.unimp
     ed8:	000d                	c.addi	x0,3
     eda:	008e                	c.slli	x1,0x3
     edc:	2439                	c.jal	10ea <.LVL180+0x6>
     ede:	008c                	c.addi4spn	x11,x2,64
     ee0:	3021                	c.jal	6e8 <.LLST11+0x1c>
     ee2:	082e                	c.slli	x16,0xb
     ee4:	1aff                	0x1aff
     ee6:	009f 0000 0000      	0x9f
     eec:	0000                	c.unimp
	...

00000eef <.LLST56>:
     eef:	0434                	c.addi4spn	x13,x2,520
     ef1:	0000                	c.unimp
     ef3:	04a8                	c.addi4spn	x10,x2,584
     ef5:	0000                	c.unimp
     ef7:	0002                	c.slli64	x0
     ef9:	9f39                	0x9f39
     efb:	0598                	c.addi4spn	x14,x2,704
     efd:	0000                	c.unimp
     eff:	05a0                	c.addi4spn	x8,x2,712
     f01:	0000                	c.unimp
     f03:	0002                	c.slli64	x0
     f05:	9f39                	0x9f39
	...

00000f0f <.LLST57>:
     f0f:	0434                	c.addi4spn	x13,x2,520
     f11:	0000                	c.unimp
     f13:	04a8                	c.addi4spn	x10,x2,584
     f15:	0000                	c.unimp
     f17:	0002                	c.slli64	x0
     f19:	05989f47          	0x5989f47
     f1d:	0000                	c.unimp
     f1f:	05a0                	c.addi4spn	x8,x2,712
     f21:	0000                	c.unimp
     f23:	0002                	c.slli64	x0
     f25:	00009f47          	fmsub.s	f30,f1,f0,f0,rtz
     f29:	0000                	c.unimp
     f2b:	0000                	c.unimp
	...

00000f2f <.LLST58>:
     f2f:	0434                	c.addi4spn	x13,x2,520
     f31:	0000                	c.unimp
     f33:	04a8                	c.addi4spn	x10,x2,584
     f35:	0000                	c.unimp
     f37:	0002                	c.slli64	x0
     f39:	9f31                	0x9f31
     f3b:	0598                	c.addi4spn	x14,x2,704
     f3d:	0000                	c.unimp
     f3f:	05a0                	c.addi4spn	x8,x2,712
     f41:	0000                	c.unimp
     f43:	0002                	c.slli64	x0
     f45:	9f31                	0x9f31
	...

00000f4f <.LLST59>:
     f4f:	0434                	c.addi4spn	x13,x2,520
     f51:	0000                	c.unimp
     f53:	0468                	c.addi4spn	x10,x2,524
     f55:	0000                	c.unimp
     f57:	0002                	c.slli64	x0
     f59:	9f31                	0x9f31
	...

00000f63 <.LLST60>:
     f63:	0434                	c.addi4spn	x13,x2,520
     f65:	0000                	c.unimp
     f67:	0470                	c.addi4spn	x12,x2,524
     f69:	0000                	c.unimp
     f6b:	0008                	0x8
     f6d:	008e                	c.slli	x1,0x3
     f6f:	2439                	c.jal	117d <.LBE15+0x1>
     f71:	008c                	c.addi4spn	x11,x2,64
     f73:	9f21                	0x9f21
     f75:	0470                	c.addi4spn	x12,x2,524
     f77:	0000                	c.unimp
     f79:	0474                	c.addi4spn	x13,x2,524
     f7b:	0000                	c.unimp
     f7d:	0001                	c.addi	x0,0
     f7f:	745f 0004 7800      	0x78000004745f
     f85:	0004                	0x4
     f87:	0800                	c.addi4spn	x8,x2,16
     f89:	8e00                	0x8e00
     f8b:	3900                	c.fld	f8,48(x10)
     f8d:	8c24                	0x8c24
     f8f:	2100                	c.fld	f8,0(x10)
     f91:	009f 0000 0000      	0x9f
     f97:	0000                	c.unimp
	...

00000f9a <.LLST61>:
     f9a:	04c8                	c.addi4spn	x10,x2,580
     f9c:	0000                	c.unimp
     f9e:	04d4                	c.addi4spn	x13,x2,580
     fa0:	0000                	c.unimp
     fa2:	0001                	c.addi	x0,0
     fa4:	005e                	c.slli	x0,0x17
     fa6:	0000                	c.unimp
     fa8:	0000                	c.unimp
     faa:	0000                	c.unimp
	...

00000fad <.LLST62>:
     fad:	05f0                	c.addi4spn	x12,x2,716
     faf:	0000                	c.unimp
     fb1:	05fc                	c.addi4spn	x15,x2,716
     fb3:	0000                	c.unimp
     fb5:	0001                	c.addi	x0,0
     fb7:	005e                	c.slli	x0,0x17
     fb9:	0000                	c.unimp
     fbb:	0000                	c.unimp
     fbd:	0000                	c.unimp
	...

00000fc0 <.LLST0>:
     fc0:	0000                	c.unimp
     fc2:	0000                	c.unimp
     fc4:	0058                	c.addi4spn	x14,x2,4
     fc6:	0000                	c.unimp
     fc8:	0006                	c.slli	x0,0x1
     fca:	935a                	c.add	x6,x22
     fcc:	5b04                	c.lw	x9,48(x14)
     fce:	00580493          	addi	x9,x16,5 # fffe9005 <.LC1+0xfffe4e6d>
     fd2:	0000                	c.unimp
     fd4:	07ec                	c.addi4spn	x11,x2,972
     fd6:	0000                	c.unimp
     fd8:	0006                	c.slli	x0,0x1
     fda:	0af503f3          	0xaf503f3
     fde:	9f25                	0x9f25
	...

00000fe8 <.LLST1>:
     fe8:	0000                	c.unimp
     fea:	0000                	c.unimp
     fec:	0064                	c.addi4spn	x9,x2,12
     fee:	0000                	c.unimp
     ff0:	0006                	c.slli	x0,0x1
     ff2:	935c                	0x935c
     ff4:	5d04                	c.lw	x9,56(x10)
     ff6:	00640493          	addi	x9,x8,6
     ffa:	0000                	c.unimp
     ffc:	07ec                	c.addi4spn	x11,x2,972
     ffe:	0000                	c.unimp
    1000:	0006                	c.slli	x0,0x1
    1002:	0cf503f3          	0xcf503f3
    1006:	9f25                	0x9f25
	...

00001010 <.LLST2>:
    1010:	0000                	c.unimp
    1012:	0000                	c.unimp
    1014:	00b8                	c.addi4spn	x14,x2,72
    1016:	0000                	c.unimp
    1018:	0002                	c.slli64	x0
    101a:	9f30                	0x9f30
    101c:	00c0                	c.addi4spn	x8,x2,68
    101e:	0000                	c.unimp
    1020:	01d4                	c.addi4spn	x13,x2,196
    1022:	0000                	c.unimp
    1024:	0002                	c.slli64	x0
    1026:	9f30                	0x9f30
    1028:	01e0                	c.addi4spn	x8,x2,204
    102a:	0000                	c.unimp
    102c:	02d0                	c.addi4spn	x12,x2,324
    102e:	0000                	c.unimp
    1030:	0002                	c.slli64	x0
    1032:	9f30                	0x9f30
    1034:	0318                	c.addi4spn	x14,x2,384
    1036:	0000                	c.unimp
    1038:	05a8                	c.addi4spn	x10,x2,712
    103a:	0000                	c.unimp
    103c:	0002                	c.slli64	x0
    103e:	9f30                	0x9f30
    1040:	05c8                	c.addi4spn	x10,x2,708
    1042:	0000                	c.unimp
    1044:	070c                	c.addi4spn	x11,x2,896
    1046:	0000                	c.unimp
    1048:	0002                	c.slli64	x0
    104a:	9f30                	0x9f30
    104c:	07a0                	c.addi4spn	x8,x2,968
    104e:	0000                	c.unimp
    1050:	07d0                	c.addi4spn	x12,x2,964
    1052:	0000                	c.unimp
    1054:	0002                	c.slli64	x0
    1056:	9f30                	0x9f30
	...

00001060 <.LLST3>:
    1060:	0038                	c.addi4spn	x14,x2,8
    1062:	0000                	c.unimp
    1064:	00b8                	c.addi4spn	x14,x2,72
    1066:	0000                	c.unimp
    1068:	0001                	c.addi	x0,0
    106a:	c059                	c.beqz	x8,10f0 <.LVL181+0x4>
    106c:	0000                	c.unimp
    106e:	d000                	c.sw	x8,32(x8)
    1070:	0002                	c.slli64	x0
    1072:	0100                	c.addi4spn	x8,x2,128
    1074:	5900                	c.lw	x8,48(x10)
    1076:	02f8                	c.addi4spn	x14,x2,332
    1078:	0000                	c.unimp
    107a:	0308                	c.addi4spn	x10,x2,384
    107c:	0000                	c.unimp
    107e:	0001                	c.addi	x0,0
    1080:	1859                	c.addi	x16,-10
    1082:	74000003          	lb	x0,1856(x0) # 740 <.L85+0xc>
    1086:	01000003          	lb	x0,16(x0) # 10 <.LASF10+0x2>
    108a:	5900                	c.lw	x8,48(x10)
    108c:	037c                	c.addi4spn	x15,x2,396
    108e:	0000                	c.unimp
    1090:	03cc                	c.addi4spn	x11,x2,452
    1092:	0000                	c.unimp
    1094:	0001                	c.addi	x0,0
    1096:	e859                	c.bnez	x8,112c <__subdf3+0x4>
    1098:	70000003          	lb	x0,1792(x0) # 700 <.L88+0x8>
    109c:	0004                	0x4
    109e:	0100                	c.addi4spn	x8,x2,128
    10a0:	5900                	c.lw	x8,48(x10)
    10a2:	0474                	c.addi4spn	x13,x2,524
    10a4:	0000                	c.unimp
    10a6:	04ec                	c.addi4spn	x11,x2,588
    10a8:	0000                	c.unimp
    10aa:	0001                	c.addi	x0,0
    10ac:	f059                	c.bnez	x8,1032 <.L20+0x2>
    10ae:	0004                	0x4
    10b0:	5c00                	c.lw	x8,56(x8)
    10b2:	0005                	c.addi	x0,1
    10b4:	0100                	c.addi4spn	x8,x2,128
    10b6:	5900                	c.lw	x8,48(x10)
    10b8:	0560                	c.addi4spn	x8,x2,652
    10ba:	0000                	c.unimp
    10bc:	05bc                	c.addi4spn	x15,x2,712
    10be:	0000                	c.unimp
    10c0:	0001                	c.addi	x0,0
    10c2:	c059                	c.beqz	x8,1148 <.LBE4+0x4>
    10c4:	0005                	c.addi	x0,1
    10c6:	f800                	c.fsw	f8,48(x8)
    10c8:	0005                	c.addi	x0,1
    10ca:	0100                	c.addi4spn	x8,x2,128
    10cc:	5900                	c.lw	x8,48(x10)
    10ce:	0668                	c.addi4spn	x10,x2,780
    10d0:	0000                	c.unimp
    10d2:	067c                	c.addi4spn	x15,x2,780
    10d4:	0000                	c.unimp
    10d6:	0001                	c.addi	x0,0
    10d8:	e459                	c.bnez	x8,1166 <.LBE9+0x6>
    10da:	0006                	c.slli	x0,0x1
    10dc:	0c00                	c.addi4spn	x8,x2,528
    10de:	01000007          	0x1000007
    10e2:	5900                	c.lw	x8,48(x10)
    10e4:	07a0                	c.addi4spn	x8,x2,968
    10e6:	0000                	c.unimp
    10e8:	07c4                	c.addi4spn	x9,x2,964
    10ea:	0000                	c.unimp
    10ec:	0001                	c.addi	x0,0
    10ee:	c859                	c.beqz	x8,1184 <.LBE16>
    10f0:	d8000007          	0xd8000007
    10f4:	01000007          	0x1000007
    10f8:	5900                	c.lw	x8,48(x10)
	...

00001102 <.LLST4>:
    1102:	0028                	c.addi4spn	x10,x2,8
    1104:	0000                	c.unimp
    1106:	00ac                	c.addi4spn	x11,x2,72
    1108:	0000                	c.unimp
    110a:	0001                	c.addi	x0,0
    110c:	b058                	c.fsd	f14,160(x8)
    110e:	0000                	c.unimp
    1110:	bc00                	c.fsd	f8,56(x8)
    1112:	0000                	c.unimp
    1114:	0100                	c.addi4spn	x8,x2,128
    1116:	5800                	c.lw	x8,48(x8)
    1118:	00c0                	c.addi4spn	x8,x2,68
    111a:	0000                	c.unimp
    111c:	011c                	c.addi4spn	x15,x2,128
    111e:	0000                	c.unimp
    1120:	0001                	c.addi	x0,0
    1122:	5c58                	c.lw	x14,60(x8)
    1124:	0001                	c.addi	x0,0
    1126:	3c00                	c.fld	f8,56(x8)
    1128:	0002                	c.slli64	x0
    112a:	0100                	c.addi4spn	x8,x2,128
    112c:	5800                	c.lw	x8,48(x8)
    112e:	0240                	c.addi4spn	x8,x2,260
    1130:	0000                	c.unimp
    1132:	02d0                	c.addi4spn	x12,x2,324
    1134:	0000                	c.unimp
    1136:	0001                	c.addi	x0,0
    1138:	f858                	c.fsw	f14,52(x8)
    113a:	0002                	c.slli64	x0
    113c:	1400                	c.addi4spn	x8,x2,544
    113e:	01000003          	lb	x0,16(x0) # 10 <.LASF10+0x2>
    1142:	5800                	c.lw	x8,48(x8)
    1144:	0318                	c.addi4spn	x14,x2,384
    1146:	0000                	c.unimp
    1148:	0344                	c.addi4spn	x9,x2,388
    114a:	0000                	c.unimp
    114c:	0001                	c.addi	x0,0
    114e:	4458                	c.lw	x14,12(x8)
    1150:	48000003          	lb	x0,1152(x0) # 480 <.LASF38+0x3>
    1154:	03000003          	lb	x0,48(x0) # 30 <printf_num>
    1158:	7d00                	c.flw	f8,56(x10)
    115a:	9f7f                	0x9f7f
    115c:	0348                	c.addi4spn	x10,x2,388
    115e:	0000                	c.unimp
    1160:	0378                	c.addi4spn	x14,x2,396
    1162:	0000                	c.unimp
    1164:	0001                	c.addi	x0,0
    1166:	7c58                	c.flw	f14,60(x8)
    1168:	cc000003          	lb	x0,-832(x0) # fffffcc0 <.LC1+0xffffbb28>
    116c:	01000003          	lb	x0,16(x0) # 10 <.LASF10+0x2>
    1170:	5800                	c.lw	x8,48(x8)
    1172:	03e8                	c.addi4spn	x10,x2,460
    1174:	0000                	c.unimp
    1176:	0488                	c.addi4spn	x10,x2,576
    1178:	0000                	c.unimp
    117a:	0001                	c.addi	x0,0
    117c:	8c58                	0x8c58
    117e:	0004                	0x4
    1180:	e800                	c.fsw	f8,16(x8)
    1182:	0004                	0x4
    1184:	0100                	c.addi4spn	x8,x2,128
    1186:	5800                	c.lw	x8,48(x8)
    1188:	04f0                	c.addi4spn	x12,x2,588
    118a:	0000                	c.unimp
    118c:	0558                	c.addi4spn	x14,x2,644
    118e:	0000                	c.unimp
    1190:	0001                	c.addi	x0,0
    1192:	6058                	c.flw	f14,4(x8)
    1194:	0005                	c.addi	x0,1
    1196:	f800                	c.fsw	f8,48(x8)
    1198:	0005                	c.addi	x0,1
    119a:	0100                	c.addi4spn	x8,x2,128
    119c:	5800                	c.lw	x8,48(x8)
    119e:	0668                	c.addi4spn	x10,x2,780
    11a0:	0000                	c.unimp
    11a2:	0678                	c.addi4spn	x14,x2,780
    11a4:	0000                	c.unimp
    11a6:	0001                	c.addi	x0,0
    11a8:	e458                	c.fsw	f14,12(x8)
    11aa:	0006                	c.slli	x0,0x1
    11ac:	f000                	c.fsw	f8,32(x8)
    11ae:	0006                	c.slli	x0,0x1
    11b0:	0100                	c.addi4spn	x8,x2,128
    11b2:	5800                	c.lw	x8,48(x8)
    11b4:	06f4                	c.addi4spn	x13,x2,844
    11b6:	0000                	c.unimp
    11b8:	0704                	c.addi4spn	x9,x2,896
    11ba:	0000                	c.unimp
    11bc:	0001                	c.addi	x0,0
    11be:	a058                	c.fsd	f14,128(x8)
    11c0:	a4000007          	0xa4000007
    11c4:	01000007          	0x1000007
    11c8:	5800                	c.lw	x8,48(x8)
    11ca:	07a8                	c.addi4spn	x10,x2,968
    11cc:	0000                	c.unimp
    11ce:	07b4                	c.addi4spn	x13,x2,968
    11d0:	0000                	c.unimp
    11d2:	0001                	c.addi	x0,0
    11d4:	b858                	c.fsd	f14,176(x8)
    11d6:	c0000007          	0xc0000007
    11da:	01000007          	0x1000007
    11de:	5800                	c.lw	x8,48(x8)
    11e0:	07c8                	c.addi4spn	x10,x2,964
    11e2:	0000                	c.unimp
    11e4:	07e0                	c.addi4spn	x8,x2,972
    11e6:	0000                	c.unimp
    11e8:	0001                	c.addi	x0,0
    11ea:	0058                	c.addi4spn	x14,x2,4
    11ec:	0000                	c.unimp
    11ee:	0000                	c.unimp
    11f0:	0000                	c.unimp
	...

000011f3 <.LLST5>:
    11f3:	0000                	c.unimp
    11f5:	0000                	c.unimp
    11f7:	0040                	c.addi4spn	x8,x2,4
    11f9:	0000                	c.unimp
    11fb:	0001                	c.addi	x0,0
    11fd:	405a                	0x405a
    11ff:	0000                	c.unimp
    1201:	a800                	c.fsd	f8,16(x8)
    1203:	0000                	c.unimp
    1205:	0100                	c.addi4spn	x8,x2,128
    1207:	5b00                	c.lw	x8,48(x14)
    1209:	00b0                	c.addi4spn	x12,x2,72
    120b:	0000                	c.unimp
    120d:	00b8                	c.addi4spn	x14,x2,72
    120f:	0000                	c.unimp
    1211:	0001                	c.addi	x0,0
    1213:	0000c05b          	0xc05b
    1217:	1c00                	c.addi4spn	x8,x2,560
    1219:	0001                	c.addi	x0,0
    121b:	0100                	c.addi4spn	x8,x2,128
    121d:	5b00                	c.lw	x8,48(x14)
    121f:	015c                	c.addi4spn	x15,x2,132
    1221:	0000                	c.unimp
    1223:	01bc                	c.addi4spn	x15,x2,200
    1225:	0000                	c.unimp
    1227:	0001                	c.addi	x0,0
    1229:	0001cc5b          	0x1cc5b
    122d:	dc00                	c.sw	x8,56(x8)
    122f:	0001                	c.addi	x0,0
    1231:	0100                	c.addi4spn	x8,x2,128
    1233:	5b00                	c.lw	x8,48(x14)
    1235:	01e0                	c.addi4spn	x8,x2,204
    1237:	0000                	c.unimp
    1239:	0218                	c.addi4spn	x14,x2,256
    123b:	0000                	c.unimp
    123d:	0001                	c.addi	x0,0
    123f:	0002245b          	0x2245b
    1243:	4000                	c.lw	x8,0(x8)
    1245:	0002                	c.slli64	x0
    1247:	0100                	c.addi4spn	x8,x2,128
    1249:	5a00                	c.lw	x8,48(x12)
    124b:	0240                	c.addi4spn	x8,x2,260
    124d:	0000                	c.unimp
    124f:	026c                	c.addi4spn	x11,x2,268
    1251:	0000                	c.unimp
    1253:	0001                	c.addi	x0,0
    1255:	0002745b          	0x2745b
    1259:	bc00                	c.fsd	f8,56(x8)
    125b:	0002                	c.slli64	x0
    125d:	0100                	c.addi4spn	x8,x2,128
    125f:	5b00                	c.lw	x8,48(x14)
    1261:	02f8                	c.addi4spn	x14,x2,332
    1263:	0000                	c.unimp
    1265:	0310                	c.addi4spn	x12,x2,384
    1267:	0000                	c.unimp
    1269:	0001                	c.addi	x0,0
    126b:	0003185b          	0x3185b
    126f:	3c00                	c.fld	f8,56(x8)
    1271:	01000003          	lb	x0,16(x0) # 10 <.LASF10+0x2>
    1275:	5b00                	c.lw	x8,48(x14)
    1277:	0348                	c.addi4spn	x10,x2,388
    1279:	0000                	c.unimp
    127b:	0374                	c.addi4spn	x13,x2,396
    127d:	0000                	c.unimp
    127f:	0001                	c.addi	x0,0
    1281:	00037c5b          	0x37c5b
    1285:	cc00                	c.sw	x8,24(x8)
    1287:	01000003          	lb	x0,16(x0) # 10 <.LASF10+0x2>
    128b:	5b00                	c.lw	x8,48(x14)
    128d:	03e8                	c.addi4spn	x10,x2,460
    128f:	0000                	c.unimp
    1291:	0460                	c.addi4spn	x8,x2,524
    1293:	0000                	c.unimp
    1295:	0001                	c.addi	x0,0
    1297:	0004745b          	0x4745b
    129b:	8400                	0x8400
    129d:	0004                	0x4
    129f:	0100                	c.addi4spn	x8,x2,128
    12a1:	5b00                	c.lw	x8,48(x14)
    12a3:	048c                	c.addi4spn	x11,x2,576
    12a5:	0000                	c.unimp
    12a7:	04c4                	c.addi4spn	x9,x2,580
    12a9:	0000                	c.unimp
    12ab:	0001                	c.addi	x0,0
    12ad:	0004d05b          	0x4d05b
    12b1:	f000                	c.fsw	f8,32(x8)
    12b3:	0004                	0x4
    12b5:	0100                	c.addi4spn	x8,x2,128
    12b7:	5a00                	c.lw	x8,48(x12)
    12b9:	04f0                	c.addi4spn	x12,x2,588
    12bb:	0000                	c.unimp
    12bd:	051c                	c.addi4spn	x15,x2,640
    12bf:	0000                	c.unimp
    12c1:	0001                	c.addi	x0,0
    12c3:	0005245b          	0x5245b
    12c7:	5800                	c.lw	x8,48(x8)
    12c9:	0005                	c.addi	x0,1
    12cb:	0100                	c.addi4spn	x8,x2,128
    12cd:	5b00                	c.lw	x8,48(x14)
    12cf:	0560                	c.addi4spn	x8,x2,652
    12d1:	0000                	c.unimp
    12d3:	0584                	c.addi4spn	x9,x2,704
    12d5:	0000                	c.unimp
    12d7:	0001                	c.addi	x0,0
    12d9:	0005945b          	0x5945b
    12dd:	9800                	0x9800
    12df:	0005                	c.addi	x0,1
    12e1:	0100                	c.addi4spn	x8,x2,128
    12e3:	5b00                	c.lw	x8,48(x14)
    12e5:	05a8                	c.addi4spn	x10,x2,712
    12e7:	0000                	c.unimp
    12e9:	05b8                	c.addi4spn	x14,x2,712
    12eb:	0000                	c.unimp
    12ed:	0001                	c.addi	x0,0
    12ef:	0005c05b          	0x5c05b
    12f3:	f800                	c.fsw	f8,48(x8)
    12f5:	0005                	c.addi	x0,1
    12f7:	0100                	c.addi4spn	x8,x2,128
    12f9:	5b00                	c.lw	x8,48(x14)
    12fb:	0668                	c.addi4spn	x10,x2,780
    12fd:	0000                	c.unimp
    12ff:	066c                	c.addi4spn	x11,x2,780
    1301:	0000                	c.unimp
    1303:	0001                	c.addi	x0,0
    1305:	0006e45b          	0x6e45b
    1309:	ec00                	c.fsw	f8,24(x8)
    130b:	0006                	c.slli	x0,0x1
    130d:	0100                	c.addi4spn	x8,x2,128
    130f:	5b00                	c.lw	x8,48(x14)
    1311:	06f4                	c.addi4spn	x13,x2,844
    1313:	0000                	c.unimp
    1315:	06fc                	c.addi4spn	x15,x2,844
    1317:	0000                	c.unimp
    1319:	0001                	c.addi	x0,0
    131b:	0007005b          	0x7005b
    131f:	0400                	c.addi4spn	x8,x2,512
    1321:	01000007          	0x1000007
    1325:	5b00                	c.lw	x8,48(x14)
    1327:	07a0                	c.addi4spn	x8,x2,968
    1329:	0000                	c.unimp
    132b:	07b0                	c.addi4spn	x12,x2,968
    132d:	0000                	c.unimp
    132f:	0001                	c.addi	x0,0
    1331:	0007b85b          	0x7b85b
    1335:	c000                	c.sw	x8,0(x8)
    1337:	01000007          	0x1000007
    133b:	5b00                	c.lw	x8,48(x14)
    133d:	07d0                	c.addi4spn	x12,x2,964
    133f:	0000                	c.unimp
    1341:	07d4                	c.addi4spn	x13,x2,964
    1343:	0000                	c.unimp
    1345:	0001                	c.addi	x0,0
    1347:	0000005b          	0x5b
    134b:	0000                	c.unimp
    134d:	0000                	c.unimp
	...

00001350 <.LLST6>:
    1350:	0010                	0x10
    1352:	0000                	c.unimp
    1354:	0024                	c.addi4spn	x9,x2,8
    1356:	0000                	c.unimp
    1358:	0001                	c.addi	x0,0
    135a:	245f 0000 3800      	0x38000000245f
    1360:	0000                	c.unimp
    1362:	0900                	c.addi4spn	x8,x2,144
    1364:	7b00                	c.flw	f8,48(x14)
    1366:	0c00                	c.addi4spn	x8,x2,528
    1368:	ffff                	0xffff
    136a:	9f1a000f          	0x9f1a000f
    136e:	0038                	c.addi4spn	x14,x2,8
    1370:	0000                	c.unimp
    1372:	00a0                	c.addi4spn	x8,x2,72
    1374:	0000                	c.unimp
    1376:	0001                	c.addi	x0,0
    1378:	b05f 0000 b800      	0xb8000000b05f
    137e:	0000                	c.unimp
    1380:	0100                	c.addi4spn	x8,x2,128
    1382:	5f00                	c.lw	x8,56(x14)
    1384:	00c0                	c.addi4spn	x8,x2,68
    1386:	0000                	c.unimp
    1388:	0118                	c.addi4spn	x14,x2,128
    138a:	0000                	c.unimp
    138c:	0001                	c.addi	x0,0
    138e:	5c5f 0001 c000      	0xc00000015c5f
    1394:	0001                	c.addi	x0,0
    1396:	0100                	c.addi4spn	x8,x2,128
    1398:	5f00                	c.lw	x8,56(x14)
    139a:	01cc                	c.addi4spn	x11,x2,196
    139c:	0000                	c.unimp
    139e:	01d8                	c.addi4spn	x14,x2,196
    13a0:	0000                	c.unimp
    13a2:	0001                	c.addi	x0,0
    13a4:	e05f 0001 3000      	0x30000001e05f
    13aa:	0002                	c.slli64	x0
    13ac:	0100                	c.addi4spn	x8,x2,128
    13ae:	5f00                	c.lw	x8,56(x14)
    13b0:	0240                	c.addi4spn	x8,x2,260
    13b2:	0000                	c.unimp
    13b4:	026c                	c.addi4spn	x11,x2,268
    13b6:	0000                	c.unimp
    13b8:	0001                	c.addi	x0,0
    13ba:	745f 0002 a800      	0xa8000002745f
    13c0:	0002                	c.slli64	x0
    13c2:	0100                	c.addi4spn	x8,x2,128
    13c4:	5f00                	c.lw	x8,56(x14)
    13c6:	02f8                	c.addi4spn	x14,x2,332
    13c8:	0000                	c.unimp
    13ca:	030c                	c.addi4spn	x11,x2,384
    13cc:	0000                	c.unimp
    13ce:	0001                	c.addi	x0,0
    13d0:	185f 0003 2c00      	0x2c000003185f
    13d6:	01000003          	lb	x0,16(x0) # 10 <.LASF10+0x2>
    13da:	5f00                	c.lw	x8,56(x14)
    13dc:	0348                	c.addi4spn	x10,x2,388
    13de:	0000                	c.unimp
    13e0:	036c                	c.addi4spn	x11,x2,396
    13e2:	0000                	c.unimp
    13e4:	0001                	c.addi	x0,0
    13e6:	7c5f 0003 c800      	0xc80000037c5f
    13ec:	01000003          	lb	x0,16(x0) # 10 <.LASF10+0x2>
    13f0:	5f00                	c.lw	x8,56(x14)
    13f2:	03e8                	c.addi4spn	x10,x2,460
    13f4:	0000                	c.unimp
    13f6:	0464                	c.addi4spn	x9,x2,524
    13f8:	0000                	c.unimp
    13fa:	0001                	c.addi	x0,0
    13fc:	745f 0004 8000      	0x80000004745f
    1402:	0004                	0x4
    1404:	0100                	c.addi4spn	x8,x2,128
    1406:	5f00                	c.lw	x8,56(x14)
    1408:	048c                	c.addi4spn	x11,x2,576
    140a:	0000                	c.unimp
    140c:	04dc                	c.addi4spn	x15,x2,580
    140e:	0000                	c.unimp
    1410:	0001                	c.addi	x0,0
    1412:	f05f 0004 1c00      	0x1c000004f05f
    1418:	0005                	c.addi	x0,1
    141a:	0100                	c.addi4spn	x8,x2,128
    141c:	5f00                	c.lw	x8,56(x14)
    141e:	0524                	c.addi4spn	x9,x2,648
    1420:	0000                	c.unimp
    1422:	0554                	c.addi4spn	x13,x2,644
    1424:	0000                	c.unimp
    1426:	0001                	c.addi	x0,0
    1428:	605f 0005 8800      	0x88000005605f
    142e:	0005                	c.addi	x0,1
    1430:	0100                	c.addi4spn	x8,x2,128
    1432:	5f00                	c.lw	x8,56(x14)
    1434:	0594                	c.addi4spn	x13,x2,704
    1436:	0000                	c.unimp
    1438:	05a0                	c.addi4spn	x8,x2,712
    143a:	0000                	c.unimp
    143c:	0001                	c.addi	x0,0
    143e:	a85f 0005 b400      	0xb4000005a85f
    1444:	0005                	c.addi	x0,1
    1446:	0100                	c.addi4spn	x8,x2,128
    1448:	5f00                	c.lw	x8,56(x14)
    144a:	05c0                	c.addi4spn	x8,x2,708
    144c:	0000                	c.unimp
    144e:	05ec                	c.addi4spn	x11,x2,716
    1450:	0000                	c.unimp
    1452:	0001                	c.addi	x0,0
    1454:	685f 0006 7400      	0x74000006685f
    145a:	0006                	c.slli	x0,0x1
    145c:	0100                	c.addi4spn	x8,x2,128
    145e:	5f00                	c.lw	x8,56(x14)
    1460:	06e4                	c.addi4spn	x9,x2,844
    1462:	0000                	c.unimp
    1464:	06e8                	c.addi4spn	x10,x2,844
    1466:	0000                	c.unimp
    1468:	0001                	c.addi	x0,0
    146a:	f45f 0006 f800      	0xf8000006f45f
    1470:	0006                	c.slli	x0,0x1
    1472:	0100                	c.addi4spn	x8,x2,128
    1474:	5f00                	c.lw	x8,56(x14)
    1476:	0700                	c.addi4spn	x8,x2,896
    1478:	0000                	c.unimp
    147a:	0704                	c.addi4spn	x9,x2,896
    147c:	0000                	c.unimp
    147e:	0001                	c.addi	x0,0
    1480:	a05f 0007 ac00      	0xac000007a05f
    1486:	01000007          	0x1000007
    148a:	5f00                	c.lw	x8,56(x14)
    148c:	07b8                	c.addi4spn	x14,x2,968
    148e:	0000                	c.unimp
    1490:	07bc                	c.addi4spn	x15,x2,968
    1492:	0000                	c.unimp
    1494:	0001                	c.addi	x0,0
    1496:	c85f 0007 cc00      	0xcc000007c85f
    149c:	01000007          	0x1000007
    14a0:	5f00                	c.lw	x8,56(x14)
    14a2:	07d0                	c.addi4spn	x12,x2,964
    14a4:	0000                	c.unimp
    14a6:	07dc                	c.addi4spn	x15,x2,964
    14a8:	0000                	c.unimp
    14aa:	0001                	c.addi	x0,0
    14ac:	005f 0000 0000      	0x5f
    14b2:	0000                	c.unimp
	...

000014b5 <.LLST7>:
    14b5:	005c                	c.addi4spn	x15,x2,4
    14b7:	0000                	c.unimp
    14b9:	0074                	c.addi4spn	x13,x2,12
    14bb:	0000                	c.unimp
    14bd:	0006                	c.slli	x0,0x1
    14bf:	007d                	c.addi	x0,31
    14c1:	ff08                	c.fsw	f10,56(x14)
    14c3:	9f1a                	c.add	x30,x6
    14c5:	0074                	c.addi4spn	x13,x2,12
    14c7:	0000                	c.unimp
    14c9:	0088                	c.addi4spn	x10,x2,64
    14cb:	0000                	c.unimp
    14cd:	0001                	c.addi	x0,0
    14cf:	c05d                	c.beqz	x8,1575 <.LVL128+0x5>
    14d1:	0000                	c.unimp
    14d3:	c400                	c.sw	x8,8(x8)
    14d5:	0000                	c.unimp
    14d7:	0100                	c.addi4spn	x8,x2,128
    14d9:	5d00                	c.lw	x8,56(x10)
    14db:	019c                	c.addi4spn	x15,x2,192
    14dd:	0000                	c.unimp
    14df:	01ac                	c.addi4spn	x11,x2,200
    14e1:	0000                	c.unimp
    14e3:	0001                	c.addi	x0,0
    14e5:	e05d                	c.bnez	x8,158b <.LVL130+0x3>
    14e7:	0001                	c.addi	x0,0
    14e9:	e400                	c.fsw	f8,8(x8)
    14eb:	0001                	c.addi	x0,0
    14ed:	0100                	c.addi4spn	x8,x2,128
    14ef:	5d00                	c.lw	x8,56(x10)
    14f1:	0280                	c.addi4spn	x8,x2,320
    14f3:	0000                	c.unimp
    14f5:	0284                	c.addi4spn	x9,x2,320
    14f7:	0000                	c.unimp
    14f9:	0001                	c.addi	x0,0
    14fb:	485d                	c.li	x16,23
    14fd:	54000003          	lb	x0,1344(x0) # 540 <.L49+0xc>
    1501:	01000003          	lb	x0,16(x0) # 10 <.LASF10+0x2>
    1505:	5d00                	c.lw	x8,56(x10)
    1507:	03e8                	c.addi4spn	x10,x2,460
    1509:	0000                	c.unimp
    150b:	03ec                	c.addi4spn	x11,x2,460
    150d:	0000                	c.unimp
    150f:	0001                	c.addi	x0,0
    1511:	405d                	c.li	x0,23
    1513:	0004                	0x4
    1515:	f800                	c.fsw	f8,48(x8)
    1517:	0005                	c.addi	x0,1
    1519:	0100                	c.addi4spn	x8,x2,128
    151b:	5d00                	c.lw	x8,56(x10)
    151d:	0668                	c.addi4spn	x10,x2,780
    151f:	0000                	c.unimp
    1521:	067c                	c.addi4spn	x15,x2,780
    1523:	0000                	c.unimp
    1525:	0001                	c.addi	x0,0
    1527:	a85d                	c.j	15dd <.L37+0x15>
    1529:	e0000007          	0xe0000007
    152d:	01000007          	0x1000007
    1531:	5d00                	c.lw	x8,56(x10)
	...

0000153b <.LLST8>:
    153b:	0054                	c.addi4spn	x13,x2,4
    153d:	0000                	c.unimp
    153f:	02d0                	c.addi4spn	x12,x2,324
    1541:	0000                	c.unimp
    1543:	0001                	c.addi	x0,0
    1545:	f856                	c.fswsp	f21,48(x2)
    1547:	0002                	c.slli64	x0
    1549:	0300                	c.addi4spn	x8,x2,384
    154b:	0006                	c.slli	x0,0x1
    154d:	0100                	c.addi4spn	x8,x2,128
    154f:	5600                	c.lw	x8,40(x12)
    1551:	0668                	c.addi4spn	x10,x2,780
    1553:	0000                	c.unimp
    1555:	00000683          	lb	x13,0(x0) # 0 <.LLST0>
    1559:	0001                	c.addi	x0,0
    155b:	e456                	c.fswsp	f21,8(x2)
    155d:	0006                	c.slli	x0,0x1
    155f:	0c00                	c.addi4spn	x8,x2,528
    1561:	01000007          	0x1000007
    1565:	5600                	c.lw	x8,40(x12)
    1567:	07a0                	c.addi4spn	x8,x2,968
    1569:	0000                	c.unimp
    156b:	07e0                	c.addi4spn	x8,x2,972
    156d:	0000                	c.unimp
    156f:	0001                	c.addi	x0,0
    1571:	0056                	c.slli	x0,0x15
    1573:	0000                	c.unimp
    1575:	0000                	c.unimp
    1577:	0000                	c.unimp
	...

0000157a <.LLST9>:
    157a:	0040                	c.addi4spn	x8,x2,4
    157c:	0000                	c.unimp
    157e:	0098                	c.addi4spn	x14,x2,64
    1580:	0000                	c.unimp
    1582:	0001                	c.addi	x0,0
    1584:	b05c                	c.fsd	f15,160(x8)
    1586:	0000                	c.unimp
    1588:	b800                	c.fsd	f8,48(x8)
    158a:	0000                	c.unimp
    158c:	0100                	c.addi4spn	x8,x2,128
    158e:	5c00                	c.lw	x8,56(x8)
    1590:	00c0                	c.addi4spn	x8,x2,68
    1592:	0000                	c.unimp
    1594:	00f8                	c.addi4spn	x14,x2,76
    1596:	0000                	c.unimp
    1598:	0001                	c.addi	x0,0
    159a:	045c                	c.addi4spn	x15,x2,516
    159c:	0001                	c.addi	x0,0
    159e:	0c00                	c.addi4spn	x8,x2,528
    15a0:	0001                	c.addi	x0,0
    15a2:	0100                	c.addi4spn	x8,x2,128
    15a4:	5c00                	c.lw	x8,56(x8)
    15a6:	015c                	c.addi4spn	x15,x2,132
    15a8:	0000                	c.unimp
    15aa:	0180                	c.addi4spn	x8,x2,192
    15ac:	0000                	c.unimp
    15ae:	0001                	c.addi	x0,0
    15b0:	905c                	0x905c
    15b2:	0001                	c.addi	x0,0
    15b4:	9400                	0x9400
    15b6:	0001                	c.addi	x0,0
    15b8:	0100                	c.addi4spn	x8,x2,128
    15ba:	5c00                	c.lw	x8,56(x8)
    15bc:	019c                	c.addi4spn	x15,x2,192
    15be:	0000                	c.unimp
    15c0:	01c4                	c.addi4spn	x9,x2,196
    15c2:	0000                	c.unimp
    15c4:	0001                	c.addi	x0,0
    15c6:	cc5c                	c.sw	x15,28(x8)
    15c8:	0001                	c.addi	x0,0
    15ca:	3400                	c.fld	f8,40(x8)
    15cc:	0002                	c.slli64	x0
    15ce:	0100                	c.addi4spn	x8,x2,128
    15d0:	5c00                	c.lw	x8,56(x8)
    15d2:	0240                	c.addi4spn	x8,x2,260
    15d4:	0000                	c.unimp
    15d6:	02a4                	c.addi4spn	x9,x2,328
    15d8:	0000                	c.unimp
    15da:	0001                	c.addi	x0,0
    15dc:	f85c                	c.fsw	f15,52(x8)
    15de:	0002                	c.slli64	x0
    15e0:	0000                	c.unimp
    15e2:	01000003          	lb	x0,16(x0) # 10 <.LASF10+0x2>
    15e6:	5c00                	c.lw	x8,56(x8)
    15e8:	0318                	c.addi4spn	x14,x2,384
    15ea:	0000                	c.unimp
    15ec:	0324                	c.addi4spn	x9,x2,392
    15ee:	0000                	c.unimp
    15f0:	0001                	c.addi	x0,0
    15f2:	485c                	c.lw	x15,20(x8)
    15f4:	64000003          	lb	x0,1600(x0) # 640 <.LASF28+0x4>
    15f8:	01000003          	lb	x0,16(x0) # 10 <.LASF10+0x2>
    15fc:	5c00                	c.lw	x8,56(x8)
    15fe:	037c                	c.addi4spn	x15,x2,396
    1600:	0000                	c.unimp
    1602:	03a8                	c.addi4spn	x10,x2,456
    1604:	0000                	c.unimp
    1606:	0001                	c.addi	x0,0
    1608:	b45c                	c.fsd	f15,168(x8)
    160a:	bc000003          	lb	x0,-1088(x0) # fffffbc0 <.LC1+0xffffba28>
    160e:	01000003          	lb	x0,16(x0) # 10 <.LASF10+0x2>
    1612:	5c00                	c.lw	x8,56(x8)
    1614:	03e8                	c.addi4spn	x10,x2,460
    1616:	0000                	c.unimp
    1618:	0424                	c.addi4spn	x9,x2,520
    161a:	0000                	c.unimp
    161c:	0001                	c.addi	x0,0
    161e:	345c                	c.fld	f15,168(x8)
    1620:	0004                	0x4
    1622:	3800                	c.fld	f8,48(x8)
    1624:	0004                	0x4
    1626:	0100                	c.addi4spn	x8,x2,128
    1628:	5c00                	c.lw	x8,56(x8)
    162a:	0440                	c.addi4spn	x8,x2,516
    162c:	0000                	c.unimp
    162e:	0468                	c.addi4spn	x10,x2,524
    1630:	0000                	c.unimp
    1632:	0001                	c.addi	x0,0
    1634:	745c                	c.flw	f15,44(x8)
    1636:	0004                	0x4
    1638:	e000                	c.fsw	f8,0(x8)
    163a:	0004                	0x4
    163c:	0100                	c.addi4spn	x8,x2,128
    163e:	5c00                	c.lw	x8,56(x8)
    1640:	04f0                	c.addi4spn	x12,x2,588
    1642:	0000                	c.unimp
    1644:	0558                	c.addi4spn	x14,x2,644
    1646:	0000                	c.unimp
    1648:	0001                	c.addi	x0,0
    164a:	605c                	c.flw	f15,4(x8)
    164c:	0005                	c.addi	x0,1
    164e:	8c00                	0x8c00
    1650:	0005                	c.addi	x0,1
    1652:	0100                	c.addi4spn	x8,x2,128
    1654:	5c00                	c.lw	x8,56(x8)
    1656:	0594                	c.addi4spn	x13,x2,704
    1658:	0000                	c.unimp
    165a:	05f0                	c.addi4spn	x12,x2,716
    165c:	0000                	c.unimp
    165e:	0001                	c.addi	x0,0
    1660:	685c                	c.flw	f15,20(x8)
    1662:	0006                	c.slli	x0,0x1
    1664:	7c00                	c.flw	f8,56(x8)
    1666:	0006                	c.slli	x0,0x1
    1668:	0100                	c.addi4spn	x8,x2,128
    166a:	5c00                	c.lw	x8,56(x8)
    166c:	06e4                	c.addi4spn	x9,x2,844
    166e:	0000                	c.unimp
    1670:	0704                	c.addi4spn	x9,x2,896
    1672:	0000                	c.unimp
    1674:	0001                	c.addi	x0,0
    1676:	a05c                	c.fsd	f15,128(x8)
    1678:	e0000007          	0xe0000007
    167c:	01000007          	0x1000007
    1680:	5c00                	c.lw	x8,56(x8)
	...

0000168a <.LLST10>:
    168a:	0040                	c.addi4spn	x8,x2,4
    168c:	0000                	c.unimp
    168e:	0044                	c.addi4spn	x9,x2,4
    1690:	0000                	c.unimp
    1692:	0001                	c.addi	x0,0
    1694:	4460                	c.lw	x8,76(x8)
    1696:	0000                	c.unimp
    1698:	5c00                	c.lw	x8,56(x8)
    169a:	0000                	c.unimp
    169c:	0900                	c.addi4spn	x8,x2,144
    169e:	7d00                	c.flw	f8,56(x10)
    16a0:	0c00                	c.addi4spn	x8,x2,528
    16a2:	ffff                	0xffff
    16a4:	9f1a000f          	0x9f1a000f
    16a8:	0060                	c.addi4spn	x8,x2,12
    16aa:	0000                	c.unimp
    16ac:	0114                	c.addi4spn	x13,x2,128
    16ae:	0000                	c.unimp
    16b0:	0001                	c.addi	x0,0
    16b2:	5c5e                	c.lwsp	x24,244(x2)
    16b4:	0001                	c.addi	x0,0
    16b6:	8800                	0x8800
    16b8:	0001                	c.addi	x0,0
    16ba:	0100                	c.addi4spn	x8,x2,128
    16bc:	5e00                	c.lw	x8,56(x12)
    16be:	0190                	c.addi4spn	x12,x2,192
    16c0:	0000                	c.unimp
    16c2:	02b4                	c.addi4spn	x13,x2,328
    16c4:	0000                	c.unimp
    16c6:	0001                	c.addi	x0,0
    16c8:	f85e                	c.fswsp	f23,48(x2)
    16ca:	0002                	c.slli64	x0
    16cc:	c400                	c.sw	x8,8(x8)
    16ce:	01000003          	lb	x0,16(x0) # 10 <.LASF10+0x2>
    16d2:	5e00                	c.lw	x8,56(x12)
    16d4:	03e8                	c.addi4spn	x10,x2,460
    16d6:	0000                	c.unimp
    16d8:	042c                	c.addi4spn	x11,x2,520
    16da:	0000                	c.unimp
    16dc:	0001                	c.addi	x0,0
    16de:	345e                	c.fldsp	f8,496(x2)
    16e0:	0004                	0x4
    16e2:	f800                	c.fsw	f8,48(x8)
    16e4:	0005                	c.addi	x0,1
    16e6:	0100                	c.addi4spn	x8,x2,128
    16e8:	5e00                	c.lw	x8,56(x12)
    16ea:	0668                	c.addi4spn	x10,x2,780
    16ec:	0000                	c.unimp
    16ee:	067c                	c.addi4spn	x15,x2,780
    16f0:	0000                	c.unimp
    16f2:	0001                	c.addi	x0,0
    16f4:	e45e                	c.fswsp	f23,8(x2)
    16f6:	0006                	c.slli	x0,0x1
    16f8:	0400                	c.addi4spn	x8,x2,512
    16fa:	01000007          	0x1000007
    16fe:	5e00                	c.lw	x8,56(x12)
    1700:	07a0                	c.addi4spn	x8,x2,968
    1702:	0000                	c.unimp
    1704:	07e0                	c.addi4spn	x8,x2,972
    1706:	0000                	c.unimp
    1708:	0001                	c.addi	x0,0
    170a:	005e                	c.slli	x0,0x17
    170c:	0000                	c.unimp
    170e:	0000                	c.unimp
    1710:	0000                	c.unimp
	...

00001713 <.LLST11>:
    1713:	007c                	c.addi4spn	x15,x2,12
    1715:	0000                	c.unimp
    1717:	00b8                	c.addi4spn	x14,x2,72
    1719:	0000                	c.unimp
    171b:	0001                	c.addi	x0,0
    171d:	c059                	c.beqz	x8,17a3 <.LVL198+0x3>
    171f:	0000                	c.unimp
    1721:	0400                	c.addi4spn	x8,x2,512
    1723:	01000003          	lb	x0,16(x0) # 10 <.LASF10+0x2>
    1727:	5900                	c.lw	x8,48(x10)
    1729:	0318                	c.addi4spn	x14,x2,384
    172b:	0000                	c.unimp
    172d:	0348                	c.addi4spn	x10,x2,388
    172f:	0000                	c.unimp
    1731:	0001                	c.addi	x0,0
    1733:	4c59                	c.li	x24,22
    1735:	40000003          	lb	x0,1024(x0) # 400 <.LASF17+0x3>
    1739:	0004                	0x4
    173b:	0100                	c.addi4spn	x8,x2,128
    173d:	5900                	c.lw	x8,48(x10)
    173f:	0448                	c.addi4spn	x10,x2,516
    1741:	0000                	c.unimp
    1743:	0530                	c.addi4spn	x12,x2,648
    1745:	0000                	c.unimp
    1747:	0001                	c.addi	x0,0
    1749:	745d                	c.lui	x8,0xffff7
    174b:	0005                	c.addi	x0,1
    174d:	9000                	0x9000
    174f:	0005                	c.addi	x0,1
    1751:	0100                	c.addi4spn	x8,x2,128
    1753:	5900                	c.lw	x8,48(x10)
    1755:	0590                	c.addi4spn	x12,x2,704
    1757:	0000                	c.unimp
    1759:	0594                	c.addi4spn	x13,x2,704
    175b:	0000                	c.unimp
    175d:	0001                	c.addi	x0,0
    175f:	945d                	c.srai	x8,0x37
    1761:	0005                	c.addi	x0,1
    1763:	a800                	c.fsd	f8,16(x8)
    1765:	0005                	c.addi	x0,1
    1767:	0100                	c.addi4spn	x8,x2,128
    1769:	5900                	c.lw	x8,48(x10)
    176b:	05d8                	c.addi4spn	x14,x2,708
    176d:	0000                	c.unimp
    176f:	05f4                	c.addi4spn	x13,x2,716
    1771:	0000                	c.unimp
    1773:	0001                	c.addi	x0,0
    1775:	f459                	c.bnez	x8,1703 <.LBE61+0x3>
    1777:	0005                	c.addi	x0,1
    1779:	f800                	c.fsw	f8,48(x8)
    177b:	0005                	c.addi	x0,1
    177d:	0100                	c.addi4spn	x8,x2,128
    177f:	5d00                	c.lw	x8,56(x10)
    1781:	05f8                	c.addi4spn	x14,x2,716
    1783:	0000                	c.unimp
    1785:	070c                	c.addi4spn	x11,x2,896
    1787:	0000                	c.unimp
    1789:	0001                	c.addi	x0,0
    178b:	6059                	c.lui	x0,0x16
    178d:	80000007          	0x80000007
    1791:	01000007          	0x1000007
    1795:	5900                	c.lw	x8,48(x10)
    1797:	07a0                	c.addi4spn	x8,x2,968
    1799:	0000                	c.unimp
    179b:	07a8                	c.addi4spn	x10,x2,968
    179d:	0000                	c.unimp
    179f:	0001                	c.addi	x0,0
    17a1:	a859                	c.j	1837 <.L57+0x3>
    17a3:	b8000007          	0xb8000007
    17a7:	01000007          	0x1000007
    17ab:	5d00                	c.lw	x8,56(x10)
    17ad:	07c8                	c.addi4spn	x10,x2,964
    17af:	0000                	c.unimp
    17b1:	07d0                	c.addi4spn	x12,x2,964
    17b3:	0000                	c.unimp
    17b5:	0001                	c.addi	x0,0
    17b7:	0059                	c.addi	x0,22
    17b9:	0000                	c.unimp
    17bb:	0000                	c.unimp
    17bd:	0000                	c.unimp
	...

000017c0 <.LLST12>:
    17c0:	0080                	c.addi4spn	x8,x2,64
    17c2:	0000                	c.unimp
    17c4:	00a8                	c.addi4spn	x10,x2,72
    17c6:	0000                	c.unimp
    17c8:	0001                	c.addi	x0,0
    17ca:	b058                	c.fsd	f14,160(x8)
    17cc:	0000                	c.unimp
    17ce:	b800                	c.fsd	f8,48(x8)
    17d0:	0000                	c.unimp
    17d2:	0100                	c.addi4spn	x8,x2,128
    17d4:	5800                	c.lw	x8,48(x8)
    17d6:	00c0                	c.addi4spn	x8,x2,68
    17d8:	0000                	c.unimp
    17da:	019c                	c.addi4spn	x15,x2,192
    17dc:	0000                	c.unimp
    17de:	0001                	c.addi	x0,0
    17e0:	a458                	c.fsd	f14,136(x8)
    17e2:	0001                	c.addi	x0,0
    17e4:	d400                	c.sw	x8,40(x8)
    17e6:	0001                	c.addi	x0,0
    17e8:	0100                	c.addi4spn	x8,x2,128
    17ea:	5600                	c.lw	x8,40(x12)
    17ec:	01e0                	c.addi4spn	x8,x2,204
    17ee:	0000                	c.unimp
    17f0:	0280                	c.addi4spn	x8,x2,320
    17f2:	0000                	c.unimp
    17f4:	0001                	c.addi	x0,0
    17f6:	9456                	c.add	x8,x21
    17f8:	0002                	c.slli64	x0
    17fa:	cc00                	c.sw	x8,24(x8)
    17fc:	0002                	c.slli64	x0
    17fe:	0200                	c.addi4spn	x8,x2,256
    1800:	3000                	c.fld	f8,32(x8)
    1802:	cc9f 0002 d000      	0xd0000002cc9f
    1808:	0002                	c.slli64	x0
    180a:	0200                	c.addi4spn	x8,x2,256
    180c:	3100                	c.fld	f8,32(x10)
    180e:	d09f 0002 f800      	0xf8000002d09f
    1814:	0002                	c.slli64	x0
    1816:	0100                	c.addi4spn	x8,x2,128
    1818:	5800                	c.lw	x8,48(x8)
    181a:	02f8                	c.addi4spn	x14,x2,332
    181c:	0000                	c.unimp
    181e:	0318                	c.addi4spn	x14,x2,384
    1820:	0000                	c.unimp
    1822:	0004                	0x4
    1824:	ff0a                	c.fswsp	f2,188(x2)
    1826:	03189f07          	0x3189f07
    182a:	0000                	c.unimp
    182c:	0348                	c.addi4spn	x10,x2,388
    182e:	0000                	c.unimp
    1830:	0001                	c.addi	x0,0
    1832:	4c5d                	c.li	x24,23
    1834:	74000003          	lb	x0,1856(x0) # 740 <.L85+0xc>
    1838:	01000003          	lb	x0,16(x0) # 10 <.LASF10+0x2>
    183c:	5800                	c.lw	x8,48(x8)
    183e:	037c                	c.addi4spn	x15,x2,396
    1840:	0000                	c.unimp
    1842:	0440                	c.addi4spn	x8,x2,516
    1844:	0000                	c.unimp
    1846:	0001                	c.addi	x0,0
    1848:	4858                	c.lw	x14,20(x8)
    184a:	0004                	0x4
    184c:	3000                	c.fld	f8,32(x8)
    184e:	0005                	c.addi	x0,1
    1850:	0100                	c.addi4spn	x8,x2,128
    1852:	5600                	c.lw	x8,40(x12)
    1854:	0548                	c.addi4spn	x10,x2,644
    1856:	0000                	c.unimp
    1858:	0558                	c.addi4spn	x14,x2,644
    185a:	0000                	c.unimp
    185c:	0002                	c.slli64	x0
    185e:	9f30                	0x9f30
    1860:	0560                	c.addi4spn	x8,x2,652
    1862:	0000                	c.unimp
    1864:	05a8                	c.addi4spn	x10,x2,712
    1866:	0000                	c.unimp
    1868:	0002                	c.slli64	x0
    186a:	9f30                	0x9f30
    186c:	05a8                	c.addi4spn	x10,x2,712
    186e:	0000                	c.unimp
    1870:	05c8                	c.addi4spn	x10,x2,708
    1872:	0000                	c.unimp
    1874:	0004                	0x4
    1876:	ff0a                	c.fswsp	f2,188(x2)
    1878:	05c89f07          	0x5c89f07
    187c:	0000                	c.unimp
    187e:	0664                	c.addi4spn	x9,x2,780
    1880:	0000                	c.unimp
    1882:	0001                	c.addi	x0,0
    1884:	6858                	c.flw	f14,20(x8)
    1886:	0006                	c.slli	x0,0x1
    1888:	7800                	c.flw	f8,48(x8)
    188a:	0006                	c.slli	x0,0x1
    188c:	0100                	c.addi4spn	x8,x2,128
    188e:	5800                	c.lw	x8,48(x8)
    1890:	067c                	c.addi4spn	x15,x2,780
    1892:	0000                	c.unimp
    1894:	06e4                	c.addi4spn	x9,x2,844
    1896:	0000                	c.unimp
    1898:	0001                	c.addi	x0,0
    189a:	e458                	c.fsw	f14,12(x8)
    189c:	0006                	c.slli	x0,0x1
    189e:	f400                	c.fsw	f8,40(x8)
    18a0:	0006                	c.slli	x0,0x1
    18a2:	0100                	c.addi4spn	x8,x2,128
    18a4:	5600                	c.lw	x8,40(x12)
    18a6:	06f4                	c.addi4spn	x13,x2,844
    18a8:	0000                	c.unimp
    18aa:	0700                	c.addi4spn	x8,x2,896
    18ac:	0000                	c.unimp
    18ae:	0002                	c.slli64	x0
    18b0:	9f30                	0x9f30
    18b2:	0700                	c.addi4spn	x8,x2,896
    18b4:	0000                	c.unimp
    18b6:	0704                	c.addi4spn	x9,x2,896
    18b8:	0000                	c.unimp
    18ba:	0001                	c.addi	x0,0
    18bc:	1c5d                	c.addi	x24,-9
    18be:	48000007          	0x48000007
    18c2:	01000007          	0x1000007
    18c6:	5800                	c.lw	x8,48(x8)
    18c8:	0748                	c.addi4spn	x10,x2,900
    18ca:	0000                	c.unimp
    18cc:	0760                	c.addi4spn	x8,x2,908
    18ce:	0000                	c.unimp
    18d0:	0004                	0x4
    18d2:	ff0a                	c.fswsp	f2,188(x2)
    18d4:	07a09f07          	0x7a09f07
    18d8:	0000                	c.unimp
    18da:	07a4                	c.addi4spn	x9,x2,968
    18dc:	0000                	c.unimp
    18de:	0001                	c.addi	x0,0
    18e0:	a858                	c.fsd	f14,144(x8)
    18e2:	b8000007          	0xb8000007
    18e6:	01000007          	0x1000007
    18ea:	5600                	c.lw	x8,40(x12)
    18ec:	07b8                	c.addi4spn	x14,x2,968
    18ee:	0000                	c.unimp
    18f0:	07c0                	c.addi4spn	x8,x2,964
    18f2:	0000                	c.unimp
    18f4:	0002                	c.slli64	x0
    18f6:	9f30                	0x9f30
    18f8:	07c8                	c.addi4spn	x10,x2,964
    18fa:	0000                	c.unimp
    18fc:	07d0                	c.addi4spn	x12,x2,964
    18fe:	0000                	c.unimp
    1900:	0002                	c.slli64	x0
    1902:	9f30                	0x9f30
    1904:	07d0                	c.addi4spn	x12,x2,964
    1906:	0000                	c.unimp
    1908:	07e0                	c.addi4spn	x8,x2,972
    190a:	0000                	c.unimp
    190c:	0004                	0x4
    190e:	ff0a                	c.fswsp	f2,188(x2)
    1910:	07e09f07          	0x7e09f07
    1914:	0000                	c.unimp
    1916:	07ec                	c.addi4spn	x11,x2,972
    1918:	0000                	c.unimp
    191a:	0001                	c.addi	x0,0
    191c:	0058                	c.addi4spn	x14,x2,4
    191e:	0000                	c.unimp
    1920:	0000                	c.unimp
    1922:	0000                	c.unimp
	...

00001925 <.LLST13>:
    1925:	00a4                	c.addi4spn	x9,x2,72
    1927:	0000                	c.unimp
    1929:	00a8                	c.addi4spn	x10,x2,72
    192b:	0000                	c.unimp
    192d:	0001                	c.addi	x0,0
    192f:	a85c                	c.fsd	f15,144(x8)
    1931:	0000                	c.unimp
    1933:	b000                	c.fsd	f8,32(x8)
    1935:	0000                	c.unimp
    1937:	0100                	c.addi4spn	x8,x2,128
    1939:	5b00                	c.lw	x8,48(x14)
    193b:	0118                	c.addi4spn	x14,x2,128
    193d:	0000                	c.unimp
    193f:	011c                	c.addi4spn	x15,x2,128
    1941:	0000                	c.unimp
    1943:	0001                	c.addi	x0,0
    1945:	1c5c                	c.addi4spn	x15,x2,564
    1947:	0001                	c.addi	x0,0
    1949:	2c00                	c.fld	f8,24(x8)
    194b:	0001                	c.addi	x0,0
    194d:	0100                	c.addi4spn	x8,x2,128
    194f:	5b00                	c.lw	x8,48(x14)
    1951:	012c                	c.addi4spn	x11,x2,136
    1953:	0000                	c.unimp
    1955:	0140                	c.addi4spn	x8,x2,132
    1957:	0000                	c.unimp
    1959:	0015                	c.addi	x0,5
    195b:	1a31007b          	0x1a31007b
    195f:	2531007b          	0x2531007b
    1963:	7f21                	c.lui	x30,0xfffe8
    1965:	1100                	c.addi4spn	x8,x2,160
    1967:	ffff                	0xffff
    1969:	7bff                	0x7bff
    196b:	4f1a                	c.lwsp	x30,132(x2)
    196d:	2124                	c.fld	f9,64(x10)
    196f:	389f 0002 4000      	0x40000002389f
    1975:	0002                	c.slli64	x0
    1977:	0100                	c.addi4spn	x8,x2,128
    1979:	5b00                	c.lw	x8,48(x14)
    197b:	02b0                	c.addi4spn	x12,x2,328
    197d:	0000                	c.unimp
    197f:	02d0                	c.addi4spn	x12,x2,324
    1981:	0000                	c.unimp
    1983:	0001                	c.addi	x0,0
    1985:	d05c                	c.sw	x15,36(x8)
    1987:	0002                	c.slli64	x0
    1989:	f000                	c.fsw	f8,32(x8)
    198b:	0002                	c.slli64	x0
    198d:	0100                	c.addi4spn	x8,x2,128
    198f:	5b00                	c.lw	x8,48(x14)
    1991:	02f0                	c.addi4spn	x12,x2,332
    1993:	0000                	c.unimp
    1995:	02f8                	c.addi4spn	x14,x2,332
    1997:	0000                	c.unimp
    1999:	0001                	c.addi	x0,0
    199b:	185e                	c.slli	x16,0x37
    199d:	24000003          	lb	x0,576(x0) # 240 <.L23+0x14>
    19a1:	24000003          	lb	x0,576(x0) # 240 <.L23+0x14>
    19a5:	7b00                	c.flw	f8,48(x14)
    19a7:	4000                	c.lw	x8,0(x8)
    19a9:	7b22244b          	fnmsub.d	f8,f4,f18,f15,rdn
    19ad:	7c00                	c.flw	f8,56(x8)
    19af:	2200                	c.fld	f8,0(x12)
    19b1:	4b40                	c.lw	x8,20(x14)
    19b3:	2224                	c.fld	f9,64(x12)
    19b5:	1aff082b          	0x1aff082b
    19b9:	007e                	c.slli	x0,0x1f
    19bb:	7f22                	c.flwsp	f30,40(x2)
    19bd:	2200                	c.fld	f8,0(x12)
    19bf:	007b244f          	fnmadd.s	f8,f22,f7,f0,rdn
    19c3:	007c                	c.addi4spn	x15,x2,12
    19c5:	3122                	c.fldsp	f2,40(x2)
    19c7:	2125                	c.jal	1def <.L131+0x7>
    19c9:	249f 0003 2c00      	0x2c000003249f
    19cf:	1e000003          	lb	x0,480(x0) # 1e0 <.L32>
    19d3:	7b00                	c.flw	f8,48(x14)
    19d5:	4000                	c.lw	x8,0(x8)
    19d7:	7c22244b          	0x7c22244b
    19db:	4000                	c.lw	x8,0(x8)
    19dd:	2b22244b          	fnmsub.d	f8,f4,f18,f5,rdn
    19e1:	ff08                	c.fsw	f10,56(x14)
    19e3:	7e1a                	c.flwsp	f28,164(x2)
    19e5:	2200                	c.fld	f8,0(x12)
    19e7:	007f                	0x7f
    19e9:	4f22                	c.lwsp	x30,8(x2)
    19eb:	7c24                	c.flw	f9,120(x8)
    19ed:	3100                	c.fld	f8,32(x10)
    19ef:	2125                	c.jal	1e17 <.L136+0x3>
    19f1:	2c9f 0003 3000      	0x300000032c9f
    19f7:	1b000003          	lb	x0,432(x0) # 1b0 <.L31+0x8>
    19fb:	7b00                	c.flw	f8,48(x14)
    19fd:	4000                	c.lw	x8,0(x8)
    19ff:	7c22244b          	0x7c22244b
    1a03:	4000                	c.lw	x8,0(x8)
    1a05:	2b22244b          	fnmsub.d	f8,f4,f18,f5,rdn
    1a09:	ff08                	c.fsw	f10,56(x14)
    1a0b:	7f1a                	c.flwsp	f30,164(x2)
    1a0d:	2200                	c.fld	f8,0(x12)
    1a0f:	007c244f          	fnmadd.s	f8,f24,f7,f0,rdn
    1a13:	2531                	c.jal	201f <.LLST28+0x6>
    1a15:	9f21                	0x9f21
    1a17:	0370                	c.addi4spn	x12,x2,396
    1a19:	0000                	c.unimp
    1a1b:	0374                	c.addi4spn	x13,x2,396
    1a1d:	0000                	c.unimp
    1a1f:	0001                	c.addi	x0,0
    1a21:	745c                	c.flw	f15,44(x8)
    1a23:	7c000003          	lb	x0,1984(x0) # 7c0 <.LLST13+0x1>
    1a27:	01000003          	lb	x0,16(x0) # 10 <.LASF10+0x2>
    1a2b:	5b00                	c.lw	x8,48(x14)
    1a2d:	03c8                	c.addi4spn	x10,x2,452
    1a2f:	0000                	c.unimp
    1a31:	03cc                	c.addi4spn	x11,x2,452
    1a33:	0000                	c.unimp
    1a35:	0001                	c.addi	x0,0
    1a37:	cc5c                	c.sw	x15,28(x8)
    1a39:	e8000003          	lb	x0,-384(x0) # fffffe80 <.LC1+0xffffbce8>
    1a3d:	01000003          	lb	x0,16(x0) # 10 <.LASF10+0x2>
    1a41:	5b00                	c.lw	x8,48(x14)
    1a43:	046c                	c.addi4spn	x11,x2,524
    1a45:	0000                	c.unimp
    1a47:	0474                	c.addi4spn	x13,x2,524
    1a49:	0000                	c.unimp
    1a4b:	0001                	c.addi	x0,0
    1a4d:	0004e45b          	0x4e45b
    1a51:	f000                	c.fsw	f8,32(x8)
    1a53:	0004                	0x4
    1a55:	0100                	c.addi4spn	x8,x2,128
    1a57:	5b00                	c.lw	x8,48(x14)
    1a59:	054c                	c.addi4spn	x11,x2,644
    1a5b:	0000                	c.unimp
    1a5d:	0558                	c.addi4spn	x14,x2,644
    1a5f:	0000                	c.unimp
    1a61:	0001                	c.addi	x0,0
    1a63:	745c                	c.flw	f15,44(x8)
    1a65:	0005                	c.addi	x0,1
    1a67:	9000                	0x9000
    1a69:	0005                	c.addi	x0,1
    1a6b:	0100                	c.addi4spn	x8,x2,128
    1a6d:	6000                	c.flw	f8,0(x8)
    1a6f:	0590                	c.addi4spn	x12,x2,704
    1a71:	0000                	c.unimp
    1a73:	0594                	c.addi4spn	x13,x2,704
    1a75:	0000                	c.unimp
    1a77:	0001                	c.addi	x0,0
    1a79:	0005945b          	0x5945b
    1a7d:	a800                	c.fsd	f8,16(x8)
    1a7f:	0005                	c.addi	x0,1
    1a81:	0100                	c.addi4spn	x8,x2,128
    1a83:	6000                	c.flw	f8,0(x8)
    1a85:	05d8                	c.addi4spn	x14,x2,708
    1a87:	0000                	c.unimp
    1a89:	05e8                	c.addi4spn	x10,x2,716
    1a8b:	0000                	c.unimp
    1a8d:	0001                	c.addi	x0,0
    1a8f:	0005e863          	bltu	x11,x0,1a9f <.L3+0xb>
    1a93:	f000                	c.fsw	f8,32(x8)
    1a95:	0005                	c.addi	x0,1
    1a97:	0600                	c.addi4spn	x8,x2,768
    1a99:	7b00                	c.flw	f8,48(x14)
    1a9b:	7c00                	c.flw	f8,56(x8)
    1a9d:	1c00                	c.addi4spn	x8,x2,560
    1a9f:	f49f 0005 2800      	0x28000005f49f
    1aa5:	0006                	c.slli	x0,0x1
    1aa7:	0100                	c.addi4spn	x8,x2,128
    1aa9:	6300                	c.flw	f8,0(x14)
    1aab:	0628                	c.addi4spn	x10,x2,776
    1aad:	0000                	c.unimp
    1aaf:	0650                	c.addi4spn	x12,x2,772
    1ab1:	0000                	c.unimp
    1ab3:	0001                	c.addi	x0,0
    1ab5:	00065c5b          	0x65c5b
    1ab9:	6800                	c.flw	f8,16(x8)
    1abb:	0006                	c.slli	x0,0x1
    1abd:	0100                	c.addi4spn	x8,x2,128
    1abf:	5b00                	c.lw	x8,48(x14)
    1ac1:	0668                	c.addi4spn	x10,x2,780
    1ac3:	0000                	c.unimp
    1ac5:	0694                	c.addi4spn	x13,x2,832
    1ac7:	0000                	c.unimp
    1ac9:	0001                	c.addi	x0,0
    1acb:	00069463          	bne	x13,x0,1ad3 <.L11+0x3>
    1acf:	9c00                	0x9c00
    1ad1:	0006                	c.slli	x0,0x1
    1ad3:	0200                	c.addi4spn	x8,x2,256
    1ad5:	3000                	c.fld	f8,32(x8)
    1ad7:	9c9f 0006 e400      	0xe40000069c9f
    1add:	0006                	c.slli	x0,0x1
    1adf:	0100                	c.addi4spn	x8,x2,128
    1ae1:	5b00                	c.lw	x8,48(x14)
    1ae3:	0700                	c.addi4spn	x8,x2,896
    1ae5:	0000                	c.unimp
    1ae7:	0704                	c.addi4spn	x9,x2,896
    1ae9:	0000                	c.unimp
    1aeb:	0024                	c.addi4spn	x9,x2,8
    1aed:	4b40007b          	0x4b40007b
    1af1:	2224                	c.fld	f9,64(x12)
    1af3:	007c007b          	0x7c007b
    1af7:	4022                	0x4022
    1af9:	2b22244b          	fnmsub.d	f8,f4,f18,f5,rdn
    1afd:	ff08                	c.fsw	f10,56(x14)
    1aff:	7e1a                	c.flwsp	f28,164(x2)
    1b01:	2200                	c.fld	f8,0(x12)
    1b03:	007f                	0x7f
    1b05:	4f22                	c.lwsp	x30,8(x2)
    1b07:	7b24                	c.flw	f9,112(x14)
    1b09:	7c00                	c.flw	f8,56(x8)
    1b0b:	2200                	c.fld	f8,0(x12)
    1b0d:	2531                	c.jal	2119 <.LLST0+0xc>
    1b0f:	9f21                	0x9f21
    1b11:	070c                	c.addi4spn	x11,x2,896
    1b13:	0000                	c.unimp
    1b15:	073c                	c.addi4spn	x15,x2,904
    1b17:	0000                	c.unimp
    1b19:	0001                	c.addi	x0,0
    1b1b:	00073c5b          	0x73c5b
    1b1f:	4c00                	c.lw	x8,24(x8)
    1b21:	01000007          	0x1000007
    1b25:	5a00                	c.lw	x8,48(x12)
    1b27:	0760                	c.addi4spn	x8,x2,908
    1b29:	0000                	c.unimp
    1b2b:	07a0                	c.addi4spn	x8,x2,968
    1b2d:	0000                	c.unimp
    1b2f:	0001                	c.addi	x0,0
    1b31:	b85a                	c.fsdsp	f22,48(x2)
    1b33:	c0000007          	0xc0000007
    1b37:	01000007          	0x1000007
    1b3b:	5c00                	c.lw	x8,56(x8)
    1b3d:	07c8                	c.addi4spn	x10,x2,964
    1b3f:	0000                	c.unimp
    1b41:	07d0                	c.addi4spn	x12,x2,964
    1b43:	0000                	c.unimp
    1b45:	0001                	c.addi	x0,0
    1b47:	e060                	c.fsw	f8,68(x8)
    1b49:	e8000007          	0xe8000007
    1b4d:	01000007          	0x1000007
    1b51:	5b00                	c.lw	x8,48(x14)
	...

00001b5b <.LLST14>:
    1b5b:	00a4                	c.addi4spn	x9,x2,72
    1b5d:	0000                	c.unimp
    1b5f:	00b0                	c.addi4spn	x12,x2,72
    1b61:	0000                	c.unimp
    1b63:	0001                	c.addi	x0,0
    1b65:	185f 0001 2800      	0x28000001185f
    1b6b:	0001                	c.addi	x0,0
    1b6d:	0100                	c.addi4spn	x8,x2,128
    1b6f:	5f00                	c.lw	x8,56(x14)
    1b71:	0128                	c.addi4spn	x10,x2,136
    1b73:	0000                	c.unimp
    1b75:	012c                	c.addi4spn	x11,x2,136
    1b77:	0000                	c.unimp
    1b79:	0009                	c.addi	x0,2
    1b7b:	007f                	0x7f
    1b7d:	ff11                	c.bnez	x14,1a99 <.L3+0x5>
    1b7f:	ffff                	0xffff
    1b81:	2c9f1a7b          	0x2c9f1a7b
    1b85:	0001                	c.addi	x0,0
    1b87:	4000                	c.lw	x8,0(x8)
    1b89:	0001                	c.addi	x0,0
    1b8b:	0b00                	c.addi4spn	x8,x2,400
    1b8d:	7f00                	c.flw	f8,56(x14)
    1b8f:	1100                	c.addi4spn	x8,x2,160
    1b91:	ffff                	0xffff
    1b93:	7bff                	0x7bff
    1b95:	311a                	c.fldsp	f2,416(x2)
    1b97:	9f25                	0x9f25
    1b99:	0238                	c.addi4spn	x14,x2,264
    1b9b:	0000                	c.unimp
    1b9d:	0240                	c.addi4spn	x8,x2,260
    1b9f:	0000                	c.unimp
    1ba1:	0001                	c.addi	x0,0
    1ba3:	b05f 0002 f800      	0xf8000002b05f
    1ba9:	0002                	c.slli64	x0
    1bab:	0100                	c.addi4spn	x8,x2,128
    1bad:	5f00                	c.lw	x8,56(x14)
    1baf:	0318                	c.addi4spn	x14,x2,384
    1bb1:	0000                	c.unimp
    1bb3:	0324                	c.addi4spn	x9,x2,392
    1bb5:	0000                	c.unimp
    1bb7:	001c                	0x1c
    1bb9:	4b40007b          	0x4b40007b
    1bbd:	2224                	c.fld	f9,64(x12)
    1bbf:	007c007b          	0x7c007b
    1bc3:	4022                	0x4022
    1bc5:	2b22244b          	fnmsub.d	f8,f4,f18,f5,rdn
    1bc9:	ff08                	c.fsw	f10,56(x14)
    1bcb:	7e1a                	c.flwsp	f28,164(x2)
    1bcd:	2200                	c.fld	f8,0(x12)
    1bcf:	007f                	0x7f
    1bd1:	3122                	c.fldsp	f2,40(x2)
    1bd3:	9f25                	0x9f25
    1bd5:	0324                	c.addi4spn	x9,x2,392
    1bd7:	0000                	c.unimp
    1bd9:	032c                	c.addi4spn	x11,x2,392
    1bdb:	0000                	c.unimp
    1bdd:	0019                	c.addi	x0,6
    1bdf:	4b40007b          	0x4b40007b
    1be3:	2224                	c.fld	f9,64(x12)
    1be5:	007c                	c.addi4spn	x15,x2,12
    1be7:	4b40                	c.lw	x8,20(x14)
    1be9:	2224                	c.fld	f9,64(x12)
    1beb:	1aff082b          	0x1aff082b
    1bef:	007e                	c.slli	x0,0x1f
    1bf1:	7f22                	c.flwsp	f30,40(x2)
    1bf3:	2200                	c.fld	f8,0(x12)
    1bf5:	2531                	c.jal	2201 <.LLST4>
    1bf7:	2c9f 0003 3000      	0x300000032c9f
    1bfd:	16000003          	lb	x0,352(x0) # 160 <.LASF16+0x5>
    1c01:	7b00                	c.flw	f8,48(x14)
    1c03:	4000                	c.lw	x8,0(x8)
    1c05:	7c22244b          	0x7c22244b
    1c09:	4000                	c.lw	x8,0(x8)
    1c0b:	2b22244b          	fnmsub.d	f8,f4,f18,f5,rdn
    1c0f:	ff08                	c.fsw	f10,56(x14)
    1c11:	7f1a                	c.flwsp	f30,164(x2)
    1c13:	2200                	c.fld	f8,0(x12)
    1c15:	2531                	c.jal	2221 <.LLST4+0x20>
    1c17:	709f 0003 7c00      	0x7c000003709f
    1c1d:	01000003          	lb	x0,16(x0) # 10 <.LASF10+0x2>
    1c21:	5f00                	c.lw	x8,56(x14)
    1c23:	03c8                	c.addi4spn	x10,x2,452
    1c25:	0000                	c.unimp
    1c27:	03e0                	c.addi4spn	x8,x2,460
    1c29:	0000                	c.unimp
    1c2b:	0001                	c.addi	x0,0
    1c2d:	e05f 0003 e800      	0xe8000003e05f
    1c33:	01000003          	lb	x0,16(x0) # 10 <.LASF10+0x2>
    1c37:	6200                	c.flw	f8,0(x12)
    1c39:	046c                	c.addi4spn	x11,x2,524
    1c3b:	0000                	c.unimp
    1c3d:	0474                	c.addi4spn	x13,x2,524
    1c3f:	0000                	c.unimp
    1c41:	0001                	c.addi	x0,0
    1c43:	e45f 0004 f000      	0xf0000004e45f
    1c49:	0004                	0x4
    1c4b:	0100                	c.addi4spn	x8,x2,128
    1c4d:	5f00                	c.lw	x8,56(x14)
    1c4f:	054c                	c.addi4spn	x11,x2,644
    1c51:	0000                	c.unimp
    1c53:	0558                	c.addi4spn	x14,x2,644
    1c55:	0000                	c.unimp
    1c57:	0001                	c.addi	x0,0
    1c59:	745e                	c.flwsp	f8,244(x2)
    1c5b:	0005                	c.addi	x0,1
    1c5d:	9000                	0x9000
    1c5f:	0005                	c.addi	x0,1
    1c61:	0100                	c.addi4spn	x8,x2,128
    1c63:	5a00                	c.lw	x8,48(x12)
    1c65:	0590                	c.addi4spn	x12,x2,704
    1c67:	0000                	c.unimp
    1c69:	0594                	c.addi4spn	x13,x2,704
    1c6b:	0000                	c.unimp
    1c6d:	0001                	c.addi	x0,0
    1c6f:	945f 0005 a800      	0xa8000005945f
    1c75:	0005                	c.addi	x0,1
    1c77:	0100                	c.addi4spn	x8,x2,128
    1c79:	5a00                	c.lw	x8,48(x12)
    1c7b:	05d8                	c.addi4spn	x14,x2,708
    1c7d:	0000                	c.unimp
    1c7f:	061c                	c.addi4spn	x15,x2,768
    1c81:	0000                	c.unimp
    1c83:	0001                	c.addi	x0,0
    1c85:	2462                	c.fldsp	f8,24(x2)
    1c87:	0006                	c.slli	x0,0x1
    1c89:	6000                	c.flw	f8,0(x8)
    1c8b:	0006                	c.slli	x0,0x1
    1c8d:	0100                	c.addi4spn	x8,x2,128
    1c8f:	5f00                	c.lw	x8,56(x14)
    1c91:	0668                	c.addi4spn	x10,x2,780
    1c93:	0000                	c.unimp
    1c95:	0694                	c.addi4spn	x13,x2,832
    1c97:	0000                	c.unimp
    1c99:	0001                	c.addi	x0,0
    1c9b:	9462                	c.add	x8,x24
    1c9d:	0006                	c.slli	x0,0x1
    1c9f:	c800                	c.sw	x8,16(x8)
    1ca1:	0006                	c.slli	x0,0x1
    1ca3:	0100                	c.addi4spn	x8,x2,128
    1ca5:	5f00                	c.lw	x8,56(x14)
    1ca7:	06c8                	c.addi4spn	x10,x2,836
    1ca9:	0000                	c.unimp
    1cab:	06d0                	c.addi4spn	x12,x2,836
    1cad:	0000                	c.unimp
    1caf:	0002                	c.slli64	x0
    1cb1:	9f30                	0x9f30
    1cb3:	06d0                	c.addi4spn	x12,x2,836
    1cb5:	0000                	c.unimp
    1cb7:	06e4                	c.addi4spn	x9,x2,844
    1cb9:	0000                	c.unimp
    1cbb:	0001                	c.addi	x0,0
    1cbd:	005f 0007 0400      	0x4000007005f
    1cc3:	1c000007          	0x1c000007
    1cc7:	7b00                	c.flw	f8,48(x14)
    1cc9:	4000                	c.lw	x8,0(x8)
    1ccb:	7b22244b          	fnmsub.d	f8,f4,f18,f15,rdn
    1ccf:	7c00                	c.flw	f8,56(x8)
    1cd1:	2200                	c.fld	f8,0(x12)
    1cd3:	4b40                	c.lw	x8,20(x14)
    1cd5:	2224                	c.fld	f9,64(x12)
    1cd7:	1aff082b          	0x1aff082b
    1cdb:	007e                	c.slli	x0,0x1f
    1cdd:	7f22                	c.flwsp	f30,40(x2)
    1cdf:	2200                	c.fld	f8,0(x12)
    1ce1:	2531                	c.jal	22ed <.LLST2+0xa>
    1ce3:	0c9f 0007 1800      	0x180000070c9f
    1ce9:	01000007          	0x1000007
    1ced:	5f00                	c.lw	x8,56(x14)
    1cef:	0718                	c.addi4spn	x14,x2,896
    1cf1:	0000                	c.unimp
    1cf3:	0730                	c.addi4spn	x12,x2,904
    1cf5:	0000                	c.unimp
    1cf7:	0009                	c.addi	x0,2
    1cf9:	007f                	0x7f
    1cfb:	ff11                	c.bnez	x14,1c17 <.L113+0xb>
    1cfd:	ffff                	0xffff
    1cff:	309f1a7b          	0x309f1a7b
    1d03:	50000007          	0x50000007
    1d07:	01000007          	0x1000007
    1d0b:	5f00                	c.lw	x8,56(x14)
    1d0d:	0760                	c.addi4spn	x8,x2,908
    1d0f:	0000                	c.unimp
    1d11:	076c                	c.addi4spn	x11,x2,908
    1d13:	0000                	c.unimp
    1d15:	0001                	c.addi	x0,0
    1d17:	b85f 0007 c000      	0xc0000007b85f
    1d1d:	01000007          	0x1000007
    1d21:	5e00                	c.lw	x8,56(x12)
    1d23:	07c8                	c.addi4spn	x10,x2,964
    1d25:	0000                	c.unimp
    1d27:	07d0                	c.addi4spn	x12,x2,964
    1d29:	0000                	c.unimp
    1d2b:	0001                	c.addi	x0,0
    1d2d:	e05a                	c.fswsp	f22,0(x2)
    1d2f:	e4000007          	0xe4000007
    1d33:	09000007          	0x9000007
    1d37:	7f00                	c.flw	f8,56(x14)
    1d39:	1100                	c.addi4spn	x8,x2,160
    1d3b:	ffff                	0xffff
    1d3d:	7bff                	0x7bff
    1d3f:	9f1a                	c.add	x30,x6
	...

00001d49 <.LLST15>:
    1d49:	007c                	c.addi4spn	x15,x2,12
    1d4b:	0000                	c.unimp
    1d4d:	0090                	c.addi4spn	x12,x2,64
    1d4f:	0000                	c.unimp
    1d51:	0001                	c.addi	x0,0
    1d53:	9060                	0x9060
    1d55:	0000                	c.unimp
    1d57:	9c00                	0x9c00
    1d59:	0000                	c.unimp
    1d5b:	0100                	c.addi4spn	x8,x2,128
    1d5d:	5a00                	c.lw	x8,48(x12)
    1d5f:	009c                	c.addi4spn	x15,x2,64
    1d61:	0000                	c.unimp
    1d63:	00a8                	c.addi4spn	x10,x2,72
    1d65:	0000                	c.unimp
    1d67:	7f800003          	lb	x0,2040(x0) # 7f8 <.LLST14+0xe>
    1d6b:	b09f 0000 b800      	0xb8000000b09f
    1d71:	0000                	c.unimp
    1d73:	0100                	c.addi4spn	x8,x2,128
    1d75:	5a00                	c.lw	x8,48(x12)
    1d77:	00c0                	c.addi4spn	x8,x2,68
    1d79:	0000                	c.unimp
    1d7b:	00d4                	c.addi4spn	x13,x2,68
    1d7d:	0000                	c.unimp
    1d7f:	0001                	c.addi	x0,0
    1d81:	d460                	c.sw	x8,108(x8)
    1d83:	0000                	c.unimp
    1d85:	0800                	c.addi4spn	x8,x2,16
    1d87:	0001                	c.addi	x0,0
    1d89:	0100                	c.addi4spn	x8,x2,128
    1d8b:	5a00                	c.lw	x8,48(x12)
    1d8d:	015c                	c.addi4spn	x15,x2,132
    1d8f:	0000                	c.unimp
    1d91:	0178                	c.addi4spn	x14,x2,140
    1d93:	0000                	c.unimp
    1d95:	0001                	c.addi	x0,0
    1d97:	905a                	c.add	x0,x22
    1d99:	0001                	c.addi	x0,0
    1d9b:	9c00                	0x9c00
    1d9d:	0001                	c.addi	x0,0
    1d9f:	0100                	c.addi4spn	x8,x2,128
    1da1:	5a00                	c.lw	x8,48(x12)
    1da3:	019c                	c.addi4spn	x15,x2,192
    1da5:	0000                	c.unimp
    1da7:	01a4                	c.addi4spn	x9,x2,200
    1da9:	0000                	c.unimp
    1dab:	0006                	c.slli	x0,0x1
    1dad:	0078                	c.addi4spn	x14,x2,12
    1daf:	0076                	c.slli	x0,0x1d
    1db1:	9f1c                	0x9f1c
    1db3:	01a4                	c.addi4spn	x9,x2,200
    1db5:	0000                	c.unimp
    1db7:	01b4                	c.addi4spn	x13,x2,200
    1db9:	0000                	c.unimp
    1dbb:	0001                	c.addi	x0,0
    1dbd:	b45a                	c.fsdsp	f22,40(x2)
    1dbf:	0001                	c.addi	x0,0
    1dc1:	d400                	c.sw	x8,40(x8)
    1dc3:	0001                	c.addi	x0,0
    1dc5:	0100                	c.addi4spn	x8,x2,128
    1dc7:	5d00                	c.lw	x8,56(x10)
    1dc9:	01e0                	c.addi4spn	x8,x2,204
    1dcb:	0000                	c.unimp
    1dcd:	01f4                	c.addi4spn	x13,x2,204
    1dcf:	0000                	c.unimp
    1dd1:	0001                	c.addi	x0,0
    1dd3:	f45a                	c.fswsp	f22,40(x2)
    1dd5:	0001                	c.addi	x0,0
    1dd7:	8000                	0x8000
    1dd9:	0002                	c.slli64	x0
    1ddb:	0100                	c.addi4spn	x8,x2,128
    1ddd:	5d00                	c.lw	x8,56(x10)
    1ddf:	0280                	c.addi4spn	x8,x2,320
    1de1:	0000                	c.unimp
    1de3:	02d0                	c.addi4spn	x12,x2,324
    1de5:	0000                	c.unimp
    1de7:	0006                	c.slli	x0,0x1
    1de9:	0078                	c.addi4spn	x14,x2,12
    1deb:	0076                	c.slli	x0,0x1d
    1ded:	9f1c                	0x9f1c
    1def:	02f8                	c.addi4spn	x14,x2,332
    1df1:	0000                	c.unimp
    1df3:	0304                	c.addi4spn	x9,x2,384
    1df5:	0000                	c.unimp
    1df7:	0006                	c.slli	x0,0x1
    1df9:	0078                	c.addi4spn	x14,x2,12
    1dfb:	0076                	c.slli	x0,0x1d
    1dfd:	9f1c                	0x9f1c
    1dff:	0318                	c.addi4spn	x14,x2,384
    1e01:	0000                	c.unimp
    1e03:	0344                	c.addi4spn	x9,x2,388
    1e05:	0000                	c.unimp
    1e07:	0006                	c.slli	x0,0x1
    1e09:	0078                	c.addi4spn	x14,x2,12
    1e0b:	0076                	c.slli	x0,0x1d
    1e0d:	9f1c                	0x9f1c
    1e0f:	0344                	c.addi4spn	x9,x2,388
    1e11:	0000                	c.unimp
    1e13:	0348                	c.addi4spn	x10,x2,388
    1e15:	0000                	c.unimp
    1e17:	00760007          	0x760007
    1e1b:	7d20                	c.flw	f8,120(x10)
    1e1d:	2200                	c.fld	f8,0(x12)
    1e1f:	e49f 0006 f400      	0xf4000006e49f
    1e25:	0006                	c.slli	x0,0x1
    1e27:	0100                	c.addi4spn	x8,x2,128
    1e29:	5a00                	c.lw	x8,48(x12)
    1e2b:	06f4                	c.addi4spn	x13,x2,844
    1e2d:	0000                	c.unimp
    1e2f:	0704                	c.addi4spn	x9,x2,896
    1e31:	0000                	c.unimp
    1e33:	0006                	c.slli	x0,0x1
    1e35:	0078                	c.addi4spn	x14,x2,12
    1e37:	0076                	c.slli	x0,0x1d
    1e39:	9f1c                	0x9f1c
	...

00001e43 <.LLST16>:
    1e43:	0098                	c.addi4spn	x14,x2,64
    1e45:	0000                	c.unimp
    1e47:	00a8                	c.addi4spn	x10,x2,72
    1e49:	0000                	c.unimp
    1e4b:	0001                	c.addi	x0,0
    1e4d:	005c                	c.addi4spn	x15,x2,4
    1e4f:	0000                	c.unimp
    1e51:	0000                	c.unimp
    1e53:	0000                	c.unimp
	...

00001e56 <.LLST18>:
    1e56:	010c                	c.addi4spn	x11,x2,128
    1e58:	0000                	c.unimp
    1e5a:	011c                	c.addi4spn	x15,x2,128
    1e5c:	0000                	c.unimp
    1e5e:	0001                	c.addi	x0,0
    1e60:	005c                	c.addi4spn	x15,x2,4
    1e62:	0000                	c.unimp
    1e64:	0000                	c.unimp
    1e66:	0000                	c.unimp
	...

00001e69 <.LLST17>:
    1e69:	01bc                	c.addi4spn	x15,x2,200
    1e6b:	0000                	c.unimp
    1e6d:	01cc                	c.addi4spn	x11,x2,196
    1e6f:	0000                	c.unimp
    1e71:	0001                	c.addi	x0,0
    1e73:	0000005b          	0x5b
    1e77:	0000                	c.unimp
    1e79:	0000                	c.unimp
	...

00001e7c <.LLST19>:
    1e7c:	022c                	c.addi4spn	x11,x2,264
    1e7e:	0000                	c.unimp
    1e80:	0240                	c.addi4spn	x8,x2,260
    1e82:	0000                	c.unimp
    1e84:	0001                	c.addi	x0,0
    1e86:	0000005b          	0x5b
    1e8a:	0000                	c.unimp
    1e8c:	0000                	c.unimp
	...

00001e8f <.LLST20>:
    1e8f:	02a4                	c.addi4spn	x9,x2,328
    1e91:	0000                	c.unimp
    1e93:	02d0                	c.addi4spn	x12,x2,324
    1e95:	0000                	c.unimp
    1e97:	0001                	c.addi	x0,0
    1e99:	005c                	c.addi4spn	x15,x2,4
    1e9b:	0000                	c.unimp
    1e9d:	0000                	c.unimp
    1e9f:	0000                	c.unimp
	...

00001ea2 <.LLST21>:
    1ea2:	0318                	c.addi4spn	x14,x2,384
    1ea4:	0000                	c.unimp
    1ea6:	0324                	c.addi4spn	x9,x2,392
    1ea8:	0000                	c.unimp
    1eaa:	0006                	c.slli	x0,0x1
    1eac:	007c007b          	0x7c007b
    1eb0:	9f22                	c.add	x30,x8
    1eb2:	0324                	c.addi4spn	x9,x2,392
    1eb4:	0000                	c.unimp
    1eb6:	0338                	c.addi4spn	x14,x2,392
    1eb8:	0000                	c.unimp
    1eba:	0001                	c.addi	x0,0
    1ebc:	005c                	c.addi4spn	x15,x2,4
    1ebe:	04000007          	0x4000007
    1ec2:	06000007          	0x6000007
    1ec6:	7b00                	c.flw	f8,48(x14)
    1ec8:	7c00                	c.flw	f8,56(x8)
    1eca:	2200                	c.fld	f8,0(x12)
    1ecc:	009f 0000 0000      	0x9f
    1ed2:	0000                	c.unimp
	...

00001ed5 <.LLST22>:
    1ed5:	0348                	c.addi4spn	x10,x2,388
    1ed7:	0000                	c.unimp
    1ed9:	035c                	c.addi4spn	x15,x2,388
    1edb:	0000                	c.unimp
    1edd:	0006                	c.slli	x0,0x1
    1edf:	0078                	c.addi4spn	x14,x2,12
    1ee1:	0076                	c.slli	x0,0x1d
    1ee3:	9f1c                	0x9f1c
    1ee5:	035c                	c.addi4spn	x15,x2,388
    1ee7:	0000                	c.unimp
    1ee9:	0368                	c.addi4spn	x10,x2,396
    1eeb:	0000                	c.unimp
    1eed:	0001                	c.addi	x0,0
    1eef:	685a                	c.flwsp	f16,148(x2)
    1ef1:	74000003          	lb	x0,1856(x0) # 740 <.L85+0xc>
    1ef5:	03000003          	lb	x0,48(x0) # 30 <printf_num>
    1ef9:	8000                	0x8000
    1efb:	9f7f                	0x9f7f
    1efd:	037c                	c.addi4spn	x15,x2,396
    1eff:	0000                	c.unimp
    1f01:	03b8                	c.addi4spn	x14,x2,456
    1f03:	0000                	c.unimp
    1f05:	0001                	c.addi	x0,0
    1f07:	e85a                	c.fswsp	f22,16(x2)
    1f09:	00000003          	lb	x0,0(x0) # 0 <.LLST0>
    1f0d:	0004                	0x4
    1f0f:	0600                	c.addi4spn	x8,x2,768
    1f11:	7800                	c.flw	f8,48(x8)
    1f13:	7600                	c.flw	f8,40(x12)
    1f15:	1c00                	c.addi4spn	x8,x2,560
    1f17:	009f 0004 1c00      	0x1c000004009f
    1f1d:	0004                	0x4
    1f1f:	0100                	c.addi4spn	x8,x2,128
    1f21:	5a00                	c.lw	x8,48(x12)
    1f23:	0434                	c.addi4spn	x13,x2,520
    1f25:	0000                	c.unimp
    1f27:	0440                	c.addi4spn	x8,x2,516
    1f29:	0000                	c.unimp
    1f2b:	0001                	c.addi	x0,0
    1f2d:	405a                	0x405a
    1f2f:	0004                	0x4
    1f31:	4800                	c.lw	x8,16(x8)
    1f33:	0004                	0x4
    1f35:	0600                	c.addi4spn	x8,x2,768
    1f37:	7800                	c.flw	f8,48(x8)
    1f39:	7600                	c.flw	f8,40(x12)
    1f3b:	1c00                	c.addi4spn	x8,x2,560
    1f3d:	489f 0004 5800      	0x58000004489f
    1f43:	0004                	0x4
    1f45:	0100                	c.addi4spn	x8,x2,128
    1f47:	5a00                	c.lw	x8,48(x12)
    1f49:	0458                	c.addi4spn	x14,x2,516
    1f4b:	0000                	c.unimp
    1f4d:	047c                	c.addi4spn	x15,x2,524
    1f4f:	0000                	c.unimp
    1f51:	0001                	c.addi	x0,0
    1f53:	8c60                	0x8c60
    1f55:	0004                	0x4
    1f57:	a000                	c.fsd	f8,0(x8)
    1f59:	0004                	0x4
    1f5b:	0100                	c.addi4spn	x8,x2,128
    1f5d:	5a00                	c.lw	x8,48(x12)
    1f5f:	04a0                	c.addi4spn	x8,x2,584
    1f61:	0000                	c.unimp
    1f63:	0530                	c.addi4spn	x12,x2,648
    1f65:	0000                	c.unimp
    1f67:	0001                	c.addi	x0,0
    1f69:	3060                	c.fld	f8,224(x8)
    1f6b:	0005                	c.addi	x0,1
    1f6d:	5800                	c.lw	x8,48(x8)
    1f6f:	0005                	c.addi	x0,1
    1f71:	0600                	c.addi4spn	x8,x2,768
    1f73:	7800                	c.flw	f8,48(x8)
    1f75:	7600                	c.flw	f8,40(x12)
    1f77:	1c00                	c.addi4spn	x8,x2,560
    1f79:	609f 0005 f800      	0xf8000005609f
    1f7f:	0005                	c.addi	x0,1
    1f81:	0600                	c.addi4spn	x8,x2,768
    1f83:	7800                	c.flw	f8,48(x8)
    1f85:	7600                	c.flw	f8,40(x12)
    1f87:	1c00                	c.addi4spn	x8,x2,560
    1f89:	689f 0006 7800      	0x78000006689f
    1f8f:	0006                	c.slli	x0,0x1
    1f91:	0600                	c.addi4spn	x8,x2,768
    1f93:	7800                	c.flw	f8,48(x8)
    1f95:	7600                	c.flw	f8,40(x12)
    1f97:	1c00                	c.addi4spn	x8,x2,560
    1f99:	a89f 0007 b800      	0xb8000007a89f
    1f9f:	01000007          	0x1000007
    1fa3:	5a00                	c.lw	x8,48(x12)
    1fa5:	07b8                	c.addi4spn	x14,x2,968
    1fa7:	0000                	c.unimp
    1fa9:	07c0                	c.addi4spn	x8,x2,964
    1fab:	0000                	c.unimp
    1fad:	0006                	c.slli	x0,0x1
    1faf:	0078                	c.addi4spn	x14,x2,12
    1fb1:	0076                	c.slli	x0,0x1d
    1fb3:	9f1c                	0x9f1c
    1fb5:	07c8                	c.addi4spn	x10,x2,964
    1fb7:	0000                	c.unimp
    1fb9:	07e0                	c.addi4spn	x8,x2,972
    1fbb:	0000                	c.unimp
    1fbd:	0006                	c.slli	x0,0x1
    1fbf:	0078                	c.addi4spn	x14,x2,12
    1fc1:	0076                	c.slli	x0,0x1d
    1fc3:	9f1c                	0x9f1c
	...

00001fcd <.LLST23>:
    1fcd:	0364                	c.addi4spn	x9,x2,396
    1fcf:	0000                	c.unimp
    1fd1:	0374                	c.addi4spn	x13,x2,396
    1fd3:	0000                	c.unimp
    1fd5:	0001                	c.addi	x0,0
    1fd7:	005c                	c.addi4spn	x15,x2,4
    1fd9:	0000                	c.unimp
    1fdb:	0000                	c.unimp
    1fdd:	0000                	c.unimp
	...

00001fe0 <.LLST24>:
    1fe0:	03bc                	c.addi4spn	x15,x2,456
    1fe2:	0000                	c.unimp
    1fe4:	03cc                	c.addi4spn	x11,x2,452
    1fe6:	0000                	c.unimp
    1fe8:	0001                	c.addi	x0,0
    1fea:	005c                	c.addi4spn	x15,x2,4
    1fec:	0000                	c.unimp
    1fee:	0000                	c.unimp
    1ff0:	0000                	c.unimp
	...

00001ff3 <.LLST26>:
    1ff3:	0460                	c.addi4spn	x8,x2,524
    1ff5:	0000                	c.unimp
    1ff7:	0474                	c.addi4spn	x13,x2,524
    1ff9:	0000                	c.unimp
    1ffb:	0001                	c.addi	x0,0
    1ffd:	0000005b          	0x5b
    2001:	0000                	c.unimp
    2003:	0000                	c.unimp
	...

00002006 <.LLST27>:
    2006:	04d8                	c.addi4spn	x14,x2,580
    2008:	0000                	c.unimp
    200a:	04f0                	c.addi4spn	x12,x2,588
    200c:	0000                	c.unimp
    200e:	0001                	c.addi	x0,0
    2010:	0000005b          	0x5b
    2014:	0000                	c.unimp
    2016:	0000                	c.unimp
	...

00002019 <.LLST28>:
    2019:	0568                	c.addi4spn	x10,x2,652
    201b:	0000                	c.unimp
    201d:	05a8                	c.addi4spn	x10,x2,712
    201f:	0000                	c.unimp
    2021:	0001                	c.addi	x0,0
    2023:	c860                	c.sw	x8,84(x8)
    2025:	d0000007          	0xd0000007
    2029:	01000007          	0x1000007
    202d:	6000                	c.flw	f8,0(x8)
	...

00002037 <.LLST29>:
    2037:	0584                	c.addi4spn	x9,x2,704
    2039:	0000                	c.unimp
    203b:	0594                	c.addi4spn	x13,x2,704
    203d:	0000                	c.unimp
    203f:	0001                	c.addi	x0,0
    2041:	0000005b          	0x5b
    2045:	0000                	c.unimp
    2047:	0000                	c.unimp
	...

0000204a <.LLST30>:
    204a:	05cc                	c.addi4spn	x11,x2,708
    204c:	0000                	c.unimp
    204e:	05e8                	c.addi4spn	x10,x2,716
    2050:	0000                	c.unimp
    2052:	0001                	c.addi	x0,0
    2054:	0005e863          	bltu	x11,x0,2064 <.LLST30+0x1a>
    2058:	f000                	c.fsw	f8,32(x8)
    205a:	0005                	c.addi	x0,1
    205c:	0600                	c.addi4spn	x8,x2,768
    205e:	7b00                	c.flw	f8,48(x14)
    2060:	7c00                	c.flw	f8,56(x8)
    2062:	1c00                	c.addi4spn	x8,x2,560
    2064:	689f 0006 7c00      	0x7c000006689f
    206a:	0006                	c.slli	x0,0x1
    206c:	0100                	c.addi4spn	x8,x2,128
    206e:	6300                	c.flw	f8,0(x14)
	...

00002078 <.LLST31>:
    2078:	05e8                	c.addi4spn	x10,x2,716
    207a:	0000                	c.unimp
    207c:	05f8                	c.addi4spn	x14,x2,716
    207e:	0000                	c.unimp
    2080:	0001                	c.addi	x0,0
    2082:	00000063          	beq	x0,x0,2082 <.LLST31+0xa>
    2086:	0000                	c.unimp
    2088:	0000                	c.unimp
	...

0000208b <.LLST25>:
    208b:	0604                	c.addi4spn	x9,x2,768
    208d:	0000                	c.unimp
    208f:	0608                	c.addi4spn	x10,x2,768
    2091:	0000                	c.unimp
    2093:	0001                	c.addi	x0,0
    2095:	085a                	c.slli	x16,0x16
    2097:	0006                	c.slli	x0,0x1
    2099:	3000                	c.fld	f8,32(x8)
    209b:	0006                	c.slli	x0,0x1
    209d:	0100                	c.addi4spn	x8,x2,128
    209f:	5e00                	c.lw	x8,56(x12)
    20a1:	0630                	c.addi4spn	x12,x2,776
    20a3:	0000                	c.unimp
    20a5:	0634                	c.addi4spn	x13,x2,776
    20a7:	0000                	c.unimp
    20a9:	787a0003          	lb	x0,1927(x20)
    20ad:	349f 0006 6800      	0x68000006349f
    20b3:	0006                	c.slli	x0,0x1
    20b5:	0100                	c.addi4spn	x8,x2,128
    20b7:	5d00                	c.lw	x8,56(x10)
    20b9:	0684                	c.addi4spn	x9,x2,832
    20bb:	0000                	c.unimp
    20bd:	068c                	c.addi4spn	x11,x2,832
    20bf:	0000                	c.unimp
    20c1:	0001                	c.addi	x0,0
    20c3:	8c5a                	c.mv	x24,x22
    20c5:	0006                	c.slli	x0,0x1
    20c7:	9c00                	0x9c00
    20c9:	0006                	c.slli	x0,0x1
    20cb:	0100                	c.addi4spn	x8,x2,128
    20cd:	5e00                	c.lw	x8,56(x12)
    20cf:	069c                	c.addi4spn	x15,x2,832
    20d1:	0000                	c.unimp
    20d3:	06d0                	c.addi4spn	x12,x2,836
    20d5:	0000                	c.unimp
    20d7:	0001                	c.addi	x0,0
    20d9:	d05d                	c.beqz	x8,207f <.LLST31+0x7>
    20db:	0006                	c.slli	x0,0x1
    20dd:	d800                	c.sw	x8,48(x8)
    20df:	0006                	c.slli	x0,0x1
    20e1:	0100                	c.addi4spn	x8,x2,128
    20e3:	5e00                	c.lw	x8,56(x12)
    20e5:	06d8                	c.addi4spn	x14,x2,836
    20e7:	0000                	c.unimp
    20e9:	06e4                	c.addi4spn	x9,x2,844
    20eb:	0000                	c.unimp
    20ed:	787a0003          	lb	x0,1927(x20)
    20f1:	009f 0000 0000      	0x9f
    20f7:	0000                	c.unimp
	...

000020fa <.LLST32>:
    20fa:	02e8                	c.addi4spn	x10,x2,332
    20fc:	0000                	c.unimp
    20fe:	02f8                	c.addi4spn	x14,x2,332
    2100:	0000                	c.unimp
    2102:	0001                	c.addi	x0,0
    2104:	005e                	c.slli	x0,0x17
    2106:	0000                	c.unimp
    2108:	0000                	c.unimp
    210a:	0000                	c.unimp
	...

0000210d <.LLST0>:
    210d:	0000                	c.unimp
    210f:	0000                	c.unimp
    2111:	002c                	c.addi4spn	x11,x2,8
    2113:	0000                	c.unimp
    2115:	0006                	c.slli	x0,0x1
    2117:	935a                	c.add	x6,x22
    2119:	5b04                	c.lw	x9,48(x14)
    211b:	002c0493          	addi	x9,x24,2
    211f:	0000                	c.unimp
    2121:	0038                	c.addi4spn	x14,x2,8
    2123:	0000                	c.unimp
    2125:	0006                	c.slli	x0,0x1
    2127:	0af503f3          	0xaf503f3
    212b:	9f25                	0x9f25
    212d:	0038                	c.addi4spn	x14,x2,8
    212f:	0000                	c.unimp
    2131:	0058                	c.addi4spn	x14,x2,4
    2133:	0000                	c.unimp
    2135:	0006                	c.slli	x0,0x1
    2137:	935a                	c.add	x6,x22
    2139:	5b04                	c.lw	x9,48(x14)
    213b:	00580493          	addi	x9,x16,5
    213f:	0000                	c.unimp
    2141:	0068                	c.addi4spn	x10,x2,12
    2143:	0000                	c.unimp
    2145:	0006                	c.slli	x0,0x1
    2147:	0af503f3          	0xaf503f3
    214b:	9f25                	0x9f25
    214d:	0068                	c.addi4spn	x10,x2,12
    214f:	0000                	c.unimp
    2151:	006c                	c.addi4spn	x11,x2,12
    2153:	0000                	c.unimp
    2155:	0006                	c.slli	x0,0x1
    2157:	935a                	c.add	x6,x22
    2159:	5b04                	c.lw	x9,48(x14)
    215b:	006c0493          	addi	x9,x24,6
    215f:	0000                	c.unimp
    2161:	0078                	c.addi4spn	x14,x2,12
    2163:	0000                	c.unimp
    2165:	0006                	c.slli	x0,0x1
    2167:	0af503f3          	0xaf503f3
    216b:	9f25                	0x9f25
    216d:	0078                	c.addi4spn	x14,x2,12
    216f:	0000                	c.unimp
    2171:	007c                	c.addi4spn	x15,x2,12
    2173:	0000                	c.unimp
    2175:	0006                	c.slli	x0,0x1
    2177:	935a                	c.add	x6,x22
    2179:	5b04                	c.lw	x9,48(x14)
    217b:	007c0493          	addi	x9,x24,7
    217f:	0000                	c.unimp
    2181:	0080                	c.addi4spn	x8,x2,64
    2183:	0000                	c.unimp
    2185:	0006                	c.slli	x0,0x1
    2187:	0af503f3          	0xaf503f3
    218b:	9f25                	0x9f25
	...

00002195 <.LLST1>:
    2195:	0000                	c.unimp
    2197:	0000                	c.unimp
    2199:	007c                	c.addi4spn	x15,x2,12
    219b:	0000                	c.unimp
    219d:	0002                	c.slli64	x0
    219f:	9f30                	0x9f30
	...

000021a9 <.LLST2>:
    21a9:	0018                	0x18
    21ab:	0000                	c.unimp
    21ad:	0050                	c.addi4spn	x12,x2,4
    21af:	0000                	c.unimp
    21b1:	0001                	c.addi	x0,0
    21b3:	505e                	0x505e
    21b5:	0000                	c.unimp
    21b7:	5c00                	c.lw	x8,56(x8)
    21b9:	0000                	c.unimp
    21bb:	0400                	c.addi4spn	x8,x2,512
    21bd:	7e00                	c.flw	f8,56(x12)
    21bf:	689f0893          	addi	x17,x30,1673 # fffe8689 <.LC1+0xfffe44f1>
    21c3:	0000                	c.unimp
    21c5:	7c00                	c.flw	f8,56(x8)
    21c7:	0000                	c.unimp
    21c9:	0100                	c.addi4spn	x8,x2,128
    21cb:	5e00                	c.lw	x8,56(x12)
	...

000021d5 <.LLST3>:
    21d5:	005c                	c.addi4spn	x15,x2,4
    21d7:	0000                	c.unimp
    21d9:	0064                	c.addi4spn	x9,x2,12
    21db:	0000                	c.unimp
    21dd:	0001                	c.addi	x0,0
    21df:	645a                	c.flwsp	f8,148(x2)
    21e1:	0000                	c.unimp
    21e3:	6800                	c.flw	f8,16(x8)
    21e5:	0000                	c.unimp
    21e7:	0400                	c.addi4spn	x8,x2,512
    21e9:	7a00                	c.flw	f8,48(x12)
    21eb:	1f00                	c.addi4spn	x8,x2,944
    21ed:	749f 0000 7800      	0x78000000749f
    21f3:	0000                	c.unimp
    21f5:	0100                	c.addi4spn	x8,x2,128
    21f7:	5a00                	c.lw	x8,48(x12)
	...

00002201 <.LLST4>:
    2201:	0018                	0x18
    2203:	0000                	c.unimp
    2205:	0054                	c.addi4spn	x13,x2,4
    2207:	0000                	c.unimp
    2209:	0001                	c.addi	x0,0
    220b:	5c5f 0000 6800      	0x680000005c5f
    2211:	0000                	c.unimp
    2213:	0200                	c.addi4spn	x8,x2,256
    2215:	3000                	c.fld	f8,32(x8)
    2217:	689f 0000 7400      	0x74000000689f
    221d:	0000                	c.unimp
    221f:	0100                	c.addi4spn	x8,x2,128
    2221:	5f00                	c.lw	x8,56(x14)
    2223:	0074                	c.addi4spn	x13,x2,12
    2225:	0000                	c.unimp
    2227:	0078                	c.addi4spn	x14,x2,12
    2229:	0000                	c.unimp
    222b:	0002                	c.slli64	x0
    222d:	9f30                	0x9f30
    222f:	0078                	c.addi4spn	x14,x2,12
    2231:	0000                	c.unimp
    2233:	007c                	c.addi4spn	x15,x2,12
    2235:	0000                	c.unimp
    2237:	0001                	c.addi	x0,0
    2239:	005f 0000 0000      	0x5f
    223f:	0000                	c.unimp
	...

00002242 <.LLST5>:
    2242:	0028                	c.addi4spn	x10,x2,8
    2244:	0000                	c.unimp
    2246:	0034                	c.addi4spn	x13,x2,8
    2248:	0000                	c.unimp
    224a:	0005                	c.addi	x0,1
    224c:	4b40                	c.lw	x8,20(x14)
    224e:	1f24                	c.addi4spn	x9,x2,952
    2250:	349f 0000 3800      	0x38000000349f
    2256:	0000                	c.unimp
    2258:	0100                	c.addi4spn	x8,x2,128
    225a:	5a00                	c.lw	x8,48(x12)
    225c:	005c                	c.addi4spn	x15,x2,4
    225e:	0000                	c.unimp
    2260:	0068                	c.addi4spn	x10,x2,12
    2262:	0000                	c.unimp
    2264:	0001                	c.addi	x0,0
    2266:	7c5a                	c.flwsp	f24,180(x2)
    2268:	0000                	c.unimp
    226a:	8000                	0x8000
    226c:	0000                	c.unimp
    226e:	0100                	c.addi4spn	x8,x2,128
    2270:	5a00                	c.lw	x8,48(x12)
	...

0000227a <.LLST6>:
    227a:	0038                	c.addi4spn	x14,x2,8
    227c:	0000                	c.unimp
    227e:	004c                	c.addi4spn	x11,x2,4
    2280:	0000                	c.unimp
    2282:	0002                	c.slli64	x0
    2284:	9f30                	0x9f30
	...

0000228e <.LLST0>:
    228e:	0000                	c.unimp
    2290:	0000                	c.unimp
    2292:	0028                	c.addi4spn	x10,x2,8
    2294:	0000                	c.unimp
    2296:	0001                	c.addi	x0,0
    2298:	285a                	c.fldsp	f16,400(x2)
    229a:	0000                	c.unimp
    229c:	9c00                	0x9c00
    229e:	0000                	c.unimp
    22a0:	0400                	c.addi4spn	x8,x2,512
    22a2:	f300                	c.fsw	f8,32(x14)
    22a4:	5a01                	c.li	x20,-32
    22a6:	9c9f 0000 a800      	0xa80000009c9f
    22ac:	0000                	c.unimp
    22ae:	0100                	c.addi4spn	x8,x2,128
    22b0:	5a00                	c.lw	x8,48(x12)
	...

000022ba <.LLST1>:
    22ba:	0024                	c.addi4spn	x9,x2,8
    22bc:	0000                	c.unimp
    22be:	0054                	c.addi4spn	x13,x2,4
    22c0:	0000                	c.unimp
    22c2:	0001                	c.addi	x0,0
    22c4:	5459                	c.li	x8,-10
    22c6:	0000                	c.unimp
    22c8:	6400                	c.flw	f8,8(x8)
    22ca:	0000                	c.unimp
    22cc:	0100                	c.addi4spn	x8,x2,128
    22ce:	5a00                	c.lw	x8,48(x12)
    22d0:	0088                	c.addi4spn	x10,x2,64
    22d2:	0000                	c.unimp
    22d4:	0094                	c.addi4spn	x13,x2,64
    22d6:	0000                	c.unimp
    22d8:	0001                	c.addi	x0,0
    22da:	0059                	c.addi	x0,22
    22dc:	0000                	c.unimp
    22de:	0000                	c.unimp
    22e0:	0000                	c.unimp
	...

000022e3 <.LLST2>:
    22e3:	0038                	c.addi4spn	x14,x2,8
    22e5:	0000                	c.unimp
    22e7:	005c                	c.addi4spn	x15,x2,4
    22e9:	0000                	c.unimp
    22eb:	0001                	c.addi	x0,0
    22ed:	885e                	c.mv	x16,x23
    22ef:	0000                	c.unimp
    22f1:	9400                	0x9400
    22f3:	0000                	c.unimp
    22f5:	0100                	c.addi4spn	x8,x2,128
    22f7:	5e00                	c.lw	x8,56(x12)
	...

00002301 <.LLST3>:
    2301:	0038                	c.addi4spn	x14,x2,8
    2303:	0000                	c.unimp
    2305:	0078                	c.addi4spn	x14,x2,12
    2307:	0000                	c.unimp
    2309:	0001                	c.addi	x0,0
    230b:	7858                	c.flw	f14,52(x8)
    230d:	0000                	c.unimp
    230f:	8800                	0x8800
    2311:	0000                	c.unimp
    2313:	0100                	c.addi4spn	x8,x2,128
    2315:	5a00                	c.lw	x8,48(x12)
    2317:	0088                	c.addi4spn	x10,x2,64
    2319:	0000                	c.unimp
    231b:	0090                	c.addi4spn	x12,x2,64
    231d:	0000                	c.unimp
    231f:	0001                	c.addi	x0,0
    2321:	9058                	0x9058
    2323:	0000                	c.unimp
    2325:	9400                	0x9400
    2327:	0000                	c.unimp
    2329:	0200                	c.addi4spn	x8,x2,256
    232b:	3000                	c.fld	f8,32(x8)
    232d:	009f 0000 0000      	0x9f
    2333:	0000                	c.unimp
	...

00002336 <.LLST4>:
    2336:	0038                	c.addi4spn	x14,x2,8
    2338:	0000                	c.unimp
    233a:	004c                	c.addi4spn	x11,x2,4
    233c:	0000                	c.unimp
    233e:	0002                	c.slli64	x0
    2340:	9f30                	0x9f30
    2342:	004c                	c.addi4spn	x11,x2,4
    2344:	0000                	c.unimp
    2346:	0058                	c.addi4spn	x14,x2,4
    2348:	0000                	c.unimp
    234a:	0001                	c.addi	x0,0
    234c:	885f 0000 9000      	0x90000000885f
    2352:	0000                	c.unimp
    2354:	0200                	c.addi4spn	x8,x2,256
    2356:	3000                	c.fld	f8,32(x8)
    2358:	909f 0000 9400      	0x94000000909f
    235e:	0000                	c.unimp
    2360:	0100                	c.addi4spn	x8,x2,128
    2362:	5f00                	c.lw	x8,56(x14)
	...

0000236c <.LLST5>:
    236c:	0014                	0x14
    236e:	0000                	c.unimp
    2370:	0024                	c.addi4spn	x9,x2,8
    2372:	0000                	c.unimp
    2374:	0001                	c.addi	x0,0
    2376:	245a                	c.fldsp	f8,400(x2)
    2378:	0000                	c.unimp
    237a:	5000                	c.lw	x8,32(x8)
    237c:	0000                	c.unimp
    237e:	0100                	c.addi4spn	x8,x2,128
    2380:	5800                	c.lw	x8,48(x8)
    2382:	0050                	c.addi4spn	x12,x2,4
    2384:	0000                	c.unimp
    2386:	0054                	c.addi4spn	x13,x2,4
    2388:	0000                	c.unimp
    238a:	0010                	0x10
    238c:	4f5a01f3          	0x4f5a01f3
    2390:	f326                	c.fswsp	f9,164(x2)
    2392:	5a01                	c.li	x20,-32
    2394:	5a01f327          	0x5a01f327
    2398:	9f1c264f          	fnmadd.q	f12,f24,f17,f19,rdn
    239c:	0088                	c.addi4spn	x10,x2,64
    239e:	0000                	c.unimp
    23a0:	0094                	c.addi4spn	x13,x2,64
    23a2:	0000                	c.unimp
    23a4:	0001                	c.addi	x0,0
    23a6:	0058                	c.addi4spn	x14,x2,4
    23a8:	0000                	c.unimp
    23aa:	0000                	c.unimp
    23ac:	0000                	c.unimp
	...

000023af <.LLST6>:
    23af:	002c                	c.addi4spn	x11,x2,8
    23b1:	0000                	c.unimp
    23b3:	0048                	c.addi4spn	x10,x2,4
    23b5:	0000                	c.unimp
    23b7:	0001                	c.addi	x0,0
    23b9:	485a                	c.lwsp	x16,148(x2)
    23bb:	0000                	c.unimp
    23bd:	5400                	c.lw	x8,40(x8)
    23bf:	0000                	c.unimp
    23c1:	0300                	c.addi4spn	x8,x2,384
    23c3:	7a00                	c.flw	f8,48(x12)
    23c5:	00889f6b          	0x889f6b
    23c9:	0000                	c.unimp
    23cb:	008c                	c.addi4spn	x11,x2,64
    23cd:	0000                	c.unimp
    23cf:	0001                	c.addi	x0,0
    23d1:	8c5a                	c.mv	x24,x22
    23d3:	0000                	c.unimp
    23d5:	9400                	0x9400
    23d7:	0000                	c.unimp
    23d9:	0300                	c.addi4spn	x8,x2,384
    23db:	7a00                	c.flw	f8,48(x12)
    23dd:	00009f0b          	0x9f0b
    23e1:	0000                	c.unimp
    23e3:	0000                	c.unimp
	...

000023e7 <.LLST0>:
    23e7:	0000                	c.unimp
    23e9:	0000                	c.unimp
    23eb:	0024                	c.addi4spn	x9,x2,8
    23ed:	0000                	c.unimp
    23ef:	0001                	c.addi	x0,0
    23f1:	245a                	c.fldsp	f8,400(x2)
    23f3:	0000                	c.unimp
    23f5:	3800                	c.fld	f8,48(x8)
    23f7:	0000                	c.unimp
    23f9:	0400                	c.addi4spn	x8,x2,512
    23fb:	f300                	c.fsw	f8,32(x14)
    23fd:	5a01                	c.li	x20,-32
    23ff:	389f 0000 4c00      	0x4c000000389f
    2405:	0000                	c.unimp
    2407:	0100                	c.addi4spn	x8,x2,128
    2409:	5a00                	c.lw	x8,48(x12)
	...

00002413 <.LLST1>:
    2413:	0000                	c.unimp
    2415:	0000                	c.unimp
    2417:	0024                	c.addi4spn	x9,x2,8
    2419:	0000                	c.unimp
    241b:	0001                	c.addi	x0,0
    241d:	245a                	c.fldsp	f8,400(x2)
    241f:	0000                	c.unimp
    2421:	3800                	c.fld	f8,48(x8)
    2423:	0000                	c.unimp
    2425:	0400                	c.addi4spn	x8,x2,512
    2427:	f300                	c.fsw	f8,32(x14)
    2429:	5a01                	c.li	x20,-32
    242b:	389f 0000 4c00      	0x4c000000389f
    2431:	0000                	c.unimp
    2433:	0100                	c.addi4spn	x8,x2,128
    2435:	5a00                	c.lw	x8,48(x12)
	...

0000243f <.LLST2>:
    243f:	0014                	0x14
    2441:	0000                	c.unimp
    2443:	0028                	c.addi4spn	x10,x2,8
    2445:	0000                	c.unimp
    2447:	0001                	c.addi	x0,0
    2449:	005f 0000 0000      	0x5f
    244f:	0000                	c.unimp
	...

Disassembly of section .debug_aranges:

00000000 <.debug_aranges>:
   0:	001c                	0x1c
   2:	0000                	c.unimp
   4:	0002                	c.slli64	x0
   6:	0000                	c.unimp
   8:	0000                	c.unimp
   a:	0004                	0x4
   c:	0000                	c.unimp
   e:	0000                	c.unimp
  10:	0930                	c.addi4spn	x12,x2,152
  12:	0000                	c.unimp
  14:	008c                	c.addi4spn	x11,x2,64
	...
  1e:	0000                	c.unimp
  20:	001c                	0x1c
  22:	0000                	c.unimp
  24:	0002                	c.slli64	x0
  26:	0255                	c.addi	x4,21
  28:	0000                	c.unimp
  2a:	0004                	0x4
  2c:	0000                	c.unimp
  2e:	0000                	c.unimp
  30:	09bc                	c.addi4spn	x15,x2,216
  32:	0000                	c.unimp
  34:	00e4                	c.addi4spn	x9,x2,76
	...
  3e:	0000                	c.unimp
  40:	001c                	0x1c
  42:	0000                	c.unimp
  44:	0002                	c.slli64	x0
  46:	04a8                	c.addi4spn	x10,x2,584
  48:	0000                	c.unimp
  4a:	0004                	0x4
  4c:	0000                	c.unimp
  4e:	0000                	c.unimp
  50:	0aa0                	c.addi4spn	x8,x2,344
  52:	0000                	c.unimp
  54:	0688                	c.addi4spn	x10,x2,832
	...
  5e:	0000                	c.unimp
  60:	001c                	0x1c
  62:	0000                	c.unimp
  64:	0002                	c.slli64	x0
  66:	0e8e                	c.slli	x29,0x3
  68:	0000                	c.unimp
  6a:	0004                	0x4
  6c:	0000                	c.unimp
  6e:	0000                	c.unimp
  70:	1128                	c.addi4spn	x10,x2,168
  72:	0000                	c.unimp
  74:	07ec                	c.addi4spn	x11,x2,972
	...
  7e:	0000                	c.unimp
  80:	001c                	0x1c
  82:	0000                	c.unimp
  84:	0002                	c.slli64	x0
  86:	0000140f          	0x140f
  8a:	0004                	0x4
  8c:	0000                	c.unimp
  8e:	0000                	c.unimp
  90:	1914                	c.addi4spn	x13,x2,176
  92:	0000                	c.unimp
  94:	0080                	c.addi4spn	x8,x2,64
	...
  9e:	0000                	c.unimp
  a0:	001c                	0x1c
  a2:	0000                	c.unimp
  a4:	0002                	c.slli64	x0
  a6:	15f6                	c.slli	x11,0x3d
  a8:	0000                	c.unimp
  aa:	0004                	0x4
  ac:	0000                	c.unimp
  ae:	0000                	c.unimp
  b0:	1994                	c.addi4spn	x13,x2,240
  b2:	0000                	c.unimp
  b4:	00a8                	c.addi4spn	x10,x2,72
	...
  be:	0000                	c.unimp
  c0:	001c                	0x1c
  c2:	0000                	c.unimp
  c4:	0002                	c.slli64	x0
  c6:	1891                	c.addi	x17,-28
  c8:	0000                	c.unimp
  ca:	0004                	0x4
  cc:	0000                	c.unimp
  ce:	0000                	c.unimp
  d0:	1a3c                	c.addi4spn	x15,x2,312
  d2:	0000                	c.unimp
  d4:	0024                	c.addi4spn	x9,x2,8
	...
  de:	0000                	c.unimp
  e0:	001c                	0x1c
  e2:	0000                	c.unimp
  e4:	0002                	c.slli64	x0
  e6:	000018b7          	lui	x17,0x1
  ea:	0004                	0x4
  ec:	0000                	c.unimp
  ee:	0000                	c.unimp
  f0:	1a60                	c.addi4spn	x8,x2,316
  f2:	0000                	c.unimp
  f4:	00b4                	c.addi4spn	x13,x2,72
	...
  fe:	0000                	c.unimp
 100:	001c                	0x1c
 102:	0000                	c.unimp
 104:	0002                	c.slli64	x0
 106:	18dd                	c.addi	x17,-9
 108:	0000                	c.unimp
 10a:	0004                	0x4
 10c:	0000                	c.unimp
 10e:	0000                	c.unimp
 110:	1b14                	c.addi4spn	x13,x2,432
 112:	0000                	c.unimp
 114:	004c                	c.addi4spn	x11,x2,4
	...
 11e:	0000                	c.unimp
 120:	0014                	0x14
 122:	0000                	c.unimp
 124:	0002                	c.slli64	x0
 126:	1a21                	c.addi	x20,-24
 128:	0000                	c.unimp
 12a:	0004                	0x4
	...

Disassembly of section .debug_ranges:

00000000 <.Ldebug_ranges0>:
   0:	0000                	c.unimp
   2:	0000                	c.unimp
   4:	000c                	0xc
   6:	0000                	c.unimp
   8:	0018                	0x18
   a:	0000                	c.unimp
   c:	001c                	0x1c
   e:	0000                	c.unimp
  10:	0020                	c.addi4spn	x8,x2,8
  12:	0000                	c.unimp
  14:	0028                	c.addi4spn	x10,x2,8
  16:	0000                	c.unimp
  18:	002c                	c.addi4spn	x11,x2,8
  1a:	0000                	c.unimp
  1c:	0030                	c.addi4spn	x12,x2,8
	...
  26:	0000                	c.unimp
  28:	000c                	0xc
  2a:	0000                	c.unimp
  2c:	0010                	0x10
  2e:	0000                	c.unimp
  30:	0028                	c.addi4spn	x10,x2,8
  32:	0000                	c.unimp
  34:	002c                	c.addi4spn	x11,x2,8
  36:	0000                	c.unimp
  38:	0030                	c.addi4spn	x12,x2,8
  3a:	0000                	c.unimp
  3c:	0038                	c.addi4spn	x14,x2,8
	...

00000048 <.Ldebug_ranges0>:
  48:	0000                	c.unimp
  4a:	0000                	c.unimp
  4c:	0010                	0x10
  4e:	0000                	c.unimp
  50:	0018                	0x18
  52:	0000                	c.unimp
  54:	0020                	c.addi4spn	x8,x2,8
	...
  5e:	0000                	c.unimp
  60:	0020                	c.addi4spn	x8,x2,8
  62:	0000                	c.unimp
  64:	0020                	c.addi4spn	x8,x2,8
  66:	0000                	c.unimp
  68:	0024                	c.addi4spn	x9,x2,8
  6a:	0000                	c.unimp
  6c:	0038                	c.addi4spn	x14,x2,8
	...
  76:	0000                	c.unimp
  78:	0058                	c.addi4spn	x14,x2,4
  7a:	0000                	c.unimp
  7c:	00a0                	c.addi4spn	x8,x2,72
  7e:	0000                	c.unimp
  80:	00a4                	c.addi4spn	x9,x2,72
  82:	0000                	c.unimp
  84:	00d4                	c.addi4spn	x13,x2,68
  86:	0000                	c.unimp
  88:	00d8                	c.addi4spn	x14,x2,68
  8a:	0000                	c.unimp
  8c:	00e4                	c.addi4spn	x9,x2,76
	...

00000098 <.Ldebug_ranges0>:
	...
  a0:	0008                	0x8
  a2:	0000                	c.unimp
  a4:	000c                	0xc
  a6:	0000                	c.unimp
  a8:	0020                	c.addi4spn	x8,x2,8
  aa:	0000                	c.unimp
  ac:	0024                	c.addi4spn	x9,x2,8
  ae:	0000                	c.unimp
  b0:	0030                	c.addi4spn	x12,x2,8
  b2:	0000                	c.unimp
  b4:	0034                	c.addi4spn	x13,x2,8
  b6:	0000                	c.unimp
  b8:	0040                	c.addi4spn	x8,x2,4
  ba:	0000                	c.unimp
  bc:	0048                	c.addi4spn	x10,x2,4
  be:	0000                	c.unimp
  c0:	055c                	c.addi4spn	x15,x2,644
  c2:	0000                	c.unimp
  c4:	0560                	c.addi4spn	x8,x2,652
	...
  ce:	0000                	c.unimp
  d0:	0070                	c.addi4spn	x12,x2,12
  d2:	0000                	c.unimp
  d4:	0074                	c.addi4spn	x13,x2,12
  d6:	0000                	c.unimp
  d8:	00f4                	c.addi4spn	x13,x2,76
  da:	0000                	c.unimp
  dc:	0150                	c.addi4spn	x12,x2,132
	...
  e6:	0000                	c.unimp
  e8:	0074                	c.addi4spn	x13,x2,12
  ea:	0000                	c.unimp
  ec:	0088                	c.addi4spn	x10,x2,64
  ee:	0000                	c.unimp
  f0:	0590                	c.addi4spn	x12,x2,704
  f2:	0000                	c.unimp
  f4:	0594                	c.addi4spn	x13,x2,704
	...
  fe:	0000                	c.unimp
 100:	00b0                	c.addi4spn	x12,x2,72
 102:	0000                	c.unimp
 104:	00b4                	c.addi4spn	x13,x2,72
 106:	0000                	c.unimp
 108:	0190                	c.addi4spn	x12,x2,192
 10a:	0000                	c.unimp
 10c:	01f0                	c.addi4spn	x12,x2,204
	...
 116:	0000                	c.unimp
 118:	0228                	c.addi4spn	x10,x2,264
 11a:	0000                	c.unimp
 11c:	0434                	c.addi4spn	x13,x2,520
 11e:	0000                	c.unimp
 120:	0434                	c.addi4spn	x13,x2,520
 122:	0000                	c.unimp
 124:	045c                	c.addi4spn	x15,x2,516
	...
 12e:	0000                	c.unimp
 130:	0228                	c.addi4spn	x10,x2,264
 132:	0000                	c.unimp
 134:	02a4                	c.addi4spn	x9,x2,328
 136:	0000                	c.unimp
 138:	02ac                	c.addi4spn	x11,x2,328
 13a:	0000                	c.unimp
 13c:	02b0                	c.addi4spn	x12,x2,328
	...
 146:	0000                	c.unimp
 148:	0270                	c.addi4spn	x12,x2,268
 14a:	0000                	c.unimp
 14c:	027c                	c.addi4spn	x15,x2,268
 14e:	0000                	c.unimp
 150:	0288                	c.addi4spn	x10,x2,320
 152:	0000                	c.unimp
 154:	028c                	c.addi4spn	x11,x2,320
	...
 15e:	0000                	c.unimp
 160:	02a4                	c.addi4spn	x9,x2,328
 162:	0000                	c.unimp
 164:	02ac                	c.addi4spn	x11,x2,328
 166:	0000                	c.unimp
 168:	02b0                	c.addi4spn	x12,x2,328
 16a:	0000                	c.unimp
 16c:	0324                	c.addi4spn	x9,x2,392
 16e:	0000                	c.unimp
 170:	032c                	c.addi4spn	x11,x2,392
 172:	0000                	c.unimp
 174:	0334                	c.addi4spn	x13,x2,392
	...
 17e:	0000                	c.unimp
 180:	02e0                	c.addi4spn	x8,x2,332
 182:	0000                	c.unimp
 184:	02ec                	c.addi4spn	x11,x2,332
 186:	0000                	c.unimp
 188:	02f8                	c.addi4spn	x14,x2,332
 18a:	0000                	c.unimp
 18c:	02fc                	c.addi4spn	x15,x2,332
	...
 196:	0000                	c.unimp
 198:	0324                	c.addi4spn	x9,x2,392
 19a:	0000                	c.unimp
 19c:	032c                	c.addi4spn	x11,x2,392
 19e:	0000                	c.unimp
 1a0:	0334                	c.addi4spn	x13,x2,392
 1a2:	0000                	c.unimp
 1a4:	03a8                	c.addi4spn	x10,x2,456
	...
 1ae:	0000                	c.unimp
 1b0:	0364                	c.addi4spn	x9,x2,396
 1b2:	0000                	c.unimp
 1b4:	0370                	c.addi4spn	x12,x2,396
 1b6:	0000                	c.unimp
 1b8:	037c                	c.addi4spn	x15,x2,396
 1ba:	0000                	c.unimp
 1bc:	0380                	c.addi4spn	x8,x2,448
	...
 1c6:	0000                	c.unimp
 1c8:	03a8                	c.addi4spn	x10,x2,456
 1ca:	0000                	c.unimp
 1cc:	03fc                	c.addi4spn	x15,x2,460
 1ce:	0000                	c.unimp
 1d0:	03fc                	c.addi4spn	x15,x2,460
 1d2:	0000                	c.unimp
 1d4:	0410                	c.addi4spn	x12,x2,512
 1d6:	0000                	c.unimp
 1d8:	0414                	c.addi4spn	x13,x2,512
 1da:	0000                	c.unimp
 1dc:	0418                	c.addi4spn	x14,x2,512
 1de:	0000                	c.unimp
 1e0:	043c                	c.addi4spn	x15,x2,520
 1e2:	0000                	c.unimp
 1e4:	0440                	c.addi4spn	x8,x2,516
	...
 1ee:	0000                	c.unimp
 1f0:	03d8                	c.addi4spn	x14,x2,452
 1f2:	0000                	c.unimp
 1f4:	03e4                	c.addi4spn	x9,x2,460
 1f6:	0000                	c.unimp
 1f8:	03f0                	c.addi4spn	x12,x2,460
 1fa:	0000                	c.unimp
 1fc:	03f4                	c.addi4spn	x13,x2,460
	...
 206:	0000                	c.unimp
 208:	03fc                	c.addi4spn	x15,x2,460
 20a:	0000                	c.unimp
 20c:	03fc                	c.addi4spn	x15,x2,460
 20e:	0000                	c.unimp
 210:	0410                	c.addi4spn	x12,x2,512
 212:	0000                	c.unimp
 214:	0414                	c.addi4spn	x13,x2,512
 216:	0000                	c.unimp
 218:	0418                	c.addi4spn	x14,x2,512
 21a:	0000                	c.unimp
 21c:	0424                	c.addi4spn	x9,x2,520
 21e:	0000                	c.unimp
 220:	0434                	c.addi4spn	x13,x2,520
 222:	0000                	c.unimp
 224:	043c                	c.addi4spn	x15,x2,520
 226:	0000                	c.unimp
 228:	0440                	c.addi4spn	x8,x2,516
 22a:	0000                	c.unimp
 22c:	0444                	c.addi4spn	x9,x2,516
	...
 236:	0000                	c.unimp
 238:	0424                	c.addi4spn	x9,x2,520
 23a:	0000                	c.unimp
 23c:	0434                	c.addi4spn	x13,x2,520
 23e:	0000                	c.unimp
 240:	0444                	c.addi4spn	x9,x2,516
 242:	0000                	c.unimp
 244:	045c                	c.addi4spn	x15,x2,516
	...
 24e:	0000                	c.unimp
 250:	0434                	c.addi4spn	x13,x2,520
 252:	0000                	c.unimp
 254:	0434                	c.addi4spn	x13,x2,520
 256:	0000                	c.unimp
 258:	045c                	c.addi4spn	x15,x2,516
 25a:	0000                	c.unimp
 25c:	0484                	c.addi4spn	x9,x2,576
	...
 266:	0000                	c.unimp
 268:	0434                	c.addi4spn	x13,x2,520
 26a:	0000                	c.unimp
 26c:	0434                	c.addi4spn	x13,x2,520
 26e:	0000                	c.unimp
 270:	045c                	c.addi4spn	x15,x2,516
 272:	0000                	c.unimp
 274:	0468                	c.addi4spn	x10,x2,524
 276:	0000                	c.unimp
 278:	0468                	c.addi4spn	x10,x2,524
 27a:	0000                	c.unimp
 27c:	047c                	c.addi4spn	x15,x2,524
	...
 286:	0000                	c.unimp
 288:	0508                	c.addi4spn	x10,x2,640
 28a:	0000                	c.unimp
 28c:	0524                	c.addi4spn	x9,x2,648
 28e:	0000                	c.unimp
 290:	0528                	c.addi4spn	x10,x2,648
 292:	0000                	c.unimp
 294:	052c                	c.addi4spn	x11,x2,648
	...
 29e:	0000                	c.unimp
 2a0:	0584                	c.addi4spn	x9,x2,704
 2a2:	0000                	c.unimp
 2a4:	0590                	c.addi4spn	x12,x2,704
 2a6:	0000                	c.unimp
 2a8:	05a0                	c.addi4spn	x8,x2,712
 2aa:	0000                	c.unimp
 2ac:	0654                	c.addi4spn	x13,x2,772
 2ae:	0000                	c.unimp
 2b0:	0678                	c.addi4spn	x14,x2,780
 2b2:	0000                	c.unimp
 2b4:	0688                	c.addi4spn	x10,x2,832
	...

000002c0 <.Ldebug_ranges0>:
 2c0:	0000                	c.unimp
 2c2:	0000                	c.unimp
 2c4:	0008                	0x8
 2c6:	0000                	c.unimp
 2c8:	000c                	0xc
 2ca:	0000                	c.unimp
 2cc:	0014                	0x14
 2ce:	0000                	c.unimp
 2d0:	0024                	c.addi4spn	x9,x2,8
 2d2:	0000                	c.unimp
 2d4:	0028                	c.addi4spn	x10,x2,8
 2d6:	0000                	c.unimp
 2d8:	0034                	c.addi4spn	x13,x2,8
 2da:	0000                	c.unimp
 2dc:	0038                	c.addi4spn	x14,x2,8
	...
 2e6:	0000                	c.unimp
 2e8:	0014                	0x14
 2ea:	0000                	c.unimp
 2ec:	001c                	0x1c
 2ee:	0000                	c.unimp
 2f0:	0040                	c.addi4spn	x8,x2,4
 2f2:	0000                	c.unimp
 2f4:	0040                	c.addi4spn	x8,x2,4
 2f6:	0000                	c.unimp
 2f8:	0050                	c.addi4spn	x12,x2,4
 2fa:	0000                	c.unimp
 2fc:	0054                	c.addi4spn	x13,x2,4
 2fe:	0000                	c.unimp
 300:	0058                	c.addi4spn	x14,x2,4
 302:	0000                	c.unimp
 304:	005c                	c.addi4spn	x15,x2,4
 306:	0000                	c.unimp
 308:	00a8                	c.addi4spn	x10,x2,72
 30a:	0000                	c.unimp
 30c:	00ac                	c.addi4spn	x11,x2,72
 30e:	0000                	c.unimp
 310:	0238                	c.addi4spn	x14,x2,264
 312:	0000                	c.unimp
 314:	023c                	c.addi4spn	x15,x2,264
 316:	0000                	c.unimp
 318:	0374                	c.addi4spn	x13,x2,396
 31a:	0000                	c.unimp
 31c:	0378                	c.addi4spn	x14,x2,396
 31e:	0000                	c.unimp
 320:	04e4                	c.addi4spn	x9,x2,588
 322:	0000                	c.unimp
 324:	04e8                	c.addi4spn	x10,x2,588
	...
 32e:	0000                	c.unimp
 330:	0074                	c.addi4spn	x13,x2,12
 332:	0000                	c.unimp
 334:	0078                	c.addi4spn	x14,x2,12
 336:	0000                	c.unimp
 338:	007c                	c.addi4spn	x15,x2,12
 33a:	0000                	c.unimp
 33c:	00a8                	c.addi4spn	x10,x2,72
 33e:	0000                	c.unimp
 340:	00ac                	c.addi4spn	x11,x2,72
 342:	0000                	c.unimp
 344:	00b8                	c.addi4spn	x14,x2,72
 346:	0000                	c.unimp
 348:	00c0                	c.addi4spn	x8,x2,68
 34a:	0000                	c.unimp
 34c:	01d4                	c.addi4spn	x13,x2,196
 34e:	0000                	c.unimp
 350:	01e0                	c.addi4spn	x8,x2,204
 352:	0000                	c.unimp
 354:	0238                	c.addi4spn	x14,x2,264
 356:	0000                	c.unimp
 358:	023c                	c.addi4spn	x15,x2,264
 35a:	0000                	c.unimp
 35c:	02d0                	c.addi4spn	x12,x2,324
 35e:	0000                	c.unimp
 360:	02f8                	c.addi4spn	x14,x2,332
 362:	0000                	c.unimp
 364:	0310                	c.addi4spn	x12,x2,384
 366:	0000                	c.unimp
 368:	0318                	c.addi4spn	x14,x2,384
 36a:	0000                	c.unimp
 36c:	0348                	c.addi4spn	x10,x2,388
 36e:	0000                	c.unimp
 370:	053c                	c.addi4spn	x15,x2,648
 372:	0000                	c.unimp
 374:	0540                	c.addi4spn	x8,x2,644
 376:	0000                	c.unimp
 378:	06ec                	c.addi4spn	x11,x2,844
 37a:	0000                	c.unimp
 37c:	06f4                	c.addi4spn	x13,x2,844
 37e:	0000                	c.unimp
 380:	0700                	c.addi4spn	x8,x2,896
 382:	0000                	c.unimp
 384:	070c                	c.addi4spn	x11,x2,896
	...
 38e:	0000                	c.unimp
 390:	0094                	c.addi4spn	x13,x2,64
 392:	0000                	c.unimp
 394:	00a4                	c.addi4spn	x9,x2,72
 396:	0000                	c.unimp
 398:	00a4                	c.addi4spn	x9,x2,72
 39a:	0000                	c.unimp
 39c:	00a8                	c.addi4spn	x10,x2,72
	...
 3a6:	0000                	c.unimp
 3a8:	00a8                	c.addi4spn	x10,x2,72
 3aa:	0000                	c.unimp
 3ac:	00a8                	c.addi4spn	x10,x2,72
 3ae:	0000                	c.unimp
 3b0:	01b8                	c.addi4spn	x14,x2,200
 3b2:	0000                	c.unimp
 3b4:	01cc                	c.addi4spn	x11,x2,196
	...
 3be:	0000                	c.unimp
 3c0:	0108                	c.addi4spn	x10,x2,128
 3c2:	0000                	c.unimp
 3c4:	0118                	c.addi4spn	x14,x2,128
 3c6:	0000                	c.unimp
 3c8:	0118                	c.addi4spn	x14,x2,128
 3ca:	0000                	c.unimp
 3cc:	011c                	c.addi4spn	x15,x2,128
	...
 3d6:	0000                	c.unimp
 3d8:	02a0                	c.addi4spn	x8,x2,328
 3da:	0000                	c.unimp
 3dc:	02b0                	c.addi4spn	x12,x2,328
 3de:	0000                	c.unimp
 3e0:	02b8                	c.addi4spn	x14,x2,328
 3e2:	0000                	c.unimp
 3e4:	02bc                	c.addi4spn	x15,x2,328
	...
 3ee:	0000                	c.unimp
 3f0:	0318                	c.addi4spn	x14,x2,384
 3f2:	0000                	c.unimp
 3f4:	0318                	c.addi4spn	x14,x2,384
 3f6:	0000                	c.unimp
 3f8:	0320                	c.addi4spn	x8,x2,392
 3fa:	0000                	c.unimp
 3fc:	0330                	c.addi4spn	x12,x2,392
	...
 406:	0000                	c.unimp
 408:	00b8                	c.addi4spn	x14,x2,72
 40a:	0000                	c.unimp
 40c:	00c0                	c.addi4spn	x8,x2,68
 40e:	0000                	c.unimp
 410:	02d0                	c.addi4spn	x12,x2,324
 412:	0000                	c.unimp
 414:	02d0                	c.addi4spn	x12,x2,324
 416:	0000                	c.unimp
 418:	0310                	c.addi4spn	x12,x2,384
 41a:	0000                	c.unimp
 41c:	0318                	c.addi4spn	x14,x2,384
 41e:	0000                	c.unimp
 420:	0348                	c.addi4spn	x10,x2,388
 422:	0000                	c.unimp
 424:	0374                	c.addi4spn	x13,x2,396
 426:	0000                	c.unimp
 428:	0378                	c.addi4spn	x14,x2,396
 42a:	0000                	c.unimp
 42c:	047c                	c.addi4spn	x15,x2,524
 42e:	0000                	c.unimp
 430:	0484                	c.addi4spn	x9,x2,576
 432:	0000                	c.unimp
 434:	04e4                	c.addi4spn	x9,x2,588
 436:	0000                	c.unimp
 438:	04e8                	c.addi4spn	x10,x2,588
 43a:	0000                	c.unimp
 43c:	053c                	c.addi4spn	x15,x2,648
 43e:	0000                	c.unimp
 440:	0544                	c.addi4spn	x9,x2,644
 442:	0000                	c.unimp
 444:	0550                	c.addi4spn	x12,x2,644
 446:	0000                	c.unimp
 448:	0558                	c.addi4spn	x14,x2,644
 44a:	0000                	c.unimp
 44c:	05b0                	c.addi4spn	x12,x2,712
 44e:	0000                	c.unimp
 450:	05b8                	c.addi4spn	x14,x2,712
 452:	0000                	c.unimp
 454:	06e4                	c.addi4spn	x9,x2,844
 456:	0000                	c.unimp
 458:	07a0                	c.addi4spn	x8,x2,968
 45a:	0000                	c.unimp
 45c:	07a8                	c.addi4spn	x10,x2,968
 45e:	0000                	c.unimp
 460:	07b0                	c.addi4spn	x12,x2,968
 462:	0000                	c.unimp
 464:	07e0                	c.addi4spn	x8,x2,972
	...
 46e:	0000                	c.unimp
 470:	0360                	c.addi4spn	x8,x2,396
 472:	0000                	c.unimp
 474:	0370                	c.addi4spn	x12,x2,396
 476:	0000                	c.unimp
 478:	0370                	c.addi4spn	x12,x2,396
 47a:	0000                	c.unimp
 47c:	0374                	c.addi4spn	x13,x2,396
	...
 486:	0000                	c.unimp
 488:	03b8                	c.addi4spn	x14,x2,456
 48a:	0000                	c.unimp
 48c:	03c8                	c.addi4spn	x10,x2,452
 48e:	0000                	c.unimp
 490:	03c8                	c.addi4spn	x10,x2,452
 492:	0000                	c.unimp
 494:	03cc                	c.addi4spn	x11,x2,452
	...
 49e:	0000                	c.unimp
 4a0:	03d8                	c.addi4spn	x14,x2,452
 4a2:	0000                	c.unimp
 4a4:	03e8                	c.addi4spn	x10,x2,460
 4a6:	0000                	c.unimp
 4a8:	05f8                	c.addi4spn	x14,x2,716
 4aa:	0000                	c.unimp
 4ac:	0668                	c.addi4spn	x10,x2,780
 4ae:	0000                	c.unimp
 4b0:	067c                	c.addi4spn	x15,x2,780
 4b2:	0000                	c.unimp
 4b4:	06e4                	c.addi4spn	x9,x2,844
	...
 4be:	0000                	c.unimp
 4c0:	0564                	c.addi4spn	x9,x2,652
 4c2:	0000                	c.unimp
 4c4:	0574                	c.addi4spn	x13,x2,652
 4c6:	0000                	c.unimp
 4c8:	05a0                	c.addi4spn	x8,x2,712
 4ca:	0000                	c.unimp
 4cc:	05a8                	c.addi4spn	x10,x2,712
	...
 4d6:	0000                	c.unimp
 4d8:	02d0                	c.addi4spn	x12,x2,324
 4da:	0000                	c.unimp
 4dc:	02f8                	c.addi4spn	x14,x2,332
 4de:	0000                	c.unimp
 4e0:	070c                	c.addi4spn	x11,x2,896
 4e2:	0000                	c.unimp
 4e4:	0760                	c.addi4spn	x8,x2,908
 4e6:	0000                	c.unimp
 4e8:	07e0                	c.addi4spn	x8,x2,972
 4ea:	0000                	c.unimp
 4ec:	07ec                	c.addi4spn	x11,x2,972
	...
 4f6:	0000                	c.unimp
 4f8:	0760                	c.addi4spn	x8,x2,908
 4fa:	0000                	c.unimp
 4fc:	076c                	c.addi4spn	x11,x2,908
 4fe:	0000                	c.unimp
 500:	0774                	c.addi4spn	x13,x2,908
 502:	0000                	c.unimp
 504:	0788                	c.addi4spn	x10,x2,960
	...

00000510 <.Ldebug_ranges0>:
 510:	0000                	c.unimp
 512:	0000                	c.unimp
 514:	0010                	0x10
 516:	0000                	c.unimp
 518:	0014                	0x14
 51a:	0000                	c.unimp
 51c:	001c                	0x1c
	...

00000528 <.Ldebug_ranges0>:
	...
 530:	0010                	0x10
 532:	0000                	c.unimp
 534:	0054                	c.addi4spn	x13,x2,4
 536:	0000                	c.unimp
 538:	0088                	c.addi4spn	x10,x2,64
 53a:	0000                	c.unimp
 53c:	00a8                	c.addi4spn	x10,x2,72
	...
 546:	0000                	c.unimp
 548:	0014                	0x14
 54a:	0000                	c.unimp
 54c:	0054                	c.addi4spn	x13,x2,4
 54e:	0000                	c.unimp
 550:	0088                	c.addi4spn	x10,x2,64
 552:	0000                	c.unimp
 554:	0094                	c.addi4spn	x13,x2,64
	...
 55e:	0000                	c.unimp
 560:	0024                	c.addi4spn	x9,x2,8
 562:	0000                	c.unimp
 564:	0030                	c.addi4spn	x12,x2,8
 566:	0000                	c.unimp
 568:	0034                	c.addi4spn	x13,x2,8
 56a:	0000                	c.unimp
 56c:	0038                	c.addi4spn	x14,x2,8
	...
 576:	0000                	c.unimp
 578:	0054                	c.addi4spn	x13,x2,4
 57a:	0000                	c.unimp
 57c:	0068                	c.addi4spn	x10,x2,12
 57e:	0000                	c.unimp
 580:	006c                	c.addi4spn	x11,x2,12
 582:	0000                	c.unimp
 584:	0070                	c.addi4spn	x12,x2,12
	...

00000590 <.Ldebug_ranges0>:
 590:	0000                	c.unimp
 592:	0000                	c.unimp
 594:	0014                	0x14
 596:	0000                	c.unimp
 598:	0014                	0x14
 59a:	0000                	c.unimp
 59c:	0030                	c.addi4spn	x12,x2,8
 59e:	0000                	c.unimp
 5a0:	0038                	c.addi4spn	x14,x2,8
 5a2:	0000                	c.unimp
 5a4:	004c                	c.addi4spn	x11,x2,4
	...

Disassembly of section .debug_line:

00000000 <.Ldebug_line0>:
       0:	0246                	c.slli	x4,0x11
       2:	0000                	c.unimp
       4:	00610003          	lb	x0,6(x2) # 6 <.Ldebug_line0+0x6>
       8:	0000                	c.unimp
       a:	0101                	c.addi	x2,0
       c:	000d0efb          	0xd0efb
      10:	0101                	c.addi	x2,0
      12:	0101                	c.addi	x2,0
      14:	0000                	c.unimp
      16:	0100                	c.addi4spn	x8,x2,128
      18:	0000                	c.unimp
      1a:	2e01                	c.jal	32a <.L27+0x1e>
      1c:	2f2e                	c.fldsp	f30,200(x2)
      1e:	2e2e                	c.fldsp	f28,200(x2)
      20:	2f2e2e2f          	0x2f2e2e2f
      24:	2f2e                	c.fldsp	f30,200(x2)
      26:	6972                	c.flwsp	f18,28(x2)
      28:	2d766373          	csrrsi	x6,0x2d7,12
      2c:	2f636367          	0x2f636367
      30:	696c                	c.flw	f11,84(x10)
      32:	6762                	c.flwsp	f14,24(x2)
      34:	732f6363          	bltu	x30,x18,75a <.LASF15+0x4>
      38:	2d74666f          	jal	x12,46b0e <.LC1+0x42976>
      3c:	7066                	c.flwsp	f0,120(x2)
      3e:	2e00                	c.fld	f8,24(x12)
      40:	0000                	c.unimp
      42:	7165                	c.addi16sp	x2,-400
      44:	6664                	c.flw	f9,76(x12)
      46:	2e32                	c.fldsp	f28,264(x2)
      48:	00010063          	beq	x2,x0,48 <.Ldebug_ranges0>
      4c:	7300                	c.flw	f8,32(x14)
      4e:	7066                	c.flwsp	f0,120(x2)
      50:	6d2d                	c.lui	x26,0xb
      52:	6361                	c.lui	x6,0x18
      54:	6968                	c.flw	f10,84(x10)
      56:	656e                	c.flwsp	f10,216(x2)
      58:	682e                	c.flwsp	f16,200(x2)
      5a:	0200                	c.addi4spn	x8,x2,256
      5c:	0000                	c.unimp
      5e:	6f64                	c.flw	f9,92(x14)
      60:	6275                	c.lui	x4,0x1d
      62:	656c                	c.flw	f11,76(x10)
      64:	682e                	c.flwsp	f16,200(x2)
      66:	0100                	c.addi4spn	x8,x2,128
      68:	0000                	c.unimp
      6a:	0500                	c.addi4spn	x8,x2,640
      6c:	0001                	c.addi	x0,0
      6e:	0205                	c.addi	x4,1
      70:	0930                	c.addi4spn	x12,x2,152
      72:	0000                	c.unimp
      74:	05012303          	lw	x6,80(x2)
      78:	09010303          	lb	x6,144(x2)
      7c:	0000                	c.unimp
      7e:	0301                	c.addi	x6,0
      80:	0900                	c.addi4spn	x8,x2,144
      82:	0000                	c.unimp
      84:	0501                	c.addi	x10,0
      86:	030d                	c.addi	x6,3
      88:	0900                	c.addi4spn	x8,x2,144
      8a:	0000                	c.unimp
      8c:	0501                	c.addi	x10,0
      8e:	09010303          	lb	x6,144(x2)
      92:	0000                	c.unimp
      94:	0301                	c.addi	x6,0
      96:	0900                	c.addi4spn	x8,x2,144
      98:	0000                	c.unimp
      9a:	0301                	c.addi	x6,0
      9c:	0900                	c.addi4spn	x8,x2,144
      9e:	0000                	c.unimp
      a0:	0301                	c.addi	x6,0
      a2:	0900                	c.addi4spn	x8,x2,144
      a4:	0000                	c.unimp
      a6:	0301                	c.addi	x6,0
      a8:	0901                	c.addi	x18,0
      aa:	0000                	c.unimp
      ac:	0301                	c.addi	x6,0
      ae:	0900                	c.addi4spn	x8,x2,144
      b0:	0000                	c.unimp
      b2:	0301                	c.addi	x6,0
      b4:	0900                	c.addi4spn	x8,x2,144
      b6:	0000                	c.unimp
      b8:	0301                	c.addi	x6,0
      ba:	0900                	c.addi4spn	x8,x2,144
      bc:	0000                	c.unimp
      be:	0301                	c.addi	x6,0
      c0:	0901                	c.addi	x18,0
      c2:	0000                	c.unimp
      c4:	0301                	c.addi	x6,0
      c6:	0902                	c.slli64	x18
      c8:	0000                	c.unimp
      ca:	0301                	c.addi	x6,0
      cc:	0901                	c.addi	x18,0
      ce:	0000                	c.unimp
      d0:	0301                	c.addi	x6,0
      d2:	0900                	c.addi4spn	x8,x2,144
      d4:	0000                	c.unimp
      d6:	0301                	c.addi	x6,0
      d8:	0900                	c.addi4spn	x8,x2,144
      da:	0000                	c.unimp
      dc:	0301                	c.addi	x6,0
      de:	0900                	c.addi4spn	x8,x2,144
      e0:	0000                	c.unimp
      e2:	0601                	c.addi	x12,0
      e4:	0c090103          	lb	x2,192(x18) # 40c0 <__clz_tab+0x58>
      e8:	0100                	c.addi4spn	x8,x2,128
      ea:	0105                	c.addi	x2,1
      ec:	04097803          	0x4097803
      f0:	0100                	c.addi4spn	x8,x2,128
      f2:	0305                	c.addi	x6,1
      f4:	0306                	c.slli	x6,0x1
      f6:	00080907          	0x80907
      fa:	0601                	c.addi	x12,0
      fc:	04090203          	lb	x4,64(x18)
     100:	0100                	c.addi4spn	x8,x2,128
     102:	04097e03          	0x4097e03
     106:	0100                	c.addi4spn	x8,x2,128
     108:	0306                	c.slli	x6,0x1
     10a:	0900                	c.addi4spn	x8,x2,144
     10c:	0004                	0x4
     10e:	0301                	c.addi	x6,0
     110:	0900                	c.addi4spn	x8,x2,144
     112:	0000                	c.unimp
     114:	0601                	c.addi	x12,0
     116:	04090103          	lb	x2,64(x18)
     11a:	0100                	c.addi4spn	x8,x2,128
     11c:	04097f03          	0x4097f03
     120:	0100                	c.addi4spn	x8,x2,128
     122:	0306                	c.slli	x6,0x1
     124:	0900                	c.addi4spn	x8,x2,144
     126:	0004                	0x4
     128:	0301                	c.addi	x6,0
     12a:	0901                	c.addi	x18,0
     12c:	0000                	c.unimp
     12e:	0301                	c.addi	x6,0
     130:	0900                	c.addi4spn	x8,x2,144
     132:	0000                	c.unimp
     134:	0301                	c.addi	x6,0
     136:	0900                	c.addi4spn	x8,x2,144
     138:	0000                	c.unimp
     13a:	0301                	c.addi	x6,0
     13c:	0900                	c.addi4spn	x8,x2,144
     13e:	0000                	c.unimp
     140:	0301                	c.addi	x6,0
     142:	0900                	c.addi4spn	x8,x2,144
     144:	0000                	c.unimp
     146:	0301                	c.addi	x6,0
     148:	0900                	c.addi4spn	x8,x2,144
     14a:	0000                	c.unimp
     14c:	0301                	c.addi	x6,0
     14e:	0900                	c.addi4spn	x8,x2,144
     150:	0004                	0x4
     152:	0301                	c.addi	x6,0
     154:	0900                	c.addi4spn	x8,x2,144
     156:	0004                	0x4
     158:	0301                	c.addi	x6,0
     15a:	0901                	c.addi	x18,0
     15c:	0000                	c.unimp
     15e:	0301                	c.addi	x6,0
     160:	0900                	c.addi4spn	x8,x2,144
     162:	0000                	c.unimp
     164:	0301                	c.addi	x6,0
     166:	0900                	c.addi4spn	x8,x2,144
     168:	0000                	c.unimp
     16a:	0301                	c.addi	x6,0
     16c:	0900                	c.addi4spn	x8,x2,144
     16e:	0000                	c.unimp
     170:	0301                	c.addi	x6,0
     172:	0900                	c.addi4spn	x8,x2,144
     174:	0000                	c.unimp
     176:	0001                	c.addi	x0,0
     178:	0402                	c.slli64	x8
     17a:	0614                	c.addi4spn	x13,x2,768
     17c:	04090003          	lb	x0,64(x18)
     180:	0100                	c.addi4spn	x8,x2,128
     182:	0c090003          	lb	x0,192(x18)
     186:	0100                	c.addi4spn	x8,x2,128
     188:	0105                	c.addi	x2,1
     18a:	04090403          	lb	x8,64(x18)
     18e:	0100                	c.addi4spn	x8,x2,128
     190:	0305                	c.addi	x6,1
     192:	0200                	c.addi4spn	x8,x2,256
     194:	1704                	c.addi4spn	x9,x2,928
     196:	04097c03          	0x4097c03
     19a:	0100                	c.addi4spn	x8,x2,128
     19c:	0200                	c.addi4spn	x8,x2,256
     19e:	1804                	c.addi4spn	x9,x2,48
     1a0:	04090003          	lb	x0,64(x18)
     1a4:	0100                	c.addi4spn	x8,x2,128
     1a6:	0200                	c.addi4spn	x8,x2,256
     1a8:	4e04                	c.lw	x9,24(x12)
     1aa:	0306                	c.slli	x6,0x1
     1ac:	0900                	c.addi4spn	x8,x2,144
     1ae:	000c                	0xc
     1b0:	0001                	c.addi	x0,0
     1b2:	0402                	c.slli64	x8
     1b4:	034e                	c.slli	x6,0x13
     1b6:	0900                	c.addi4spn	x8,x2,144
     1b8:	0000                	c.unimp
     1ba:	0001                	c.addi	x0,0
     1bc:	0402                	c.slli64	x8
     1be:	034e                	c.slli	x6,0x13
     1c0:	0900                	c.addi4spn	x8,x2,144
     1c2:	0000                	c.unimp
     1c4:	0001                	c.addi	x0,0
     1c6:	0402                	c.slli64	x8
     1c8:	034e                	c.slli	x6,0x13
     1ca:	0900                	c.addi4spn	x8,x2,144
     1cc:	0000                	c.unimp
     1ce:	0001                	c.addi	x0,0
     1d0:	0402                	c.slli64	x8
     1d2:	034e                	c.slli	x6,0x13
     1d4:	0900                	c.addi4spn	x8,x2,144
     1d6:	0000                	c.unimp
     1d8:	0001                	c.addi	x0,0
     1da:	0402                	c.slli64	x8
     1dc:	034e                	c.slli	x6,0x13
     1de:	0900                	c.addi4spn	x8,x2,144
     1e0:	0000                	c.unimp
     1e2:	0001                	c.addi	x0,0
     1e4:	0402                	c.slli64	x8
     1e6:	034e                	c.slli	x6,0x13
     1e8:	0900                	c.addi4spn	x8,x2,144
     1ea:	0000                	c.unimp
     1ec:	0001                	c.addi	x0,0
     1ee:	0402                	c.slli64	x8
     1f0:	034e                	c.slli	x6,0x13
     1f2:	0900                	c.addi4spn	x8,x2,144
     1f4:	0000                	c.unimp
     1f6:	0001                	c.addi	x0,0
     1f8:	0402                	c.slli64	x8
     1fa:	034e                	c.slli	x6,0x13
     1fc:	0900                	c.addi4spn	x8,x2,144
     1fe:	0000                	c.unimp
     200:	0001                	c.addi	x0,0
     202:	0402                	c.slli64	x8
     204:	034e                	c.slli	x6,0x13
     206:	0900                	c.addi4spn	x8,x2,144
     208:	0000                	c.unimp
     20a:	0001                	c.addi	x0,0
     20c:	0402                	c.slli64	x8
     20e:	0650                	c.addi4spn	x12,x2,772
     210:	08090003          	lb	x0,128(x18)
     214:	0100                	c.addi4spn	x8,x2,128
     216:	0200                	c.addi4spn	x8,x2,256
     218:	5204                	c.lw	x9,32(x12)
     21a:	04090003          	lb	x0,64(x18)
     21e:	0100                	c.addi4spn	x8,x2,128
     220:	0200                	c.addi4spn	x8,x2,256
     222:	5404                	c.lw	x9,40(x8)
     224:	04090003          	lb	x0,64(x18)
     228:	0100                	c.addi4spn	x8,x2,128
     22a:	0200                	c.addi4spn	x8,x2,256
     22c:	5504                	c.lw	x9,40(x10)
     22e:	04090003          	lb	x0,64(x18)
     232:	0100                	c.addi4spn	x8,x2,128
     234:	0200                	c.addi4spn	x8,x2,256
     236:	5804                	c.lw	x9,48(x8)
     238:	04090003          	lb	x0,64(x18)
     23c:	0100                	c.addi4spn	x8,x2,128
     23e:	0c090003          	lb	x0,192(x18)
     242:	0100                	c.addi4spn	x8,x2,128
     244:	0809                	c.addi	x16,2
     246:	0000                	c.unimp
     248:	0101                	c.addi	x2,0

0000024a <.Ldebug_line0>:
     24a:	000002db          	0x2db
     24e:	00610003          	lb	x0,6(x2)
     252:	0000                	c.unimp
     254:	0101                	c.addi	x2,0
     256:	000d0efb          	0xd0efb
     25a:	0101                	c.addi	x2,0
     25c:	0101                	c.addi	x2,0
     25e:	0000                	c.unimp
     260:	0100                	c.addi4spn	x8,x2,128
     262:	0000                	c.unimp
     264:	2e01                	c.jal	574 <.LASF23+0x12>
     266:	2f2e                	c.fldsp	f30,200(x2)
     268:	2e2e                	c.fldsp	f28,200(x2)
     26a:	2f2e2e2f          	0x2f2e2e2f
     26e:	2f2e                	c.fldsp	f30,200(x2)
     270:	6972                	c.flwsp	f18,28(x2)
     272:	2d766373          	csrrsi	x6,0x2d7,12
     276:	2f636367          	0x2f636367
     27a:	696c                	c.flw	f11,84(x10)
     27c:	6762                	c.flwsp	f14,24(x2)
     27e:	732f6363          	bltu	x30,x18,9a4 <.L5+0x14>
     282:	2d74666f          	jal	x12,46d58 <.LC1+0x42bc0>
     286:	7066                	c.flwsp	f0,120(x2)
     288:	2e00                	c.fld	f8,24(x12)
     28a:	0000                	c.unimp
     28c:	656c                	c.flw	f11,76(x10)
     28e:	6664                	c.flw	f9,76(x12)
     290:	2e32                	c.fldsp	f28,264(x2)
     292:	00010063          	beq	x2,x0,292 <.L35+0xe>
     296:	7300                	c.flw	f8,32(x14)
     298:	7066                	c.flwsp	f0,120(x2)
     29a:	6d2d                	c.lui	x26,0xb
     29c:	6361                	c.lui	x6,0x18
     29e:	6968                	c.flw	f10,84(x10)
     2a0:	656e                	c.flwsp	f10,216(x2)
     2a2:	682e                	c.flwsp	f16,200(x2)
     2a4:	0200                	c.addi4spn	x8,x2,256
     2a6:	0000                	c.unimp
     2a8:	6f64                	c.flw	f9,92(x14)
     2aa:	6275                	c.lui	x4,0x1d
     2ac:	656c                	c.flw	f11,76(x10)
     2ae:	682e                	c.flwsp	f16,200(x2)
     2b0:	0100                	c.addi4spn	x8,x2,128
     2b2:	0000                	c.unimp
     2b4:	0500                	c.addi4spn	x8,x2,640
     2b6:	0001                	c.addi	x0,0
     2b8:	0205                	c.addi	x4,1
     2ba:	09bc                	c.addi4spn	x15,x2,216
     2bc:	0000                	c.unimp
     2be:	05012303          	lw	x6,80(x2)
     2c2:	09010303          	lb	x6,144(x2)
     2c6:	0000                	c.unimp
     2c8:	0301                	c.addi	x6,0
     2ca:	0900                	c.addi4spn	x8,x2,144
     2cc:	0000                	c.unimp
     2ce:	0501                	c.addi	x10,0
     2d0:	030d                	c.addi	x6,3
     2d2:	0900                	c.addi4spn	x8,x2,144
     2d4:	0000                	c.unimp
     2d6:	0501                	c.addi	x10,0
     2d8:	09010303          	lb	x6,144(x2)
     2dc:	0000                	c.unimp
     2de:	0301                	c.addi	x6,0
     2e0:	0900                	c.addi4spn	x8,x2,144
     2e2:	0000                	c.unimp
     2e4:	0301                	c.addi	x6,0
     2e6:	0900                	c.addi4spn	x8,x2,144
     2e8:	0000                	c.unimp
     2ea:	0301                	c.addi	x6,0
     2ec:	0900                	c.addi4spn	x8,x2,144
     2ee:	0000                	c.unimp
     2f0:	0301                	c.addi	x6,0
     2f2:	0901                	c.addi	x18,0
     2f4:	0000                	c.unimp
     2f6:	0301                	c.addi	x6,0
     2f8:	0900                	c.addi4spn	x8,x2,144
     2fa:	0000                	c.unimp
     2fc:	0301                	c.addi	x6,0
     2fe:	0900                	c.addi4spn	x8,x2,144
     300:	0000                	c.unimp
     302:	0301                	c.addi	x6,0
     304:	0900                	c.addi4spn	x8,x2,144
     306:	0000                	c.unimp
     308:	0301                	c.addi	x6,0
     30a:	0901                	c.addi	x18,0
     30c:	0000                	c.unimp
     30e:	0301                	c.addi	x6,0
     310:	0902                	c.slli64	x18
     312:	0000                	c.unimp
     314:	0301                	c.addi	x6,0
     316:	0901                	c.addi	x18,0
     318:	0000                	c.unimp
     31a:	0301                	c.addi	x6,0
     31c:	0900                	c.addi4spn	x8,x2,144
     31e:	0000                	c.unimp
     320:	0301                	c.addi	x6,0
     322:	0900                	c.addi4spn	x8,x2,144
     324:	0000                	c.unimp
     326:	0301                	c.addi	x6,0
     328:	0900                	c.addi4spn	x8,x2,144
     32a:	0000                	c.unimp
     32c:	0501                	c.addi	x10,0
     32e:	0601                	c.addi	x12,0
     330:	10097903          	0x10097903
     334:	0100                	c.addi4spn	x8,x2,128
     336:	0305                	c.addi	x6,1
     338:	0306                	c.slli	x6,0x1
     33a:	00080907          	0x80907
     33e:	0301                	c.addi	x6,0
     340:	0900                	c.addi4spn	x8,x2,144
     342:	0000                	c.unimp
     344:	0301                	c.addi	x6,0
     346:	0900                	c.addi4spn	x8,x2,144
     348:	0004                	0x4
     34a:	0301                	c.addi	x6,0
     34c:	0900                	c.addi4spn	x8,x2,144
     34e:	0004                	0x4
     350:	0301                	c.addi	x6,0
     352:	0901                	c.addi	x18,0
     354:	0000                	c.unimp
     356:	0301                	c.addi	x6,0
     358:	0900                	c.addi4spn	x8,x2,144
     35a:	0000                	c.unimp
     35c:	0301                	c.addi	x6,0
     35e:	0900                	c.addi4spn	x8,x2,144
     360:	0000                	c.unimp
     362:	0301                	c.addi	x6,0
     364:	0900                	c.addi4spn	x8,x2,144
     366:	0000                	c.unimp
     368:	0601                	c.addi	x12,0
     36a:	00090103          	lb	x2,0(x18)
     36e:	0100                	c.addi4spn	x8,x2,128
     370:	04097f03          	0x4097f03
     374:	0100                	c.addi4spn	x8,x2,128
     376:	0306                	c.slli	x6,0x1
     378:	0900                	c.addi4spn	x8,x2,144
     37a:	000c                	0xc
     37c:	0301                	c.addi	x6,0
     37e:	0900                	c.addi4spn	x8,x2,144
     380:	0000                	c.unimp
     382:	0301                	c.addi	x6,0
     384:	0900                	c.addi4spn	x8,x2,144
     386:	0004                	0x4
     388:	0301                	c.addi	x6,0
     38a:	0900                	c.addi4spn	x8,x2,144
     38c:	0004                	0x4
     38e:	0301                	c.addi	x6,0
     390:	0901                	c.addi	x18,0
     392:	0000                	c.unimp
     394:	0301                	c.addi	x6,0
     396:	0900                	c.addi4spn	x8,x2,144
     398:	0000                	c.unimp
     39a:	0301                	c.addi	x6,0
     39c:	0900                	c.addi4spn	x8,x2,144
     39e:	0000                	c.unimp
     3a0:	0301                	c.addi	x6,0
     3a2:	0900                	c.addi4spn	x8,x2,144
     3a4:	0000                	c.unimp
     3a6:	0301                	c.addi	x6,0
     3a8:	0900                	c.addi4spn	x8,x2,144
     3aa:	0000                	c.unimp
     3ac:	0001                	c.addi	x0,0
     3ae:	0402                	c.slli64	x8
     3b0:	0614                	c.addi4spn	x13,x2,768
     3b2:	04090003          	lb	x0,64(x18)
     3b6:	0100                	c.addi4spn	x8,x2,128
     3b8:	08090003          	lb	x0,128(x18)
     3bc:	0100                	c.addi4spn	x8,x2,128
     3be:	0200                	c.addi4spn	x8,x2,256
     3c0:	1704                	c.addi4spn	x9,x2,928
     3c2:	08090003          	lb	x0,128(x18)
     3c6:	0100                	c.addi4spn	x8,x2,128
     3c8:	0200                	c.addi4spn	x8,x2,256
     3ca:	1804                	c.addi4spn	x9,x2,48
     3cc:	04090003          	lb	x0,64(x18)
     3d0:	0100                	c.addi4spn	x8,x2,128
     3d2:	0200                	c.addi4spn	x8,x2,256
     3d4:	3e04                	c.fld	f9,56(x12)
     3d6:	0306                	c.slli	x6,0x1
     3d8:	0900                	c.addi4spn	x8,x2,144
     3da:	0008                	0x8
     3dc:	0001                	c.addi	x0,0
     3de:	0402                	c.slli64	x8
     3e0:	033e                	c.slli	x6,0xf
     3e2:	0900                	c.addi4spn	x8,x2,144
     3e4:	0000                	c.unimp
     3e6:	0001                	c.addi	x0,0
     3e8:	0402                	c.slli64	x8
     3ea:	033e                	c.slli	x6,0xf
     3ec:	0900                	c.addi4spn	x8,x2,144
     3ee:	0000                	c.unimp
     3f0:	0001                	c.addi	x0,0
     3f2:	0402                	c.slli64	x8
     3f4:	033e                	c.slli	x6,0xf
     3f6:	0900                	c.addi4spn	x8,x2,144
     3f8:	0000                	c.unimp
     3fa:	0001                	c.addi	x0,0
     3fc:	0402                	c.slli64	x8
     3fe:	033e                	c.slli	x6,0xf
     400:	0900                	c.addi4spn	x8,x2,144
     402:	0000                	c.unimp
     404:	0001                	c.addi	x0,0
     406:	0402                	c.slli64	x8
     408:	033e                	c.slli	x6,0xf
     40a:	0900                	c.addi4spn	x8,x2,144
     40c:	0000                	c.unimp
     40e:	0001                	c.addi	x0,0
     410:	0402                	c.slli64	x8
     412:	033e                	c.slli	x6,0xf
     414:	0900                	c.addi4spn	x8,x2,144
     416:	0000                	c.unimp
     418:	0001                	c.addi	x0,0
     41a:	0402                	c.slli64	x8
     41c:	033e                	c.slli	x6,0xf
     41e:	0900                	c.addi4spn	x8,x2,144
     420:	0000                	c.unimp
     422:	0001                	c.addi	x0,0
     424:	0402                	c.slli64	x8
     426:	033e                	c.slli	x6,0xf
     428:	0900                	c.addi4spn	x8,x2,144
     42a:	0000                	c.unimp
     42c:	0001                	c.addi	x0,0
     42e:	0402                	c.slli64	x8
     430:	033e                	c.slli	x6,0xf
     432:	0900                	c.addi4spn	x8,x2,144
     434:	0000                	c.unimp
     436:	0001                	c.addi	x0,0
     438:	0402                	c.slli64	x8
     43a:	033e                	c.slli	x6,0xf
     43c:	0900                	c.addi4spn	x8,x2,144
     43e:	0000                	c.unimp
     440:	0001                	c.addi	x0,0
     442:	0402                	c.slli64	x8
     444:	033e                	c.slli	x6,0xf
     446:	0900                	c.addi4spn	x8,x2,144
     448:	0000                	c.unimp
     44a:	0001                	c.addi	x0,0
     44c:	0402                	c.slli64	x8
     44e:	0003063f 01000409 	0x10004090003063f
     456:	0200                	c.addi4spn	x8,x2,256
     458:	3f04                	c.fld	f9,56(x14)
     45a:	0306                	c.slli	x6,0x1
     45c:	0900                	c.addi4spn	x8,x2,144
     45e:	0008                	0x8
     460:	0001                	c.addi	x0,0
     462:	0402                	c.slli64	x8
     464:	0645                	c.addi	x12,17
     466:	04090003          	lb	x0,64(x18)
     46a:	0100                	c.addi4spn	x8,x2,128
     46c:	0306                	c.slli	x6,0x1
     46e:	0900                	c.addi4spn	x8,x2,144
     470:	0008                	0x8
     472:	0301                	c.addi	x6,0
     474:	0900                	c.addi4spn	x8,x2,144
     476:	0004                	0x4
     478:	0301                	c.addi	x6,0
     47a:	0900                	c.addi4spn	x8,x2,144
     47c:	0000                	c.unimp
     47e:	0301                	c.addi	x6,0
     480:	0900                	c.addi4spn	x8,x2,144
     482:	0000                	c.unimp
     484:	0001                	c.addi	x0,0
     486:	0402                	c.slli64	x8
     488:	035f 0900 0004      	0x40900035f
     48e:	0001                	c.addi	x0,0
     490:	0402                	c.slli64	x8
     492:	09000377          	0x9000377
     496:	0004                	0x4
     498:	0601                	c.addi	x12,0
     49a:	04090003          	lb	x0,64(x18)
     49e:	0100                	c.addi4spn	x8,x2,128
     4a0:	0200                	c.addi4spn	x8,x2,256
     4a2:	5004                	c.lw	x9,32(x8)
     4a4:	0306                	c.slli	x6,0x1
     4a6:	0900                	c.addi4spn	x8,x2,144
     4a8:	0008                	0x8
     4aa:	0001                	c.addi	x0,0
     4ac:	0402                	c.slli64	x8
     4ae:	0350                	c.addi4spn	x12,x2,388
     4b0:	0900                	c.addi4spn	x8,x2,144
     4b2:	0000                	c.unimp
     4b4:	0601                	c.addi	x12,0
     4b6:	08090003          	lb	x0,128(x18)
     4ba:	0100                	c.addi4spn	x8,x2,128
     4bc:	0200                	c.addi4spn	x8,x2,256
     4be:	6604                	c.flw	f9,8(x12)
     4c0:	0306                	c.slli	x6,0x1
     4c2:	0900                	c.addi4spn	x8,x2,144
     4c4:	0008                	0x8
     4c6:	0001                	c.addi	x0,0
     4c8:	01820403          	lb	x8,24(x4) # 1d018 <.LC1+0x18e80>
     4cc:	04090003          	lb	x0,64(x18)
     4d0:	0100                	c.addi4spn	x8,x2,128
     4d2:	0105                	c.addi	x2,1
     4d4:	0306                	c.slli	x6,0x1
     4d6:	0904                	c.addi4spn	x9,x2,144
     4d8:	0004                	0x4
     4da:	0501                	c.addi	x10,0
     4dc:	04020003          	lb	x0,64(x4) # 40 <.L15+0x8>
     4e0:	066d                	c.addi	x12,27
     4e2:	04097c03          	0x4097c03
     4e6:	0100                	c.addi4spn	x8,x2,128
     4e8:	0200                	c.addi4spn	x8,x2,256
     4ea:	7404                	c.flw	f9,40(x8)
     4ec:	0306                	c.slli	x6,0x1
     4ee:	0900                	c.addi4spn	x8,x2,144
     4f0:	0004                	0x4
     4f2:	0001                	c.addi	x0,0
     4f4:	0402                	c.slli64	x8
     4f6:	0375                	c.addi	x6,29
     4f8:	0900                	c.addi4spn	x8,x2,144
     4fa:	0004                	0x4
     4fc:	0001                	c.addi	x0,0
     4fe:	01800403          	lb	x8,24(x0) # 18 <_finish>
     502:	0306                	c.slli	x6,0x1
     504:	0900                	c.addi4spn	x8,x2,144
     506:	0004                	0x4
     508:	0601                	c.addi	x12,0
     50a:	04090003          	lb	x0,64(x18)
     50e:	0100                	c.addi4spn	x8,x2,128
     510:	0306                	c.slli	x6,0x1
     512:	0900                	c.addi4spn	x8,x2,144
     514:	0010                	0x10
     516:	0301                	c.addi	x6,0
     518:	0900                	c.addi4spn	x8,x2,144
     51a:	0008                	0x8
     51c:	0301                	c.addi	x6,0
     51e:	0900                	c.addi4spn	x8,x2,144
     520:	000c                	0xc
     522:	0901                	c.addi	x18,0
     524:	000c                	0xc
     526:	0100                	c.addi4spn	x8,x2,128
     528:	                	c.addi	x22,-32

00000529 <.Ldebug_line0>:
     529:	0000101b          	0x101b
     52d:	005c0003          	lb	x0,5(x24)
     531:	0000                	c.unimp
     533:	0101                	c.addi	x2,0
     535:	000d0efb          	0xd0efb
     539:	0101                	c.addi	x2,0
     53b:	0101                	c.addi	x2,0
     53d:	0000                	c.unimp
     53f:	0100                	c.addi4spn	x8,x2,128
     541:	0000                	c.unimp
     543:	2e01                	c.jal	853 <.L91+0x23>
     545:	2f2e                	c.fldsp	f30,200(x2)
     547:	2e2e                	c.fldsp	f28,200(x2)
     549:	2f2e2e2f          	0x2f2e2e2f
     54d:	2f2e                	c.fldsp	f30,200(x2)
     54f:	6972                	c.flwsp	f18,28(x2)
     551:	2d766373          	csrrsi	x6,0x2d7,12
     555:	2f636367          	0x2f636367
     559:	696c                	c.flw	f11,84(x10)
     55b:	6762                	c.flwsp	f14,24(x2)
     55d:	732f6363          	bltu	x30,x18,c83 <.L14+0x3>
     561:	2d74666f          	jal	x12,47037 <.LC1+0x42e9f>
     565:	7066                	c.flwsp	f0,120(x2)
     567:	0000                	c.unimp
     569:	756d                	c.lui	x10,0xffffb
     56b:	646c                	c.flw	f11,76(x8)
     56d:	3366                	c.fldsp	f6,120(x2)
     56f:	632e                	c.flwsp	f6,200(x2)
     571:	0100                	c.addi4spn	x8,x2,128
     573:	0000                	c.unimp
     575:	74666f73          	csrrsi	x30,0x746,12
     579:	662d                	c.lui	x12,0xb
     57b:	2e70                	c.fld	f12,216(x12)
     57d:	0068                	c.addi4spn	x10,x2,12
     57f:	0001                	c.addi	x0,0
     581:	6400                	c.flw	f8,8(x8)
     583:	6c62756f          	jal	x10,27c49 <.LC1+0x23ab1>
     587:	2e65                	c.jal	93f <.LBB3+0x3>
     589:	0068                	c.addi4spn	x10,x2,12
     58b:	0001                	c.addi	x0,0
     58d:	0000                	c.unimp
     58f:	0105                	c.addi	x2,1
     591:	0500                	c.addi4spn	x8,x2,640
     593:	a002                	c.fsdsp	f0,0(x2)
     595:	000a                	c.slli	x0,0x2
     597:	0300                	c.addi4spn	x8,x2,384
     599:	03050123          	sb	x16,34(x10) # ffffb022 <.LC1+0xffff6e8a>
     59d:	00090103          	lb	x2,0(x18)
     5a1:	0100                	c.addi4spn	x8,x2,128
     5a3:	00090003          	lb	x0,0(x18)
     5a7:	0100                	c.addi4spn	x8,x2,128
     5a9:	0d05                	c.addi	x26,1
     5ab:	00090003          	lb	x0,0(x18)
     5af:	0100                	c.addi4spn	x8,x2,128
     5b1:	0305                	c.addi	x6,1
     5b3:	00090103          	lb	x2,0(x18)
     5b7:	0100                	c.addi4spn	x8,x2,128
     5b9:	00090003          	lb	x0,0(x18)
     5bd:	0100                	c.addi4spn	x8,x2,128
     5bf:	00090003          	lb	x0,0(x18)
     5c3:	0100                	c.addi4spn	x8,x2,128
     5c5:	00090003          	lb	x0,0(x18)
     5c9:	0100                	c.addi4spn	x8,x2,128
     5cb:	00090103          	lb	x2,0(x18)
     5cf:	0100                	c.addi4spn	x8,x2,128
     5d1:	00090003          	lb	x0,0(x18)
     5d5:	0100                	c.addi4spn	x8,x2,128
     5d7:	00090003          	lb	x0,0(x18)
     5db:	0100                	c.addi4spn	x8,x2,128
     5dd:	00090003          	lb	x0,0(x18)
     5e1:	0100                	c.addi4spn	x8,x2,128
     5e3:	00090103          	lb	x2,0(x18)
     5e7:	0100                	c.addi4spn	x8,x2,128
     5e9:	00090003          	lb	x0,0(x18)
     5ed:	0100                	c.addi4spn	x8,x2,128
     5ef:	00090003          	lb	x0,0(x18)
     5f3:	0100                	c.addi4spn	x8,x2,128
     5f5:	00090003          	lb	x0,0(x18)
     5f9:	0100                	c.addi4spn	x8,x2,128
     5fb:	00090103          	lb	x2,0(x18)
     5ff:	0100                	c.addi4spn	x8,x2,128
     601:	00090203          	lb	x4,0(x18)
     605:	0100                	c.addi4spn	x8,x2,128
     607:	00090103          	lb	x2,0(x18)
     60b:	0100                	c.addi4spn	x8,x2,128
     60d:	00090003          	lb	x0,0(x18)
     611:	0100                	c.addi4spn	x8,x2,128
     613:	00090003          	lb	x0,0(x18)
     617:	0100                	c.addi4spn	x8,x2,128
     619:	00090003          	lb	x0,0(x18)
     61d:	0100                	c.addi4spn	x8,x2,128
     61f:	00090003          	lb	x0,0(x18)
     623:	0100                	c.addi4spn	x8,x2,128
     625:	00090003          	lb	x0,0(x18)
     629:	0100                	c.addi4spn	x8,x2,128
     62b:	0105                	c.addi	x2,1
     62d:	0306                	c.slli	x6,0x1
     62f:	0978                	c.addi4spn	x14,x2,156
     631:	0000                	c.unimp
     633:	0501                	c.addi	x10,0
     635:	09080303          	lb	x6,144(x16)
     639:	0008                	0x8
     63b:	0501                	c.addi	x10,0
     63d:	0301                	c.addi	x6,0
     63f:	0978                	c.addi4spn	x14,x2,156
     641:	0004                	0x4
     643:	0501                	c.addi	x10,0
     645:	09080303          	lb	x6,144(x16)
     649:	0014                	0x14
     64b:	0501                	c.addi	x10,0
     64d:	0301                	c.addi	x6,0
     64f:	0978                	c.addi4spn	x14,x2,156
     651:	0004                	0x4
     653:	0501                	c.addi	x10,0
     655:	09080303          	lb	x6,144(x16)
     659:	000c                	0xc
     65b:	0501                	c.addi	x10,0
     65d:	0301                	c.addi	x6,0
     65f:	0978                	c.addi4spn	x14,x2,156
     661:	0004                	0x4
     663:	0501                	c.addi	x10,0
     665:	09080303          	lb	x6,144(x16)
     669:	000c                	0xc
     66b:	0601                	c.addi	x12,0
     66d:	04090003          	lb	x0,64(x18)
     671:	0100                	c.addi4spn	x8,x2,128
     673:	00090003          	lb	x0,0(x18)
     677:	0100                	c.addi4spn	x8,x2,128
     679:	04090003          	lb	x0,64(x18)
     67d:	0100                	c.addi4spn	x8,x2,128
     67f:	00090003          	lb	x0,0(x18)
     683:	0100                	c.addi4spn	x8,x2,128
     685:	00090003          	lb	x0,0(x18)
     689:	0100                	c.addi4spn	x8,x2,128
     68b:	0200                	c.addi4spn	x8,x2,256
     68d:	0104                	c.addi4spn	x9,x2,128
     68f:	0c090003          	lb	x0,192(x18)
     693:	0100                	c.addi4spn	x8,x2,128
     695:	0200                	c.addi4spn	x8,x2,256
     697:	0104                	c.addi4spn	x9,x2,128
     699:	00090003          	lb	x0,0(x18)
     69d:	0100                	c.addi4spn	x8,x2,128
     69f:	0200                	c.addi4spn	x8,x2,256
     6a1:	0104                	c.addi4spn	x9,x2,128
     6a3:	00090003          	lb	x0,0(x18)
     6a7:	0100                	c.addi4spn	x8,x2,128
     6a9:	0200                	c.addi4spn	x8,x2,256
     6ab:	0104                	c.addi4spn	x9,x2,128
     6ad:	00090003          	lb	x0,0(x18)
     6b1:	0100                	c.addi4spn	x8,x2,128
     6b3:	0200                	c.addi4spn	x8,x2,256
     6b5:	0104                	c.addi4spn	x9,x2,128
     6b7:	14090003          	lb	x0,320(x18)
     6bb:	0100                	c.addi4spn	x8,x2,128
     6bd:	0200                	c.addi4spn	x8,x2,256
     6bf:	0104                	c.addi4spn	x9,x2,128
     6c1:	04090003          	lb	x0,64(x18)
     6c5:	0100                	c.addi4spn	x8,x2,128
     6c7:	0200                	c.addi4spn	x8,x2,256
     6c9:	0104                	c.addi4spn	x9,x2,128
     6cb:	00090003          	lb	x0,0(x18)
     6cf:	0100                	c.addi4spn	x8,x2,128
     6d1:	0200                	c.addi4spn	x8,x2,256
     6d3:	0104                	c.addi4spn	x9,x2,128
     6d5:	04090003          	lb	x0,64(x18)
     6d9:	0100                	c.addi4spn	x8,x2,128
     6db:	0200                	c.addi4spn	x8,x2,256
     6dd:	0104                	c.addi4spn	x9,x2,128
     6df:	00090003          	lb	x0,0(x18)
     6e3:	0100                	c.addi4spn	x8,x2,128
     6e5:	0200                	c.addi4spn	x8,x2,256
     6e7:	2904                	c.fld	f9,16(x10)
     6e9:	00090003          	lb	x0,0(x18)
     6ed:	0100                	c.addi4spn	x8,x2,128
     6ef:	0200                	c.addi4spn	x8,x2,256
     6f1:	2904                	c.fld	f9,16(x10)
     6f3:	00090003          	lb	x0,0(x18)
     6f7:	0100                	c.addi4spn	x8,x2,128
     6f9:	0200                	c.addi4spn	x8,x2,256
     6fb:	0804                	c.addi4spn	x9,x2,16
     6fd:	04090003          	lb	x0,64(x18)
     701:	0100                	c.addi4spn	x8,x2,128
     703:	0200                	c.addi4spn	x8,x2,256
     705:	0804                	c.addi4spn	x9,x2,16
     707:	00090003          	lb	x0,0(x18)
     70b:	0100                	c.addi4spn	x8,x2,128
     70d:	0200                	c.addi4spn	x8,x2,256
     70f:	0804                	c.addi4spn	x9,x2,16
     711:	00090103          	lb	x2,0(x18)
     715:	0100                	c.addi4spn	x8,x2,128
     717:	0200                	c.addi4spn	x8,x2,256
     719:	0804                	c.addi4spn	x9,x2,16
     71b:	00090003          	lb	x0,0(x18)
     71f:	0100                	c.addi4spn	x8,x2,128
     721:	0200                	c.addi4spn	x8,x2,256
     723:	0804                	c.addi4spn	x9,x2,16
     725:	00090003          	lb	x0,0(x18)
     729:	0100                	c.addi4spn	x8,x2,128
     72b:	0200                	c.addi4spn	x8,x2,256
     72d:	0804                	c.addi4spn	x9,x2,16
     72f:	00090003          	lb	x0,0(x18)
     733:	0100                	c.addi4spn	x8,x2,128
     735:	0200                	c.addi4spn	x8,x2,256
     737:	0804                	c.addi4spn	x9,x2,16
     739:	00090003          	lb	x0,0(x18)
     73d:	0100                	c.addi4spn	x8,x2,128
     73f:	0200                	c.addi4spn	x8,x2,256
     741:	0804                	c.addi4spn	x9,x2,16
     743:	00090003          	lb	x0,0(x18)
     747:	0100                	c.addi4spn	x8,x2,128
     749:	0200                	c.addi4spn	x8,x2,256
     74b:	0804                	c.addi4spn	x9,x2,16
     74d:	10090003          	lb	x0,256(x18)
     751:	0100                	c.addi4spn	x8,x2,128
     753:	0200                	c.addi4spn	x8,x2,256
     755:	0804                	c.addi4spn	x9,x2,16
     757:	00090003          	lb	x0,0(x18)
     75b:	0100                	c.addi4spn	x8,x2,128
     75d:	0200                	c.addi4spn	x8,x2,256
     75f:	0804                	c.addi4spn	x9,x2,16
     761:	04090003          	lb	x0,64(x18)
     765:	0100                	c.addi4spn	x8,x2,128
     767:	0200                	c.addi4spn	x8,x2,256
     769:	0804                	c.addi4spn	x9,x2,16
     76b:	00090003          	lb	x0,0(x18)
     76f:	0100                	c.addi4spn	x8,x2,128
     771:	0200                	c.addi4spn	x8,x2,256
     773:	0804                	c.addi4spn	x9,x2,16
     775:	00090003          	lb	x0,0(x18)
     779:	0100                	c.addi4spn	x8,x2,128
     77b:	0306                	c.slli	x6,0x1
     77d:	0900                	c.addi4spn	x8,x2,144
     77f:	0004                	0x4
     781:	0001                	c.addi	x0,0
     783:	0402                	c.slli64	x8
     785:	0601                	c.addi	x12,0
     787:	08090003          	lb	x0,128(x18)
     78b:	0100                	c.addi4spn	x8,x2,128
     78d:	0200                	c.addi4spn	x8,x2,256
     78f:	0104                	c.addi4spn	x9,x2,128
     791:	00090003          	lb	x0,0(x18)
     795:	0100                	c.addi4spn	x8,x2,128
     797:	0200                	c.addi4spn	x8,x2,256
     799:	0104                	c.addi4spn	x9,x2,128
     79b:	00090003          	lb	x0,0(x18)
     79f:	0100                	c.addi4spn	x8,x2,128
     7a1:	0200                	c.addi4spn	x8,x2,256
     7a3:	0104                	c.addi4spn	x9,x2,128
     7a5:	00090003          	lb	x0,0(x18)
     7a9:	0100                	c.addi4spn	x8,x2,128
     7ab:	0200                	c.addi4spn	x8,x2,256
     7ad:	0104                	c.addi4spn	x9,x2,128
     7af:	14090003          	lb	x0,320(x18)
     7b3:	0100                	c.addi4spn	x8,x2,128
     7b5:	0200                	c.addi4spn	x8,x2,256
     7b7:	0104                	c.addi4spn	x9,x2,128
     7b9:	08090003          	lb	x0,128(x18)
     7bd:	0100                	c.addi4spn	x8,x2,128
     7bf:	0200                	c.addi4spn	x8,x2,256
     7c1:	0104                	c.addi4spn	x9,x2,128
     7c3:	00090003          	lb	x0,0(x18)
     7c7:	0100                	c.addi4spn	x8,x2,128
     7c9:	0200                	c.addi4spn	x8,x2,256
     7cb:	0104                	c.addi4spn	x9,x2,128
     7cd:	00090003          	lb	x0,0(x18)
     7d1:	0100                	c.addi4spn	x8,x2,128
     7d3:	0200                	c.addi4spn	x8,x2,256
     7d5:	0104                	c.addi4spn	x9,x2,128
     7d7:	00090003          	lb	x0,0(x18)
     7db:	0100                	c.addi4spn	x8,x2,128
     7dd:	0200                	c.addi4spn	x8,x2,256
     7df:	2904                	c.fld	f9,16(x10)
     7e1:	00090003          	lb	x0,0(x18)
     7e5:	0100                	c.addi4spn	x8,x2,128
     7e7:	0200                	c.addi4spn	x8,x2,256
     7e9:	2904                	c.fld	f9,16(x10)
     7eb:	00090003          	lb	x0,0(x18)
     7ef:	0100                	c.addi4spn	x8,x2,128
     7f1:	0200                	c.addi4spn	x8,x2,256
     7f3:	0804                	c.addi4spn	x9,x2,16
     7f5:	04090003          	lb	x0,64(x18)
     7f9:	0100                	c.addi4spn	x8,x2,128
     7fb:	0200                	c.addi4spn	x8,x2,256
     7fd:	0804                	c.addi4spn	x9,x2,16
     7ff:	00090003          	lb	x0,0(x18)
     803:	0100                	c.addi4spn	x8,x2,128
     805:	0200                	c.addi4spn	x8,x2,256
     807:	0804                	c.addi4spn	x9,x2,16
     809:	00090103          	lb	x2,0(x18)
     80d:	0100                	c.addi4spn	x8,x2,128
     80f:	0200                	c.addi4spn	x8,x2,256
     811:	0804                	c.addi4spn	x9,x2,16
     813:	00090003          	lb	x0,0(x18)
     817:	0100                	c.addi4spn	x8,x2,128
     819:	0200                	c.addi4spn	x8,x2,256
     81b:	0804                	c.addi4spn	x9,x2,16
     81d:	18090003          	lb	x0,384(x18)
     821:	0100                	c.addi4spn	x8,x2,128
     823:	0200                	c.addi4spn	x8,x2,256
     825:	0804                	c.addi4spn	x9,x2,16
     827:	04090003          	lb	x0,64(x18)
     82b:	0100                	c.addi4spn	x8,x2,128
     82d:	0200                	c.addi4spn	x8,x2,256
     82f:	0204                	c.addi4spn	x9,x2,256
     831:	1c097e03          	0x1c097e03
     835:	0100                	c.addi4spn	x8,x2,128
     837:	0200                	c.addi4spn	x8,x2,256
     839:	0d04                	c.addi4spn	x9,x2,656
     83b:	08090003          	lb	x0,128(x18)
     83f:	0100                	c.addi4spn	x8,x2,128
     841:	0200                	c.addi4spn	x8,x2,256
     843:	0d04                	c.addi4spn	x9,x2,656
     845:	00090003          	lb	x0,0(x18)
     849:	0100                	c.addi4spn	x8,x2,128
     84b:	0200                	c.addi4spn	x8,x2,256
     84d:	0d04                	c.addi4spn	x9,x2,656
     84f:	00090003          	lb	x0,0(x18)
     853:	0100                	c.addi4spn	x8,x2,128
     855:	0200                	c.addi4spn	x8,x2,256
     857:	0d04                	c.addi4spn	x9,x2,656
     859:	00090003          	lb	x0,0(x18)
     85d:	0100                	c.addi4spn	x8,x2,128
     85f:	0200                	c.addi4spn	x8,x2,256
     861:	1104                	c.addi4spn	x9,x2,160
     863:	04090003          	lb	x0,64(x18)
     867:	0100                	c.addi4spn	x8,x2,128
     869:	0200                	c.addi4spn	x8,x2,256
     86b:	1104                	c.addi4spn	x9,x2,160
     86d:	00090003          	lb	x0,0(x18)
     871:	0100                	c.addi4spn	x8,x2,128
     873:	0200                	c.addi4spn	x8,x2,256
     875:	1104                	c.addi4spn	x9,x2,160
     877:	00090003          	lb	x0,0(x18)
     87b:	0100                	c.addi4spn	x8,x2,128
     87d:	0200                	c.addi4spn	x8,x2,256
     87f:	1104                	c.addi4spn	x9,x2,160
     881:	00090003          	lb	x0,0(x18)
     885:	0100                	c.addi4spn	x8,x2,128
     887:	0200                	c.addi4spn	x8,x2,256
     889:	1104                	c.addi4spn	x9,x2,160
     88b:	08090003          	lb	x0,128(x18)
     88f:	0100                	c.addi4spn	x8,x2,128
     891:	0200                	c.addi4spn	x8,x2,256
     893:	1f04                	c.addi4spn	x9,x2,944
     895:	00090003          	lb	x0,0(x18)
     899:	0100                	c.addi4spn	x8,x2,128
     89b:	0200                	c.addi4spn	x8,x2,256
     89d:	1f04                	c.addi4spn	x9,x2,944
     89f:	00090003          	lb	x0,0(x18)
     8a3:	0100                	c.addi4spn	x8,x2,128
     8a5:	0200                	c.addi4spn	x8,x2,256
     8a7:	1f04                	c.addi4spn	x9,x2,944
     8a9:	04090003          	lb	x0,64(x18)
     8ad:	0100                	c.addi4spn	x8,x2,128
     8af:	0200                	c.addi4spn	x8,x2,256
     8b1:	2004                	c.fld	f9,0(x8)
     8b3:	08090003          	lb	x0,128(x18)
     8b7:	0100                	c.addi4spn	x8,x2,128
     8b9:	0200                	c.addi4spn	x8,x2,256
     8bb:	2004                	c.fld	f9,0(x8)
     8bd:	08090003          	lb	x0,128(x18)
     8c1:	0100                	c.addi4spn	x8,x2,128
     8c3:	0200                	c.addi4spn	x8,x2,256
     8c5:	2004                	c.fld	f9,0(x8)
     8c7:	10090003          	lb	x0,256(x18)
     8cb:	0100                	c.addi4spn	x8,x2,128
     8cd:	0200                	c.addi4spn	x8,x2,256
     8cf:	2004                	c.fld	f9,0(x8)
     8d1:	04090003          	lb	x0,64(x18)
     8d5:	0100                	c.addi4spn	x8,x2,128
     8d7:	0200                	c.addi4spn	x8,x2,256
     8d9:	2904                	c.fld	f9,16(x10)
     8db:	00090003          	lb	x0,0(x18)
     8df:	0100                	c.addi4spn	x8,x2,128
     8e1:	0200                	c.addi4spn	x8,x2,256
     8e3:	1804                	c.addi4spn	x9,x2,48
     8e5:	0c090003          	lb	x0,192(x18)
     8e9:	0100                	c.addi4spn	x8,x2,128
     8eb:	0200                	c.addi4spn	x8,x2,256
     8ed:	1804                	c.addi4spn	x9,x2,48
     8ef:	00090003          	lb	x0,0(x18)
     8f3:	0100                	c.addi4spn	x8,x2,128
     8f5:	0200                	c.addi4spn	x8,x2,256
     8f7:	1804                	c.addi4spn	x9,x2,48
     8f9:	00090003          	lb	x0,0(x18)
     8fd:	0100                	c.addi4spn	x8,x2,128
     8ff:	0200                	c.addi4spn	x8,x2,256
     901:	1804                	c.addi4spn	x9,x2,48
     903:	00090003          	lb	x0,0(x18)
     907:	0100                	c.addi4spn	x8,x2,128
     909:	0200                	c.addi4spn	x8,x2,256
     90b:	1804                	c.addi4spn	x9,x2,48
     90d:	04090003          	lb	x0,64(x18)
     911:	0100                	c.addi4spn	x8,x2,128
     913:	0200                	c.addi4spn	x8,x2,256
     915:	1804                	c.addi4spn	x9,x2,48
     917:	00090003          	lb	x0,0(x18)
     91b:	0100                	c.addi4spn	x8,x2,128
     91d:	0200                	c.addi4spn	x8,x2,256
     91f:	2104                	c.fld	f9,0(x10)
     921:	08090003          	lb	x0,128(x18)
     925:	0100                	c.addi4spn	x8,x2,128
     927:	0200                	c.addi4spn	x8,x2,256
     929:	2104                	c.fld	f9,0(x10)
     92b:	08090003          	lb	x0,128(x18)
     92f:	0100                	c.addi4spn	x8,x2,128
     931:	0200                	c.addi4spn	x8,x2,256
     933:	0304                	c.addi4spn	x9,x2,384
     935:	08090003          	lb	x0,128(x18)
     939:	0100                	c.addi4spn	x8,x2,128
     93b:	0306                	c.slli	x6,0x1
     93d:	0900                	c.addi4spn	x8,x2,144
     93f:	0008                	0x8
     941:	0001                	c.addi	x0,0
     943:	0402                	c.slli64	x8
     945:	0602                	c.slli64	x12
     947:	30090103          	lb	x2,768(x18)
     94b:	0100                	c.addi4spn	x8,x2,128
     94d:	0200                	c.addi4spn	x8,x2,256
     94f:	0d04                	c.addi4spn	x9,x2,656
     951:	08090003          	lb	x0,128(x18)
     955:	0100                	c.addi4spn	x8,x2,128
     957:	0200                	c.addi4spn	x8,x2,256
     959:	0d04                	c.addi4spn	x9,x2,656
     95b:	00090003          	lb	x0,0(x18)
     95f:	0100                	c.addi4spn	x8,x2,128
     961:	0200                	c.addi4spn	x8,x2,256
     963:	0d04                	c.addi4spn	x9,x2,656
     965:	00090003          	lb	x0,0(x18)
     969:	0100                	c.addi4spn	x8,x2,128
     96b:	0200                	c.addi4spn	x8,x2,256
     96d:	0d04                	c.addi4spn	x9,x2,656
     96f:	00090003          	lb	x0,0(x18)
     973:	0100                	c.addi4spn	x8,x2,128
     975:	0200                	c.addi4spn	x8,x2,256
     977:	1104                	c.addi4spn	x9,x2,160
     979:	04090003          	lb	x0,64(x18)
     97d:	0100                	c.addi4spn	x8,x2,128
     97f:	0200                	c.addi4spn	x8,x2,256
     981:	1104                	c.addi4spn	x9,x2,160
     983:	00090003          	lb	x0,0(x18)
     987:	0100                	c.addi4spn	x8,x2,128
     989:	0200                	c.addi4spn	x8,x2,256
     98b:	1104                	c.addi4spn	x9,x2,160
     98d:	00090003          	lb	x0,0(x18)
     991:	0100                	c.addi4spn	x8,x2,128
     993:	0200                	c.addi4spn	x8,x2,256
     995:	1104                	c.addi4spn	x9,x2,160
     997:	00090003          	lb	x0,0(x18)
     99b:	0100                	c.addi4spn	x8,x2,128
     99d:	0200                	c.addi4spn	x8,x2,256
     99f:	1104                	c.addi4spn	x9,x2,160
     9a1:	08090003          	lb	x0,128(x18)
     9a5:	0100                	c.addi4spn	x8,x2,128
     9a7:	0200                	c.addi4spn	x8,x2,256
     9a9:	1f04                	c.addi4spn	x9,x2,944
     9ab:	00090003          	lb	x0,0(x18)
     9af:	0100                	c.addi4spn	x8,x2,128
     9b1:	0200                	c.addi4spn	x8,x2,256
     9b3:	1f04                	c.addi4spn	x9,x2,944
     9b5:	00090003          	lb	x0,0(x18)
     9b9:	0100                	c.addi4spn	x8,x2,128
     9bb:	0200                	c.addi4spn	x8,x2,256
     9bd:	1f04                	c.addi4spn	x9,x2,944
     9bf:	04090003          	lb	x0,64(x18)
     9c3:	0100                	c.addi4spn	x8,x2,128
     9c5:	0200                	c.addi4spn	x8,x2,256
     9c7:	2004                	c.fld	f9,0(x8)
     9c9:	08090003          	lb	x0,128(x18)
     9cd:	0100                	c.addi4spn	x8,x2,128
     9cf:	0200                	c.addi4spn	x8,x2,256
     9d1:	2004                	c.fld	f9,0(x8)
     9d3:	08090003          	lb	x0,128(x18)
     9d7:	0100                	c.addi4spn	x8,x2,128
     9d9:	0200                	c.addi4spn	x8,x2,256
     9db:	2004                	c.fld	f9,0(x8)
     9dd:	10090003          	lb	x0,256(x18)
     9e1:	0100                	c.addi4spn	x8,x2,128
     9e3:	0200                	c.addi4spn	x8,x2,256
     9e5:	2004                	c.fld	f9,0(x8)
     9e7:	04090003          	lb	x0,64(x18)
     9eb:	0100                	c.addi4spn	x8,x2,128
     9ed:	0200                	c.addi4spn	x8,x2,256
     9ef:	2904                	c.fld	f9,16(x10)
     9f1:	00090003          	lb	x0,0(x18)
     9f5:	0100                	c.addi4spn	x8,x2,128
     9f7:	0200                	c.addi4spn	x8,x2,256
     9f9:	1804                	c.addi4spn	x9,x2,48
     9fb:	0c090003          	lb	x0,192(x18)
     9ff:	0100                	c.addi4spn	x8,x2,128
     a01:	0200                	c.addi4spn	x8,x2,256
     a03:	1804                	c.addi4spn	x9,x2,48
     a05:	00090003          	lb	x0,0(x18)
     a09:	0100                	c.addi4spn	x8,x2,128
     a0b:	0200                	c.addi4spn	x8,x2,256
     a0d:	1804                	c.addi4spn	x9,x2,48
     a0f:	00090003          	lb	x0,0(x18)
     a13:	0100                	c.addi4spn	x8,x2,128
     a15:	0200                	c.addi4spn	x8,x2,256
     a17:	1804                	c.addi4spn	x9,x2,48
     a19:	00090003          	lb	x0,0(x18)
     a1d:	0100                	c.addi4spn	x8,x2,128
     a1f:	0200                	c.addi4spn	x8,x2,256
     a21:	1804                	c.addi4spn	x9,x2,48
     a23:	08090003          	lb	x0,128(x18)
     a27:	0100                	c.addi4spn	x8,x2,128
     a29:	0200                	c.addi4spn	x8,x2,256
     a2b:	1804                	c.addi4spn	x9,x2,48
     a2d:	00090003          	lb	x0,0(x18)
     a31:	0100                	c.addi4spn	x8,x2,128
     a33:	0200                	c.addi4spn	x8,x2,256
     a35:	2104                	c.fld	f9,0(x10)
     a37:	08090003          	lb	x0,128(x18)
     a3b:	0100                	c.addi4spn	x8,x2,128
     a3d:	0200                	c.addi4spn	x8,x2,256
     a3f:	2104                	c.fld	f9,0(x10)
     a41:	08090003          	lb	x0,128(x18)
     a45:	0100                	c.addi4spn	x8,x2,128
     a47:	0200                	c.addi4spn	x8,x2,256
     a49:	0304                	c.addi4spn	x9,x2,384
     a4b:	08090003          	lb	x0,128(x18)
     a4f:	0100                	c.addi4spn	x8,x2,128
     a51:	0306                	c.slli	x6,0x1
     a53:	0900                	c.addi4spn	x8,x2,144
     a55:	0008                	0x8
     a57:	0001                	c.addi	x0,0
     a59:	0402                	c.slli64	x8
     a5b:	0602                	c.slli64	x12
     a5d:	30090103          	lb	x2,768(x18)
     a61:	0100                	c.addi4spn	x8,x2,128
     a63:	0200                	c.addi4spn	x8,x2,256
     a65:	0204                	c.addi4spn	x9,x2,256
     a67:	00090003          	lb	x0,0(x18)
     a6b:	0100                	c.addi4spn	x8,x2,128
     a6d:	0200                	c.addi4spn	x8,x2,256
     a6f:	0204                	c.addi4spn	x9,x2,256
     a71:	00090003          	lb	x0,0(x18)
     a75:	0100                	c.addi4spn	x8,x2,128
     a77:	0200                	c.addi4spn	x8,x2,256
     a79:	0204                	c.addi4spn	x9,x2,256
     a7b:	00090003          	lb	x0,0(x18)
     a7f:	0100                	c.addi4spn	x8,x2,128
     a81:	0200                	c.addi4spn	x8,x2,256
     a83:	0204                	c.addi4spn	x9,x2,256
     a85:	00090003          	lb	x0,0(x18)
     a89:	0100                	c.addi4spn	x8,x2,128
     a8b:	0200                	c.addi4spn	x8,x2,256
     a8d:	0204                	c.addi4spn	x9,x2,256
     a8f:	00090003          	lb	x0,0(x18)
     a93:	0100                	c.addi4spn	x8,x2,128
     a95:	0200                	c.addi4spn	x8,x2,256
     a97:	0204                	c.addi4spn	x9,x2,256
     a99:	00090003          	lb	x0,0(x18)
     a9d:	0100                	c.addi4spn	x8,x2,128
     a9f:	0200                	c.addi4spn	x8,x2,256
     aa1:	0204                	c.addi4spn	x9,x2,256
     aa3:	00090003          	lb	x0,0(x18)
     aa7:	0100                	c.addi4spn	x8,x2,128
     aa9:	0200                	c.addi4spn	x8,x2,256
     aab:	0204                	c.addi4spn	x9,x2,256
     aad:	00090003          	lb	x0,0(x18)
     ab1:	0100                	c.addi4spn	x8,x2,128
     ab3:	0200                	c.addi4spn	x8,x2,256
     ab5:	0204                	c.addi4spn	x9,x2,256
     ab7:	00090003          	lb	x0,0(x18)
     abb:	0100                	c.addi4spn	x8,x2,128
     abd:	0200                	c.addi4spn	x8,x2,256
     abf:	0204                	c.addi4spn	x9,x2,256
     ac1:	00090003          	lb	x0,0(x18)
     ac5:	0100                	c.addi4spn	x8,x2,128
     ac7:	0200                	c.addi4spn	x8,x2,256
     ac9:	0204                	c.addi4spn	x9,x2,256
     acb:	0c090003          	lb	x0,192(x18)
     acf:	0100                	c.addi4spn	x8,x2,128
     ad1:	0200                	c.addi4spn	x8,x2,256
     ad3:	0204                	c.addi4spn	x9,x2,256
     ad5:	00090003          	lb	x0,0(x18)
     ad9:	0100                	c.addi4spn	x8,x2,128
     adb:	0200                	c.addi4spn	x8,x2,256
     add:	0204                	c.addi4spn	x9,x2,256
     adf:	0c090003          	lb	x0,192(x18)
     ae3:	0100                	c.addi4spn	x8,x2,128
     ae5:	0200                	c.addi4spn	x8,x2,256
     ae7:	0204                	c.addi4spn	x9,x2,256
     ae9:	00090003          	lb	x0,0(x18)
     aed:	0100                	c.addi4spn	x8,x2,128
     aef:	0200                	c.addi4spn	x8,x2,256
     af1:	0204                	c.addi4spn	x9,x2,256
     af3:	04090003          	lb	x0,64(x18)
     af7:	0100                	c.addi4spn	x8,x2,128
     af9:	0200                	c.addi4spn	x8,x2,256
     afb:	0204                	c.addi4spn	x9,x2,256
     afd:	04090003          	lb	x0,64(x18)
     b01:	0100                	c.addi4spn	x8,x2,128
     b03:	0200                	c.addi4spn	x8,x2,256
     b05:	0204                	c.addi4spn	x9,x2,256
     b07:	04090003          	lb	x0,64(x18)
     b0b:	0100                	c.addi4spn	x8,x2,128
     b0d:	0200                	c.addi4spn	x8,x2,256
     b0f:	0204                	c.addi4spn	x9,x2,256
     b11:	04090003          	lb	x0,64(x18)
     b15:	0100                	c.addi4spn	x8,x2,128
     b17:	0200                	c.addi4spn	x8,x2,256
     b19:	0204                	c.addi4spn	x9,x2,256
     b1b:	00090003          	lb	x0,0(x18)
     b1f:	0100                	c.addi4spn	x8,x2,128
     b21:	0200                	c.addi4spn	x8,x2,256
     b23:	0204                	c.addi4spn	x9,x2,256
     b25:	08090003          	lb	x0,128(x18)
     b29:	0100                	c.addi4spn	x8,x2,128
     b2b:	0200                	c.addi4spn	x8,x2,256
     b2d:	0204                	c.addi4spn	x9,x2,256
     b2f:	00090003          	lb	x0,0(x18)
     b33:	0100                	c.addi4spn	x8,x2,128
     b35:	0200                	c.addi4spn	x8,x2,256
     b37:	0204                	c.addi4spn	x9,x2,256
     b39:	04090003          	lb	x0,64(x18)
     b3d:	0100                	c.addi4spn	x8,x2,128
     b3f:	0200                	c.addi4spn	x8,x2,256
     b41:	0204                	c.addi4spn	x9,x2,256
     b43:	04090003          	lb	x0,64(x18)
     b47:	0100                	c.addi4spn	x8,x2,128
     b49:	0200                	c.addi4spn	x8,x2,256
     b4b:	0204                	c.addi4spn	x9,x2,256
     b4d:	00090003          	lb	x0,0(x18)
     b51:	0100                	c.addi4spn	x8,x2,128
     b53:	0200                	c.addi4spn	x8,x2,256
     b55:	0204                	c.addi4spn	x9,x2,256
     b57:	08090003          	lb	x0,128(x18)
     b5b:	0100                	c.addi4spn	x8,x2,128
     b5d:	0200                	c.addi4spn	x8,x2,256
     b5f:	0204                	c.addi4spn	x9,x2,256
     b61:	00090003          	lb	x0,0(x18)
     b65:	0100                	c.addi4spn	x8,x2,128
     b67:	0200                	c.addi4spn	x8,x2,256
     b69:	0204                	c.addi4spn	x9,x2,256
     b6b:	04090003          	lb	x0,64(x18)
     b6f:	0100                	c.addi4spn	x8,x2,128
     b71:	0200                	c.addi4spn	x8,x2,256
     b73:	0204                	c.addi4spn	x9,x2,256
     b75:	04090003          	lb	x0,64(x18)
     b79:	0100                	c.addi4spn	x8,x2,128
     b7b:	0200                	c.addi4spn	x8,x2,256
     b7d:	0204                	c.addi4spn	x9,x2,256
     b7f:	00090003          	lb	x0,0(x18)
     b83:	0100                	c.addi4spn	x8,x2,128
     b85:	0200                	c.addi4spn	x8,x2,256
     b87:	0204                	c.addi4spn	x9,x2,256
     b89:	08090003          	lb	x0,128(x18)
     b8d:	0100                	c.addi4spn	x8,x2,128
     b8f:	0200                	c.addi4spn	x8,x2,256
     b91:	0204                	c.addi4spn	x9,x2,256
     b93:	00090003          	lb	x0,0(x18)
     b97:	0100                	c.addi4spn	x8,x2,128
     b99:	0200                	c.addi4spn	x8,x2,256
     b9b:	0204                	c.addi4spn	x9,x2,256
     b9d:	04090003          	lb	x0,64(x18)
     ba1:	0100                	c.addi4spn	x8,x2,128
     ba3:	0200                	c.addi4spn	x8,x2,256
     ba5:	0204                	c.addi4spn	x9,x2,256
     ba7:	10090003          	lb	x0,256(x18)
     bab:	0100                	c.addi4spn	x8,x2,128
     bad:	0200                	c.addi4spn	x8,x2,256
     baf:	0204                	c.addi4spn	x9,x2,256
     bb1:	00090003          	lb	x0,0(x18)
     bb5:	0100                	c.addi4spn	x8,x2,128
     bb7:	0200                	c.addi4spn	x8,x2,256
     bb9:	0204                	c.addi4spn	x9,x2,256
     bbb:	00090003          	lb	x0,0(x18)
     bbf:	0100                	c.addi4spn	x8,x2,128
     bc1:	0200                	c.addi4spn	x8,x2,256
     bc3:	0904                	c.addi4spn	x9,x2,144
     bc5:	04090003          	lb	x0,64(x18)
     bc9:	0100                	c.addi4spn	x8,x2,128
     bcb:	0200                	c.addi4spn	x8,x2,256
     bcd:	0b04                	c.addi4spn	x9,x2,400
     bcf:	04090003          	lb	x0,64(x18)
     bd3:	0100                	c.addi4spn	x8,x2,128
     bd5:	0200                	c.addi4spn	x8,x2,256
     bd7:	0b04                	c.addi4spn	x9,x2,400
     bd9:	1c090003          	lb	x0,448(x18)
     bdd:	0100                	c.addi4spn	x8,x2,128
     bdf:	0200                	c.addi4spn	x8,x2,256
     be1:	0b04                	c.addi4spn	x9,x2,400
     be3:	00090003          	lb	x0,0(x18)
     be7:	0100                	c.addi4spn	x8,x2,128
     be9:	0200                	c.addi4spn	x8,x2,256
     beb:	0b04                	c.addi4spn	x9,x2,400
     bed:	00090003          	lb	x0,0(x18)
     bf1:	0100                	c.addi4spn	x8,x2,128
     bf3:	0200                	c.addi4spn	x8,x2,256
     bf5:	0b04                	c.addi4spn	x9,x2,400
     bf7:	00090003          	lb	x0,0(x18)
     bfb:	0100                	c.addi4spn	x8,x2,128
     bfd:	0200                	c.addi4spn	x8,x2,256
     bff:	0b04                	c.addi4spn	x9,x2,400
     c01:	00090003          	lb	x0,0(x18)
     c05:	0100                	c.addi4spn	x8,x2,128
     c07:	0200                	c.addi4spn	x8,x2,256
     c09:	0b04                	c.addi4spn	x9,x2,400
     c0b:	00090003          	lb	x0,0(x18)
     c0f:	0100                	c.addi4spn	x8,x2,128
     c11:	0200                	c.addi4spn	x8,x2,256
     c13:	0b04                	c.addi4spn	x9,x2,400
     c15:	00090003          	lb	x0,0(x18)
     c19:	0100                	c.addi4spn	x8,x2,128
     c1b:	0200                	c.addi4spn	x8,x2,256
     c1d:	0b04                	c.addi4spn	x9,x2,400
     c1f:	00090003          	lb	x0,0(x18)
     c23:	0100                	c.addi4spn	x8,x2,128
     c25:	0200                	c.addi4spn	x8,x2,256
     c27:	0b04                	c.addi4spn	x9,x2,400
     c29:	00090003          	lb	x0,0(x18)
     c2d:	0100                	c.addi4spn	x8,x2,128
     c2f:	0200                	c.addi4spn	x8,x2,256
     c31:	0b04                	c.addi4spn	x9,x2,400
     c33:	00090003          	lb	x0,0(x18)
     c37:	0100                	c.addi4spn	x8,x2,128
     c39:	0200                	c.addi4spn	x8,x2,256
     c3b:	0b04                	c.addi4spn	x9,x2,400
     c3d:	00090003          	lb	x0,0(x18)
     c41:	0100                	c.addi4spn	x8,x2,128
     c43:	0200                	c.addi4spn	x8,x2,256
     c45:	0b04                	c.addi4spn	x9,x2,400
     c47:	04090003          	lb	x0,64(x18)
     c4b:	0100                	c.addi4spn	x8,x2,128
     c4d:	0200                	c.addi4spn	x8,x2,256
     c4f:	0b04                	c.addi4spn	x9,x2,400
     c51:	04090003          	lb	x0,64(x18)
     c55:	0100                	c.addi4spn	x8,x2,128
     c57:	0200                	c.addi4spn	x8,x2,256
     c59:	0b04                	c.addi4spn	x9,x2,400
     c5b:	04090003          	lb	x0,64(x18)
     c5f:	0100                	c.addi4spn	x8,x2,128
     c61:	0200                	c.addi4spn	x8,x2,256
     c63:	0b04                	c.addi4spn	x9,x2,400
     c65:	04090003          	lb	x0,64(x18)
     c69:	0100                	c.addi4spn	x8,x2,128
     c6b:	0200                	c.addi4spn	x8,x2,256
     c6d:	0b04                	c.addi4spn	x9,x2,400
     c6f:	00090003          	lb	x0,0(x18)
     c73:	0100                	c.addi4spn	x8,x2,128
     c75:	0200                	c.addi4spn	x8,x2,256
     c77:	0b04                	c.addi4spn	x9,x2,400
     c79:	08090003          	lb	x0,128(x18)
     c7d:	0100                	c.addi4spn	x8,x2,128
     c7f:	0200                	c.addi4spn	x8,x2,256
     c81:	0b04                	c.addi4spn	x9,x2,400
     c83:	00090003          	lb	x0,0(x18)
     c87:	0100                	c.addi4spn	x8,x2,128
     c89:	0200                	c.addi4spn	x8,x2,256
     c8b:	0b04                	c.addi4spn	x9,x2,400
     c8d:	04090003          	lb	x0,64(x18)
     c91:	0100                	c.addi4spn	x8,x2,128
     c93:	0200                	c.addi4spn	x8,x2,256
     c95:	0b04                	c.addi4spn	x9,x2,400
     c97:	04090003          	lb	x0,64(x18)
     c9b:	0100                	c.addi4spn	x8,x2,128
     c9d:	0200                	c.addi4spn	x8,x2,256
     c9f:	0b04                	c.addi4spn	x9,x2,400
     ca1:	00090003          	lb	x0,0(x18)
     ca5:	0100                	c.addi4spn	x8,x2,128
     ca7:	0200                	c.addi4spn	x8,x2,256
     ca9:	0b04                	c.addi4spn	x9,x2,400
     cab:	08090003          	lb	x0,128(x18)
     caf:	0100                	c.addi4spn	x8,x2,128
     cb1:	0200                	c.addi4spn	x8,x2,256
     cb3:	0b04                	c.addi4spn	x9,x2,400
     cb5:	00090003          	lb	x0,0(x18)
     cb9:	0100                	c.addi4spn	x8,x2,128
     cbb:	0200                	c.addi4spn	x8,x2,256
     cbd:	0b04                	c.addi4spn	x9,x2,400
     cbf:	04090003          	lb	x0,64(x18)
     cc3:	0100                	c.addi4spn	x8,x2,128
     cc5:	0200                	c.addi4spn	x8,x2,256
     cc7:	0b04                	c.addi4spn	x9,x2,400
     cc9:	04090003          	lb	x0,64(x18)
     ccd:	0100                	c.addi4spn	x8,x2,128
     ccf:	0200                	c.addi4spn	x8,x2,256
     cd1:	0b04                	c.addi4spn	x9,x2,400
     cd3:	00090003          	lb	x0,0(x18)
     cd7:	0100                	c.addi4spn	x8,x2,128
     cd9:	0200                	c.addi4spn	x8,x2,256
     cdb:	0b04                	c.addi4spn	x9,x2,400
     cdd:	08090003          	lb	x0,128(x18)
     ce1:	0100                	c.addi4spn	x8,x2,128
     ce3:	0200                	c.addi4spn	x8,x2,256
     ce5:	0b04                	c.addi4spn	x9,x2,400
     ce7:	00090003          	lb	x0,0(x18)
     ceb:	0100                	c.addi4spn	x8,x2,128
     ced:	0200                	c.addi4spn	x8,x2,256
     cef:	0b04                	c.addi4spn	x9,x2,400
     cf1:	04090003          	lb	x0,64(x18)
     cf5:	0100                	c.addi4spn	x8,x2,128
     cf7:	0200                	c.addi4spn	x8,x2,256
     cf9:	0b04                	c.addi4spn	x9,x2,400
     cfb:	10090003          	lb	x0,256(x18)
     cff:	0100                	c.addi4spn	x8,x2,128
     d01:	0200                	c.addi4spn	x8,x2,256
     d03:	0b04                	c.addi4spn	x9,x2,400
     d05:	00090003          	lb	x0,0(x18)
     d09:	0100                	c.addi4spn	x8,x2,128
     d0b:	0200                	c.addi4spn	x8,x2,256
     d0d:	0b04                	c.addi4spn	x9,x2,400
     d0f:	00090003          	lb	x0,0(x18)
     d13:	0100                	c.addi4spn	x8,x2,128
     d15:	0200                	c.addi4spn	x8,x2,256
     d17:	0c04                	c.addi4spn	x9,x2,528
     d19:	04090003          	lb	x0,64(x18)
     d1d:	0100                	c.addi4spn	x8,x2,128
     d1f:	0200                	c.addi4spn	x8,x2,256
     d21:	0e04                	c.addi4spn	x9,x2,784
     d23:	08090003          	lb	x0,128(x18)
     d27:	0100                	c.addi4spn	x8,x2,128
     d29:	0200                	c.addi4spn	x8,x2,256
     d2b:	0e04                	c.addi4spn	x9,x2,784
     d2d:	28090003          	lb	x0,640(x18)
     d31:	0100                	c.addi4spn	x8,x2,128
     d33:	0200                	c.addi4spn	x8,x2,256
     d35:	0e04                	c.addi4spn	x9,x2,784
     d37:	04090003          	lb	x0,64(x18)
     d3b:	0100                	c.addi4spn	x8,x2,128
     d3d:	0200                	c.addi4spn	x8,x2,256
     d3f:	0e04                	c.addi4spn	x9,x2,784
     d41:	00090003          	lb	x0,0(x18)
     d45:	0100                	c.addi4spn	x8,x2,128
     d47:	0200                	c.addi4spn	x8,x2,256
     d49:	0e04                	c.addi4spn	x9,x2,784
     d4b:	00090003          	lb	x0,0(x18)
     d4f:	0100                	c.addi4spn	x8,x2,128
     d51:	0200                	c.addi4spn	x8,x2,256
     d53:	0e04                	c.addi4spn	x9,x2,784
     d55:	00090003          	lb	x0,0(x18)
     d59:	0100                	c.addi4spn	x8,x2,128
     d5b:	0200                	c.addi4spn	x8,x2,256
     d5d:	0e04                	c.addi4spn	x9,x2,784
     d5f:	00090003          	lb	x0,0(x18)
     d63:	0100                	c.addi4spn	x8,x2,128
     d65:	0200                	c.addi4spn	x8,x2,256
     d67:	0e04                	c.addi4spn	x9,x2,784
     d69:	00090003          	lb	x0,0(x18)
     d6d:	0100                	c.addi4spn	x8,x2,128
     d6f:	0200                	c.addi4spn	x8,x2,256
     d71:	0e04                	c.addi4spn	x9,x2,784
     d73:	00090003          	lb	x0,0(x18)
     d77:	0100                	c.addi4spn	x8,x2,128
     d79:	0200                	c.addi4spn	x8,x2,256
     d7b:	0e04                	c.addi4spn	x9,x2,784
     d7d:	00090003          	lb	x0,0(x18)
     d81:	0100                	c.addi4spn	x8,x2,128
     d83:	0200                	c.addi4spn	x8,x2,256
     d85:	0e04                	c.addi4spn	x9,x2,784
     d87:	00090003          	lb	x0,0(x18)
     d8b:	0100                	c.addi4spn	x8,x2,128
     d8d:	0200                	c.addi4spn	x8,x2,256
     d8f:	0e04                	c.addi4spn	x9,x2,784
     d91:	00090003          	lb	x0,0(x18)
     d95:	0100                	c.addi4spn	x8,x2,128
     d97:	0200                	c.addi4spn	x8,x2,256
     d99:	0e04                	c.addi4spn	x9,x2,784
     d9b:	04090003          	lb	x0,64(x18)
     d9f:	0100                	c.addi4spn	x8,x2,128
     da1:	0200                	c.addi4spn	x8,x2,256
     da3:	0e04                	c.addi4spn	x9,x2,784
     da5:	04090003          	lb	x0,64(x18)
     da9:	0100                	c.addi4spn	x8,x2,128
     dab:	0200                	c.addi4spn	x8,x2,256
     dad:	0e04                	c.addi4spn	x9,x2,784
     daf:	04090003          	lb	x0,64(x18)
     db3:	0100                	c.addi4spn	x8,x2,128
     db5:	0200                	c.addi4spn	x8,x2,256
     db7:	0e04                	c.addi4spn	x9,x2,784
     db9:	04090003          	lb	x0,64(x18)
     dbd:	0100                	c.addi4spn	x8,x2,128
     dbf:	0200                	c.addi4spn	x8,x2,256
     dc1:	0e04                	c.addi4spn	x9,x2,784
     dc3:	00090003          	lb	x0,0(x18)
     dc7:	0100                	c.addi4spn	x8,x2,128
     dc9:	0200                	c.addi4spn	x8,x2,256
     dcb:	0e04                	c.addi4spn	x9,x2,784
     dcd:	08090003          	lb	x0,128(x18)
     dd1:	0100                	c.addi4spn	x8,x2,128
     dd3:	0200                	c.addi4spn	x8,x2,256
     dd5:	0e04                	c.addi4spn	x9,x2,784
     dd7:	00090003          	lb	x0,0(x18)
     ddb:	0100                	c.addi4spn	x8,x2,128
     ddd:	0200                	c.addi4spn	x8,x2,256
     ddf:	0e04                	c.addi4spn	x9,x2,784
     de1:	04090003          	lb	x0,64(x18)
     de5:	0100                	c.addi4spn	x8,x2,128
     de7:	0200                	c.addi4spn	x8,x2,256
     de9:	0e04                	c.addi4spn	x9,x2,784
     deb:	04090003          	lb	x0,64(x18)
     def:	0100                	c.addi4spn	x8,x2,128
     df1:	0200                	c.addi4spn	x8,x2,256
     df3:	0e04                	c.addi4spn	x9,x2,784
     df5:	00090003          	lb	x0,0(x18)
     df9:	0100                	c.addi4spn	x8,x2,128
     dfb:	0200                	c.addi4spn	x8,x2,256
     dfd:	0e04                	c.addi4spn	x9,x2,784
     dff:	08090003          	lb	x0,128(x18)
     e03:	0100                	c.addi4spn	x8,x2,128
     e05:	0200                	c.addi4spn	x8,x2,256
     e07:	0e04                	c.addi4spn	x9,x2,784
     e09:	00090003          	lb	x0,0(x18)
     e0d:	0100                	c.addi4spn	x8,x2,128
     e0f:	0200                	c.addi4spn	x8,x2,256
     e11:	0e04                	c.addi4spn	x9,x2,784
     e13:	04090003          	lb	x0,64(x18)
     e17:	0100                	c.addi4spn	x8,x2,128
     e19:	0200                	c.addi4spn	x8,x2,256
     e1b:	0e04                	c.addi4spn	x9,x2,784
     e1d:	04090003          	lb	x0,64(x18)
     e21:	0100                	c.addi4spn	x8,x2,128
     e23:	0200                	c.addi4spn	x8,x2,256
     e25:	0e04                	c.addi4spn	x9,x2,784
     e27:	00090003          	lb	x0,0(x18)
     e2b:	0100                	c.addi4spn	x8,x2,128
     e2d:	0200                	c.addi4spn	x8,x2,256
     e2f:	0e04                	c.addi4spn	x9,x2,784
     e31:	08090003          	lb	x0,128(x18)
     e35:	0100                	c.addi4spn	x8,x2,128
     e37:	0200                	c.addi4spn	x8,x2,256
     e39:	0e04                	c.addi4spn	x9,x2,784
     e3b:	00090003          	lb	x0,0(x18)
     e3f:	0100                	c.addi4spn	x8,x2,128
     e41:	0200                	c.addi4spn	x8,x2,256
     e43:	0e04                	c.addi4spn	x9,x2,784
     e45:	04090003          	lb	x0,64(x18)
     e49:	0100                	c.addi4spn	x8,x2,128
     e4b:	0200                	c.addi4spn	x8,x2,256
     e4d:	0e04                	c.addi4spn	x9,x2,784
     e4f:	10090003          	lb	x0,256(x18)
     e53:	0100                	c.addi4spn	x8,x2,128
     e55:	0200                	c.addi4spn	x8,x2,256
     e57:	0e04                	c.addi4spn	x9,x2,784
     e59:	00090003          	lb	x0,0(x18)
     e5d:	0100                	c.addi4spn	x8,x2,128
     e5f:	0200                	c.addi4spn	x8,x2,256
     e61:	0e04                	c.addi4spn	x9,x2,784
     e63:	00090003          	lb	x0,0(x18)
     e67:	0100                	c.addi4spn	x8,x2,128
     e69:	0200                	c.addi4spn	x8,x2,256
     e6b:	0f04                	c.addi4spn	x9,x2,912
     e6d:	04090003          	lb	x0,64(x18)
     e71:	0100                	c.addi4spn	x8,x2,128
     e73:	0200                	c.addi4spn	x8,x2,256
     e75:	1104                	c.addi4spn	x9,x2,160
     e77:	04090003          	lb	x0,64(x18)
     e7b:	0100                	c.addi4spn	x8,x2,128
     e7d:	0200                	c.addi4spn	x8,x2,256
     e7f:	1104                	c.addi4spn	x9,x2,160
     e81:	1c090003          	lb	x0,448(x18)
     e85:	0100                	c.addi4spn	x8,x2,128
     e87:	0200                	c.addi4spn	x8,x2,256
     e89:	1104                	c.addi4spn	x9,x2,160
     e8b:	04090003          	lb	x0,64(x18)
     e8f:	0100                	c.addi4spn	x8,x2,128
     e91:	0200                	c.addi4spn	x8,x2,256
     e93:	1104                	c.addi4spn	x9,x2,160
     e95:	00090003          	lb	x0,0(x18)
     e99:	0100                	c.addi4spn	x8,x2,128
     e9b:	0200                	c.addi4spn	x8,x2,256
     e9d:	1104                	c.addi4spn	x9,x2,160
     e9f:	00090003          	lb	x0,0(x18)
     ea3:	0100                	c.addi4spn	x8,x2,128
     ea5:	0200                	c.addi4spn	x8,x2,256
     ea7:	1104                	c.addi4spn	x9,x2,160
     ea9:	00090003          	lb	x0,0(x18)
     ead:	0100                	c.addi4spn	x8,x2,128
     eaf:	0200                	c.addi4spn	x8,x2,256
     eb1:	1104                	c.addi4spn	x9,x2,160
     eb3:	00090003          	lb	x0,0(x18)
     eb7:	0100                	c.addi4spn	x8,x2,128
     eb9:	0200                	c.addi4spn	x8,x2,256
     ebb:	1104                	c.addi4spn	x9,x2,160
     ebd:	00090003          	lb	x0,0(x18)
     ec1:	0100                	c.addi4spn	x8,x2,128
     ec3:	0200                	c.addi4spn	x8,x2,256
     ec5:	1104                	c.addi4spn	x9,x2,160
     ec7:	00090003          	lb	x0,0(x18)
     ecb:	0100                	c.addi4spn	x8,x2,128
     ecd:	0200                	c.addi4spn	x8,x2,256
     ecf:	1104                	c.addi4spn	x9,x2,160
     ed1:	00090003          	lb	x0,0(x18)
     ed5:	0100                	c.addi4spn	x8,x2,128
     ed7:	0200                	c.addi4spn	x8,x2,256
     ed9:	1104                	c.addi4spn	x9,x2,160
     edb:	00090003          	lb	x0,0(x18)
     edf:	0100                	c.addi4spn	x8,x2,128
     ee1:	0200                	c.addi4spn	x8,x2,256
     ee3:	1104                	c.addi4spn	x9,x2,160
     ee5:	00090003          	lb	x0,0(x18)
     ee9:	0100                	c.addi4spn	x8,x2,128
     eeb:	0200                	c.addi4spn	x8,x2,256
     eed:	1104                	c.addi4spn	x9,x2,160
     eef:	04090003          	lb	x0,64(x18)
     ef3:	0100                	c.addi4spn	x8,x2,128
     ef5:	0200                	c.addi4spn	x8,x2,256
     ef7:	1104                	c.addi4spn	x9,x2,160
     ef9:	04090003          	lb	x0,64(x18)
     efd:	0100                	c.addi4spn	x8,x2,128
     eff:	0200                	c.addi4spn	x8,x2,256
     f01:	1104                	c.addi4spn	x9,x2,160
     f03:	04090003          	lb	x0,64(x18)
     f07:	0100                	c.addi4spn	x8,x2,128
     f09:	0200                	c.addi4spn	x8,x2,256
     f0b:	1104                	c.addi4spn	x9,x2,160
     f0d:	04090003          	lb	x0,64(x18)
     f11:	0100                	c.addi4spn	x8,x2,128
     f13:	0200                	c.addi4spn	x8,x2,256
     f15:	1104                	c.addi4spn	x9,x2,160
     f17:	00090003          	lb	x0,0(x18)
     f1b:	0100                	c.addi4spn	x8,x2,128
     f1d:	0200                	c.addi4spn	x8,x2,256
     f1f:	1104                	c.addi4spn	x9,x2,160
     f21:	08090003          	lb	x0,128(x18)
     f25:	0100                	c.addi4spn	x8,x2,128
     f27:	0200                	c.addi4spn	x8,x2,256
     f29:	1104                	c.addi4spn	x9,x2,160
     f2b:	00090003          	lb	x0,0(x18)
     f2f:	0100                	c.addi4spn	x8,x2,128
     f31:	0200                	c.addi4spn	x8,x2,256
     f33:	1104                	c.addi4spn	x9,x2,160
     f35:	04090003          	lb	x0,64(x18)
     f39:	0100                	c.addi4spn	x8,x2,128
     f3b:	0200                	c.addi4spn	x8,x2,256
     f3d:	1104                	c.addi4spn	x9,x2,160
     f3f:	04090003          	lb	x0,64(x18)
     f43:	0100                	c.addi4spn	x8,x2,128
     f45:	0200                	c.addi4spn	x8,x2,256
     f47:	1104                	c.addi4spn	x9,x2,160
     f49:	00090003          	lb	x0,0(x18)
     f4d:	0100                	c.addi4spn	x8,x2,128
     f4f:	0200                	c.addi4spn	x8,x2,256
     f51:	1104                	c.addi4spn	x9,x2,160
     f53:	08090003          	lb	x0,128(x18)
     f57:	0100                	c.addi4spn	x8,x2,128
     f59:	0200                	c.addi4spn	x8,x2,256
     f5b:	1104                	c.addi4spn	x9,x2,160
     f5d:	00090003          	lb	x0,0(x18)
     f61:	0100                	c.addi4spn	x8,x2,128
     f63:	0200                	c.addi4spn	x8,x2,256
     f65:	1104                	c.addi4spn	x9,x2,160
     f67:	04090003          	lb	x0,64(x18)
     f6b:	0100                	c.addi4spn	x8,x2,128
     f6d:	0200                	c.addi4spn	x8,x2,256
     f6f:	1104                	c.addi4spn	x9,x2,160
     f71:	04090003          	lb	x0,64(x18)
     f75:	0100                	c.addi4spn	x8,x2,128
     f77:	0200                	c.addi4spn	x8,x2,256
     f79:	1104                	c.addi4spn	x9,x2,160
     f7b:	00090003          	lb	x0,0(x18)
     f7f:	0100                	c.addi4spn	x8,x2,128
     f81:	0200                	c.addi4spn	x8,x2,256
     f83:	1104                	c.addi4spn	x9,x2,160
     f85:	08090003          	lb	x0,128(x18)
     f89:	0100                	c.addi4spn	x8,x2,128
     f8b:	0200                	c.addi4spn	x8,x2,256
     f8d:	1104                	c.addi4spn	x9,x2,160
     f8f:	00090003          	lb	x0,0(x18)
     f93:	0100                	c.addi4spn	x8,x2,128
     f95:	0200                	c.addi4spn	x8,x2,256
     f97:	1104                	c.addi4spn	x9,x2,160
     f99:	04090003          	lb	x0,64(x18)
     f9d:	0100                	c.addi4spn	x8,x2,128
     f9f:	0200                	c.addi4spn	x8,x2,256
     fa1:	1104                	c.addi4spn	x9,x2,160
     fa3:	10090003          	lb	x0,256(x18)
     fa7:	0100                	c.addi4spn	x8,x2,128
     fa9:	0200                	c.addi4spn	x8,x2,256
     fab:	1104                	c.addi4spn	x9,x2,160
     fad:	00090003          	lb	x0,0(x18)
     fb1:	0100                	c.addi4spn	x8,x2,128
     fb3:	0200                	c.addi4spn	x8,x2,256
     fb5:	1104                	c.addi4spn	x9,x2,160
     fb7:	00090003          	lb	x0,0(x18)
     fbb:	0100                	c.addi4spn	x8,x2,128
     fbd:	0200                	c.addi4spn	x8,x2,256
     fbf:	1204                	c.addi4spn	x9,x2,288
     fc1:	04090003          	lb	x0,64(x18)
     fc5:	0100                	c.addi4spn	x8,x2,128
     fc7:	0200                	c.addi4spn	x8,x2,256
     fc9:	1404                	c.addi4spn	x9,x2,544
     fcb:	04090003          	lb	x0,64(x18)
     fcf:	0100                	c.addi4spn	x8,x2,128
     fd1:	0200                	c.addi4spn	x8,x2,256
     fd3:	1404                	c.addi4spn	x9,x2,544
     fd5:	00090003          	lb	x0,0(x18)
     fd9:	0100                	c.addi4spn	x8,x2,128
     fdb:	0200                	c.addi4spn	x8,x2,256
     fdd:	1404                	c.addi4spn	x9,x2,544
     fdf:	00090003          	lb	x0,0(x18)
     fe3:	0100                	c.addi4spn	x8,x2,128
     fe5:	0200                	c.addi4spn	x8,x2,256
     fe7:	1404                	c.addi4spn	x9,x2,544
     fe9:	00090003          	lb	x0,0(x18)
     fed:	0100                	c.addi4spn	x8,x2,128
     fef:	0200                	c.addi4spn	x8,x2,256
     ff1:	1404                	c.addi4spn	x9,x2,544
     ff3:	00090003          	lb	x0,0(x18)
     ff7:	0100                	c.addi4spn	x8,x2,128
     ff9:	0200                	c.addi4spn	x8,x2,256
     ffb:	1404                	c.addi4spn	x9,x2,544
     ffd:	00090003          	lb	x0,0(x18)
    1001:	0100                	c.addi4spn	x8,x2,128
    1003:	0200                	c.addi4spn	x8,x2,256
    1005:	1404                	c.addi4spn	x9,x2,544
    1007:	18090003          	lb	x0,384(x18)
    100b:	0100                	c.addi4spn	x8,x2,128
    100d:	0200                	c.addi4spn	x8,x2,256
    100f:	1404                	c.addi4spn	x9,x2,544
    1011:	08090003          	lb	x0,128(x18)
    1015:	0100                	c.addi4spn	x8,x2,128
    1017:	0200                	c.addi4spn	x8,x2,256
    1019:	1404                	c.addi4spn	x9,x2,544
    101b:	04090003          	lb	x0,64(x18)
    101f:	0100                	c.addi4spn	x8,x2,128
    1021:	0200                	c.addi4spn	x8,x2,256
    1023:	1404                	c.addi4spn	x9,x2,544
    1025:	00090003          	lb	x0,0(x18)
    1029:	0100                	c.addi4spn	x8,x2,128
    102b:	0200                	c.addi4spn	x8,x2,256
    102d:	1404                	c.addi4spn	x9,x2,544
    102f:	04090003          	lb	x0,64(x18)
    1033:	0100                	c.addi4spn	x8,x2,128
    1035:	0200                	c.addi4spn	x8,x2,256
    1037:	1404                	c.addi4spn	x9,x2,544
    1039:	00090003          	lb	x0,0(x18)
    103d:	0100                	c.addi4spn	x8,x2,128
    103f:	0200                	c.addi4spn	x8,x2,256
    1041:	1404                	c.addi4spn	x9,x2,544
    1043:	00090003          	lb	x0,0(x18)
    1047:	0100                	c.addi4spn	x8,x2,128
    1049:	0200                	c.addi4spn	x8,x2,256
    104b:	1404                	c.addi4spn	x9,x2,544
    104d:	00090003          	lb	x0,0(x18)
    1051:	0100                	c.addi4spn	x8,x2,128
    1053:	0200                	c.addi4spn	x8,x2,256
    1055:	1404                	c.addi4spn	x9,x2,544
    1057:	00090003          	lb	x0,0(x18)
    105b:	0100                	c.addi4spn	x8,x2,128
    105d:	0200                	c.addi4spn	x8,x2,256
    105f:	1404                	c.addi4spn	x9,x2,544
    1061:	00090003          	lb	x0,0(x18)
    1065:	0100                	c.addi4spn	x8,x2,128
    1067:	0200                	c.addi4spn	x8,x2,256
    1069:	1404                	c.addi4spn	x9,x2,544
    106b:	04090003          	lb	x0,64(x18)
    106f:	0100                	c.addi4spn	x8,x2,128
    1071:	0200                	c.addi4spn	x8,x2,256
    1073:	1404                	c.addi4spn	x9,x2,544
    1075:	04090003          	lb	x0,64(x18)
    1079:	0100                	c.addi4spn	x8,x2,128
    107b:	0200                	c.addi4spn	x8,x2,256
    107d:	1404                	c.addi4spn	x9,x2,544
    107f:	04090003          	lb	x0,64(x18)
    1083:	0100                	c.addi4spn	x8,x2,128
    1085:	0200                	c.addi4spn	x8,x2,256
    1087:	1404                	c.addi4spn	x9,x2,544
    1089:	00090003          	lb	x0,0(x18)
    108d:	0100                	c.addi4spn	x8,x2,128
    108f:	0200                	c.addi4spn	x8,x2,256
    1091:	1404                	c.addi4spn	x9,x2,544
    1093:	04090003          	lb	x0,64(x18)
    1097:	0100                	c.addi4spn	x8,x2,128
    1099:	0200                	c.addi4spn	x8,x2,256
    109b:	1404                	c.addi4spn	x9,x2,544
    109d:	00090003          	lb	x0,0(x18)
    10a1:	0100                	c.addi4spn	x8,x2,128
    10a3:	0200                	c.addi4spn	x8,x2,256
    10a5:	1404                	c.addi4spn	x9,x2,544
    10a7:	00090003          	lb	x0,0(x18)
    10ab:	0100                	c.addi4spn	x8,x2,128
    10ad:	0200                	c.addi4spn	x8,x2,256
    10af:	1404                	c.addi4spn	x9,x2,544
    10b1:	00090003          	lb	x0,0(x18)
    10b5:	0100                	c.addi4spn	x8,x2,128
    10b7:	0200                	c.addi4spn	x8,x2,256
    10b9:	1404                	c.addi4spn	x9,x2,544
    10bb:	00090003          	lb	x0,0(x18)
    10bf:	0100                	c.addi4spn	x8,x2,128
    10c1:	0200                	c.addi4spn	x8,x2,256
    10c3:	1404                	c.addi4spn	x9,x2,544
    10c5:	00090003          	lb	x0,0(x18)
    10c9:	0100                	c.addi4spn	x8,x2,128
    10cb:	0200                	c.addi4spn	x8,x2,256
    10cd:	1404                	c.addi4spn	x9,x2,544
    10cf:	00090003          	lb	x0,0(x18)
    10d3:	0100                	c.addi4spn	x8,x2,128
    10d5:	0200                	c.addi4spn	x8,x2,256
    10d7:	1404                	c.addi4spn	x9,x2,544
    10d9:	00090003          	lb	x0,0(x18)
    10dd:	0100                	c.addi4spn	x8,x2,128
    10df:	0200                	c.addi4spn	x8,x2,256
    10e1:	1404                	c.addi4spn	x9,x2,544
    10e3:	00090003          	lb	x0,0(x18)
    10e7:	0100                	c.addi4spn	x8,x2,128
    10e9:	0200                	c.addi4spn	x8,x2,256
    10eb:	1404                	c.addi4spn	x9,x2,544
    10ed:	00090003          	lb	x0,0(x18)
    10f1:	0100                	c.addi4spn	x8,x2,128
    10f3:	0200                	c.addi4spn	x8,x2,256
    10f5:	1404                	c.addi4spn	x9,x2,544
    10f7:	00090003          	lb	x0,0(x18)
    10fb:	0100                	c.addi4spn	x8,x2,128
    10fd:	0200                	c.addi4spn	x8,x2,256
    10ff:	1404                	c.addi4spn	x9,x2,544
    1101:	00090003          	lb	x0,0(x18)
    1105:	0100                	c.addi4spn	x8,x2,128
    1107:	0200                	c.addi4spn	x8,x2,256
    1109:	1404                	c.addi4spn	x9,x2,544
    110b:	00090003          	lb	x0,0(x18)
    110f:	0100                	c.addi4spn	x8,x2,128
    1111:	0200                	c.addi4spn	x8,x2,256
    1113:	1404                	c.addi4spn	x9,x2,544
    1115:	00090003          	lb	x0,0(x18)
    1119:	0100                	c.addi4spn	x8,x2,128
    111b:	0200                	c.addi4spn	x8,x2,256
    111d:	1404                	c.addi4spn	x9,x2,544
    111f:	00090003          	lb	x0,0(x18)
    1123:	0100                	c.addi4spn	x8,x2,128
    1125:	0200                	c.addi4spn	x8,x2,256
    1127:	1404                	c.addi4spn	x9,x2,544
    1129:	00090003          	lb	x0,0(x18)
    112d:	0100                	c.addi4spn	x8,x2,128
    112f:	0200                	c.addi4spn	x8,x2,256
    1131:	1404                	c.addi4spn	x9,x2,544
    1133:	00090003          	lb	x0,0(x18)
    1137:	0100                	c.addi4spn	x8,x2,128
    1139:	0200                	c.addi4spn	x8,x2,256
    113b:	1404                	c.addi4spn	x9,x2,544
    113d:	00090003          	lb	x0,0(x18)
    1141:	0100                	c.addi4spn	x8,x2,128
    1143:	0200                	c.addi4spn	x8,x2,256
    1145:	1404                	c.addi4spn	x9,x2,544
    1147:	00090003          	lb	x0,0(x18)
    114b:	0100                	c.addi4spn	x8,x2,128
    114d:	0200                	c.addi4spn	x8,x2,256
    114f:	1404                	c.addi4spn	x9,x2,544
    1151:	00090003          	lb	x0,0(x18)
    1155:	0100                	c.addi4spn	x8,x2,128
    1157:	0200                	c.addi4spn	x8,x2,256
    1159:	1404                	c.addi4spn	x9,x2,544
    115b:	00090003          	lb	x0,0(x18)
    115f:	0100                	c.addi4spn	x8,x2,128
    1161:	0200                	c.addi4spn	x8,x2,256
    1163:	1404                	c.addi4spn	x9,x2,544
    1165:	00090003          	lb	x0,0(x18)
    1169:	0100                	c.addi4spn	x8,x2,128
    116b:	0200                	c.addi4spn	x8,x2,256
    116d:	1404                	c.addi4spn	x9,x2,544
    116f:	00090003          	lb	x0,0(x18)
    1173:	0100                	c.addi4spn	x8,x2,128
    1175:	0200                	c.addi4spn	x8,x2,256
    1177:	1404                	c.addi4spn	x9,x2,544
    1179:	00090003          	lb	x0,0(x18)
    117d:	0100                	c.addi4spn	x8,x2,128
    117f:	0200                	c.addi4spn	x8,x2,256
    1181:	1404                	c.addi4spn	x9,x2,544
    1183:	00090003          	lb	x0,0(x18)
    1187:	0100                	c.addi4spn	x8,x2,128
    1189:	0200                	c.addi4spn	x8,x2,256
    118b:	1404                	c.addi4spn	x9,x2,544
    118d:	00090003          	lb	x0,0(x18)
    1191:	0100                	c.addi4spn	x8,x2,128
    1193:	0200                	c.addi4spn	x8,x2,256
    1195:	1404                	c.addi4spn	x9,x2,544
    1197:	34090003          	lb	x0,832(x18)
    119b:	0100                	c.addi4spn	x8,x2,128
    119d:	0200                	c.addi4spn	x8,x2,256
    119f:	1404                	c.addi4spn	x9,x2,544
    11a1:	00090003          	lb	x0,0(x18)
    11a5:	0100                	c.addi4spn	x8,x2,128
    11a7:	0200                	c.addi4spn	x8,x2,256
    11a9:	1404                	c.addi4spn	x9,x2,544
    11ab:	00090003          	lb	x0,0(x18)
    11af:	0100                	c.addi4spn	x8,x2,128
    11b1:	0200                	c.addi4spn	x8,x2,256
    11b3:	1404                	c.addi4spn	x9,x2,544
    11b5:	00090003          	lb	x0,0(x18)
    11b9:	0100                	c.addi4spn	x8,x2,128
    11bb:	0200                	c.addi4spn	x8,x2,256
    11bd:	1404                	c.addi4spn	x9,x2,544
    11bf:	00090003          	lb	x0,0(x18)
    11c3:	0100                	c.addi4spn	x8,x2,128
    11c5:	0200                	c.addi4spn	x8,x2,256
    11c7:	1404                	c.addi4spn	x9,x2,544
    11c9:	00090003          	lb	x0,0(x18)
    11cd:	0100                	c.addi4spn	x8,x2,128
    11cf:	0200                	c.addi4spn	x8,x2,256
    11d1:	1404                	c.addi4spn	x9,x2,544
    11d3:	00090003          	lb	x0,0(x18)
    11d7:	0100                	c.addi4spn	x8,x2,128
    11d9:	0200                	c.addi4spn	x8,x2,256
    11db:	1404                	c.addi4spn	x9,x2,544
    11dd:	1c090003          	lb	x0,448(x18)
    11e1:	0100                	c.addi4spn	x8,x2,128
    11e3:	0200                	c.addi4spn	x8,x2,256
    11e5:	1404                	c.addi4spn	x9,x2,544
    11e7:	00090003          	lb	x0,0(x18)
    11eb:	0100                	c.addi4spn	x8,x2,128
    11ed:	0200                	c.addi4spn	x8,x2,256
    11ef:	1404                	c.addi4spn	x9,x2,544
    11f1:	00090003          	lb	x0,0(x18)
    11f5:	0100                	c.addi4spn	x8,x2,128
    11f7:	0200                	c.addi4spn	x8,x2,256
    11f9:	1404                	c.addi4spn	x9,x2,544
    11fb:	00090003          	lb	x0,0(x18)
    11ff:	0100                	c.addi4spn	x8,x2,128
    1201:	0200                	c.addi4spn	x8,x2,256
    1203:	1404                	c.addi4spn	x9,x2,544
    1205:	00090003          	lb	x0,0(x18)
    1209:	0100                	c.addi4spn	x8,x2,128
    120b:	0200                	c.addi4spn	x8,x2,256
    120d:	2604                	c.fld	f9,8(x12)
    120f:	0c090003          	lb	x0,192(x18)
    1213:	0100                	c.addi4spn	x8,x2,128
    1215:	0200                	c.addi4spn	x8,x2,256
    1217:	2604                	c.fld	f9,8(x12)
    1219:	00090003          	lb	x0,0(x18)
    121d:	0100                	c.addi4spn	x8,x2,128
    121f:	0200                	c.addi4spn	x8,x2,256
    1221:	2604                	c.fld	f9,8(x12)
    1223:	14090003          	lb	x0,320(x18)
    1227:	0100                	c.addi4spn	x8,x2,128
    1229:	0200                	c.addi4spn	x8,x2,256
    122b:	0204                	c.addi4spn	x9,x2,256
    122d:	04090103          	lb	x2,64(x18)
    1231:	0100                	c.addi4spn	x8,x2,128
    1233:	0200                	c.addi4spn	x8,x2,256
    1235:	0204                	c.addi4spn	x9,x2,256
    1237:	04090003          	lb	x0,64(x18)
    123b:	0100                	c.addi4spn	x8,x2,128
    123d:	0200                	c.addi4spn	x8,x2,256
    123f:	0604                	c.addi4spn	x9,x2,768
    1241:	04090003          	lb	x0,64(x18)
    1245:	0100                	c.addi4spn	x8,x2,128
    1247:	0200                	c.addi4spn	x8,x2,256
    1249:	0604                	c.addi4spn	x9,x2,768
    124b:	00090003          	lb	x0,0(x18)
    124f:	0100                	c.addi4spn	x8,x2,128
    1251:	0200                	c.addi4spn	x8,x2,256
    1253:	0804                	c.addi4spn	x9,x2,16
    1255:	08090003          	lb	x0,128(x18)
    1259:	0100                	c.addi4spn	x8,x2,128
    125b:	0200                	c.addi4spn	x8,x2,256
    125d:	0804                	c.addi4spn	x9,x2,16
    125f:	00090003          	lb	x0,0(x18)
    1263:	0100                	c.addi4spn	x8,x2,128
    1265:	0200                	c.addi4spn	x8,x2,256
    1267:	0804                	c.addi4spn	x9,x2,16
    1269:	00090003          	lb	x0,0(x18)
    126d:	0100                	c.addi4spn	x8,x2,128
    126f:	0200                	c.addi4spn	x8,x2,256
    1271:	0804                	c.addi4spn	x9,x2,16
    1273:	00090003          	lb	x0,0(x18)
    1277:	0100                	c.addi4spn	x8,x2,128
    1279:	0200                	c.addi4spn	x8,x2,256
    127b:	0a04                	c.addi4spn	x9,x2,272
    127d:	0c090003          	lb	x0,192(x18)
    1281:	0100                	c.addi4spn	x8,x2,128
    1283:	0200                	c.addi4spn	x8,x2,256
    1285:	0a04                	c.addi4spn	x9,x2,272
    1287:	00090003          	lb	x0,0(x18)
    128b:	0100                	c.addi4spn	x8,x2,128
    128d:	0200                	c.addi4spn	x8,x2,256
    128f:	0a04                	c.addi4spn	x9,x2,272
    1291:	00090003          	lb	x0,0(x18)
    1295:	0100                	c.addi4spn	x8,x2,128
    1297:	0200                	c.addi4spn	x8,x2,256
    1299:	0a04                	c.addi4spn	x9,x2,272
    129b:	04090003          	lb	x0,64(x18)
    129f:	0100                	c.addi4spn	x8,x2,128
    12a1:	0200                	c.addi4spn	x8,x2,256
    12a3:	0a04                	c.addi4spn	x9,x2,272
    12a5:	08090003          	lb	x0,128(x18)
    12a9:	0100                	c.addi4spn	x8,x2,128
    12ab:	0200                	c.addi4spn	x8,x2,256
    12ad:	0904                	c.addi4spn	x9,x2,144
    12af:	04090003          	lb	x0,64(x18)
    12b3:	0100                	c.addi4spn	x8,x2,128
    12b5:	0200                	c.addi4spn	x8,x2,256
    12b7:	0904                	c.addi4spn	x9,x2,144
    12b9:	00090003          	lb	x0,0(x18)
    12bd:	0100                	c.addi4spn	x8,x2,128
    12bf:	0200                	c.addi4spn	x8,x2,256
    12c1:	1804                	c.addi4spn	x9,x2,48
    12c3:	0c090003          	lb	x0,192(x18)
    12c7:	0100                	c.addi4spn	x8,x2,128
    12c9:	0200                	c.addi4spn	x8,x2,256
    12cb:	1804                	c.addi4spn	x9,x2,48
    12cd:	0c090003          	lb	x0,192(x18)
    12d1:	0100                	c.addi4spn	x8,x2,128
    12d3:	0200                	c.addi4spn	x8,x2,256
    12d5:	1a04                	c.addi4spn	x9,x2,304
    12d7:	04090003          	lb	x0,64(x18)
    12db:	0100                	c.addi4spn	x8,x2,128
    12dd:	0200                	c.addi4spn	x8,x2,256
    12df:	1a04                	c.addi4spn	x9,x2,304
    12e1:	00090003          	lb	x0,0(x18)
    12e5:	0100                	c.addi4spn	x8,x2,128
    12e7:	0200                	c.addi4spn	x8,x2,256
    12e9:	1a04                	c.addi4spn	x9,x2,304
    12eb:	00090003          	lb	x0,0(x18)
    12ef:	0100                	c.addi4spn	x8,x2,128
    12f1:	0200                	c.addi4spn	x8,x2,256
    12f3:	1a04                	c.addi4spn	x9,x2,304
    12f5:	00090003          	lb	x0,0(x18)
    12f9:	0100                	c.addi4spn	x8,x2,128
    12fb:	0306                	c.slli	x6,0x1
    12fd:	0900                	c.addi4spn	x8,x2,144
    12ff:	0008                	0x8
    1301:	0001                	c.addi	x0,0
    1303:	0402                	c.slli64	x8
    1305:	00030677          	0x30677
    1309:	1009                	c.addi	x0,-30
    130b:	0100                	c.addi4spn	x8,x2,128
    130d:	0200                	c.addi4spn	x8,x2,256
    130f:	7704                	c.flw	f9,40(x14)
    1311:	00090003          	lb	x0,0(x18)
    1315:	0100                	c.addi4spn	x8,x2,128
    1317:	0200                	c.addi4spn	x8,x2,256
    1319:	7704                	c.flw	f9,40(x14)
    131b:	00090003          	lb	x0,0(x18)
    131f:	0100                	c.addi4spn	x8,x2,128
    1321:	0200                	c.addi4spn	x8,x2,256
    1323:	7704                	c.flw	f9,40(x14)
    1325:	00090003          	lb	x0,0(x18)
    1329:	0100                	c.addi4spn	x8,x2,128
    132b:	0200                	c.addi4spn	x8,x2,256
    132d:	7704                	c.flw	f9,40(x14)
    132f:	00090003          	lb	x0,0(x18)
    1333:	0100                	c.addi4spn	x8,x2,128
    1335:	0200                	c.addi4spn	x8,x2,256
    1337:	7704                	c.flw	f9,40(x14)
    1339:	00090003          	lb	x0,0(x18)
    133d:	0100                	c.addi4spn	x8,x2,128
    133f:	0200                	c.addi4spn	x8,x2,256
    1341:	7704                	c.flw	f9,40(x14)
    1343:	00090003          	lb	x0,0(x18)
    1347:	0100                	c.addi4spn	x8,x2,128
    1349:	0200                	c.addi4spn	x8,x2,256
    134b:	7704                	c.flw	f9,40(x14)
    134d:	00090003          	lb	x0,0(x18)
    1351:	0100                	c.addi4spn	x8,x2,128
    1353:	0105                	c.addi	x2,1
    1355:	0200                	c.addi4spn	x8,x2,256
    1357:	7704                	c.flw	f9,40(x14)
    1359:	0306                	c.slli	x6,0x1
    135b:	0904                	c.addi4spn	x9,x2,144
    135d:	001c                	0x1c
    135f:	0501                	c.addi	x10,0
    1361:	04020003          	lb	x0,64(x4) # 40 <.L15+0x8>
    1365:	097c0377          	0x97c0377
    1369:	0004                	0x4
    136b:	0001                	c.addi	x0,0
    136d:	0402                	c.slli64	x8
    136f:	00030677          	0x30677
    1373:	0409                	c.addi	x8,2
    1375:	0100                	c.addi4spn	x8,x2,128
    1377:	0200                	c.addi4spn	x8,x2,256
    1379:	7704                	c.flw	f9,40(x14)
    137b:	00090003          	lb	x0,0(x18)
    137f:	0100                	c.addi4spn	x8,x2,128
    1381:	0200                	c.addi4spn	x8,x2,256
    1383:	7704                	c.flw	f9,40(x14)
    1385:	00090103          	lb	x2,0(x18)
    1389:	0100                	c.addi4spn	x8,x2,128
    138b:	0200                	c.addi4spn	x8,x2,256
    138d:	7704                	c.flw	f9,40(x14)
    138f:	00090003          	lb	x0,0(x18)
    1393:	0100                	c.addi4spn	x8,x2,128
    1395:	0200                	c.addi4spn	x8,x2,256
    1397:	7704                	c.flw	f9,40(x14)
    1399:	00090003          	lb	x0,0(x18)
    139d:	0100                	c.addi4spn	x8,x2,128
    139f:	0200                	c.addi4spn	x8,x2,256
    13a1:	7704                	c.flw	f9,40(x14)
    13a3:	00090203          	lb	x4,0(x18)
    13a7:	0100                	c.addi4spn	x8,x2,128
    13a9:	0105                	c.addi	x2,1
    13ab:	0200                	c.addi4spn	x8,x2,256
    13ad:	7704                	c.flw	f9,40(x14)
    13af:	0306                	c.slli	x6,0x1
    13b1:	0901                	c.addi	x18,0
    13b3:	0000                	c.unimp
    13b5:	0501                	c.addi	x10,0
    13b7:	04020003          	lb	x0,64(x4) # 40 <.L15+0x8>
    13bb:	09790307          	0x9790307
    13bf:	0030                	c.addi4spn	x12,x2,8
    13c1:	0001                	c.addi	x0,0
    13c3:	0402                	c.slli64	x8
    13c5:	02030607          	0x2030607
    13c9:	0409                	c.addi	x8,2
    13cb:	0100                	c.addi4spn	x8,x2,128
    13cd:	0200                	c.addi4spn	x8,x2,256
    13cf:	2f04                	c.fld	f9,24(x14)
    13d1:	0c090003          	lb	x0,192(x18)
    13d5:	0100                	c.addi4spn	x8,x2,128
    13d7:	0200                	c.addi4spn	x8,x2,256
    13d9:	2f04                	c.fld	f9,24(x14)
    13db:	00090103          	lb	x2,0(x18)
    13df:	0100                	c.addi4spn	x8,x2,128
    13e1:	0200                	c.addi4spn	x8,x2,256
    13e3:	2f04                	c.fld	f9,24(x14)
    13e5:	00090003          	lb	x0,0(x18)
    13e9:	0100                	c.addi4spn	x8,x2,128
    13eb:	0200                	c.addi4spn	x8,x2,256
    13ed:	2f04                	c.fld	f9,24(x14)
    13ef:	00090003          	lb	x0,0(x18)
    13f3:	0100                	c.addi4spn	x8,x2,128
    13f5:	0306                	c.slli	x6,0x1
    13f7:	0900                	c.addi4spn	x8,x2,144
    13f9:	0008                	0x8
    13fb:	0001                	c.addi	x0,0
    13fd:	0402                	c.slli64	x8
    13ff:	0304                	c.addi4spn	x9,x2,384
    1401:	097e                	c.slli	x18,0x1f
    1403:	001c                	0x1c
    1405:	0001                	c.addi	x0,0
    1407:	0402                	c.slli64	x8
    1409:	0604                	c.addi4spn	x9,x2,768
    140b:	04090103          	lb	x2,64(x18)
    140f:	0100                	c.addi4spn	x8,x2,128
    1411:	0306                	c.slli	x6,0x1
    1413:	0900                	c.addi4spn	x8,x2,144
    1415:	0004                	0x4
    1417:	0001                	c.addi	x0,0
    1419:	0402                	c.slli64	x8
    141b:	0103063b          	0x103063b
    141f:	0809                	c.addi	x16,2
    1421:	0100                	c.addi4spn	x8,x2,128
    1423:	0200                	c.addi4spn	x8,x2,256
    1425:	3b04                	c.fld	f9,48(x14)
    1427:	00090003          	lb	x0,0(x18)
    142b:	0100                	c.addi4spn	x8,x2,128
    142d:	0200                	c.addi4spn	x8,x2,256
    142f:	3b04                	c.fld	f9,48(x14)
    1431:	00090003          	lb	x0,0(x18)
    1435:	0100                	c.addi4spn	x8,x2,128
    1437:	0200                	c.addi4spn	x8,x2,256
    1439:	3b04                	c.fld	f9,48(x14)
    143b:	08090003          	lb	x0,128(x18)
    143f:	0100                	c.addi4spn	x8,x2,128
    1441:	0200                	c.addi4spn	x8,x2,256
    1443:	3c04                	c.fld	f9,56(x8)
    1445:	08090003          	lb	x0,128(x18)
    1449:	0100                	c.addi4spn	x8,x2,128
    144b:	0200                	c.addi4spn	x8,x2,256
    144d:	3e04                	c.fld	f9,56(x12)
    144f:	08090003          	lb	x0,128(x18)
    1453:	0100                	c.addi4spn	x8,x2,128
    1455:	0200                	c.addi4spn	x8,x2,256
    1457:	3e04                	c.fld	f9,56(x12)
    1459:	1c090003          	lb	x0,448(x18)
    145d:	0100                	c.addi4spn	x8,x2,128
    145f:	0200                	c.addi4spn	x8,x2,256
    1461:	4b04                	c.lw	x9,16(x14)
    1463:	04090003          	lb	x0,64(x18)
    1467:	0100                	c.addi4spn	x8,x2,128
    1469:	0200                	c.addi4spn	x8,x2,256
    146b:	4b04                	c.lw	x9,16(x14)
    146d:	00090003          	lb	x0,0(x18)
    1471:	0100                	c.addi4spn	x8,x2,128
    1473:	0200                	c.addi4spn	x8,x2,256
    1475:	4c04                	c.lw	x9,24(x8)
    1477:	08090003          	lb	x0,128(x18)
    147b:	0100                	c.addi4spn	x8,x2,128
    147d:	0200                	c.addi4spn	x8,x2,256
    147f:	4c04                	c.lw	x9,24(x8)
    1481:	00090003          	lb	x0,0(x18)
    1485:	0100                	c.addi4spn	x8,x2,128
    1487:	0200                	c.addi4spn	x8,x2,256
    1489:	4c04                	c.lw	x9,24(x8)
    148b:	00090003          	lb	x0,0(x18)
    148f:	0100                	c.addi4spn	x8,x2,128
    1491:	0200                	c.addi4spn	x8,x2,256
    1493:	4c04                	c.lw	x9,24(x8)
    1495:	00090003          	lb	x0,0(x18)
    1499:	0100                	c.addi4spn	x8,x2,128
    149b:	0200                	c.addi4spn	x8,x2,256
    149d:	4e04                	c.lw	x9,24(x12)
    149f:	0c090003          	lb	x0,192(x18)
    14a3:	0100                	c.addi4spn	x8,x2,128
    14a5:	0200                	c.addi4spn	x8,x2,256
    14a7:	4e04                	c.lw	x9,24(x12)
    14a9:	00090003          	lb	x0,0(x18)
    14ad:	0100                	c.addi4spn	x8,x2,128
    14af:	0200                	c.addi4spn	x8,x2,256
    14b1:	4e04                	c.lw	x9,24(x12)
    14b3:	00090003          	lb	x0,0(x18)
    14b7:	0100                	c.addi4spn	x8,x2,128
    14b9:	0200                	c.addi4spn	x8,x2,256
    14bb:	4e04                	c.lw	x9,24(x12)
    14bd:	04090003          	lb	x0,64(x18)
    14c1:	0100                	c.addi4spn	x8,x2,128
    14c3:	0200                	c.addi4spn	x8,x2,256
    14c5:	4e04                	c.lw	x9,24(x12)
    14c7:	08090003          	lb	x0,128(x18)
    14cb:	0100                	c.addi4spn	x8,x2,128
    14cd:	0200                	c.addi4spn	x8,x2,256
    14cf:	4d04                	c.lw	x9,24(x10)
    14d1:	04090003          	lb	x0,64(x18)
    14d5:	0100                	c.addi4spn	x8,x2,128
    14d7:	0200                	c.addi4spn	x8,x2,256
    14d9:	4d04                	c.lw	x9,24(x10)
    14db:	00090003          	lb	x0,0(x18)
    14df:	0100                	c.addi4spn	x8,x2,128
    14e1:	0200                	c.addi4spn	x8,x2,256
    14e3:	5d04                	c.lw	x9,56(x10)
    14e5:	0c090003          	lb	x0,192(x18)
    14e9:	0100                	c.addi4spn	x8,x2,128
    14eb:	0200                	c.addi4spn	x8,x2,256
    14ed:	5d04                	c.lw	x9,56(x10)
    14ef:	00090003          	lb	x0,0(x18)
    14f3:	0100                	c.addi4spn	x8,x2,128
    14f5:	0200                	c.addi4spn	x8,x2,256
    14f7:	5d04                	c.lw	x9,56(x10)
    14f9:	00090003          	lb	x0,0(x18)
    14fd:	0100                	c.addi4spn	x8,x2,128
    14ff:	0200                	c.addi4spn	x8,x2,256
    1501:	5d04                	c.lw	x9,56(x10)
    1503:	0c090003          	lb	x0,192(x18)
    1507:	0100                	c.addi4spn	x8,x2,128
    1509:	0306                	c.slli	x6,0x1
    150b:	0900                	c.addi4spn	x8,x2,144
    150d:	0004                	0x4
    150f:	0001                	c.addi	x0,0
    1511:	0402                	c.slli64	x8
    1513:	0003063f 01000809 	0x10008090003063f
    151b:	0200                	c.addi4spn	x8,x2,256
    151d:	4704                	c.lw	x9,8(x14)
    151f:	0306                	c.slli	x6,0x1
    1521:	0900                	c.addi4spn	x8,x2,144
    1523:	0018                	0x18
    1525:	0001                	c.addi	x0,0
    1527:	0402                	c.slli64	x8
    1529:	034a                	c.slli	x6,0x12
    152b:	0900                	c.addi4spn	x8,x2,144
    152d:	0008                	0x8
    152f:	0001                	c.addi	x0,0
    1531:	0402                	c.slli64	x8
    1533:	064a                	c.slli	x12,0x12
    1535:	0c090003          	lb	x0,192(x18)
    1539:	0100                	c.addi4spn	x8,x2,128
    153b:	0306                	c.slli	x6,0x1
    153d:	0900                	c.addi4spn	x8,x2,144
    153f:	0008                	0x8
    1541:	0901                	c.addi	x18,0
    1543:	0034                	c.addi4spn	x13,x2,8
    1545:	0100                	c.addi4spn	x8,x2,128
    1547:	                	0x6e01

00001548 <.Ldebug_line0>:
    1548:	106e                	c.slli	x0,0x3b
    154a:	0000                	c.unimp
    154c:	004f0003          	lb	x0,4(x30)
    1550:	0000                	c.unimp
    1552:	0101                	c.addi	x2,0
    1554:	000d0efb          	0xd0efb
    1558:	0101                	c.addi	x2,0
    155a:	0101                	c.addi	x2,0
    155c:	0000                	c.unimp
    155e:	0100                	c.addi4spn	x8,x2,128
    1560:	0000                	c.unimp
    1562:	2e01                	c.jal	1872 <.LVL225+0x2>
    1564:	2f2e                	c.fldsp	f30,200(x2)
    1566:	2e2e                	c.fldsp	f28,200(x2)
    1568:	2f2e2e2f          	0x2f2e2e2f
    156c:	2f2e                	c.fldsp	f30,200(x2)
    156e:	6972                	c.flwsp	f18,28(x2)
    1570:	2d766373          	csrrsi	x6,0x2d7,12
    1574:	2f636367          	0x2f636367
    1578:	696c                	c.flw	f11,84(x10)
    157a:	6762                	c.flwsp	f14,24(x2)
    157c:	732f6363          	bltu	x30,x18,1ca2 <.L114+0xa>
    1580:	2d74666f          	jal	x12,48056 <.LC1+0x43ebe>
    1584:	7066                	c.flwsp	f0,120(x2)
    1586:	0000                	c.unimp
    1588:	64627573          	csrrci	x10,0x646,4
    158c:	3366                	c.fldsp	f6,120(x2)
    158e:	632e                	c.flwsp	f6,200(x2)
    1590:	0100                	c.addi4spn	x8,x2,128
    1592:	0000                	c.unimp
    1594:	6f64                	c.flw	f9,92(x14)
    1596:	6275                	c.lui	x4,0x1d
    1598:	656c                	c.flw	f11,76(x10)
    159a:	682e                	c.flwsp	f16,200(x2)
    159c:	0100                	c.addi4spn	x8,x2,128
    159e:	0000                	c.unimp
    15a0:	0500                	c.addi4spn	x8,x2,640
    15a2:	0001                	c.addi	x0,0
    15a4:	0205                	c.addi	x4,1
    15a6:	1128                	c.addi4spn	x10,x2,168
    15a8:	0000                	c.unimp
    15aa:	05012303          	lw	x6,80(x2)
    15ae:	09010303          	lb	x6,144(x2)
    15b2:	0000                	c.unimp
    15b4:	0301                	c.addi	x6,0
    15b6:	0900                	c.addi4spn	x8,x2,144
    15b8:	0000                	c.unimp
    15ba:	0501                	c.addi	x10,0
    15bc:	030d                	c.addi	x6,3
    15be:	0900                	c.addi4spn	x8,x2,144
    15c0:	0000                	c.unimp
    15c2:	0501                	c.addi	x10,0
    15c4:	09010303          	lb	x6,144(x2)
    15c8:	0000                	c.unimp
    15ca:	0301                	c.addi	x6,0
    15cc:	0900                	c.addi4spn	x8,x2,144
    15ce:	0000                	c.unimp
    15d0:	0301                	c.addi	x6,0
    15d2:	0900                	c.addi4spn	x8,x2,144
    15d4:	0000                	c.unimp
    15d6:	0301                	c.addi	x6,0
    15d8:	0900                	c.addi4spn	x8,x2,144
    15da:	0000                	c.unimp
    15dc:	0301                	c.addi	x6,0
    15de:	0901                	c.addi	x18,0
    15e0:	0000                	c.unimp
    15e2:	0301                	c.addi	x6,0
    15e4:	0900                	c.addi4spn	x8,x2,144
    15e6:	0000                	c.unimp
    15e8:	0301                	c.addi	x6,0
    15ea:	0900                	c.addi4spn	x8,x2,144
    15ec:	0000                	c.unimp
    15ee:	0301                	c.addi	x6,0
    15f0:	0900                	c.addi4spn	x8,x2,144
    15f2:	0000                	c.unimp
    15f4:	0301                	c.addi	x6,0
    15f6:	0901                	c.addi	x18,0
    15f8:	0000                	c.unimp
    15fa:	0301                	c.addi	x6,0
    15fc:	0900                	c.addi4spn	x8,x2,144
    15fe:	0000                	c.unimp
    1600:	0301                	c.addi	x6,0
    1602:	0900                	c.addi4spn	x8,x2,144
    1604:	0000                	c.unimp
    1606:	0301                	c.addi	x6,0
    1608:	0900                	c.addi4spn	x8,x2,144
    160a:	0000                	c.unimp
    160c:	0301                	c.addi	x6,0
    160e:	0901                	c.addi	x18,0
    1610:	0000                	c.unimp
    1612:	0301                	c.addi	x6,0
    1614:	0902                	c.slli64	x18
    1616:	0000                	c.unimp
    1618:	0301                	c.addi	x6,0
    161a:	0901                	c.addi	x18,0
    161c:	0000                	c.unimp
    161e:	0301                	c.addi	x6,0
    1620:	0900                	c.addi4spn	x8,x2,144
    1622:	0000                	c.unimp
    1624:	0301                	c.addi	x6,0
    1626:	0900                	c.addi4spn	x8,x2,144
    1628:	0000                	c.unimp
    162a:	0301                	c.addi	x6,0
    162c:	0900                	c.addi4spn	x8,x2,144
    162e:	0000                	c.unimp
    1630:	0301                	c.addi	x6,0
    1632:	0900                	c.addi4spn	x8,x2,144
    1634:	0000                	c.unimp
    1636:	0301                	c.addi	x6,0
    1638:	0900                	c.addi4spn	x8,x2,144
    163a:	0000                	c.unimp
    163c:	0501                	c.addi	x10,0
    163e:	0601                	c.addi	x12,0
    1640:	08097803          	0x8097803
    1644:	0100                	c.addi4spn	x8,x2,128
    1646:	0305                	c.addi	x6,1
    1648:	04090803          	lb	x16,64(x18)
    164c:	0100                	c.addi4spn	x8,x2,128
    164e:	0306                	c.slli	x6,0x1
    1650:	0900                	c.addi4spn	x8,x2,144
    1652:	0004                	0x4
    1654:	0601                	c.addi	x12,0
    1656:	04090103          	lb	x2,64(x18)
    165a:	0100                	c.addi4spn	x8,x2,128
    165c:	0105                	c.addi	x2,1
    165e:	08097703          	0x8097703
    1662:	0100                	c.addi4spn	x8,x2,128
    1664:	0305                	c.addi	x6,1
    1666:	04090803          	lb	x16,64(x18)
    166a:	0100                	c.addi4spn	x8,x2,128
    166c:	0306                	c.slli	x6,0x1
    166e:	0900                	c.addi4spn	x8,x2,144
    1670:	0008                	0x8
    1672:	0501                	c.addi	x10,0
    1674:	0601                	c.addi	x12,0
    1676:	04097803          	0x4097803
    167a:	0100                	c.addi4spn	x8,x2,128
    167c:	0305                	c.addi	x6,1
    167e:	04090803          	lb	x16,64(x18)
    1682:	0100                	c.addi4spn	x8,x2,128
    1684:	0306                	c.slli	x6,0x1
    1686:	0900                	c.addi4spn	x8,x2,144
    1688:	0008                	0x8
    168a:	0301                	c.addi	x6,0
    168c:	0900                	c.addi4spn	x8,x2,144
    168e:	0000                	c.unimp
    1690:	0301                	c.addi	x6,0
    1692:	0900                	c.addi4spn	x8,x2,144
    1694:	0000                	c.unimp
    1696:	0301                	c.addi	x6,0
    1698:	0900                	c.addi4spn	x8,x2,144
    169a:	0000                	c.unimp
    169c:	0301                	c.addi	x6,0
    169e:	0900                	c.addi4spn	x8,x2,144
    16a0:	0000                	c.unimp
    16a2:	0601                	c.addi	x12,0
    16a4:	00090103          	lb	x2,0(x18)
    16a8:	0100                	c.addi4spn	x8,x2,128
    16aa:	04097f03          	0x4097f03
    16ae:	0100                	c.addi4spn	x8,x2,128
    16b0:	0306                	c.slli	x6,0x1
    16b2:	0900                	c.addi4spn	x8,x2,144
    16b4:	0004                	0x4
    16b6:	0301                	c.addi	x6,0
    16b8:	0900                	c.addi4spn	x8,x2,144
    16ba:	0000                	c.unimp
    16bc:	0301                	c.addi	x6,0
    16be:	0901                	c.addi	x18,0
    16c0:	0000                	c.unimp
    16c2:	0301                	c.addi	x6,0
    16c4:	0900                	c.addi4spn	x8,x2,144
    16c6:	0000                	c.unimp
    16c8:	0301                	c.addi	x6,0
    16ca:	0900                	c.addi4spn	x8,x2,144
    16cc:	0000                	c.unimp
    16ce:	0301                	c.addi	x6,0
    16d0:	0900                	c.addi4spn	x8,x2,144
    16d2:	0000                	c.unimp
    16d4:	0301                	c.addi	x6,0
    16d6:	0900                	c.addi4spn	x8,x2,144
    16d8:	0000                	c.unimp
    16da:	0301                	c.addi	x6,0
    16dc:	0900                	c.addi4spn	x8,x2,144
    16de:	0000                	c.unimp
    16e0:	0301                	c.addi	x6,0
    16e2:	0900                	c.addi4spn	x8,x2,144
    16e4:	0000                	c.unimp
    16e6:	0501                	c.addi	x10,0
    16e8:	0601                	c.addi	x12,0
    16ea:	04097703          	0x4097703
    16ee:	0100                	c.addi4spn	x8,x2,128
    16f0:	0305                	c.addi	x6,1
    16f2:	0c090903          	lb	x18,192(x18)
    16f6:	0100                	c.addi4spn	x8,x2,128
    16f8:	0306                	c.slli	x6,0x1
    16fa:	0900                	c.addi4spn	x8,x2,144
    16fc:	0004                	0x4
    16fe:	0601                	c.addi	x12,0
    1700:	00090103          	lb	x2,0(x18)
    1704:	0100                	c.addi4spn	x8,x2,128
    1706:	04097f03          	0x4097f03
    170a:	0100                	c.addi4spn	x8,x2,128
    170c:	0306                	c.slli	x6,0x1
    170e:	0900                	c.addi4spn	x8,x2,144
    1710:	0004                	0x4
    1712:	0301                	c.addi	x6,0
    1714:	0900                	c.addi4spn	x8,x2,144
    1716:	0000                	c.unimp
    1718:	0301                	c.addi	x6,0
    171a:	0900                	c.addi4spn	x8,x2,144
    171c:	0000                	c.unimp
    171e:	0301                	c.addi	x6,0
    1720:	0900                	c.addi4spn	x8,x2,144
    1722:	0000                	c.unimp
    1724:	0301                	c.addi	x6,0
    1726:	0900                	c.addi4spn	x8,x2,144
    1728:	0004                	0x4
    172a:	0301                	c.addi	x6,0
    172c:	0900                	c.addi4spn	x8,x2,144
    172e:	0004                	0x4
    1730:	0301                	c.addi	x6,0
    1732:	0900                	c.addi4spn	x8,x2,144
    1734:	0000                	c.unimp
    1736:	0301                	c.addi	x6,0
    1738:	0901                	c.addi	x18,0
    173a:	0000                	c.unimp
    173c:	0301                	c.addi	x6,0
    173e:	0900                	c.addi4spn	x8,x2,144
    1740:	0000                	c.unimp
    1742:	0001                	c.addi	x0,0
    1744:	0402                	c.slli64	x8
    1746:	0602                	c.slli64	x12
    1748:	04090003          	lb	x0,64(x18)
    174c:	0100                	c.addi4spn	x8,x2,128
    174e:	0200                	c.addi4spn	x8,x2,256
    1750:	0304                	c.addi4spn	x9,x2,384
    1752:	0306                	c.slli	x6,0x1
    1754:	0900                	c.addi4spn	x8,x2,144
    1756:	0008                	0x8
    1758:	0001                	c.addi	x0,0
    175a:	0402                	c.slli64	x8
    175c:	0900030b          	0x900030b
    1760:	0004                	0x4
    1762:	0001                	c.addi	x0,0
    1764:	0402                	c.slli64	x8
    1766:	0900030b          	0x900030b
    176a:	0000                	c.unimp
    176c:	0001                	c.addi	x0,0
    176e:	0402                	c.slli64	x8
    1770:	0900030b          	0x900030b
    1774:	0000                	c.unimp
    1776:	0001                	c.addi	x0,0
    1778:	0402                	c.slli64	x8
    177a:	0900030b          	0x900030b
    177e:	0000                	c.unimp
    1780:	0001                	c.addi	x0,0
    1782:	0402                	c.slli64	x8
    1784:	0900030b          	0x900030b
    1788:	0000                	c.unimp
    178a:	0001                	c.addi	x0,0
    178c:	0402                	c.slli64	x8
    178e:	0900030b          	0x900030b
    1792:	0000                	c.unimp
    1794:	0001                	c.addi	x0,0
    1796:	0402                	c.slli64	x8
    1798:	0900030b          	0x900030b
    179c:	0000                	c.unimp
    179e:	0001                	c.addi	x0,0
    17a0:	0402                	c.slli64	x8
    17a2:	0900030b          	0x900030b
    17a6:	0000                	c.unimp
    17a8:	0001                	c.addi	x0,0
    17aa:	0402                	c.slli64	x8
    17ac:	030c                	c.addi4spn	x11,x2,384
    17ae:	0900                	c.addi4spn	x8,x2,144
    17b0:	0008                	0x8
    17b2:	0001                	c.addi	x0,0
    17b4:	0402                	c.slli64	x8
    17b6:	030c                	c.addi4spn	x11,x2,384
    17b8:	0900                	c.addi4spn	x8,x2,144
    17ba:	0000                	c.unimp
    17bc:	0001                	c.addi	x0,0
    17be:	0402                	c.slli64	x8
    17c0:	030c                	c.addi4spn	x11,x2,384
    17c2:	0900                	c.addi4spn	x8,x2,144
    17c4:	0000                	c.unimp
    17c6:	0001                	c.addi	x0,0
    17c8:	0402                	c.slli64	x8
    17ca:	030e                	c.slli	x6,0x3
    17cc:	0900                	c.addi4spn	x8,x2,144
    17ce:	0004                	0x4
    17d0:	0001                	c.addi	x0,0
    17d2:	0402                	c.slli64	x8
    17d4:	030e                	c.slli	x6,0x3
    17d6:	0900                	c.addi4spn	x8,x2,144
    17d8:	0000                	c.unimp
    17da:	0001                	c.addi	x0,0
    17dc:	0402                	c.slli64	x8
    17de:	0310                	c.addi4spn	x12,x2,384
    17e0:	0900                	c.addi4spn	x8,x2,144
    17e2:	0004                	0x4
    17e4:	0001                	c.addi	x0,0
    17e6:	0402                	c.slli64	x8
    17e8:	09000313          	addi	x6,x0,144
    17ec:	0008                	0x8
    17ee:	0001                	c.addi	x0,0
    17f0:	0402                	c.slli64	x8
    17f2:	09000313          	addi	x6,x0,144
    17f6:	0000                	c.unimp
    17f8:	0001                	c.addi	x0,0
    17fa:	0402                	c.slli64	x8
    17fc:	09000313          	addi	x6,x0,144
    1800:	0004                	0x4
    1802:	0001                	c.addi	x0,0
    1804:	0402                	c.slli64	x8
    1806:	031c                	c.addi4spn	x15,x2,384
    1808:	0900                	c.addi4spn	x8,x2,144
    180a:	0004                	0x4
    180c:	0001                	c.addi	x0,0
    180e:	0402                	c.slli64	x8
    1810:	031c                	c.addi4spn	x15,x2,384
    1812:	0900                	c.addi4spn	x8,x2,144
    1814:	0000                	c.unimp
    1816:	0001                	c.addi	x0,0
    1818:	0402                	c.slli64	x8
    181a:	031c                	c.addi4spn	x15,x2,384
    181c:	0900                	c.addi4spn	x8,x2,144
    181e:	0000                	c.unimp
    1820:	0001                	c.addi	x0,0
    1822:	0402                	c.slli64	x8
    1824:	031c                	c.addi4spn	x15,x2,384
    1826:	0900                	c.addi4spn	x8,x2,144
    1828:	0004                	0x4
    182a:	0001                	c.addi	x0,0
    182c:	0402                	c.slli64	x8
    182e:	031c                	c.addi4spn	x15,x2,384
    1830:	0900                	c.addi4spn	x8,x2,144
    1832:	000c                	0xc
    1834:	0001                	c.addi	x0,0
    1836:	0402                	c.slli64	x8
    1838:	031c                	c.addi4spn	x15,x2,384
    183a:	0900                	c.addi4spn	x8,x2,144
    183c:	0000                	c.unimp
    183e:	0001                	c.addi	x0,0
    1840:	0402                	c.slli64	x8
    1842:	031c                	c.addi4spn	x15,x2,384
    1844:	0900                	c.addi4spn	x8,x2,144
    1846:	0000                	c.unimp
    1848:	0001                	c.addi	x0,0
    184a:	0402                	c.slli64	x8
    184c:	0355                	c.addi	x6,21
    184e:	0900                	c.addi4spn	x8,x2,144
    1850:	0004                	0x4
    1852:	0001                	c.addi	x0,0
    1854:	0402                	c.slli64	x8
    1856:	0355                	c.addi	x6,21
    1858:	0900                	c.addi4spn	x8,x2,144
    185a:	0000                	c.unimp
    185c:	0001                	c.addi	x0,0
    185e:	0402                	c.slli64	x8
    1860:	0355                	c.addi	x6,21
    1862:	0900                	c.addi4spn	x8,x2,144
    1864:	0000                	c.unimp
    1866:	0001                	c.addi	x0,0
    1868:	0402                	c.slli64	x8
    186a:	0655                	c.addi	x12,21
    186c:	00097f03          	0x97f03
    1870:	0100                	c.addi4spn	x8,x2,128
    1872:	0200                	c.addi4spn	x8,x2,256
    1874:	5504                	c.lw	x9,40(x10)
    1876:	04090103          	lb	x2,64(x18)
    187a:	0100                	c.addi4spn	x8,x2,128
    187c:	0200                	c.addi4spn	x8,x2,256
    187e:	1d04                	c.addi4spn	x9,x2,688
    1880:	0306                	c.slli	x6,0x1
    1882:	0900                	c.addi4spn	x8,x2,144
    1884:	0004                	0x4
    1886:	0601                	c.addi	x12,0
    1888:	08090003          	lb	x0,128(x18)
    188c:	0100                	c.addi4spn	x8,x2,128
    188e:	0200                	c.addi4spn	x8,x2,256
    1890:	1104                	c.addi4spn	x9,x2,160
    1892:	0306                	c.slli	x6,0x1
    1894:	0900                	c.addi4spn	x8,x2,144
    1896:	0008                	0x8
    1898:	0001                	c.addi	x0,0
    189a:	0402                	c.slli64	x8
    189c:	0900032b          	0x900032b
    18a0:	0008                	0x8
    18a2:	0001                	c.addi	x0,0
    18a4:	0402                	c.slli64	x8
    18a6:	0334                	c.addi4spn	x13,x2,392
    18a8:	0900                	c.addi4spn	x8,x2,144
    18aa:	000c                	0xc
    18ac:	0001                	c.addi	x0,0
    18ae:	0402                	c.slli64	x8
    18b0:	0335                	c.addi	x6,13
    18b2:	0900                	c.addi4spn	x8,x2,144
    18b4:	0008                	0x8
    18b6:	0001                	c.addi	x0,0
    18b8:	0402                	c.slli64	x8
    18ba:	09000337          	lui	x6,0x9000
    18be:	0008                	0x8
    18c0:	0001                	c.addi	x0,0
    18c2:	0402                	c.slli64	x8
    18c4:	09000337          	lui	x6,0x9000
    18c8:	0020                	c.addi4spn	x8,x2,8
    18ca:	0001                	c.addi	x0,0
    18cc:	0402                	c.slli64	x8
    18ce:	0345                	c.addi	x6,17
    18d0:	0900                	c.addi4spn	x8,x2,144
    18d2:	0004                	0x4
    18d4:	0001                	c.addi	x0,0
    18d6:	0402                	c.slli64	x8
    18d8:	0345                	c.addi	x6,17
    18da:	0900                	c.addi4spn	x8,x2,144
    18dc:	0000                	c.unimp
    18de:	0001                	c.addi	x0,0
    18e0:	0402                	c.slli64	x8
    18e2:	0345                	c.addi	x6,17
    18e4:	0900                	c.addi4spn	x8,x2,144
    18e6:	0000                	c.unimp
    18e8:	0001                	c.addi	x0,0
    18ea:	0402                	c.slli64	x8
    18ec:	0345                	c.addi	x6,17
    18ee:	0900                	c.addi4spn	x8,x2,144
    18f0:	0004                	0x4
    18f2:	0001                	c.addi	x0,0
    18f4:	0402                	c.slli64	x8
    18f6:	0345                	c.addi	x6,17
    18f8:	0900                	c.addi4spn	x8,x2,144
    18fa:	000c                	0xc
    18fc:	0001                	c.addi	x0,0
    18fe:	0402                	c.slli64	x8
    1900:	0345                	c.addi	x6,17
    1902:	0900                	c.addi4spn	x8,x2,144
    1904:	0000                	c.unimp
    1906:	0001                	c.addi	x0,0
    1908:	0402                	c.slli64	x8
    190a:	037f                	0x37f
    190c:	0900                	c.addi4spn	x8,x2,144
    190e:	0004                	0x4
    1910:	0001                	c.addi	x0,0
    1912:	01bb0403          	lb	x8,27(x22)
    1916:	0c090003          	lb	x0,192(x18)
    191a:	0100                	c.addi4spn	x8,x2,128
    191c:	0300                	c.addi4spn	x8,x2,384
    191e:	bb04                	c.fsd	f9,48(x14)
    1920:	0301                	c.addi	x6,0
    1922:	0900                	c.addi4spn	x8,x2,144
    1924:	0000                	c.unimp
    1926:	0001                	c.addi	x0,0
    1928:	01bb0403          	lb	x8,27(x22)
    192c:	04090003          	lb	x0,64(x18)
    1930:	0100                	c.addi4spn	x8,x2,128
    1932:	0300                	c.addi4spn	x8,x2,384
    1934:	bb04                	c.fsd	f9,48(x14)
    1936:	0301                	c.addi	x6,0
    1938:	0900                	c.addi4spn	x8,x2,144
    193a:	0000                	c.unimp
    193c:	0001                	c.addi	x0,0
    193e:	01bb0403          	lb	x8,27(x22)
    1942:	00090003          	lb	x0,0(x18)
    1946:	0100                	c.addi4spn	x8,x2,128
    1948:	0300                	c.addi4spn	x8,x2,384
    194a:	bb04                	c.fsd	f9,48(x14)
    194c:	0301                	c.addi	x6,0
    194e:	0900                	c.addi4spn	x8,x2,144
    1950:	0000                	c.unimp
    1952:	0601                	c.addi	x12,0
    1954:	08090003          	lb	x0,128(x18)
    1958:	0100                	c.addi4spn	x8,x2,128
    195a:	0200                	c.addi4spn	x8,x2,256
    195c:	3804                	c.fld	f9,48(x8)
    195e:	0306                	c.slli	x6,0x1
    1960:	0900                	c.addi4spn	x8,x2,144
    1962:	0028                	c.addi4spn	x10,x2,8
    1964:	0001                	c.addi	x0,0
    1966:	0402                	c.slli64	x8
    1968:	0003063f 01001409 	0x10014090003063f
    1970:	0200                	c.addi4spn	x8,x2,256
    1972:	4204                	c.lw	x9,0(x12)
    1974:	0c090003          	lb	x0,192(x18)
    1978:	0100                	c.addi4spn	x8,x2,128
    197a:	0200                	c.addi4spn	x8,x2,256
    197c:	4204                	c.lw	x9,0(x12)
    197e:	0306                	c.slli	x6,0x1
    1980:	0900                	c.addi4spn	x8,x2,144
    1982:	000c                	0xc
    1984:	0001                	c.addi	x0,0
    1986:	0402                	c.slli64	x8
    1988:	0636                	c.slli	x12,0xd
    198a:	00090003          	lb	x0,0(x18)
    198e:	0100                	c.addi4spn	x8,x2,128
    1990:	0200                	c.addi4spn	x8,x2,256
    1992:	3604                	c.fld	f9,40(x12)
    1994:	0306                	c.slli	x6,0x1
    1996:	0900                	c.addi4spn	x8,x2,144
    1998:	0008                	0x8
    199a:	0001                	c.addi	x0,0
    199c:	0402                	c.slli64	x8
    199e:	0900030f          	0x900030f
    19a2:	000c                	0xc
    19a4:	0001                	c.addi	x0,0
    19a6:	0402                	c.slli64	x8
    19a8:	09000347          	fmsub.s	f6,f0,f16,f1,rne
    19ac:	0004                	0x4
    19ae:	0001                	c.addi	x0,0
    19b0:	0402                	c.slli64	x8
    19b2:	09000347          	fmsub.s	f6,f0,f16,f1,rne
    19b6:	0004                	0x4
    19b8:	0001                	c.addi	x0,0
    19ba:	0402                	c.slli64	x8
    19bc:	09000347          	fmsub.s	f6,f0,f16,f1,rne
    19c0:	0000                	c.unimp
    19c2:	0001                	c.addi	x0,0
    19c4:	0402                	c.slli64	x8
    19c6:	0349                	c.addi	x6,18
    19c8:	0900                	c.addi4spn	x8,x2,144
    19ca:	0004                	0x4
    19cc:	0001                	c.addi	x0,0
    19ce:	0402                	c.slli64	x8
    19d0:	034c                	c.addi4spn	x11,x2,388
    19d2:	0900                	c.addi4spn	x8,x2,144
    19d4:	0008                	0x8
    19d6:	0001                	c.addi	x0,0
    19d8:	0402                	c.slli64	x8
    19da:	034c                	c.addi4spn	x11,x2,388
    19dc:	0900                	c.addi4spn	x8,x2,144
    19de:	0000                	c.unimp
    19e0:	0001                	c.addi	x0,0
    19e2:	0402                	c.slli64	x8
    19e4:	034c                	c.addi4spn	x11,x2,388
    19e6:	0900                	c.addi4spn	x8,x2,144
    19e8:	0004                	0x4
    19ea:	0001                	c.addi	x0,0
    19ec:	0402                	c.slli64	x8
    19ee:	0355                	c.addi	x6,21
    19f0:	0900                	c.addi4spn	x8,x2,144
    19f2:	0004                	0x4
    19f4:	0001                	c.addi	x0,0
    19f6:	0402                	c.slli64	x8
    19f8:	0355                	c.addi	x6,21
    19fa:	0900                	c.addi4spn	x8,x2,144
    19fc:	0000                	c.unimp
    19fe:	0001                	c.addi	x0,0
    1a00:	0402                	c.slli64	x8
    1a02:	0355                	c.addi	x6,21
    1a04:	0900                	c.addi4spn	x8,x2,144
    1a06:	0000                	c.unimp
    1a08:	0001                	c.addi	x0,0
    1a0a:	0402                	c.slli64	x8
    1a0c:	0355                	c.addi	x6,21
    1a0e:	0900                	c.addi4spn	x8,x2,144
    1a10:	0004                	0x4
    1a12:	0001                	c.addi	x0,0
    1a14:	0402                	c.slli64	x8
    1a16:	0356                	c.slli	x6,0x15
    1a18:	0900                	c.addi4spn	x8,x2,144
    1a1a:	0010                	0x10
    1a1c:	0601                	c.addi	x12,0
    1a1e:	08097f03          	0x8097f03
    1a22:	0100                	c.addi4spn	x8,x2,128
    1a24:	0200                	c.addi4spn	x8,x2,256
    1a26:	4a04                	c.lw	x9,16(x12)
    1a28:	0306                	c.slli	x6,0x1
    1a2a:	0901                	c.addi	x18,0
    1a2c:	000c                	0xc
    1a2e:	0001                	c.addi	x0,0
    1a30:	0402                	c.slli64	x8
    1a32:	0364                	c.addi4spn	x9,x2,396
    1a34:	0900                	c.addi4spn	x8,x2,144
    1a36:	0008                	0x8
    1a38:	0001                	c.addi	x0,0
    1a3a:	0402                	c.slli64	x8
    1a3c:	036d                	c.addi	x6,27
    1a3e:	0900                	c.addi4spn	x8,x2,144
    1a40:	000c                	0xc
    1a42:	0001                	c.addi	x0,0
    1a44:	0402                	c.slli64	x8
    1a46:	036e                	c.slli	x6,0x1b
    1a48:	0900                	c.addi4spn	x8,x2,144
    1a4a:	0008                	0x8
    1a4c:	0001                	c.addi	x0,0
    1a4e:	0402                	c.slli64	x8
    1a50:	0370                	c.addi4spn	x12,x2,396
    1a52:	0900                	c.addi4spn	x8,x2,144
    1a54:	0008                	0x8
    1a56:	0001                	c.addi	x0,0
    1a58:	0402                	c.slli64	x8
    1a5a:	0370                	c.addi4spn	x12,x2,396
    1a5c:	0900                	c.addi4spn	x8,x2,144
    1a5e:	0020                	c.addi4spn	x8,x2,8
    1a60:	0001                	c.addi	x0,0
    1a62:	0402                	c.slli64	x8
    1a64:	037e                	c.slli	x6,0x1f
    1a66:	0900                	c.addi4spn	x8,x2,144
    1a68:	0004                	0x4
    1a6a:	0001                	c.addi	x0,0
    1a6c:	0402                	c.slli64	x8
    1a6e:	037e                	c.slli	x6,0x1f
    1a70:	0900                	c.addi4spn	x8,x2,144
    1a72:	0000                	c.unimp
    1a74:	0001                	c.addi	x0,0
    1a76:	0402                	c.slli64	x8
    1a78:	037e                	c.slli	x6,0x1f
    1a7a:	0900                	c.addi4spn	x8,x2,144
    1a7c:	0000                	c.unimp
    1a7e:	0001                	c.addi	x0,0
    1a80:	0402                	c.slli64	x8
    1a82:	037e                	c.slli	x6,0x1f
    1a84:	0900                	c.addi4spn	x8,x2,144
    1a86:	0004                	0x4
    1a88:	0001                	c.addi	x0,0
    1a8a:	0402                	c.slli64	x8
    1a8c:	037e                	c.slli	x6,0x1f
    1a8e:	0900                	c.addi4spn	x8,x2,144
    1a90:	000c                	0xc
    1a92:	0001                	c.addi	x0,0
    1a94:	0402                	c.slli64	x8
    1a96:	037e                	c.slli	x6,0x1f
    1a98:	0900                	c.addi4spn	x8,x2,144
    1a9a:	0000                	c.unimp
    1a9c:	0001                	c.addi	x0,0
    1a9e:	0402                	c.slli64	x8
    1aa0:	067e                	c.slli	x12,0x1f
    1aa2:	00097f03          	0x97f03
    1aa6:	0100                	c.addi4spn	x8,x2,128
    1aa8:	0200                	c.addi4spn	x8,x2,256
    1aaa:	7104                	c.flw	f9,32(x10)
    1aac:	0306                	c.slli	x6,0x1
    1aae:	0901                	c.addi	x18,0
    1ab0:	0008                	0x8
    1ab2:	0001                	c.addi	x0,0
    1ab4:	0402                	c.slli64	x8
    1ab6:	0678                	c.addi4spn	x14,x2,780
    1ab8:	14090003          	lb	x0,320(x18)
    1abc:	0100                	c.addi4spn	x8,x2,128
    1abe:	0200                	c.addi4spn	x8,x2,256
    1ac0:	7b04                	c.flw	f9,48(x14)
    1ac2:	0c090003          	lb	x0,192(x18)
    1ac6:	0100                	c.addi4spn	x8,x2,128
    1ac8:	0200                	c.addi4spn	x8,x2,256
    1aca:	7b04                	c.flw	f9,48(x14)
    1acc:	0306                	c.slli	x6,0x1
    1ace:	0900                	c.addi4spn	x8,x2,144
    1ad0:	000c                	0xc
    1ad2:	0001                	c.addi	x0,0
    1ad4:	0402                	c.slli64	x8
    1ad6:	0003066f          	jal	x12,31ad6 <.LC1+0x2d93e>
    1ada:	0009                	c.addi	x0,2
    1adc:	0100                	c.addi4spn	x8,x2,128
    1ade:	0200                	c.addi4spn	x8,x2,256
    1ae0:	6f04                	c.flw	f9,24(x14)
    1ae2:	0306                	c.slli	x6,0x1
    1ae4:	0900                	c.addi4spn	x8,x2,144
    1ae6:	0008                	0x8
    1ae8:	0001                	c.addi	x0,0
    1aea:	0402                	c.slli64	x8
    1aec:	0348                	c.addi4spn	x10,x2,388
    1aee:	0900                	c.addi4spn	x8,x2,144
    1af0:	000c                	0xc
    1af2:	0001                	c.addi	x0,0
    1af4:	01800403          	lb	x8,24(x0) # 18 <_finish>
    1af8:	0c090003          	lb	x0,192(x18)
    1afc:	0100                	c.addi4spn	x8,x2,128
    1afe:	0300                	c.addi4spn	x8,x2,384
    1b00:	8204                	0x8204
    1b02:	0301                	c.addi	x6,0
    1b04:	0900                	c.addi4spn	x8,x2,144
    1b06:	0008                	0x8
    1b08:	0001                	c.addi	x0,0
    1b0a:	01820403          	lb	x8,24(x4) # 1d018 <.LC1+0x18e80>
    1b0e:	00090003          	lb	x0,0(x18)
    1b12:	0100                	c.addi4spn	x8,x2,128
    1b14:	0300                	c.addi4spn	x8,x2,384
    1b16:	8504                	0x8504
    1b18:	0301                	c.addi	x6,0
    1b1a:	0900                	c.addi4spn	x8,x2,144
    1b1c:	0004                	0x4
    1b1e:	0001                	c.addi	x0,0
    1b20:	018b0403          	lb	x8,24(x22)
    1b24:	08090003          	lb	x0,128(x18)
    1b28:	0100                	c.addi4spn	x8,x2,128
    1b2a:	0300                	c.addi4spn	x8,x2,384
    1b2c:	8b04                	0x8b04
    1b2e:	0301                	c.addi	x6,0
    1b30:	0900                	c.addi4spn	x8,x2,144
    1b32:	0000                	c.unimp
    1b34:	0001                	c.addi	x0,0
    1b36:	018b0403          	lb	x8,24(x22)
    1b3a:	00090003          	lb	x0,0(x18)
    1b3e:	0100                	c.addi4spn	x8,x2,128
    1b40:	0300                	c.addi4spn	x8,x2,384
    1b42:	8b04                	0x8b04
    1b44:	0301                	c.addi	x6,0
    1b46:	0900                	c.addi4spn	x8,x2,144
    1b48:	0000                	c.unimp
    1b4a:	0001                	c.addi	x0,0
    1b4c:	018b0403          	lb	x8,24(x22)
    1b50:	04090003          	lb	x0,64(x18)
    1b54:	0100                	c.addi4spn	x8,x2,128
    1b56:	0300                	c.addi4spn	x8,x2,384
    1b58:	8b04                	0x8b04
    1b5a:	0301                	c.addi	x6,0
    1b5c:	0900                	c.addi4spn	x8,x2,144
    1b5e:	000c                	0xc
    1b60:	0001                	c.addi	x0,0
    1b62:	018b0403          	lb	x8,24(x22)
    1b66:	00090003          	lb	x0,0(x18)
    1b6a:	0100                	c.addi4spn	x8,x2,128
    1b6c:	0300                	c.addi4spn	x8,x2,384
    1b6e:	8b04                	0x8b04
    1b70:	0301                	c.addi	x6,0
    1b72:	0900                	c.addi4spn	x8,x2,144
    1b74:	0000                	c.unimp
    1b76:	0001                	c.addi	x0,0
    1b78:	018d0403          	lb	x8,24(x26) # b018 <.LC1+0x6e80>
    1b7c:	10090003          	lb	x0,256(x18)
    1b80:	0100                	c.addi4spn	x8,x2,128
    1b82:	0300                	c.addi4spn	x8,x2,384
    1b84:	8d04                	0x8d04
    1b86:	0301                	c.addi	x6,0
    1b88:	0900                	c.addi4spn	x8,x2,144
    1b8a:	000c                	0xc
    1b8c:	0001                	c.addi	x0,0
    1b8e:	03aa0403          	lb	x8,58(x20)
    1b92:	04090003          	lb	x0,64(x18)
    1b96:	0100                	c.addi4spn	x8,x2,128
    1b98:	0300                	c.addi4spn	x8,x2,384
    1b9a:	aa04                	c.fsd	f9,16(x12)
    1b9c:	09000303          	lb	x6,144(x0) # 90 <.LASF20+0xb>
    1ba0:	0000                	c.unimp
    1ba2:	0001                	c.addi	x0,0
    1ba4:	03aa0403          	lb	x8,58(x20)
    1ba8:	00090003          	lb	x0,0(x18)
    1bac:	0100                	c.addi4spn	x8,x2,128
    1bae:	0300                	c.addi4spn	x8,x2,384
    1bb0:	aa04                	c.fsd	f9,16(x12)
    1bb2:	09010303          	lb	x6,144(x2)
    1bb6:	0000                	c.unimp
    1bb8:	0001                	c.addi	x0,0
    1bba:	03aa0403          	lb	x8,58(x20)
    1bbe:	00090003          	lb	x0,0(x18)
    1bc2:	0100                	c.addi4spn	x8,x2,128
    1bc4:	0300                	c.addi4spn	x8,x2,384
    1bc6:	aa04                	c.fsd	f9,16(x12)
    1bc8:	09000303          	lb	x6,144(x0) # 90 <.LASF20+0xb>
    1bcc:	0000                	c.unimp
    1bce:	0001                	c.addi	x0,0
    1bd0:	03aa0403          	lb	x8,58(x20)
    1bd4:	00090003          	lb	x0,0(x18)
    1bd8:	0100                	c.addi4spn	x8,x2,128
    1bda:	0300                	c.addi4spn	x8,x2,384
    1bdc:	aa04                	c.fsd	f9,16(x12)
    1bde:	09000303          	lb	x6,144(x0) # 90 <.LASF20+0xb>
    1be2:	0000                	c.unimp
    1be4:	0001                	c.addi	x0,0
    1be6:	0402                	c.slli64	x8
    1be8:	0325                	c.addi	x6,9
    1bea:	0900                	c.addi4spn	x8,x2,144
    1bec:	0008                	0x8
    1bee:	0001                	c.addi	x0,0
    1bf0:	0402                	c.slli64	x8
    1bf2:	0325                	c.addi	x6,9
    1bf4:	0900                	c.addi4spn	x8,x2,144
    1bf6:	0000                	c.unimp
    1bf8:	0001                	c.addi	x0,0
    1bfa:	0402                	c.slli64	x8
    1bfc:	0325                	c.addi	x6,9
    1bfe:	0900                	c.addi4spn	x8,x2,144
    1c00:	0000                	c.unimp
    1c02:	0001                	c.addi	x0,0
    1c04:	0402                	c.slli64	x8
    1c06:	0325                	c.addi	x6,9
    1c08:	0900                	c.addi4spn	x8,x2,144
    1c0a:	0000                	c.unimp
    1c0c:	0001                	c.addi	x0,0
    1c0e:	0402                	c.slli64	x8
    1c10:	032c                	c.addi4spn	x11,x2,392
    1c12:	0900                	c.addi4spn	x8,x2,144
    1c14:	000c                	0xc
    1c16:	0001                	c.addi	x0,0
    1c18:	0402                	c.slli64	x8
    1c1a:	032c                	c.addi4spn	x11,x2,392
    1c1c:	0900                	c.addi4spn	x8,x2,144
    1c1e:	0000                	c.unimp
    1c20:	0001                	c.addi	x0,0
    1c22:	0402                	c.slli64	x8
    1c24:	032c                	c.addi4spn	x11,x2,392
    1c26:	0900                	c.addi4spn	x8,x2,144
    1c28:	0000                	c.unimp
    1c2a:	0001                	c.addi	x0,0
    1c2c:	0402                	c.slli64	x8
    1c2e:	032c                	c.addi4spn	x11,x2,392
    1c30:	0900                	c.addi4spn	x8,x2,144
    1c32:	0004                	0x4
    1c34:	0001                	c.addi	x0,0
    1c36:	0402                	c.slli64	x8
    1c38:	032c                	c.addi4spn	x11,x2,392
    1c3a:	0900                	c.addi4spn	x8,x2,144
    1c3c:	0008                	0x8
    1c3e:	0001                	c.addi	x0,0
    1c40:	019e0403          	lb	x8,25(x28)
    1c44:	08097f03          	0x8097f03
    1c48:	0100                	c.addi4spn	x8,x2,128
    1c4a:	0300                	c.addi4spn	x8,x2,384
    1c4c:	9e04                	0x9e04
    1c4e:	0301                	c.addi	x6,0
    1c50:	0900                	c.addi4spn	x8,x2,144
    1c52:	0000                	c.unimp
    1c54:	0001                	c.addi	x0,0
    1c56:	019e0403          	lb	x8,25(x28)
    1c5a:	00090003          	lb	x0,0(x18)
    1c5e:	0100                	c.addi4spn	x8,x2,128
    1c60:	0300                	c.addi4spn	x8,x2,384
    1c62:	9e04                	0x9e04
    1c64:	0301                	c.addi	x6,0
    1c66:	0900                	c.addi4spn	x8,x2,144
    1c68:	0000                	c.unimp
    1c6a:	0001                	c.addi	x0,0
    1c6c:	019e0403          	lb	x8,25(x28)
    1c70:	00090003          	lb	x0,0(x18)
    1c74:	0100                	c.addi4spn	x8,x2,128
    1c76:	0300                	c.addi4spn	x8,x2,384
    1c78:	9e04                	0x9e04
    1c7a:	0301                	c.addi	x6,0
    1c7c:	0900                	c.addi4spn	x8,x2,144
    1c7e:	0000                	c.unimp
    1c80:	0001                	c.addi	x0,0
    1c82:	019e0403          	lb	x8,25(x28)
    1c86:	00090003          	lb	x0,0(x18)
    1c8a:	0100                	c.addi4spn	x8,x2,128
    1c8c:	0300                	c.addi4spn	x8,x2,384
    1c8e:	9e04                	0x9e04
    1c90:	0301                	c.addi	x6,0
    1c92:	0900                	c.addi4spn	x8,x2,144
    1c94:	0000                	c.unimp
    1c96:	0001                	c.addi	x0,0
    1c98:	01a00403          	lb	x8,26(x0) # 1a <_finish+0x2>
    1c9c:	04090003          	lb	x0,64(x18)
    1ca0:	0100                	c.addi4spn	x8,x2,128
    1ca2:	0306                	c.slli	x6,0x1
    1ca4:	0900                	c.addi4spn	x8,x2,144
    1ca6:	0008                	0x8
    1ca8:	0001                	c.addi	x0,0
    1caa:	01810403          	lb	x8,24(x2)
    1cae:	0306                	c.slli	x6,0x1
    1cb0:	0900                	c.addi4spn	x8,x2,144
    1cb2:	0014                	0x14
    1cb4:	0001                	c.addi	x0,0
    1cb6:	01810403          	lb	x8,24(x2)
    1cba:	00090003          	lb	x0,0(x18)
    1cbe:	0100                	c.addi4spn	x8,x2,128
    1cc0:	0300                	c.addi4spn	x8,x2,384
    1cc2:	8104                	0x8104
    1cc4:	0301                	c.addi	x6,0
    1cc6:	0900                	c.addi4spn	x8,x2,144
    1cc8:	0000                	c.unimp
    1cca:	0001                	c.addi	x0,0
    1ccc:	01810403          	lb	x8,24(x2)
    1cd0:	00090003          	lb	x0,0(x18)
    1cd4:	0100                	c.addi4spn	x8,x2,128
    1cd6:	0300                	c.addi4spn	x8,x2,384
    1cd8:	8104                	0x8104
    1cda:	0301                	c.addi	x6,0
    1cdc:	0900                	c.addi4spn	x8,x2,144
    1cde:	0000                	c.unimp
    1ce0:	0001                	c.addi	x0,0
    1ce2:	01810403          	lb	x8,24(x2)
    1ce6:	00090003          	lb	x0,0(x18)
    1cea:	0100                	c.addi4spn	x8,x2,128
    1cec:	0300                	c.addi4spn	x8,x2,384
    1cee:	8104                	0x8104
    1cf0:	0301                	c.addi	x6,0
    1cf2:	0900                	c.addi4spn	x8,x2,144
    1cf4:	0000                	c.unimp
    1cf6:	0001                	c.addi	x0,0
    1cf8:	01810403          	lb	x8,24(x2)
    1cfc:	00090003          	lb	x0,0(x18)
    1d00:	0100                	c.addi4spn	x8,x2,128
    1d02:	0300                	c.addi4spn	x8,x2,384
    1d04:	8104                	0x8104
    1d06:	0301                	c.addi	x6,0
    1d08:	0900                	c.addi4spn	x8,x2,144
    1d0a:	0000                	c.unimp
    1d0c:	0001                	c.addi	x0,0
    1d0e:	01810403          	lb	x8,24(x2)
    1d12:	00090003          	lb	x0,0(x18)
    1d16:	0100                	c.addi4spn	x8,x2,128
    1d18:	0300                	c.addi4spn	x8,x2,384
    1d1a:	8104                	0x8104
    1d1c:	0301                	c.addi	x6,0
    1d1e:	0900                	c.addi4spn	x8,x2,144
    1d20:	0000                	c.unimp
    1d22:	0601                	c.addi	x12,0
    1d24:	08090003          	lb	x0,128(x18)
    1d28:	0100                	c.addi4spn	x8,x2,128
    1d2a:	0200                	c.addi4spn	x8,x2,256
    1d2c:	0d04                	c.addi4spn	x9,x2,656
    1d2e:	0306                	c.slli	x6,0x1
    1d30:	0900                	c.addi4spn	x8,x2,144
    1d32:	0028                	c.addi4spn	x10,x2,8
    1d34:	0001                	c.addi	x0,0
    1d36:	0402                	c.slli64	x8
    1d38:	030d                	c.addi	x6,3
    1d3a:	0900                	c.addi4spn	x8,x2,144
    1d3c:	0000                	c.unimp
    1d3e:	0001                	c.addi	x0,0
    1d40:	01cd0403          	lb	x8,28(x26)
    1d44:	04090003          	lb	x0,64(x18)
    1d48:	0100                	c.addi4spn	x8,x2,128
    1d4a:	0300                	c.addi4spn	x8,x2,384
    1d4c:	cd04                	c.sw	x9,24(x10)
    1d4e:	0301                	c.addi	x6,0
    1d50:	0900                	c.addi4spn	x8,x2,144
    1d52:	0000                	c.unimp
    1d54:	0001                	c.addi	x0,0
    1d56:	01cd0403          	lb	x8,28(x26)
    1d5a:	00090003          	lb	x0,0(x18)
    1d5e:	0100                	c.addi4spn	x8,x2,128
    1d60:	0300                	c.addi4spn	x8,x2,384
    1d62:	cf04                	c.sw	x9,24(x14)
    1d64:	0301                	c.addi	x6,0
    1d66:	0900                	c.addi4spn	x8,x2,144
    1d68:	0004                	0x4
    1d6a:	0001                	c.addi	x0,0
    1d6c:	01d20403          	lb	x8,29(x4) # 1d <.LASF0>
    1d70:	08090003          	lb	x0,128(x18)
    1d74:	0100                	c.addi4spn	x8,x2,128
    1d76:	0300                	c.addi4spn	x8,x2,384
    1d78:	d204                	c.sw	x9,32(x12)
    1d7a:	0301                	c.addi	x6,0
    1d7c:	0900                	c.addi4spn	x8,x2,144
    1d7e:	0000                	c.unimp
    1d80:	0001                	c.addi	x0,0
    1d82:	01d20403          	lb	x8,29(x4) # 1d <.LASF0>
    1d86:	04090003          	lb	x0,64(x18)
    1d8a:	0100                	c.addi4spn	x8,x2,128
    1d8c:	0300                	c.addi4spn	x8,x2,384
    1d8e:	db04                	c.sw	x9,48(x14)
    1d90:	0301                	c.addi	x6,0
    1d92:	0900                	c.addi4spn	x8,x2,144
    1d94:	0004                	0x4
    1d96:	0001                	c.addi	x0,0
    1d98:	01db0403          	lb	x8,29(x22)
    1d9c:	00090003          	lb	x0,0(x18)
    1da0:	0100                	c.addi4spn	x8,x2,128
    1da2:	0300                	c.addi4spn	x8,x2,384
    1da4:	db04                	c.sw	x9,48(x14)
    1da6:	0301                	c.addi	x6,0
    1da8:	0900                	c.addi4spn	x8,x2,144
    1daa:	0000                	c.unimp
    1dac:	0001                	c.addi	x0,0
    1dae:	01db0403          	lb	x8,29(x22)
    1db2:	04090003          	lb	x0,64(x18)
    1db6:	0100                	c.addi4spn	x8,x2,128
    1db8:	0300                	c.addi4spn	x8,x2,384
    1dba:	db04                	c.sw	x9,48(x14)
    1dbc:	0301                	c.addi	x6,0
    1dbe:	0900                	c.addi4spn	x8,x2,144
    1dc0:	000c                	0xc
    1dc2:	0001                	c.addi	x0,0
    1dc4:	01db0403          	lb	x8,29(x22)
    1dc8:	00090003          	lb	x0,0(x18)
    1dcc:	0100                	c.addi4spn	x8,x2,128
    1dce:	0300                	c.addi4spn	x8,x2,384
    1dd0:	db04                	c.sw	x9,48(x14)
    1dd2:	0301                	c.addi	x6,0
    1dd4:	0900                	c.addi4spn	x8,x2,144
    1dd6:	0000                	c.unimp
    1dd8:	0001                	c.addi	x0,0
    1dda:	02940403          	lb	x8,41(x8) # ffff7029 <.LC1+0xffff2e91>
    1dde:	0306                	c.slli	x6,0x1
    1de0:	097f                	0x97f
    1de2:	0004                	0x4
    1de4:	0001                	c.addi	x0,0
    1de6:	02940403          	lb	x8,41(x8)
    1dea:	04090103          	lb	x2,64(x18)
    1dee:	0100                	c.addi4spn	x8,x2,128
    1df0:	0300                	c.addi4spn	x8,x2,384
    1df2:	dc04                	c.sw	x9,56(x8)
    1df4:	0601                	c.addi	x12,0
    1df6:	04090003          	lb	x0,64(x18)
    1dfa:	0100                	c.addi4spn	x8,x2,128
    1dfc:	0300                	c.addi4spn	x8,x2,384
    1dfe:	f304                	c.fsw	f9,32(x14)
    1e00:	0301                	c.addi	x6,0
    1e02:	0900                	c.addi4spn	x8,x2,144
    1e04:	0008                	0x8
    1e06:	0001                	c.addi	x0,0
    1e08:	01f40403          	lb	x8,31(x8)
    1e0c:	08090003          	lb	x0,128(x18)
    1e10:	0100                	c.addi4spn	x8,x2,128
    1e12:	0300                	c.addi4spn	x8,x2,384
    1e14:	f604                	c.fsw	f9,40(x12)
    1e16:	0301                	c.addi	x6,0
    1e18:	0900                	c.addi4spn	x8,x2,144
    1e1a:	0008                	0x8
    1e1c:	0001                	c.addi	x0,0
    1e1e:	01f60403          	lb	x8,31(x12) # b01f <.LC1+0x6e87>
    1e22:	20090003          	lb	x0,512(x18)
    1e26:	0100                	c.addi4spn	x8,x2,128
    1e28:	0300                	c.addi4spn	x8,x2,384
    1e2a:	8404                	0x8404
    1e2c:	0302                	c.slli64	x6
    1e2e:	0900                	c.addi4spn	x8,x2,144
    1e30:	0004                	0x4
    1e32:	0001                	c.addi	x0,0
    1e34:	02840403          	lb	x8,40(x8)
    1e38:	00090003          	lb	x0,0(x18)
    1e3c:	0100                	c.addi4spn	x8,x2,128
    1e3e:	0300                	c.addi4spn	x8,x2,384
    1e40:	8404                	0x8404
    1e42:	0302                	c.slli64	x6
    1e44:	0900                	c.addi4spn	x8,x2,144
    1e46:	0000                	c.unimp
    1e48:	0001                	c.addi	x0,0
    1e4a:	02840403          	lb	x8,40(x8)
    1e4e:	04090003          	lb	x0,64(x18)
    1e52:	0100                	c.addi4spn	x8,x2,128
    1e54:	0300                	c.addi4spn	x8,x2,384
    1e56:	8404                	0x8404
    1e58:	0302                	c.slli64	x6
    1e5a:	0900                	c.addi4spn	x8,x2,144
    1e5c:	000c                	0xc
    1e5e:	0001                	c.addi	x0,0
    1e60:	02840403          	lb	x8,40(x8)
    1e64:	00090003          	lb	x0,0(x18)
    1e68:	0100                	c.addi4spn	x8,x2,128
    1e6a:	0300                	c.addi4spn	x8,x2,384
    1e6c:	be04                	c.fsd	f9,56(x12)
    1e6e:	0302                	c.slli64	x6
    1e70:	0900                	c.addi4spn	x8,x2,144
    1e72:	0004                	0x4
    1e74:	0001                	c.addi	x0,0
    1e76:	02fa0403          	lb	x8,47(x20)
    1e7a:	0c090003          	lb	x0,192(x18)
    1e7e:	0100                	c.addi4spn	x8,x2,128
    1e80:	0300                	c.addi4spn	x8,x2,384
    1e82:	fa04                	c.fsw	f9,48(x12)
    1e84:	0302                	c.slli64	x6
    1e86:	0900                	c.addi4spn	x8,x2,144
    1e88:	0000                	c.unimp
    1e8a:	0001                	c.addi	x0,0
    1e8c:	01d00403          	lb	x8,29(x0) # 1d <.LASF0>
    1e90:	10090003          	lb	x0,256(x18)
    1e94:	0100                	c.addi4spn	x8,x2,128
    1e96:	0300                	c.addi4spn	x8,x2,384
    1e98:	ea04                	c.fsw	f9,16(x12)
    1e9a:	0301                	c.addi	x6,0
    1e9c:	0900                	c.addi4spn	x8,x2,144
    1e9e:	0008                	0x8
    1ea0:	0001                	c.addi	x0,0
    1ea2:	01f70403          	lb	x8,31(x14)
    1ea6:	10090003          	lb	x0,256(x18)
    1eaa:	0100                	c.addi4spn	x8,x2,128
    1eac:	0300                	c.addi4spn	x8,x2,384
    1eae:	fe04                	c.fsw	f9,56(x12)
    1eb0:	0601                	c.addi	x12,0
    1eb2:	14090003          	lb	x0,320(x18)
    1eb6:	0100                	c.addi4spn	x8,x2,128
    1eb8:	0300                	c.addi4spn	x8,x2,384
    1eba:	8104                	0x8104
    1ebc:	0302                	c.slli64	x6
    1ebe:	0900                	c.addi4spn	x8,x2,144
    1ec0:	000c                	0xc
    1ec2:	0001                	c.addi	x0,0
    1ec4:	02810403          	lb	x8,40(x2)
    1ec8:	0306                	c.slli	x6,0x1
    1eca:	0900                	c.addi4spn	x8,x2,144
    1ecc:	000c                	0xc
    1ece:	0001                	c.addi	x0,0
    1ed0:	01f50403          	lb	x8,31(x10)
    1ed4:	0306                	c.slli	x6,0x1
    1ed6:	0900                	c.addi4spn	x8,x2,144
    1ed8:	0000                	c.unimp
    1eda:	0001                	c.addi	x0,0
    1edc:	01f50403          	lb	x8,31(x10)
    1ee0:	0306                	c.slli	x6,0x1
    1ee2:	0900                	c.addi4spn	x8,x2,144
    1ee4:	0008                	0x8
    1ee6:	0001                	c.addi	x0,0
    1ee8:	01ce0403          	lb	x8,28(x28)
    1eec:	0c090003          	lb	x0,192(x18)
    1ef0:	0100                	c.addi4spn	x8,x2,128
    1ef2:	0300                	c.addi4spn	x8,x2,384
    1ef4:	8604                	0x8604
    1ef6:	0302                	c.slli64	x6
    1ef8:	0900                	c.addi4spn	x8,x2,144
    1efa:	0004                	0x4
    1efc:	0001                	c.addi	x0,0
    1efe:	02860403          	lb	x8,40(x12)
    1f02:	04090003          	lb	x0,64(x18)
    1f06:	0100                	c.addi4spn	x8,x2,128
    1f08:	0300                	c.addi4spn	x8,x2,384
    1f0a:	8604                	0x8604
    1f0c:	0302                	c.slli64	x6
    1f0e:	0900                	c.addi4spn	x8,x2,144
    1f10:	0000                	c.unimp
    1f12:	0001                	c.addi	x0,0
    1f14:	02860403          	lb	x8,40(x12)
    1f18:	00090003          	lb	x0,0(x18)
    1f1c:	0100                	c.addi4spn	x8,x2,128
    1f1e:	0300                	c.addi4spn	x8,x2,384
    1f20:	8804                	0x8804
    1f22:	0302                	c.slli64	x6
    1f24:	0900                	c.addi4spn	x8,x2,144
    1f26:	0004                	0x4
    1f28:	0001                	c.addi	x0,0
    1f2a:	028b0403          	lb	x8,40(x22)
    1f2e:	08090003          	lb	x0,128(x18)
    1f32:	0100                	c.addi4spn	x8,x2,128
    1f34:	0300                	c.addi4spn	x8,x2,384
    1f36:	8b04                	0x8b04
    1f38:	0302                	c.slli64	x6
    1f3a:	0900                	c.addi4spn	x8,x2,144
    1f3c:	0000                	c.unimp
    1f3e:	0001                	c.addi	x0,0
    1f40:	028b0403          	lb	x8,40(x22)
    1f44:	04090003          	lb	x0,64(x18)
    1f48:	0100                	c.addi4spn	x8,x2,128
    1f4a:	0300                	c.addi4spn	x8,x2,384
    1f4c:	9404                	0x9404
    1f4e:	0302                	c.slli64	x6
    1f50:	0900                	c.addi4spn	x8,x2,144
    1f52:	0004                	0x4
    1f54:	0001                	c.addi	x0,0
    1f56:	02940403          	lb	x8,41(x8)
    1f5a:	00090003          	lb	x0,0(x18)
    1f5e:	0100                	c.addi4spn	x8,x2,128
    1f60:	0300                	c.addi4spn	x8,x2,384
    1f62:	9404                	0x9404
    1f64:	0302                	c.slli64	x6
    1f66:	0900                	c.addi4spn	x8,x2,144
    1f68:	0000                	c.unimp
    1f6a:	0001                	c.addi	x0,0
    1f6c:	02940403          	lb	x8,41(x8)
    1f70:	04090003          	lb	x0,64(x18)
    1f74:	0100                	c.addi4spn	x8,x2,128
    1f76:	0300                	c.addi4spn	x8,x2,384
    1f78:	9404                	0x9404
    1f7a:	0302                	c.slli64	x6
    1f7c:	0900                	c.addi4spn	x8,x2,144
    1f7e:	000c                	0xc
    1f80:	0001                	c.addi	x0,0
    1f82:	02940403          	lb	x8,41(x8)
    1f86:	00090003          	lb	x0,0(x18)
    1f8a:	0100                	c.addi4spn	x8,x2,128
    1f8c:	0300                	c.addi4spn	x8,x2,384
    1f8e:	9404                	0x9404
    1f90:	0302                	c.slli64	x6
    1f92:	0900                	c.addi4spn	x8,x2,144
    1f94:	0000                	c.unimp
    1f96:	0001                	c.addi	x0,0
    1f98:	02950403          	lb	x8,41(x10)
    1f9c:	08090003          	lb	x0,128(x18)
    1fa0:	0100                	c.addi4spn	x8,x2,128
    1fa2:	0306                	c.slli	x6,0x1
    1fa4:	097f                	0x97f
    1fa6:	0008                	0x8
    1fa8:	0301                	c.addi	x6,0
    1faa:	0901                	c.addi	x18,0
    1fac:	0008                	0x8
    1fae:	0001                	c.addi	x0,0
    1fb0:	02890403          	lb	x8,40(x18)
    1fb4:	0306                	c.slli	x6,0x1
    1fb6:	0900                	c.addi4spn	x8,x2,144
    1fb8:	0008                	0x8
    1fba:	0001                	c.addi	x0,0
    1fbc:	02a30403          	lb	x8,42(x6) # 900002a <.LC1+0x8ffbe92>
    1fc0:	08090003          	lb	x0,128(x18)
    1fc4:	0100                	c.addi4spn	x8,x2,128
    1fc6:	0300                	c.addi4spn	x8,x2,384
    1fc8:	ac04                	c.fsd	f9,24(x8)
    1fca:	0302                	c.slli64	x6
    1fcc:	0900                	c.addi4spn	x8,x2,144
    1fce:	000c                	0xc
    1fd0:	0001                	c.addi	x0,0
    1fd2:	02ad0403          	lb	x8,42(x26)
    1fd6:	08090003          	lb	x0,128(x18)
    1fda:	0100                	c.addi4spn	x8,x2,128
    1fdc:	0300                	c.addi4spn	x8,x2,384
    1fde:	af04                	c.fsd	f9,24(x14)
    1fe0:	0302                	c.slli64	x6
    1fe2:	0900                	c.addi4spn	x8,x2,144
    1fe4:	0008                	0x8
    1fe6:	0001                	c.addi	x0,0
    1fe8:	02af0403          	lb	x8,42(x30)
    1fec:	20090003          	lb	x0,512(x18)
    1ff0:	0100                	c.addi4spn	x8,x2,128
    1ff2:	0300                	c.addi4spn	x8,x2,384
    1ff4:	bd04                	c.fsd	f9,56(x10)
    1ff6:	0302                	c.slli64	x6
    1ff8:	0900                	c.addi4spn	x8,x2,144
    1ffa:	0004                	0x4
    1ffc:	0001                	c.addi	x0,0
    1ffe:	02bd0403          	lb	x8,43(x26)
    2002:	00090003          	lb	x0,0(x18)
    2006:	0100                	c.addi4spn	x8,x2,128
    2008:	0300                	c.addi4spn	x8,x2,384
    200a:	bd04                	c.fsd	f9,56(x10)
    200c:	0302                	c.slli64	x6
    200e:	0900                	c.addi4spn	x8,x2,144
    2010:	0000                	c.unimp
    2012:	0001                	c.addi	x0,0
    2014:	02bd0403          	lb	x8,43(x26)
    2018:	04090003          	lb	x0,64(x18)
    201c:	0100                	c.addi4spn	x8,x2,128
    201e:	0300                	c.addi4spn	x8,x2,384
    2020:	bd04                	c.fsd	f9,56(x10)
    2022:	0302                	c.slli64	x6
    2024:	0900                	c.addi4spn	x8,x2,144
    2026:	000c                	0xc
    2028:	0001                	c.addi	x0,0
    202a:	02bd0403          	lb	x8,43(x26)
    202e:	00090003          	lb	x0,0(x18)
    2032:	0100                	c.addi4spn	x8,x2,128
    2034:	0300                	c.addi4spn	x8,x2,384
    2036:	bd04                	c.fsd	f9,56(x10)
    2038:	0602                	c.slli64	x12
    203a:	00097f03          	0x97f03
    203e:	0100                	c.addi4spn	x8,x2,128
    2040:	0300                	c.addi4spn	x8,x2,384
    2042:	b004                	c.fsd	f9,32(x8)
    2044:	0602                	c.slli64	x12
    2046:	0c090103          	lb	x2,192(x18)
    204a:	0100                	c.addi4spn	x8,x2,128
    204c:	0300                	c.addi4spn	x8,x2,384
    204e:	b704                	c.fsd	f9,40(x14)
    2050:	0602                	c.slli64	x12
    2052:	14090003          	lb	x0,320(x18)
    2056:	0100                	c.addi4spn	x8,x2,128
    2058:	0300                	c.addi4spn	x8,x2,384
    205a:	ba04                	c.fsd	f9,48(x12)
    205c:	0302                	c.slli64	x6
    205e:	0900                	c.addi4spn	x8,x2,144
    2060:	000c                	0xc
    2062:	0001                	c.addi	x0,0
    2064:	02ba0403          	lb	x8,43(x20)
    2068:	0306                	c.slli	x6,0x1
    206a:	0900                	c.addi4spn	x8,x2,144
    206c:	000c                	0xc
    206e:	0001                	c.addi	x0,0
    2070:	02ae0403          	lb	x8,42(x28)
    2074:	0306                	c.slli	x6,0x1
    2076:	0900                	c.addi4spn	x8,x2,144
    2078:	0000                	c.unimp
    207a:	0001                	c.addi	x0,0
    207c:	02ae0403          	lb	x8,42(x28)
    2080:	0306                	c.slli	x6,0x1
    2082:	0900                	c.addi4spn	x8,x2,144
    2084:	0008                	0x8
    2086:	0001                	c.addi	x0,0
    2088:	02870403          	lb	x8,40(x14)
    208c:	0c090003          	lb	x0,192(x18)
    2090:	0100                	c.addi4spn	x8,x2,128
    2092:	0300                	c.addi4spn	x8,x2,384
    2094:	bf04                	c.fsd	f9,56(x14)
    2096:	0302                	c.slli64	x6
    2098:	0900                	c.addi4spn	x8,x2,144
    209a:	000c                	0xc
    209c:	0001                	c.addi	x0,0
    209e:	02c10403          	lb	x8,44(x2)
    20a2:	0c090003          	lb	x0,192(x18)
    20a6:	0100                	c.addi4spn	x8,x2,128
    20a8:	0300                	c.addi4spn	x8,x2,384
    20aa:	c104                	c.sw	x9,0(x10)
    20ac:	0302                	c.slli64	x6
    20ae:	0900                	c.addi4spn	x8,x2,144
    20b0:	0000                	c.unimp
    20b2:	0001                	c.addi	x0,0
    20b4:	02c30403          	lb	x8,44(x6)
    20b8:	04090003          	lb	x0,64(x18)
    20bc:	0100                	c.addi4spn	x8,x2,128
    20be:	0300                	c.addi4spn	x8,x2,384
    20c0:	c304                	c.sw	x9,0(x14)
    20c2:	0302                	c.slli64	x6
    20c4:	0900                	c.addi4spn	x8,x2,144
    20c6:	0000                	c.unimp
    20c8:	0601                	c.addi	x12,0
    20ca:	04097f03          	0x4097f03
    20ce:	0100                	c.addi4spn	x8,x2,128
    20d0:	0300                	c.addi4spn	x8,x2,384
    20d2:	c404                	c.sw	x9,8(x8)
    20d4:	0602                	c.slli64	x12
    20d6:	10090103          	lb	x2,256(x18)
    20da:	0100                	c.addi4spn	x8,x2,128
    20dc:	0300                	c.addi4spn	x8,x2,384
    20de:	cb04                	c.sw	x9,16(x14)
    20e0:	0302                	c.slli64	x6
    20e2:	0900                	c.addi4spn	x8,x2,144
    20e4:	0004                	0x4
    20e6:	0001                	c.addi	x0,0
    20e8:	02cb0403          	lb	x8,44(x22)
    20ec:	00090003          	lb	x0,0(x18)
    20f0:	0100                	c.addi4spn	x8,x2,128
    20f2:	0300                	c.addi4spn	x8,x2,384
    20f4:	cb04                	c.sw	x9,16(x14)
    20f6:	0302                	c.slli64	x6
    20f8:	0900                	c.addi4spn	x8,x2,144
    20fa:	0000                	c.unimp
    20fc:	0001                	c.addi	x0,0
    20fe:	02cb0403          	lb	x8,44(x22)
    2102:	00090003          	lb	x0,0(x18)
    2106:	0100                	c.addi4spn	x8,x2,128
    2108:	0300                	c.addi4spn	x8,x2,384
    210a:	cb04                	c.sw	x9,16(x14)
    210c:	0302                	c.slli64	x6
    210e:	0900                	c.addi4spn	x8,x2,144
    2110:	0004                	0x4
    2112:	0001                	c.addi	x0,0
    2114:	02cb0403          	lb	x8,44(x22)
    2118:	0c090003          	lb	x0,192(x18)
    211c:	0100                	c.addi4spn	x8,x2,128
    211e:	0300                	c.addi4spn	x8,x2,384
    2120:	cb04                	c.sw	x9,16(x14)
    2122:	0302                	c.slli64	x6
    2124:	0900                	c.addi4spn	x8,x2,144
    2126:	0000                	c.unimp
    2128:	0001                	c.addi	x0,0
    212a:	02cb0403          	lb	x8,44(x22)
    212e:	00090003          	lb	x0,0(x18)
    2132:	0100                	c.addi4spn	x8,x2,128
    2134:	0300                	c.addi4spn	x8,x2,384
    2136:	cb04                	c.sw	x9,16(x14)
    2138:	0302                	c.slli64	x6
    213a:	0900                	c.addi4spn	x8,x2,144
    213c:	0000                	c.unimp
    213e:	0001                	c.addi	x0,0
    2140:	02cd0403          	lb	x8,44(x26)
    2144:	0c090003          	lb	x0,192(x18)
    2148:	0100                	c.addi4spn	x8,x2,128
    214a:	0300                	c.addi4spn	x8,x2,384
    214c:	cd04                	c.sw	x9,24(x10)
    214e:	0302                	c.slli64	x6
    2150:	0900                	c.addi4spn	x8,x2,144
    2152:	0000                	c.unimp
    2154:	0001                	c.addi	x0,0
    2156:	02cd0403          	lb	x8,44(x26)
    215a:	00090003          	lb	x0,0(x18)
    215e:	0100                	c.addi4spn	x8,x2,128
    2160:	0300                	c.addi4spn	x8,x2,384
    2162:	cd04                	c.sw	x9,24(x10)
    2164:	0302                	c.slli64	x6
    2166:	0900                	c.addi4spn	x8,x2,144
    2168:	0004                	0x4
    216a:	0001                	c.addi	x0,0
    216c:	02cd0403          	lb	x8,44(x26)
    2170:	0c090003          	lb	x0,192(x18)
    2174:	0100                	c.addi4spn	x8,x2,128
    2176:	0300                	c.addi4spn	x8,x2,384
    2178:	cd04                	c.sw	x9,24(x10)
    217a:	0302                	c.slli64	x6
    217c:	0900                	c.addi4spn	x8,x2,144
    217e:	0000                	c.unimp
    2180:	0001                	c.addi	x0,0
    2182:	02cd0403          	lb	x8,44(x26)
    2186:	00090003          	lb	x0,0(x18)
    218a:	0100                	c.addi4spn	x8,x2,128
    218c:	0300                	c.addi4spn	x8,x2,384
    218e:	ce04                	c.sw	x9,24(x12)
    2190:	0302                	c.slli64	x6
    2192:	0900                	c.addi4spn	x8,x2,144
    2194:	0004                	0x4
    2196:	0601                	c.addi	x12,0
    2198:	08090003          	lb	x0,128(x18)
    219c:	0100                	c.addi4spn	x8,x2,128
    219e:	0300                	c.addi4spn	x8,x2,384
    21a0:	e104                	c.fsw	f9,0(x10)
    21a2:	0602                	c.slli64	x12
    21a4:	0c090003          	lb	x0,192(x18)
    21a8:	0100                	c.addi4spn	x8,x2,128
    21aa:	0300                	c.addi4spn	x8,x2,384
    21ac:	e104                	c.fsw	f9,0(x10)
    21ae:	0302                	c.slli64	x6
    21b0:	0900                	c.addi4spn	x8,x2,144
    21b2:	0000                	c.unimp
    21b4:	0001                	c.addi	x0,0
    21b6:	02e10403          	lb	x8,46(x2)
    21ba:	00090003          	lb	x0,0(x18)
    21be:	0100                	c.addi4spn	x8,x2,128
    21c0:	0300                	c.addi4spn	x8,x2,384
    21c2:	e104                	c.fsw	f9,0(x10)
    21c4:	0302                	c.slli64	x6
    21c6:	0900                	c.addi4spn	x8,x2,144
    21c8:	0000                	c.unimp
    21ca:	0001                	c.addi	x0,0
    21cc:	02e10403          	lb	x8,46(x2)
    21d0:	00090003          	lb	x0,0(x18)
    21d4:	0100                	c.addi4spn	x8,x2,128
    21d6:	0300                	c.addi4spn	x8,x2,384
    21d8:	e104                	c.fsw	f9,0(x10)
    21da:	0302                	c.slli64	x6
    21dc:	0900                	c.addi4spn	x8,x2,144
    21de:	0000                	c.unimp
    21e0:	0001                	c.addi	x0,0
    21e2:	02e10403          	lb	x8,46(x2)
    21e6:	00090003          	lb	x0,0(x18)
    21ea:	0100                	c.addi4spn	x8,x2,128
    21ec:	0300                	c.addi4spn	x8,x2,384
    21ee:	e104                	c.fsw	f9,0(x10)
    21f0:	0302                	c.slli64	x6
    21f2:	0900                	c.addi4spn	x8,x2,144
    21f4:	0000                	c.unimp
    21f6:	0001                	c.addi	x0,0
    21f8:	02e20403          	lb	x8,46(x4) # 2e <.LASF24+0x5>
    21fc:	04090003          	lb	x0,64(x18)
    2200:	0100                	c.addi4spn	x8,x2,128
    2202:	0306                	c.slli	x6,0x1
    2204:	097f                	0x97f
    2206:	0004                	0x4
    2208:	0301                	c.addi	x6,0
    220a:	0901                	c.addi	x18,0
    220c:	0008                	0x8
    220e:	0001                	c.addi	x0,0
    2210:	02e30403          	lb	x8,46(x6)
    2214:	0306                	c.slli	x6,0x1
    2216:	0900                	c.addi4spn	x8,x2,144
    2218:	0008                	0x8
    221a:	0001                	c.addi	x0,0
    221c:	02c00403          	lb	x8,44(x0) # 2c <.LASF24+0x3>
    2220:	08090003          	lb	x0,128(x18)
    2224:	0100                	c.addi4spn	x8,x2,128
    2226:	0300                	c.addi4spn	x8,x2,384
    2228:	c004                	c.sw	x9,0(x8)
    222a:	0302                	c.slli64	x6
    222c:	0900                	c.addi4spn	x8,x2,144
    222e:	0000                	c.unimp
    2230:	0001                	c.addi	x0,0
    2232:	02c00403          	lb	x8,44(x0) # 2c <.LASF24+0x3>
    2236:	00090003          	lb	x0,0(x18)
    223a:	0100                	c.addi4spn	x8,x2,128
    223c:	0300                	c.addi4spn	x8,x2,384
    223e:	c004                	c.sw	x9,0(x8)
    2240:	0302                	c.slli64	x6
    2242:	0900                	c.addi4spn	x8,x2,144
    2244:	0000                	c.unimp
    2246:	0001                	c.addi	x0,0
    2248:	02c00403          	lb	x8,44(x0) # 2c <.LASF24+0x3>
    224c:	04090003          	lb	x0,64(x18)
    2250:	0100                	c.addi4spn	x8,x2,128
    2252:	0300                	c.addi4spn	x8,x2,384
    2254:	c004                	c.sw	x9,0(x8)
    2256:	0302                	c.slli64	x6
    2258:	0900                	c.addi4spn	x8,x2,144
    225a:	000c                	0xc
    225c:	0001                	c.addi	x0,0
    225e:	02c00403          	lb	x8,44(x0) # 2c <.LASF24+0x3>
    2262:	00090003          	lb	x0,0(x18)
    2266:	0100                	c.addi4spn	x8,x2,128
    2268:	0300                	c.addi4spn	x8,x2,384
    226a:	c004                	c.sw	x9,0(x8)
    226c:	0302                	c.slli64	x6
    226e:	0900                	c.addi4spn	x8,x2,144
    2270:	0000                	c.unimp
    2272:	0001                	c.addi	x0,0
    2274:	02c00403          	lb	x8,44(x0) # 2c <.LASF24+0x3>
    2278:	00090003          	lb	x0,0(x18)
    227c:	0100                	c.addi4spn	x8,x2,128
    227e:	0300                	c.addi4spn	x8,x2,384
    2280:	f304                	c.fsw	f9,32(x14)
    2282:	0302                	c.slli64	x6
    2284:	0900                	c.addi4spn	x8,x2,144
    2286:	000c                	0xc
    2288:	0001                	c.addi	x0,0
    228a:	02f30403          	lb	x8,47(x6)
    228e:	00090003          	lb	x0,0(x18)
    2292:	0100                	c.addi4spn	x8,x2,128
    2294:	0300                	c.addi4spn	x8,x2,384
    2296:	f304                	c.fsw	f9,32(x14)
    2298:	0302                	c.slli64	x6
    229a:	0900                	c.addi4spn	x8,x2,144
    229c:	0000                	c.unimp
    229e:	0001                	c.addi	x0,0
    22a0:	02f30403          	lb	x8,47(x6)
    22a4:	04090003          	lb	x0,64(x18)
    22a8:	0100                	c.addi4spn	x8,x2,128
    22aa:	0300                	c.addi4spn	x8,x2,384
    22ac:	f304                	c.fsw	f9,32(x14)
    22ae:	0302                	c.slli64	x6
    22b0:	0900                	c.addi4spn	x8,x2,144
    22b2:	000c                	0xc
    22b4:	0001                	c.addi	x0,0
    22b6:	02f30403          	lb	x8,47(x6)
    22ba:	00090003          	lb	x0,0(x18)
    22be:	0100                	c.addi4spn	x8,x2,128
    22c0:	0300                	c.addi4spn	x8,x2,384
    22c2:	f304                	c.fsw	f9,32(x14)
    22c4:	0302                	c.slli64	x6
    22c6:	0900                	c.addi4spn	x8,x2,144
    22c8:	0000                	c.unimp
    22ca:	0001                	c.addi	x0,0
    22cc:	02fc0403          	lb	x8,47(x24)
    22d0:	04090003          	lb	x0,64(x18)
    22d4:	0100                	c.addi4spn	x8,x2,128
    22d6:	0300                	c.addi4spn	x8,x2,384
    22d8:	fc04                	c.fsw	f9,56(x8)
    22da:	0302                	c.slli64	x6
    22dc:	0900                	c.addi4spn	x8,x2,144
    22de:	0000                	c.unimp
    22e0:	0001                	c.addi	x0,0
    22e2:	02ff0403          	lb	x8,47(x30)
    22e6:	04090003          	lb	x0,64(x18)
    22ea:	0100                	c.addi4spn	x8,x2,128
    22ec:	0300                	c.addi4spn	x8,x2,384
    22ee:	ff04                	c.fsw	f9,56(x14)
    22f0:	0302                	c.slli64	x6
    22f2:	0900                	c.addi4spn	x8,x2,144
    22f4:	0000                	c.unimp
    22f6:	0001                	c.addi	x0,0
    22f8:	02ff0403          	lb	x8,47(x30)
    22fc:	00090003          	lb	x0,0(x18)
    2300:	0100                	c.addi4spn	x8,x2,128
    2302:	0300                	c.addi4spn	x8,x2,384
    2304:	ff04                	c.fsw	f9,56(x14)
    2306:	0302                	c.slli64	x6
    2308:	0900                	c.addi4spn	x8,x2,144
    230a:	0000                	c.unimp
    230c:	0001                	c.addi	x0,0
    230e:	02ff0403          	lb	x8,47(x30)
    2312:	08090003          	lb	x0,128(x18)
    2316:	0100                	c.addi4spn	x8,x2,128
    2318:	0300                	c.addi4spn	x8,x2,384
    231a:	8d04                	0x8d04
    231c:	09000303          	lb	x6,144(x0) # 90 <.LASF20+0xb>
    2320:	0000                	c.unimp
    2322:	0001                	c.addi	x0,0
    2324:	038d0403          	lb	x8,56(x26)
    2328:	00090003          	lb	x0,0(x18)
    232c:	0100                	c.addi4spn	x8,x2,128
    232e:	0300                	c.addi4spn	x8,x2,384
    2330:	8d04                	0x8d04
    2332:	09000303          	lb	x6,144(x0) # 90 <.LASF20+0xb>
    2336:	0004                	0x4
    2338:	0001                	c.addi	x0,0
    233a:	03930403          	lb	x8,57(x6)
    233e:	08090003          	lb	x0,128(x18)
    2342:	0100                	c.addi4spn	x8,x2,128
    2344:	0300                	c.addi4spn	x8,x2,384
    2346:	9304                	0x9304
    2348:	09000303          	lb	x6,144(x0) # 90 <.LASF20+0xb>
    234c:	0000                	c.unimp
    234e:	0001                	c.addi	x0,0
    2350:	03930403          	lb	x8,57(x6)
    2354:	14090003          	lb	x0,320(x18)
    2358:	0100                	c.addi4spn	x8,x2,128
    235a:	0300                	c.addi4spn	x8,x2,384
    235c:	9704                	0x9704
    235e:	09000303          	lb	x6,144(x0) # 90 <.LASF20+0xb>
    2362:	0004                	0x4
    2364:	0001                	c.addi	x0,0
    2366:	03980403          	lb	x8,57(x16)
    236a:	04090003          	lb	x0,64(x18)
    236e:	0100                	c.addi4spn	x8,x2,128
    2370:	0300                	c.addi4spn	x8,x2,384
    2372:	9804                	0x9804
    2374:	09000303          	lb	x6,144(x0) # 90 <.LASF20+0xb>
    2378:	0008                	0x8
    237a:	0001                	c.addi	x0,0
    237c:	039a0403          	lb	x8,57(x20)
    2380:	08090003          	lb	x0,128(x18)
    2384:	0100                	c.addi4spn	x8,x2,128
    2386:	0300                	c.addi4spn	x8,x2,384
    2388:	9a04                	0x9a04
    238a:	09000303          	lb	x6,144(x0) # 90 <.LASF20+0xb>
    238e:	0020                	c.addi4spn	x8,x2,8
    2390:	0001                	c.addi	x0,0
    2392:	03a60403          	lb	x8,58(x12)
    2396:	0306                	c.slli	x6,0x1
    2398:	0900                	c.addi4spn	x8,x2,144
    239a:	0004                	0x4
    239c:	0001                	c.addi	x0,0
    239e:	02f40403          	lb	x8,47(x8)
    23a2:	0306                	c.slli	x6,0x1
    23a4:	0900                	c.addi4spn	x8,x2,144
    23a6:	0008                	0x8
    23a8:	0601                	c.addi	x12,0
    23aa:	0c090003          	lb	x0,192(x18)
    23ae:	0100                	c.addi4spn	x8,x2,128
    23b0:	0300                	c.addi4spn	x8,x2,384
    23b2:	8604                	0x8604
    23b4:	00030603          	lb	x12,0(x6)
    23b8:	0809                	c.addi	x16,2
    23ba:	0100                	c.addi4spn	x8,x2,128
    23bc:	0300                	c.addi4spn	x8,x2,384
    23be:	8604                	0x8604
    23c0:	09000303          	lb	x6,144(x0) # 90 <.LASF20+0xb>
    23c4:	0000                	c.unimp
    23c6:	0001                	c.addi	x0,0
    23c8:	03860403          	lb	x8,56(x12)
    23cc:	00090003          	lb	x0,0(x18)
    23d0:	0100                	c.addi4spn	x8,x2,128
    23d2:	0300                	c.addi4spn	x8,x2,384
    23d4:	8604                	0x8604
    23d6:	09000303          	lb	x6,144(x0) # 90 <.LASF20+0xb>
    23da:	0000                	c.unimp
    23dc:	0001                	c.addi	x0,0
    23de:	03860403          	lb	x8,56(x12)
    23e2:	08090003          	lb	x0,128(x18)
    23e6:	0100                	c.addi4spn	x8,x2,128
    23e8:	0300                	c.addi4spn	x8,x2,384
    23ea:	8604                	0x8604
    23ec:	09000303          	lb	x6,144(x0) # 90 <.LASF20+0xb>
    23f0:	0000                	c.unimp
    23f2:	0001                	c.addi	x0,0
    23f4:	038f0403          	lb	x8,56(x30)
    23f8:	08090003          	lb	x0,128(x18)
    23fc:	0100                	c.addi4spn	x8,x2,128
    23fe:	0300                	c.addi4spn	x8,x2,384
    2400:	8f04                	0x8f04
    2402:	09000303          	lb	x6,144(x0) # 90 <.LASF20+0xb>
    2406:	0008                	0x8
    2408:	0001                	c.addi	x0,0
    240a:	039b0403          	lb	x8,57(x22)
    240e:	08090003          	lb	x0,128(x18)
    2412:	0100                	c.addi4spn	x8,x2,128
    2414:	0300                	c.addi4spn	x8,x2,384
    2416:	a304                	c.fsd	f9,0(x14)
    2418:	00030603          	lb	x12,0(x6)
    241c:	1409                	c.addi	x8,-30
    241e:	0100                	c.addi4spn	x8,x2,128
    2420:	0300                	c.addi4spn	x8,x2,384
    2422:	a604                	c.fsd	f9,8(x12)
    2424:	09000303          	lb	x6,144(x0) # 90 <.LASF20+0xb>
    2428:	000c                	0xc
    242a:	0001                	c.addi	x0,0
    242c:	03a60403          	lb	x8,58(x12)
    2430:	0306                	c.slli	x6,0x1
    2432:	0900                	c.addi4spn	x8,x2,144
    2434:	000c                	0xc
    2436:	0001                	c.addi	x0,0
    2438:	03990403          	lb	x8,57(x18)
    243c:	08090003          	lb	x0,128(x18)
    2440:	0100                	c.addi4spn	x8,x2,128
    2442:	0300                	c.addi4spn	x8,x2,384
    2444:	9904                	0x9904
    2446:	09000303          	lb	x6,144(x0) # 90 <.LASF20+0xb>
    244a:	0004                	0x4
    244c:	0601                	c.addi	x12,0
    244e:	10097f03          	0x10097f03
    2452:	0100                	c.addi4spn	x8,x2,128
    2454:	08090103          	lb	x2,128(x18)
    2458:	0100                	c.addi4spn	x8,x2,128
    245a:	08097f03          	0x8097f03
    245e:	0100                	c.addi4spn	x8,x2,128
    2460:	0200                	c.addi4spn	x8,x2,256
    2462:	2f04                	c.fld	f9,24(x14)
    2464:	0306                	c.slli	x6,0x1
    2466:	0902                	c.slli64	x18
    2468:	0018                	0x18
    246a:	0001                	c.addi	x0,0
    246c:	0402                	c.slli64	x8
    246e:	0900032f          	0x900032f
    2472:	0000                	c.unimp
    2474:	0001                	c.addi	x0,0
    2476:	0402                	c.slli64	x8
    2478:	0900032f          	0x900032f
    247c:	0000                	c.unimp
    247e:	0001                	c.addi	x0,0
    2480:	0402                	c.slli64	x8
    2482:	0900033f 0001000c 	0x1000c0900033f
    248a:	0402                	c.slli64	x8
    248c:	0900033f 00010000 	0x100000900033f
    2494:	0402                	c.slli64	x8
    2496:	0900033f 06010004 	0x60100040900033f
    249e:	08090003          	lb	x0,128(x18)
    24a2:	0100                	c.addi4spn	x8,x2,128
    24a4:	0200                	c.addi4spn	x8,x2,256
    24a6:	4f04                	c.lw	x9,24(x14)
    24a8:	0306                	c.slli	x6,0x1
    24aa:	0900                	c.addi4spn	x8,x2,144
    24ac:	000c                	0xc
    24ae:	0001                	c.addi	x0,0
    24b0:	0402                	c.slli64	x8
    24b2:	0900034f          	fnmadd.s	f6,f0,f16,f1,rne
    24b6:	0000                	c.unimp
    24b8:	0001                	c.addi	x0,0
    24ba:	0402                	c.slli64	x8
    24bc:	0900034f          	fnmadd.s	f6,f0,f16,f1,rne
    24c0:	0000                	c.unimp
    24c2:	0001                	c.addi	x0,0
    24c4:	0402                	c.slli64	x8
    24c6:	0900034f          	fnmadd.s	f6,f0,f16,f1,rne
    24ca:	000c                	0xc
    24cc:	0001                	c.addi	x0,0
    24ce:	0402                	c.slli64	x8
    24d0:	0900034f          	fnmadd.s	f6,f0,f16,f1,rne
    24d4:	0008                	0x8
    24d6:	0001                	c.addi	x0,0
    24d8:	0402                	c.slli64	x8
    24da:	0650                	c.addi4spn	x12,x2,772
    24dc:	04090003          	lb	x0,64(x18)
    24e0:	0100                	c.addi4spn	x8,x2,128
    24e2:	0c090003          	lb	x0,192(x18)
    24e6:	0100                	c.addi4spn	x8,x2,128
    24e8:	0200                	c.addi4spn	x8,x2,256
    24ea:	5a04                	c.lw	x9,48(x12)
    24ec:	0306                	c.slli	x6,0x1
    24ee:	0900                	c.addi4spn	x8,x2,144
    24f0:	000c                	0xc
    24f2:	0001                	c.addi	x0,0
    24f4:	0402                	c.slli64	x8
    24f6:	035a                	c.slli	x6,0x16
    24f8:	0900                	c.addi4spn	x8,x2,144
    24fa:	0000                	c.unimp
    24fc:	0001                	c.addi	x0,0
    24fe:	0402                	c.slli64	x8
    2500:	035a                	c.slli	x6,0x16
    2502:	0900                	c.addi4spn	x8,x2,144
    2504:	0000                	c.unimp
    2506:	0001                	c.addi	x0,0
    2508:	0402                	c.slli64	x8
    250a:	035a                	c.slli	x6,0x16
    250c:	0900                	c.addi4spn	x8,x2,144
    250e:	0000                	c.unimp
    2510:	0001                	c.addi	x0,0
    2512:	0402                	c.slli64	x8
    2514:	035a                	c.slli	x6,0x16
    2516:	0900                	c.addi4spn	x8,x2,144
    2518:	0000                	c.unimp
    251a:	0001                	c.addi	x0,0
    251c:	0402                	c.slli64	x8
    251e:	035a                	c.slli	x6,0x16
    2520:	0900                	c.addi4spn	x8,x2,144
    2522:	0000                	c.unimp
    2524:	0001                	c.addi	x0,0
    2526:	0402                	c.slli64	x8
    2528:	035a                	c.slli	x6,0x16
    252a:	0900                	c.addi4spn	x8,x2,144
    252c:	0000                	c.unimp
    252e:	0001                	c.addi	x0,0
    2530:	0402                	c.slli64	x8
    2532:	035a                	c.slli	x6,0x16
    2534:	0900                	c.addi4spn	x8,x2,144
    2536:	0000                	c.unimp
    2538:	0001                	c.addi	x0,0
    253a:	0402                	c.slli64	x8
    253c:	035a                	c.slli	x6,0x16
    253e:	0900                	c.addi4spn	x8,x2,144
    2540:	0000                	c.unimp
    2542:	0501                	c.addi	x10,0
    2544:	0001                	c.addi	x0,0
    2546:	0402                	c.slli64	x8
    2548:	065a                	c.slli	x12,0x16
    254a:	0c090403          	lb	x8,192(x18)
    254e:	0100                	c.addi4spn	x8,x2,128
    2550:	0305                	c.addi	x6,1
    2552:	0200                	c.addi4spn	x8,x2,256
    2554:	5a04                	c.lw	x9,48(x12)
    2556:	08097c03          	0x8097c03
    255a:	0100                	c.addi4spn	x8,x2,128
    255c:	0200                	c.addi4spn	x8,x2,256
    255e:	5a04                	c.lw	x9,48(x12)
    2560:	0306                	c.slli	x6,0x1
    2562:	0900                	c.addi4spn	x8,x2,144
    2564:	0014                	0x14
    2566:	0001                	c.addi	x0,0
    2568:	0402                	c.slli64	x8
    256a:	035a                	c.slli	x6,0x16
    256c:	0900                	c.addi4spn	x8,x2,144
    256e:	0000                	c.unimp
    2570:	0001                	c.addi	x0,0
    2572:	0402                	c.slli64	x8
    2574:	035a                	c.slli	x6,0x16
    2576:	0901                	c.addi	x18,0
    2578:	0000                	c.unimp
    257a:	0001                	c.addi	x0,0
    257c:	0402                	c.slli64	x8
    257e:	035a                	c.slli	x6,0x16
    2580:	0900                	c.addi4spn	x8,x2,144
    2582:	0000                	c.unimp
    2584:	0001                	c.addi	x0,0
    2586:	0402                	c.slli64	x8
    2588:	035a                	c.slli	x6,0x16
    258a:	0900                	c.addi4spn	x8,x2,144
    258c:	0000                	c.unimp
    258e:	0001                	c.addi	x0,0
    2590:	0402                	c.slli64	x8
    2592:	035a                	c.slli	x6,0x16
    2594:	0902                	c.slli64	x18
    2596:	0000                	c.unimp
    2598:	0501                	c.addi	x10,0
    259a:	0001                	c.addi	x0,0
    259c:	0402                	c.slli64	x8
    259e:	065a                	c.slli	x12,0x16
    25a0:	00090103          	lb	x2,0(x18)
    25a4:	0100                	c.addi4spn	x8,x2,128
    25a6:	0305                	c.addi	x6,1
    25a8:	20097a03          	0x20097a03
    25ac:	0100                	c.addi4spn	x8,x2,128
    25ae:	08090103          	lb	x2,128(x18)
    25b2:	0100                	c.addi4spn	x8,x2,128
    25b4:	3c09                	c.jal	1fc6 <.LLST22+0xf1>
    25b6:	0000                	c.unimp
    25b8:	0101                	c.addi	x2,0

000025ba <.Ldebug_line0>:
    25ba:	020a                	c.slli	x4,0x2
    25bc:	0000                	c.unimp
    25be:	005d0003          	lb	x0,5(x26)
    25c2:	0000                	c.unimp
    25c4:	0101                	c.addi	x2,0
    25c6:	000d0efb          	0xd0efb
    25ca:	0101                	c.addi	x2,0
    25cc:	0101                	c.addi	x2,0
    25ce:	0000                	c.unimp
    25d0:	0100                	c.addi4spn	x8,x2,128
    25d2:	0000                	c.unimp
    25d4:	2e01                	c.jal	28e4 <.Ldebug_line0+0x11c>
    25d6:	2f2e                	c.fldsp	f30,200(x2)
    25d8:	2e2e                	c.fldsp	f28,200(x2)
    25da:	2f2e2e2f          	0x2f2e2e2f
    25de:	2f2e                	c.fldsp	f30,200(x2)
    25e0:	6972                	c.flwsp	f18,28(x2)
    25e2:	2d766373          	csrrsi	x6,0x2d7,12
    25e6:	2f636367          	0x2f636367
    25ea:	696c                	c.flw	f11,84(x10)
    25ec:	6762                	c.flwsp	f14,24(x2)
    25ee:	732f6363          	bltu	x30,x18,2d14 <.Ldebug_line0+0x2b>
    25f2:	2d74666f          	jal	x12,490c8 <.LC1+0x44f30>
    25f6:	7066                	c.flwsp	f0,120(x2)
    25f8:	0000                	c.unimp
    25fa:	6966                	c.flwsp	f18,88(x2)
    25fc:	6478                	c.flw	f14,76(x8)
    25fe:	7366                	c.flwsp	f6,120(x2)
    2600:	2e69                	c.jal	299a <.Ldebug_line0+0x1d2>
    2602:	00010063          	beq	x2,x0,2602 <.Ldebug_line0+0x48>
    2606:	7300                	c.flw	f8,32(x14)
    2608:	2d74666f          	jal	x12,490de <.LC1+0x44f46>
    260c:	7066                	c.flwsp	f0,120(x2)
    260e:	682e                	c.flwsp	f16,200(x2)
    2610:	0100                	c.addi4spn	x8,x2,128
    2612:	0000                	c.unimp
    2614:	6f64                	c.flw	f9,92(x14)
    2616:	6275                	c.lui	x4,0x1d
    2618:	656c                	c.flw	f11,76(x10)
    261a:	682e                	c.flwsp	f16,200(x2)
    261c:	0100                	c.addi4spn	x8,x2,128
    261e:	0000                	c.unimp
    2620:	0500                	c.addi4spn	x8,x2,640
    2622:	0001                	c.addi	x0,0
    2624:	0205                	c.addi	x4,1
    2626:	1914                	c.addi4spn	x13,x2,176
    2628:	0000                	c.unimp
    262a:	05012303          	lw	x6,80(x2)
    262e:	09010303          	lb	x6,144(x2)
    2632:	0000                	c.unimp
    2634:	0301                	c.addi	x6,0
    2636:	0900                	c.addi4spn	x8,x2,144
    2638:	0000                	c.unimp
    263a:	0501                	c.addi	x10,0
    263c:	030d                	c.addi	x6,3
    263e:	0900                	c.addi4spn	x8,x2,144
    2640:	0000                	c.unimp
    2642:	0501                	c.addi	x10,0
    2644:	09010303          	lb	x6,144(x2)
    2648:	0000                	c.unimp
    264a:	0301                	c.addi	x6,0
    264c:	0900                	c.addi4spn	x8,x2,144
    264e:	0000                	c.unimp
    2650:	0301                	c.addi	x6,0
    2652:	0900                	c.addi4spn	x8,x2,144
    2654:	0000                	c.unimp
    2656:	0301                	c.addi	x6,0
    2658:	0900                	c.addi4spn	x8,x2,144
    265a:	0000                	c.unimp
    265c:	0301                	c.addi	x6,0
    265e:	0901                	c.addi	x18,0
    2660:	0000                	c.unimp
    2662:	0301                	c.addi	x6,0
    2664:	0902                	c.slli64	x18
    2666:	0000                	c.unimp
    2668:	0301                	c.addi	x6,0
    266a:	0901                	c.addi	x18,0
    266c:	0000                	c.unimp
    266e:	0301                	c.addi	x6,0
    2670:	0900                	c.addi4spn	x8,x2,144
    2672:	0000                	c.unimp
    2674:	0301                	c.addi	x6,0
    2676:	0900                	c.addi4spn	x8,x2,144
    2678:	0000                	c.unimp
    267a:	0301                	c.addi	x6,0
    267c:	0900                	c.addi4spn	x8,x2,144
    267e:	0000                	c.unimp
    2680:	0301                	c.addi	x6,0
    2682:	0900                	c.addi4spn	x8,x2,144
    2684:	0000                	c.unimp
    2686:	0601                	c.addi	x12,0
    2688:	10090103          	lb	x2,256(x18)
    268c:	0100                	c.addi4spn	x8,x2,128
    268e:	04097f03          	0x4097f03
    2692:	0100                	c.addi4spn	x8,x2,128
    2694:	0306                	c.slli	x6,0x1
    2696:	0900                	c.addi4spn	x8,x2,144
    2698:	0004                	0x4
    269a:	0301                	c.addi	x6,0
    269c:	0900                	c.addi4spn	x8,x2,144
    269e:	0000                	c.unimp
    26a0:	0301                	c.addi	x6,0
    26a2:	0900                	c.addi4spn	x8,x2,144
    26a4:	0004                	0x4
    26a6:	0301                	c.addi	x6,0
    26a8:	0901                	c.addi	x18,0
    26aa:	0000                	c.unimp
    26ac:	0301                	c.addi	x6,0
    26ae:	0900                	c.addi4spn	x8,x2,144
    26b0:	0000                	c.unimp
    26b2:	0001                	c.addi	x0,0
    26b4:	0402                	c.slli64	x8
    26b6:	030a                	c.slli	x6,0x2
    26b8:	0900                	c.addi4spn	x8,x2,144
    26ba:	0004                	0x4
    26bc:	0001                	c.addi	x0,0
    26be:	0402                	c.slli64	x8
    26c0:	030a                	c.slli	x6,0x2
    26c2:	0900                	c.addi4spn	x8,x2,144
    26c4:	0000                	c.unimp
    26c6:	0001                	c.addi	x0,0
    26c8:	0402                	c.slli64	x8
    26ca:	030e                	c.slli	x6,0x3
    26cc:	0900                	c.addi4spn	x8,x2,144
    26ce:	0008                	0x8
    26d0:	0001                	c.addi	x0,0
    26d2:	0402                	c.slli64	x8
    26d4:	030e                	c.slli	x6,0x3
    26d6:	0900                	c.addi4spn	x8,x2,144
    26d8:	0000                	c.unimp
    26da:	0001                	c.addi	x0,0
    26dc:	0402                	c.slli64	x8
    26de:	030e                	c.slli	x6,0x3
    26e0:	0900                	c.addi4spn	x8,x2,144
    26e2:	0000                	c.unimp
    26e4:	0001                	c.addi	x0,0
    26e6:	0402                	c.slli64	x8
    26e8:	030e                	c.slli	x6,0x3
    26ea:	0900                	c.addi4spn	x8,x2,144
    26ec:	0000                	c.unimp
    26ee:	0001                	c.addi	x0,0
    26f0:	0402                	c.slli64	x8
    26f2:	030e                	c.slli	x6,0x3
    26f4:	0900                	c.addi4spn	x8,x2,144
    26f6:	000c                	0xc
    26f8:	0001                	c.addi	x0,0
    26fa:	0402                	c.slli64	x8
    26fc:	030d                	c.addi	x6,3
    26fe:	0900                	c.addi4spn	x8,x2,144
    2700:	0004                	0x4
    2702:	0001                	c.addi	x0,0
    2704:	0402                	c.slli64	x8
    2706:	030d                	c.addi	x6,3
    2708:	0900                	c.addi4spn	x8,x2,144
    270a:	0000                	c.unimp
    270c:	0001                	c.addi	x0,0
    270e:	0402                	c.slli64	x8
    2710:	030d                	c.addi	x6,3
    2712:	0900                	c.addi4spn	x8,x2,144
    2714:	0004                	0x4
    2716:	0001                	c.addi	x0,0
    2718:	0402                	c.slli64	x8
    271a:	030d                	c.addi	x6,3
    271c:	0900                	c.addi4spn	x8,x2,144
    271e:	0000                	c.unimp
    2720:	0001                	c.addi	x0,0
    2722:	0402                	c.slli64	x8
    2724:	031e                	c.slli	x6,0x7
    2726:	0900                	c.addi4spn	x8,x2,144
    2728:	0010                	0x10
    272a:	0001                	c.addi	x0,0
    272c:	0402                	c.slli64	x8
    272e:	031e                	c.slli	x6,0x7
    2730:	0900                	c.addi4spn	x8,x2,144
    2732:	0000                	c.unimp
    2734:	0001                	c.addi	x0,0
    2736:	0402                	c.slli64	x8
    2738:	031e                	c.slli	x6,0x7
    273a:	0900                	c.addi4spn	x8,x2,144
    273c:	0010                	0x10
    273e:	0001                	c.addi	x0,0
    2740:	0402                	c.slli64	x8
    2742:	0900032b          	0x900032b
    2746:	0000                	c.unimp
    2748:	0001                	c.addi	x0,0
    274a:	0402                	c.slli64	x8
    274c:	0900032b          	0x900032b
    2750:	0000                	c.unimp
    2752:	0001                	c.addi	x0,0
    2754:	0402                	c.slli64	x8
    2756:	032d                	c.addi	x6,11
    2758:	0900                	c.addi4spn	x8,x2,144
    275a:	0004                	0x4
    275c:	0001                	c.addi	x0,0
    275e:	0402                	c.slli64	x8
    2760:	032a                	c.slli	x6,0xa
    2762:	0900                	c.addi4spn	x8,x2,144
    2764:	0008                	0x8
    2766:	0001                	c.addi	x0,0
    2768:	0402                	c.slli64	x8
    276a:	032a                	c.slli	x6,0xa
    276c:	0900                	c.addi4spn	x8,x2,144
    276e:	0000                	c.unimp
    2770:	0001                	c.addi	x0,0
    2772:	0402                	c.slli64	x8
    2774:	032a                	c.slli	x6,0xa
    2776:	0900                	c.addi4spn	x8,x2,144
    2778:	000c                	0xc
    277a:	0601                	c.addi	x12,0
    277c:	04090003          	lb	x0,64(x18)
    2780:	0100                	c.addi4spn	x8,x2,128
    2782:	0200                	c.addi4spn	x8,x2,256
    2784:	3b04                	c.fld	f9,48(x14)
    2786:	0306                	c.slli	x6,0x1
    2788:	0900                	c.addi4spn	x8,x2,144
    278a:	0004                	0x4
    278c:	0001                	c.addi	x0,0
    278e:	0402                	c.slli64	x8
    2790:	0901033b          	0x901033b
    2794:	0000                	c.unimp
    2796:	0001                	c.addi	x0,0
    2798:	0402                	c.slli64	x8
    279a:	0900033b          	0x900033b
    279e:	0000                	c.unimp
    27a0:	0001                	c.addi	x0,0
    27a2:	0402                	c.slli64	x8
    27a4:	0900033b          	0x900033b
    27a8:	0000                	c.unimp
    27aa:	0001                	c.addi	x0,0
    27ac:	0402                	c.slli64	x8
    27ae:	0902033b          	0x902033b
    27b2:	0000                	c.unimp
    27b4:	0501                	c.addi	x10,0
    27b6:	0001                	c.addi	x0,0
    27b8:	0402                	c.slli64	x8
    27ba:	0103063b          	0x103063b
    27be:	0009                	c.addi	x0,2
    27c0:	0100                	c.addi4spn	x8,x2,128
    27c2:	0409                	c.addi	x8,2
    27c4:	0000                	c.unimp
    27c6:	0101                	c.addi	x2,0

000027c8 <.Ldebug_line0>:
    27c8:	0244                	c.addi4spn	x9,x2,260
    27ca:	0000                	c.unimp
    27cc:	005f0003          	lb	x0,5(x30)
    27d0:	0000                	c.unimp
    27d2:	0101                	c.addi	x2,0
    27d4:	000d0efb          	0xd0efb
    27d8:	0101                	c.addi	x2,0
    27da:	0101                	c.addi	x2,0
    27dc:	0000                	c.unimp
    27de:	0100                	c.addi4spn	x8,x2,128
    27e0:	0000                	c.unimp
    27e2:	2e01                	c.jal	2af2 <.Ldebug_line0+0x32a>
    27e4:	2f2e                	c.fldsp	f30,200(x2)
    27e6:	2e2e                	c.fldsp	f28,200(x2)
    27e8:	2f2e2e2f          	0x2f2e2e2f
    27ec:	2f2e                	c.fldsp	f30,200(x2)
    27ee:	6972                	c.flwsp	f18,28(x2)
    27f0:	2d766373          	csrrsi	x6,0x2d7,12
    27f4:	2f636367          	0x2f636367
    27f8:	696c                	c.flw	f11,84(x10)
    27fa:	6762                	c.flwsp	f14,24(x2)
    27fc:	732f6363          	bltu	x30,x18,2f22 <.Ldebug_line0+0x239>
    2800:	2d74666f          	jal	x12,492d6 <.LC1+0x4513e>
    2804:	7066                	c.flwsp	f0,120(x2)
    2806:	0000                	c.unimp
    2808:	6c66                	c.flwsp	f24,88(x2)
    280a:	7374616f          	jal	x2,49740 <.LC1+0x455a8>
    280e:	6469                	c.lui	x8,0x1a
    2810:	2e66                	c.fldsp	f28,88(x2)
    2812:	00010063          	beq	x2,x0,2812 <.Ldebug_line0+0x4a>
    2816:	7300                	c.flw	f8,32(x14)
    2818:	2d74666f          	jal	x12,492ee <.LC1+0x45156>
    281c:	7066                	c.flwsp	f0,120(x2)
    281e:	682e                	c.flwsp	f16,200(x2)
    2820:	0100                	c.addi4spn	x8,x2,128
    2822:	0000                	c.unimp
    2824:	6f64                	c.flw	f9,92(x14)
    2826:	6275                	c.lui	x4,0x1d
    2828:	656c                	c.flw	f11,76(x10)
    282a:	682e                	c.flwsp	f16,200(x2)
    282c:	0100                	c.addi4spn	x8,x2,128
    282e:	0000                	c.unimp
    2830:	0500                	c.addi4spn	x8,x2,640
    2832:	0001                	c.addi	x0,0
    2834:	0205                	c.addi	x4,1
    2836:	1994                	c.addi4spn	x13,x2,240
    2838:	0000                	c.unimp
    283a:	05012403          	lw	x8,80(x2)
    283e:	09010303          	lb	x6,144(x2)
    2842:	0000                	c.unimp
    2844:	0301                	c.addi	x6,0
    2846:	0900                	c.addi4spn	x8,x2,144
    2848:	0000                	c.unimp
    284a:	0301                	c.addi	x6,0
    284c:	0900                	c.addi4spn	x8,x2,144
    284e:	0000                	c.unimp
    2850:	0301                	c.addi	x6,0
    2852:	0900                	c.addi4spn	x8,x2,144
    2854:	0000                	c.unimp
    2856:	0301                	c.addi	x6,0
    2858:	0901                	c.addi	x18,0
    285a:	0000                	c.unimp
    285c:	0301                	c.addi	x6,0
    285e:	0902                	c.slli64	x18
    2860:	0000                	c.unimp
    2862:	0301                	c.addi	x6,0
    2864:	0900                	c.addi4spn	x8,x2,144
    2866:	0000                	c.unimp
    2868:	0501                	c.addi	x10,0
    286a:	0601                	c.addi	x12,0
    286c:	00097c03          	0x97c03
    2870:	0100                	c.addi4spn	x8,x2,128
    2872:	0305                	c.addi	x6,1
    2874:	10090403          	lb	x8,256(x18)
    2878:	0100                	c.addi4spn	x8,x2,128
    287a:	0200                	c.addi4spn	x8,x2,256
    287c:	0104                	c.addi4spn	x9,x2,128
    287e:	0306                	c.slli	x6,0x1
    2880:	0900                	c.addi4spn	x8,x2,144
    2882:	0004                	0x4
    2884:	0001                	c.addi	x0,0
    2886:	0402                	c.slli64	x8
    2888:	0301                	c.addi	x6,0
    288a:	0900                	c.addi4spn	x8,x2,144
    288c:	0000                	c.unimp
    288e:	0001                	c.addi	x0,0
    2890:	0402                	c.slli64	x8
    2892:	0301                	c.addi	x6,0
    2894:	0900                	c.addi4spn	x8,x2,144
    2896:	0010                	0x10
    2898:	0001                	c.addi	x0,0
    289a:	0402                	c.slli64	x8
    289c:	0301                	c.addi	x6,0
    289e:	0900                	c.addi4spn	x8,x2,144
    28a0:	0000                	c.unimp
    28a2:	0001                	c.addi	x0,0
    28a4:	0402                	c.slli64	x8
    28a6:	0301                	c.addi	x6,0
    28a8:	0900                	c.addi4spn	x8,x2,144
    28aa:	0000                	c.unimp
    28ac:	0001                	c.addi	x0,0
    28ae:	0402                	c.slli64	x8
    28b0:	0301                	c.addi	x6,0
    28b2:	0900                	c.addi4spn	x8,x2,144
    28b4:	0000                	c.unimp
    28b6:	0001                	c.addi	x0,0
    28b8:	0402                	c.slli64	x8
    28ba:	0301                	c.addi	x6,0
    28bc:	0900                	c.addi4spn	x8,x2,144
    28be:	0000                	c.unimp
    28c0:	0001                	c.addi	x0,0
    28c2:	0402                	c.slli64	x8
    28c4:	0301                	c.addi	x6,0
    28c6:	0900                	c.addi4spn	x8,x2,144
    28c8:	0000                	c.unimp
    28ca:	0001                	c.addi	x0,0
    28cc:	0402                	c.slli64	x8
    28ce:	0301                	c.addi	x6,0
    28d0:	0900                	c.addi4spn	x8,x2,144
    28d2:	0000                	c.unimp
    28d4:	0001                	c.addi	x0,0
    28d6:	0402                	c.slli64	x8
    28d8:	0301                	c.addi	x6,0
    28da:	0900                	c.addi4spn	x8,x2,144
    28dc:	0008                	0x8
    28de:	0001                	c.addi	x0,0
    28e0:	0402                	c.slli64	x8
    28e2:	0301                	c.addi	x6,0
    28e4:	0900                	c.addi4spn	x8,x2,144
    28e6:	0000                	c.unimp
    28e8:	0001                	c.addi	x0,0
    28ea:	0402                	c.slli64	x8
    28ec:	0301                	c.addi	x6,0
    28ee:	0900                	c.addi4spn	x8,x2,144
    28f0:	000c                	0xc
    28f2:	0001                	c.addi	x0,0
    28f4:	0402                	c.slli64	x8
    28f6:	0301                	c.addi	x6,0
    28f8:	0900                	c.addi4spn	x8,x2,144
    28fa:	0000                	c.unimp
    28fc:	0001                	c.addi	x0,0
    28fe:	0402                	c.slli64	x8
    2900:	0301                	c.addi	x6,0
    2902:	0900                	c.addi4spn	x8,x2,144
    2904:	0000                	c.unimp
    2906:	0001                	c.addi	x0,0
    2908:	0402                	c.slli64	x8
    290a:	0301                	c.addi	x6,0
    290c:	0900                	c.addi4spn	x8,x2,144
    290e:	0000                	c.unimp
    2910:	0001                	c.addi	x0,0
    2912:	0402                	c.slli64	x8
    2914:	0301                	c.addi	x6,0
    2916:	0900                	c.addi4spn	x8,x2,144
    2918:	0000                	c.unimp
    291a:	0001                	c.addi	x0,0
    291c:	0402                	c.slli64	x8
    291e:	0301                	c.addi	x6,0
    2920:	0900                	c.addi4spn	x8,x2,144
    2922:	0000                	c.unimp
    2924:	0001                	c.addi	x0,0
    2926:	0402                	c.slli64	x8
    2928:	0301                	c.addi	x6,0
    292a:	0900                	c.addi4spn	x8,x2,144
    292c:	0000                	c.unimp
    292e:	0001                	c.addi	x0,0
    2930:	0402                	c.slli64	x8
    2932:	0301                	c.addi	x6,0
    2934:	0900                	c.addi4spn	x8,x2,144
    2936:	0000                	c.unimp
    2938:	0001                	c.addi	x0,0
    293a:	0402                	c.slli64	x8
    293c:	09000317          	auipc	x6,0x9000
    2940:	0004                	0x4
    2942:	0001                	c.addi	x0,0
    2944:	0402                	c.slli64	x8
    2946:	09000317          	auipc	x6,0x9000
    294a:	0000                	c.unimp
    294c:	0001                	c.addi	x0,0
    294e:	0402                	c.slli64	x8
    2950:	09000317          	auipc	x6,0x9000
    2954:	0010                	0x10
    2956:	0001                	c.addi	x0,0
    2958:	0402                	c.slli64	x8
    295a:	09000317          	auipc	x6,0x9000
    295e:	0004                	0x4
    2960:	0001                	c.addi	x0,0
    2962:	0402                	c.slli64	x8
    2964:	037e                	c.slli	x6,0x1f
    2966:	0900                	c.addi4spn	x8,x2,144
    2968:	0004                	0x4
    296a:	0001                	c.addi	x0,0
    296c:	0402                	c.slli64	x8
    296e:	037e                	c.slli	x6,0x1f
    2970:	0901                	c.addi	x18,0
    2972:	0000                	c.unimp
    2974:	0001                	c.addi	x0,0
    2976:	0402                	c.slli64	x8
    2978:	037e                	c.slli	x6,0x1f
    297a:	0900                	c.addi4spn	x8,x2,144
    297c:	0000                	c.unimp
    297e:	0001                	c.addi	x0,0
    2980:	0402                	c.slli64	x8
    2982:	037e                	c.slli	x6,0x1f
    2984:	0900                	c.addi4spn	x8,x2,144
    2986:	0000                	c.unimp
    2988:	0001                	c.addi	x0,0
    298a:	0402                	c.slli64	x8
    298c:	037e                	c.slli	x6,0x1f
    298e:	0900                	c.addi4spn	x8,x2,144
    2990:	0000                	c.unimp
    2992:	0001                	c.addi	x0,0
    2994:	0402                	c.slli64	x8
    2996:	037e                	c.slli	x6,0x1f
    2998:	0900                	c.addi4spn	x8,x2,144
    299a:	0000                	c.unimp
    299c:	0001                	c.addi	x0,0
    299e:	0402                	c.slli64	x8
    29a0:	037e                	c.slli	x6,0x1f
    29a2:	0900                	c.addi4spn	x8,x2,144
    29a4:	0000                	c.unimp
    29a6:	0001                	c.addi	x0,0
    29a8:	0402                	c.slli64	x8
    29aa:	037e                	c.slli	x6,0x1f
    29ac:	0900                	c.addi4spn	x8,x2,144
    29ae:	0000                	c.unimp
    29b0:	0501                	c.addi	x10,0
    29b2:	0001                	c.addi	x0,0
    29b4:	0402                	c.slli64	x8
    29b6:	067e                	c.slli	x12,0x1f
    29b8:	14090303          	lb	x6,320(x18)
    29bc:	0100                	c.addi4spn	x8,x2,128
    29be:	0305                	c.addi	x6,1
    29c0:	0200                	c.addi4spn	x8,x2,256
    29c2:	7e04                	c.flw	f9,56(x12)
    29c4:	04097d03          	0x4097d03
    29c8:	0100                	c.addi4spn	x8,x2,128
    29ca:	0200                	c.addi4spn	x8,x2,256
    29cc:	7e04                	c.flw	f9,56(x12)
    29ce:	0306                	c.slli	x6,0x1
    29d0:	0900                	c.addi4spn	x8,x2,144
    29d2:	0004                	0x4
    29d4:	0001                	c.addi	x0,0
    29d6:	0402                	c.slli64	x8
    29d8:	037e                	c.slli	x6,0x1f
    29da:	0902                	c.slli64	x18
    29dc:	0000                	c.unimp
    29de:	0501                	c.addi	x10,0
    29e0:	0001                	c.addi	x0,0
    29e2:	0402                	c.slli64	x8
    29e4:	067e                	c.slli	x12,0x1f
    29e6:	00090103          	lb	x2,0(x18)
    29ea:	0100                	c.addi4spn	x8,x2,128
    29ec:	0305                	c.addi	x6,1
    29ee:	0200                	c.addi4spn	x8,x2,256
    29f0:	1804                	c.addi4spn	x9,x2,48
    29f2:	0306                	c.slli	x6,0x1
    29f4:	097c                	c.addi4spn	x15,x2,156
    29f6:	0018                	0x18
    29f8:	0001                	c.addi	x0,0
    29fa:	0402                	c.slli64	x8
    29fc:	0318                	c.addi4spn	x14,x2,384
    29fe:	0900                	c.addi4spn	x8,x2,144
    2a00:	0008                	0x8
    2a02:	0601                	c.addi	x12,0
    2a04:	04090003          	lb	x0,64(x18)
    2a08:	0100                	c.addi4spn	x8,x2,128
    2a0a:	1409                	c.addi	x8,-30
    2a0c:	0000                	c.unimp
    2a0e:	0101                	c.addi	x2,0
    2a10:	008e                	c.slli	x1,0x3
    2a12:	0000                	c.unimp
    2a14:	00480003          	lb	x0,4(x16)
    2a18:	0000                	c.unimp
    2a1a:	0101                	c.addi	x2,0
    2a1c:	000d0efb          	0xd0efb
    2a20:	0101                	c.addi	x2,0
    2a22:	0101                	c.addi	x2,0
    2a24:	0000                	c.unimp
    2a26:	0100                	c.addi4spn	x8,x2,128
    2a28:	0000                	c.unimp
    2a2a:	2e01                	c.jal	2d3a <.Ldebug_line0+0x51>
    2a2c:	2f2e                	c.fldsp	f30,200(x2)
    2a2e:	2e2e                	c.fldsp	f28,200(x2)
    2a30:	2f2e2e2f          	0x2f2e2e2f
    2a34:	2f2e                	c.fldsp	f30,200(x2)
    2a36:	6972                	c.flwsp	f18,28(x2)
    2a38:	2d766373          	csrrsi	x6,0x2d7,12
    2a3c:	2f636367          	0x2f636367
    2a40:	696c                	c.flw	f11,84(x10)
    2a42:	6762                	c.flwsp	f14,24(x2)
    2a44:	632f6363          	bltu	x30,x18,306a <.Ldebug_line0+0x381>
    2a48:	69666e6f          	jal	x28,690de <.LC1+0x64f46>
    2a4c:	69722f67          	0x69722f67
    2a50:	00766373          	csrrsi	x6,0x7,12
    2a54:	6d00                	c.flw	f8,24(x10)
    2a56:	6c75                	c.lui	x24,0x1d
    2a58:	6964                	c.flw	f9,84(x10)
    2a5a:	00532e33          	slt	x28,x6,x5
    2a5e:	0001                	c.addi	x0,0
    2a60:	0000                	c.unimp
    2a62:	0500                	c.addi4spn	x8,x2,640
    2a64:	3c02                	c.fldsp	f24,32(x2)
    2a66:	001a                	c.slli	x0,0x6
    2a68:	0300                	c.addi4spn	x8,x2,384
    2a6a:	0124                	c.addi4spn	x9,x2,136
    2a6c:	04090103          	lb	x2,64(x18)
    2a70:	0100                	c.addi4spn	x8,x2,128
    2a72:	04090203          	lb	x4,64(x18)
    2a76:	0100                	c.addi4spn	x8,x2,128
    2a78:	04090103          	lb	x2,64(x18)
    2a7c:	0100                	c.addi4spn	x8,x2,128
    2a7e:	04090103          	lb	x2,64(x18)
    2a82:	0100                	c.addi4spn	x8,x2,128
    2a84:	04090203          	lb	x4,64(x18)
    2a88:	0100                	c.addi4spn	x8,x2,128
    2a8a:	04090103          	lb	x2,64(x18)
    2a8e:	0100                	c.addi4spn	x8,x2,128
    2a90:	04090103          	lb	x2,64(x18)
    2a94:	0100                	c.addi4spn	x8,x2,128
    2a96:	04090103          	lb	x2,64(x18)
    2a9a:	0100                	c.addi4spn	x8,x2,128
    2a9c:	0409                	c.addi	x8,2
    2a9e:	0000                	c.unimp
    2aa0:	0101                	c.addi	x2,0
    2aa2:	0164                	c.addi4spn	x9,x2,140
    2aa4:	0000                	c.unimp
    2aa6:	00450003          	lb	x0,4(x10)
    2aaa:	0000                	c.unimp
    2aac:	0101                	c.addi	x2,0
    2aae:	000d0efb          	0xd0efb
    2ab2:	0101                	c.addi	x2,0
    2ab4:	0101                	c.addi	x2,0
    2ab6:	0000                	c.unimp
    2ab8:	0100                	c.addi4spn	x8,x2,128
    2aba:	0000                	c.unimp
    2abc:	2e01                	c.jal	2dcc <.Ldebug_line0+0xe3>
    2abe:	2f2e                	c.fldsp	f30,200(x2)
    2ac0:	2e2e                	c.fldsp	f28,200(x2)
    2ac2:	2f2e2e2f          	0x2f2e2e2f
    2ac6:	2f2e                	c.fldsp	f30,200(x2)
    2ac8:	6972                	c.flwsp	f18,28(x2)
    2aca:	2d766373          	csrrsi	x6,0x2d7,12
    2ace:	2f636367          	0x2f636367
    2ad2:	696c                	c.flw	f11,84(x10)
    2ad4:	6762                	c.flwsp	f14,24(x2)
    2ad6:	632f6363          	bltu	x30,x18,30fc <.Ldebug_line0+0x413>
    2ada:	69666e6f          	jal	x28,69170 <.LC1+0x64fd8>
    2ade:	69722f67          	0x69722f67
    2ae2:	00766373          	csrrsi	x6,0x7,12
    2ae6:	6400                	c.flw	f8,8(x8)
    2ae8:	7669                	c.lui	x12,0xffffa
    2aea:	532e                	c.lwsp	x6,232(x2)
    2aec:	0100                	c.addi4spn	x8,x2,128
    2aee:	0000                	c.unimp
    2af0:	0000                	c.unimp
    2af2:	0205                	c.addi	x4,1
    2af4:	1a60                	c.addi4spn	x8,x2,316
    2af6:	0000                	c.unimp
    2af8:	0100c403          	lbu	x8,16(x1)
    2afc:	04090103          	lb	x2,64(x18)
    2b00:	0100                	c.addi4spn	x8,x2,128
    2b02:	04090403          	lb	x8,64(x18)
    2b06:	0100                	c.addi4spn	x8,x2,128
    2b08:	04090103          	lb	x2,64(x18)
    2b0c:	0100                	c.addi4spn	x8,x2,128
    2b0e:	04090103          	lb	x2,64(x18)
    2b12:	0100                	c.addi4spn	x8,x2,128
    2b14:	04090103          	lb	x2,64(x18)
    2b18:	0100                	c.addi4spn	x8,x2,128
    2b1a:	04090103          	lb	x2,64(x18)
    2b1e:	0100                	c.addi4spn	x8,x2,128
    2b20:	04090103          	lb	x2,64(x18)
    2b24:	0100                	c.addi4spn	x8,x2,128
    2b26:	04090203          	lb	x4,64(x18)
    2b2a:	0100                	c.addi4spn	x8,x2,128
    2b2c:	04090103          	lb	x2,64(x18)
    2b30:	0100                	c.addi4spn	x8,x2,128
    2b32:	04090103          	lb	x2,64(x18)
    2b36:	0100                	c.addi4spn	x8,x2,128
    2b38:	04090103          	lb	x2,64(x18)
    2b3c:	0100                	c.addi4spn	x8,x2,128
    2b3e:	04090203          	lb	x4,64(x18)
    2b42:	0100                	c.addi4spn	x8,x2,128
    2b44:	04090203          	lb	x4,64(x18)
    2b48:	0100                	c.addi4spn	x8,x2,128
    2b4a:	04090103          	lb	x2,64(x18)
    2b4e:	0100                	c.addi4spn	x8,x2,128
    2b50:	04090103          	lb	x2,64(x18)
    2b54:	0100                	c.addi4spn	x8,x2,128
    2b56:	04090203          	lb	x4,64(x18)
    2b5a:	0100                	c.addi4spn	x8,x2,128
    2b5c:	04090103          	lb	x2,64(x18)
    2b60:	0100                	c.addi4spn	x8,x2,128
    2b62:	04090103          	lb	x2,64(x18)
    2b66:	0100                	c.addi4spn	x8,x2,128
    2b68:	04090203          	lb	x4,64(x18)
    2b6c:	0100                	c.addi4spn	x8,x2,128
    2b6e:	04090503          	lb	x10,64(x18)
    2b72:	0100                	c.addi4spn	x8,x2,128
    2b74:	04090103          	lb	x2,64(x18)
    2b78:	0100                	c.addi4spn	x8,x2,128
    2b7a:	04090103          	lb	x2,64(x18)
    2b7e:	0100                	c.addi4spn	x8,x2,128
    2b80:	04090103          	lb	x2,64(x18)
    2b84:	0100                	c.addi4spn	x8,x2,128
    2b86:	04090503          	lb	x10,64(x18)
    2b8a:	0100                	c.addi4spn	x8,x2,128
    2b8c:	04090203          	lb	x4,64(x18)
    2b90:	0100                	c.addi4spn	x8,x2,128
    2b92:	04090203          	lb	x4,64(x18)
    2b96:	0100                	c.addi4spn	x8,x2,128
    2b98:	04090103          	lb	x2,64(x18)
    2b9c:	0100                	c.addi4spn	x8,x2,128
    2b9e:	04090203          	lb	x4,64(x18)
    2ba2:	0100                	c.addi4spn	x8,x2,128
    2ba4:	04090203          	lb	x4,64(x18)
    2ba8:	0100                	c.addi4spn	x8,x2,128
    2baa:	04090103          	lb	x2,64(x18)
    2bae:	0100                	c.addi4spn	x8,x2,128
    2bb0:	04090103          	lb	x2,64(x18)
    2bb4:	0100                	c.addi4spn	x8,x2,128
    2bb6:	04090103          	lb	x2,64(x18)
    2bba:	0100                	c.addi4spn	x8,x2,128
    2bbc:	04090403          	lb	x8,64(x18)
    2bc0:	0100                	c.addi4spn	x8,x2,128
    2bc2:	04090103          	lb	x2,64(x18)
    2bc6:	0100                	c.addi4spn	x8,x2,128
    2bc8:	04090103          	lb	x2,64(x18)
    2bcc:	0100                	c.addi4spn	x8,x2,128
    2bce:	04090203          	lb	x4,64(x18)
    2bd2:	0100                	c.addi4spn	x8,x2,128
    2bd4:	04090103          	lb	x2,64(x18)
    2bd8:	0100                	c.addi4spn	x8,x2,128
    2bda:	04090103          	lb	x2,64(x18)
    2bde:	0100                	c.addi4spn	x8,x2,128
    2be0:	04090203          	lb	x4,64(x18)
    2be4:	0100                	c.addi4spn	x8,x2,128
    2be6:	04090103          	lb	x2,64(x18)
    2bea:	0100                	c.addi4spn	x8,x2,128
    2bec:	04090203          	lb	x4,64(x18)
    2bf0:	0100                	c.addi4spn	x8,x2,128
    2bf2:	04090103          	lb	x2,64(x18)
    2bf6:	0100                	c.addi4spn	x8,x2,128
    2bf8:	04090103          	lb	x2,64(x18)
    2bfc:	0100                	c.addi4spn	x8,x2,128
    2bfe:	04090103          	lb	x2,64(x18)
    2c02:	0100                	c.addi4spn	x8,x2,128
    2c04:	0409                	c.addi	x8,2
    2c06:	0000                	c.unimp
    2c08:	0101                	c.addi	x2,0

00002c0a <.Ldebug_line0>:
    2c0a:	000000db          	0xdb
    2c0e:	00490003          	lb	x0,4(x18)
    2c12:	0000                	c.unimp
    2c14:	0101                	c.addi	x2,0
    2c16:	000d0efb          	0xd0efb
    2c1a:	0101                	c.addi	x2,0
    2c1c:	0101                	c.addi	x2,0
    2c1e:	0000                	c.unimp
    2c20:	0100                	c.addi4spn	x8,x2,128
    2c22:	0000                	c.unimp
    2c24:	2e01                	c.jal	2f34 <.Ldebug_line0+0x24b>
    2c26:	2f2e                	c.fldsp	f30,200(x2)
    2c28:	2e2e                	c.fldsp	f28,200(x2)
    2c2a:	2f2e2e2f          	0x2f2e2e2f
    2c2e:	2f2e                	c.fldsp	f30,200(x2)
    2c30:	6972                	c.flwsp	f18,28(x2)
    2c32:	2d766373          	csrrsi	x6,0x2d7,12
    2c36:	2f636367          	0x2f636367
    2c3a:	696c                	c.flw	f11,84(x10)
    2c3c:	6762                	c.flwsp	f14,24(x2)
    2c3e:	00006363          	bltu	x0,x0,2c44 <.Ldebug_line0+0x3a>
    2c42:	696c                	c.flw	f11,84(x10)
    2c44:	6762                	c.flwsp	f14,24(x2)
    2c46:	2e326363          	bltu	x4,x3,2f2c <.Ldebug_line0+0x243>
    2c4a:	00010063          	beq	x2,x0,2c4a <.Ldebug_line0+0x40>
    2c4e:	6c00                	c.flw	f8,24(x8)
    2c50:	6269                	c.lui	x4,0x1a
    2c52:	32636367          	0x32636367
    2c56:	682e                	c.flwsp	f16,200(x2)
    2c58:	0100                	c.addi4spn	x8,x2,128
    2c5a:	0000                	c.unimp
    2c5c:	0500                	c.addi4spn	x8,x2,640
    2c5e:	0001                	c.addi	x0,0
    2c60:	0205                	c.addi	x4,1
    2c62:	1b14                	c.addi4spn	x13,x2,432
    2c64:	0000                	c.unimp
    2c66:	0105c203          	lbu	x4,16(x11)
    2c6a:	0305                	c.addi	x6,1
    2c6c:	00090103          	lb	x2,0(x18)
    2c70:	0100                	c.addi4spn	x8,x2,128
    2c72:	00090203          	lb	x4,0(x18)
    2c76:	0100                	c.addi4spn	x8,x2,128
    2c78:	00090003          	lb	x0,0(x18)
    2c7c:	0100                	c.addi4spn	x8,x2,128
    2c7e:	00090003          	lb	x0,0(x18)
    2c82:	0100                	c.addi4spn	x8,x2,128
    2c84:	00090003          	lb	x0,0(x18)
    2c88:	0100                	c.addi4spn	x8,x2,128
    2c8a:	00090003          	lb	x0,0(x18)
    2c8e:	0100                	c.addi4spn	x8,x2,128
    2c90:	0200                	c.addi4spn	x8,x2,256
    2c92:	0304                	c.addi4spn	x9,x2,384
    2c94:	0306                	c.slli	x6,0x1
    2c96:	0900                	c.addi4spn	x8,x2,144
    2c98:	0008                	0x8
    2c9a:	0001                	c.addi	x0,0
    2c9c:	0402                	c.slli64	x8
    2c9e:	060e                	c.slli	x12,0x3
    2ca0:	0c090003          	lb	x0,192(x18)
    2ca4:	0100                	c.addi4spn	x8,x2,128
    2ca6:	0200                	c.addi4spn	x8,x2,256
    2ca8:	0e04                	c.addi4spn	x9,x2,784
    2caa:	00090003          	lb	x0,0(x18)
    2cae:	0100                	c.addi4spn	x8,x2,128
    2cb0:	0200                	c.addi4spn	x8,x2,256
    2cb2:	0e04                	c.addi4spn	x9,x2,784
    2cb4:	00090203          	lb	x4,0(x18)
    2cb8:	0100                	c.addi4spn	x8,x2,128
    2cba:	0200                	c.addi4spn	x8,x2,256
    2cbc:	0e04                	c.addi4spn	x9,x2,784
    2cbe:	0306                	c.slli	x6,0x1
    2cc0:	097e                	c.slli	x18,0x1f
    2cc2:	0000                	c.unimp
    2cc4:	0501                	c.addi	x10,0
    2cc6:	0001                	c.addi	x0,0
    2cc8:	0402                	c.slli64	x8
    2cca:	030e                	c.slli	x6,0x3
    2ccc:	001c0903          	lb	x18,1(x24) # 1d001 <.LC1+0x18e69>
    2cd0:	0501                	c.addi	x10,0
    2cd2:	04020003          	lb	x0,64(x4) # 1a040 <.LC1+0x15ea8>
    2cd6:	0304                	c.addi4spn	x9,x2,384
    2cd8:	097d                	c.addi	x18,31
    2cda:	0008                	0x8
    2cdc:	0301                	c.addi	x6,0
    2cde:	0900                	c.addi4spn	x8,x2,144
    2ce0:	000c                	0xc
    2ce2:	0901                	c.addi	x18,0
    2ce4:	0008                	0x8
    2ce6:	0100                	c.addi4spn	x8,x2,128
    2ce8:	                	c.li	x30,0

00002ce9 <.Ldebug_line0>:
    2ce9:	0000004f          	fnmadd.s	f0,f0,f0,f0,rne
    2ced:	00490003          	lb	x0,4(x18)
    2cf1:	0000                	c.unimp
    2cf3:	0101                	c.addi	x2,0
    2cf5:	000d0efb          	0xd0efb
    2cf9:	0101                	c.addi	x2,0
    2cfb:	0101                	c.addi	x2,0
    2cfd:	0000                	c.unimp
    2cff:	0100                	c.addi4spn	x8,x2,128
    2d01:	0000                	c.unimp
    2d03:	2e01                	c.jal	3013 <.Ldebug_line0+0x32a>
    2d05:	2f2e                	c.fldsp	f30,200(x2)
    2d07:	2e2e                	c.fldsp	f28,200(x2)
    2d09:	2f2e2e2f          	0x2f2e2e2f
    2d0d:	2f2e                	c.fldsp	f30,200(x2)
    2d0f:	6972                	c.flwsp	f18,28(x2)
    2d11:	2d766373          	csrrsi	x6,0x2d7,12
    2d15:	2f636367          	0x2f636367
    2d19:	696c                	c.flw	f11,84(x10)
    2d1b:	6762                	c.flwsp	f14,24(x2)
    2d1d:	00006363          	bltu	x0,x0,2d23 <.Ldebug_line0+0x3a>
    2d21:	696c                	c.flw	f11,84(x10)
    2d23:	6762                	c.flwsp	f14,24(x2)
    2d25:	2e326363          	bltu	x4,x3,300b <.Ldebug_line0+0x322>
    2d29:	0068                	c.addi4spn	x10,x2,12
    2d2b:	0001                	c.addi	x0,0
    2d2d:	6c00                	c.flw	f8,24(x8)
    2d2f:	6269                	c.lui	x4,0x1a
    2d31:	32636367          	0x32636367
    2d35:	632e                	c.flwsp	f6,200(x2)
    2d37:	0100                	c.addi4spn	x8,x2,128
    2d39:	0000                	c.unimp
	...

Disassembly of section .debug_str:

00000000 <.LASF27>:
   0:	5f5f 7165 6664      	0x666471655f5f
   6:	0032                	c.slli	x0,0xc

00000008 <.LASF10>:
   8:	7266                	c.flwsp	f4,120(x2)
   a:	6361                	c.lui	x6,0x18
   c:	0030                	c.addi4spn	x12,x2,8

0000000e <.LASF10>:
   e:	7266                	c.flwsp	f4,120(x2)
  10:	6361                	c.lui	x6,0x18
  12:	0031                	c.addi	x0,12

00000014 <.LASF43>:
  14:	4644                	c.lw	x9,12(x12)
  16:	7974                	c.flw	f13,116(x10)
  18:	6570                	c.flw	f12,76(x10)
	...

0000001b <.LASF2>:
  1b:	6e75                	c.lui	x28,0x1d

0000001d <.LASF0>:
  1d:	6e676973          	csrrsi	x18,0x6e6,14
  21:	6465                	c.lui	x8,0x19
  23:	                	c.flw	f8,64(x14)

00000024 <.LASF10>:
  24:	72616863          	bltu	x2,x6,754 <.LASF20+0x8>
	...

00000029 <.LASF24>:
  29:	2e2e                	c.fldsp	f28,200(x2)
  2b:	2f2e2e2f          	0x2f2e2e2f
  2f:	2e2e                	c.fldsp	f28,200(x2)
  31:	722f2e2f          	0x722f2e2f
  35:	7369                	c.lui	x6,0xffffa
  37:	672d7663          	bgeu	x26,x18,6a3 <.LASF31+0xa>
  3b:	6c2f6363          	bltu	x30,x2,701 <.L88+0x9>
  3f:	6269                	c.lui	x4,0x1a
  41:	2f636367          	0x2f636367
  45:	74666f73          	csrrsi	x30,0x746,12
  49:	662d                	c.lui	x12,0xb
  4b:	2f70                	c.fld	f12,216(x14)
  4d:	7165                	c.addi16sp	x2,-400
  4f:	6664                	c.flw	f9,76(x12)
  51:	2e32                	c.fldsp	f28,264(x2)
  53:	          	beq	x30,x21,633 <.L77+0x7>

00000055 <.LASF7>:
  55:	5f5f 6367 5f63      	0x5f6363675f5f
  5b:	74504d43          	0x74504d43
  5f:	7079                	c.lui	x0,0xffffe
  61:	0065                	c.addi	x0,25

00000063 <.LASF11>:
  63:	6e676973          	csrrsi	x18,0x6e6,14
	...

00000068 <.LASF6>:
  68:	726f6873          	csrrsi	x16,0x726,30
  6c:	2074                	c.fld	f13,192(x8)
  6e:	6e75                	c.lui	x28,0x1d
  70:	6e676973          	csrrsi	x18,0x6e6,14
  74:	6465                	c.lui	x8,0x19
  76:	6920                	c.flw	f8,80(x10)
  78:	746e                	c.flwsp	f8,248(x2)
	...

0000007b <.LASF14>:
  7b:	5f41                	c.li	x30,-16
  7d:	3166                	c.fldsp	f2,120(x2)
	...

00000080 <.LASF11>:
  80:	665f 7865       	0x5f007865665f

00000085 <.LASF20>:
  85:	465f 5f50 5349      	0x53495f50465f
  8b:	4e474953          	0x4e474953
  8f:	4e41                	c.li	x28,16
  91:	725f 7465       	0x41007465725f

00000096 <.LASF13>:
  96:	5f41                	c.li	x30,-16
  98:	3066                	c.fldsp	f0,120(x2)
	...

0000009b <.LASF18>:
  9b:	465f 5f50 4e55      	0x4e555f50465f
  a1:	4150                	c.lw	x12,4(x10)
  a3:	525f4b43          	fmadd.d	f22,f30,f5,f10,rmm
  a7:	5741                	c.li	x14,-16
  a9:	325f 665f 6f6c      	0x6f6c665f325f
	...

000000b0 <.LASF15>:
  b0:	5f42                	c.lwsp	x30,48(x2)
  b2:	3066                	c.fldsp	f0,120(x2)
	...

000000b5 <.LASF16>:
  b5:	5f42                	c.lwsp	x30,48(x2)
  b7:	3166                	c.fldsp	f2,120(x2)
	...

000000ba <.LASF5>:
  ba:	6f6c                	c.flw	f11,92(x14)
  bc:	676e                	c.flwsp	f14,216(x2)
  be:	                	c.flw	f8,88(x8)

000000bf <.LASF21>:
  bf:	6f6c                	c.flw	f11,92(x14)
  c1:	676e                	c.flwsp	f14,216(x2)
  c3:	                	c.flw	f8,104(x10)

000000c4 <.LASF0>:
  c4:	6e75                	c.lui	x28,0x1d
  c6:	6e676973          	csrrsi	x18,0x6e6,14
  ca:	6465                	c.lui	x8,0x19
  cc:	6920                	c.flw	f8,80(x10)
  ce:	746e                	c.flwsp	f8,248(x2)
	...

000000d1 <.LASF18>:
  d1:	6d6f682f          	0x6d6f682f
  d5:	2f65                	c.jal	88d <.L90+0x15>
  d7:	6164                	c.flw	f9,68(x10)
  d9:	6f6d                	c.lui	x30,0x1b
  db:	5f6e                	c.lwsp	x30,248(x2)
  dd:	6564                	c.flw	f9,76(x10)
  df:	6976                	c.flwsp	f18,92(x2)
  e1:	2f6c                	c.fld	f11,216(x14)
  e3:	6972                	c.flwsp	f18,28(x2)
  e5:	2f766373          	csrrsi	x6,0x2f7,12
  e9:	72756f73          	csrrsi	x30,0x727,10
  ed:	635f6563          	bltu	x30,x21,717 <.LASF14+0x5>
  f1:	2f65646f          	jal	x8,563e7 <.LC1+0x5224f>
  f5:	6972                	c.flwsp	f18,28(x2)
  f7:	2d766373          	csrrsi	x6,0x2d7,12
  fb:	2d756e67          	0x2d756e67
  ff:	6f74                	c.flw	f13,92(x14)
 101:	68636c6f          	jal	x24,36787 <.LC1+0x325ef>
 105:	6961                	c.lui	x18,0x18
 107:	2f6e                	c.fldsp	f30,216(x2)
 109:	7562                	c.flwsp	f10,56(x2)
 10b:	6c69                	c.lui	x24,0x1a
 10d:	2d64                	c.fld	f9,216(x10)
 10f:	2d636367          	0x2d636367
 113:	656e                	c.flwsp	f10,216(x2)
 115:	62696c77          	0x62696c77
 119:	732d                	c.lui	x6,0xfffeb
 11b:	6174                	c.flw	f13,68(x10)
 11d:	2f326567          	0x2f326567
 121:	6972                	c.flwsp	f18,28(x2)
 123:	33766373          	csrrsi	x6,mhpmevent23,12
 127:	2d32                	c.fldsp	f26,264(x2)
 129:	6e75                	c.lui	x28,0x1d
 12b:	776f6e6b          	0x776f6e6b
 12f:	2d6e                	c.fldsp	f26,216(x2)
 131:	6c65                	c.lui	x24,0x19
 133:	2f66                	c.fldsp	f30,88(x2)
 135:	696c                	c.flw	f11,84(x10)
 137:	6762                	c.flwsp	f14,24(x2)
 139:	          	bltu	x0,x0,7ff <.LLST14+0x15>

0000013c <.LASF1>:
 13c:	6f6c                	c.flw	f11,92(x14)
 13e:	676e                	c.flwsp	f14,216(x2)
 140:	                	c.flw	f8,88(x8)

00000141 <.LASF20>:
 141:	6f6c                	c.flw	f11,92(x14)
 143:	676e                	c.flwsp	f14,216(x2)
 145:	6920                	c.flw	f8,80(x10)
 147:	746e                	c.flwsp	f8,248(x2)
	...

0000014a <.LASF25>:
 14a:	465f 5f50 4e55      	0x4e555f50465f
 150:	4f49                	c.li	x30,18
 152:	5f4e                	c.lwsp	x30,240(x2)
 154:	0044                	c.addi4spn	x9,x2,4

00000156 <.LASF10>:
 156:	6962                	c.flwsp	f18,24(x2)
 158:	7374                	c.flw	f13,100(x14)
	...

0000015b <.LASF16>:
 15b:	20554e47          	fmsub.s	f28,f10,f5,f4,rmm
 15f:	20373143          	fmadd.s	f2,f14,f3,f4,rup
 163:	3031                	c.jal	fffff96f <.LC1+0xffffb7d7>
 165:	322e                	c.fldsp	f4,232(x2)
 167:	302e                	c.fldsp	f0,232(x2)
 169:	2d20                	c.fld	f8,88(x10)
 16b:	636d                	c.lui	x6,0x1b
 16d:	6f6d                	c.lui	x30,0x1b
 16f:	6564                	c.flw	f9,76(x10)
 171:	3d6c                	c.fld	f11,248(x10)
 173:	656d                	c.lui	x10,0x1b
 175:	6c64                	c.flw	f9,92(x8)
 177:	2d20776f          	jal	x14,7449 <.LC1+0x32b1>
 17b:	636d                	c.lui	x6,0x1b
 17d:	6f6d                	c.lui	x30,0x1b
 17f:	6564                	c.flw	f9,76(x10)
 181:	3d6c                	c.fld	f11,248(x10)
 183:	656d                	c.lui	x10,0x1b
 185:	6c64                	c.flw	f9,92(x8)
 187:	2d20776f          	jal	x14,7459 <.LC1+0x32c1>
 18b:	746d                	c.lui	x8,0xffffb
 18d:	6e75                	c.lui	x28,0x1d
 18f:	3d65                	c.jal	47 <.L15+0xf>
 191:	6f72                	c.flwsp	f30,28(x2)
 193:	74656b63          	bltu	x10,x6,8e9 <.L94+0x5>
 197:	2d20                	c.fld	f8,88(x10)
 199:	616d                	c.addi16sp	x2,240
 19b:	6372                	c.flwsp	f6,28(x2)
 19d:	3d68                	c.fld	f10,248(x10)
 19f:	7672                	c.flwsp	f12,60(x2)
 1a1:	20693233          	0x20693233
 1a5:	6d2d                	c.lui	x26,0xb
 1a7:	6261                	c.lui	x4,0x18
 1a9:	3d69                	c.jal	43 <.L15+0xb>
 1ab:	6c69                	c.lui	x24,0x1a
 1ad:	3370                	c.fld	f12,224(x14)
 1af:	2032                	c.fldsp	f0,264(x2)
 1b1:	6d2d                	c.lui	x26,0xb
 1b3:	7261                	c.lui	x4,0xffff8
 1b5:	723d6863          	bltu	x26,x3,8e5 <.L94+0x1>
 1b9:	3376                	c.fldsp	f6,376(x2)
 1bb:	6932                	c.flwsp	f18,12(x2)
 1bd:	2d20                	c.fld	f8,88(x10)
 1bf:	4f2d2067          	0x4f2d2067
 1c3:	4f2d2073          	csrrs	x0,0x4f2,x26
 1c7:	2032                	c.fldsp	f0,264(x2)
 1c9:	4f2d                	c.li	x30,11
 1cb:	662d2073          	csrrs	x0,0x662,x26
 1cf:	7562                	c.flwsp	f10,56(x2)
 1d1:	6c69                	c.lui	x24,0x1a
 1d3:	6964                	c.flw	f9,84(x10)
 1d5:	676e                	c.flwsp	f14,216(x2)
 1d7:	6c2d                	c.lui	x24,0xb
 1d9:	6269                	c.lui	x4,0x1a
 1db:	20636367          	0x20636367
 1df:	662d                	c.lui	x12,0xb
 1e1:	6f6e                	c.flwsp	f30,216(x2)
 1e3:	732d                	c.lui	x6,0xfffeb
 1e5:	6174                	c.flw	f13,68(x10)
 1e7:	702d6b63          	bltu	x26,x2,8fd <.L94+0x19>
 1eb:	6f72                	c.flwsp	f30,28(x2)
 1ed:	6574                	c.flw	f13,76(x10)
 1ef:	726f7463          	bgeu	x30,x6,917 <.L96+0xf>
 1f3:	2d20                	c.fld	f8,88(x10)
 1f5:	7666                	c.flwsp	f12,120(x2)
 1f7:	7369                	c.lui	x6,0xffffa
 1f9:	6269                	c.lui	x4,0x1a
 1fb:	6c69                	c.lui	x24,0x1a
 1fd:	7469                	c.lui	x8,0xffffa
 1ff:	3d79                	c.jal	9d <.LASF18+0x2>
 201:	6968                	c.flw	f10,84(x10)
 203:	6464                	c.flw	f9,76(x8)
 205:	6e65                	c.lui	x28,0x19
	...

00000208 <.LASF12>:
 208:	665f 6d72       	0x5f006d72665f

0000020d <.LASF29>:
 20d:	5f5f 656c 6664      	0x6664656c5f5f
 213:	0032                	c.slli	x0,0xc

00000215 <.LASF26>:
 215:	2e2e                	c.fldsp	f28,200(x2)
 217:	2f2e2e2f          	0x2f2e2e2f
 21b:	2e2e                	c.fldsp	f28,200(x2)
 21d:	722f2e2f          	0x722f2e2f
 221:	7369                	c.lui	x6,0xffffa
 223:	672d7663          	bgeu	x26,x18,88f <.L90+0x17>
 227:	6c2f6363          	bltu	x30,x2,8ed <.L94+0x9>
 22b:	6269                	c.lui	x4,0x1a
 22d:	2f636367          	0x2f636367
 231:	74666f73          	csrrsi	x30,0x746,12
 235:	662d                	c.lui	x12,0xb
 237:	2f70                	c.fld	f12,216(x14)
 239:	656c                	c.flw	f11,76(x10)
 23b:	6664                	c.flw	f9,76(x12)
 23d:	2e32                	c.fldsp	f28,264(x2)
 23f:	          	beq	x30,x5,69f <.LASF31+0x6>

00000241 <.LASF21>:
 241:	465f 5f50 4d43      	0x4d435f50465f
 247:	5f50                	c.lw	x12,60(x14)
 249:	7369                	c.lui	x6,0xffffa
 24b:	7a5f 7265 5f6f      	0x5f6f72657a5f
 251:	0078                	c.addi4spn	x14,x2,12

00000253 <.LASF22>:
 253:	465f 5f50 4d43      	0x4d435f50465f
 259:	5f50                	c.lw	x12,60(x14)
 25b:	7369                	c.lui	x6,0xffffa
 25d:	7a5f 7265 5f6f      	0x5f6f72657a5f
 263:	0079                	c.addi	x0,30

00000265 <.LASF50>:
 265:	465f 5f50 4150      	0x41505f50465f
 26b:	435f4b43          	fmadd.d	f22,f30,f21,f8,rmm
 26f:	4e41                	c.li	x28,16
 271:	43494e4f          	fnmadd.d	f28,f18,f20,f8,rmm
 275:	4c41                	c.li	x24,16
 277:	545f 665f 0030      	0x30665f545f

0000027d <.LASF51>:
 27d:	465f 5f50 4150      	0x41505f50465f
 283:	435f4b43          	fmadd.d	f22,f30,f21,f8,rmm
 287:	4e41                	c.li	x28,16
 289:	43494e4f          	fnmadd.d	f28,f18,f20,f8,rmm
 28d:	4c41                	c.li	x24,16
 28f:	545f 665f 0031      	0x31665f545f

00000295 <.LASF34>:
 295:	5f5f 6875       	0x5f0068755f5f

0000029a <.LASF32>:
 29a:	5f5f 6c75       	0x55006c755f5f

0000029f <.LASF7>:
 29f:	4855                	c.li	x16,21
 2a1:	70797457          	0x70797457
 2a5:	0065                	c.addi	x0,25

000002a7 <.LASF36>:
 2a7:	5f5f 706f 0030      	0x30706f5f5f

000002ad <.LASF37>:
 2ad:	5f5f 706f 0031      	0x31706f5f5f

000002b3 <.LASF46>:
 2b3:	465f 5f50 4150      	0x41505f50465f
 2b9:	435f4b43          	fmadd.d	f22,f30,f21,f8,rmm
 2bd:	4e41                	c.li	x28,16
 2bf:	43494e4f          	fnmadd.d	f28,f18,f20,f8,rmm
 2c3:	4c41                	c.li	x24,16
 2c5:	695f 5f73 6974      	0x69745f73695f
 2cb:	796e                	c.flwsp	f18,248(x2)
	...

000002ce <.LASF30>:
 2ce:	5f5f 3278       	0x5f0032785f5f

000002d3 <.LASF22>:
 2d3:	465f 5f50 4e55      	0x4e555f50465f
 2d9:	4150                	c.lw	x12,4(x10)
 2db:	435f4b43          	fmadd.d	f22,f30,f21,f8,rmm
 2df:	4e41                	c.li	x28,16
 2e1:	43494e4f          	fnmadd.d	f28,f18,f20,f8,rmm
 2e5:	4c41                	c.li	x24,16
 2e7:	735f 6968 7466      	0x74666968735f
	...

000002ee <.LASF24>:
 2ee:	465f 5f50 4150      	0x41505f50465f
 2f4:	525f4b43          	fmadd.d	f22,f30,f5,f10,rmm
 2f8:	5741                	c.li	x14,-16
 2fa:	325f 665f 6f6c      	0x6f6c665f325f
	...

00000301 <.LASF56>:
 301:	2e2e                	c.fldsp	f28,200(x2)
 303:	2f2e2e2f          	0x2f2e2e2f
 307:	2e2e                	c.fldsp	f28,200(x2)
 309:	722f2e2f          	0x722f2e2f
 30d:	7369                	c.lui	x6,0xffffa
 30f:	672d7663          	bgeu	x26,x18,97b <.LBE8+0x13>
 313:	6c2f6363          	bltu	x30,x2,9d9 <.LBB3+0x5>
 317:	6269                	c.lui	x4,0x1a
 319:	2f636367          	0x2f636367
 31d:	74666f73          	csrrsi	x30,0x746,12
 321:	662d                	c.lui	x12,0xb
 323:	2f70                	c.fld	f12,216(x14)
 325:	756d                	c.lui	x10,0xffffb
 327:	646c                	c.flw	f11,76(x8)
 329:	3366                	c.fldsp	f6,120(x2)
 32b:	632e                	c.flwsp	f6,200(x2)
	...

0000032e <.LASF40>:
 32e:	465f 5f50 5246      	0x52465f50465f
 334:	4341                	c.li	x6,16
 336:	535f 5352 345f      	0x345f5352535f
 33c:	735f 6974 6b63      	0x6b636974735f
 342:	0079                	c.addi	x0,30

00000344 <.LASF42>:
 344:	465f 5f50 5246      	0x52465f50465f
 34a:	4341                	c.li	x6,16
 34c:	535f 5352 5f54      	0x5f545352535f
 352:	5f34                	c.lw	x13,120(x14)
 354:	6f64                	c.flw	f9,92(x14)
 356:	          	0x5f006e77

00000359 <.LASF44>:
 359:	465f 5f50 5246      	0x52465f50465f
 35f:	4341                	c.li	x6,16
 361:	535f 5352 5f54      	0x5f545352535f
 367:	5f34                	c.lw	x13,120(x14)
 369:	0069                	c.addi	x0,26

0000036b <.LASF43>:
 36b:	465f 5f50 5246      	0x52465f50465f
 371:	4341                	c.li	x6,16
 373:	535f 5352 5f54      	0x5f545352535f
 379:	5f34                	c.lw	x13,120(x14)
 37b:	70696b73          	csrrsi	x22,0x706,18
	...

00000380 <.LASF48>:
 380:	465f 5f50 4150      	0x41505f50465f
 386:	435f4b43          	fmadd.d	f22,f30,f21,f8,rmm
 38a:	4e41                	c.li	x28,16
 38c:	43494e4f          	fnmadd.d	f28,f18,f20,f8,rmm
 390:	4c41                	c.li	x24,16
 392:	545f 735f       	0x5f00735f545f

00000397 <.LASF26>:
 397:	465f 5f50 554d      	0x554d5f50465f
 39d:	5f4c                	c.lw	x11,60(x14)
 39f:	454d                	c.li	x10,19
 3a1:	5441                	c.li	x8,-16
 3a3:	445f 5f57 5f32      	0x5f325f57445f
 3a9:	65646977          	0x65646977
 3ad:	635f 665f 0030      	0x30665f635f

000003b3 <.LASF45>:
 3b3:	465f 5f50 5246      	0x52465f50465f
 3b9:	4341                	c.li	x6,16
 3bb:	535f 5352 5f54      	0x5f545352535f
 3c1:	5f34                	c.lw	x13,120(x14)
 3c3:	          	0x465f0073

000003c5 <.LASF47>:
 3c5:	465f 5f50 4150      	0x41505f50465f
 3cb:	435f4b43          	fmadd.d	f22,f30,f21,f8,rmm
 3cf:	4e41                	c.li	x28,16
 3d1:	43494e4f          	fnmadd.d	f28,f18,f20,f8,rmm
 3d5:	4c41                	c.li	x24,16
 3d7:	545f 635f       	0x5f00635f545f

000003dc <.LASF49>:
 3dc:	465f 5f50 4150      	0x41505f50465f
 3e2:	435f4b43          	fmadd.d	f22,f30,f21,f8,rmm
 3e6:	4e41                	c.li	x28,16
 3e8:	43494e4f          	fnmadd.d	f28,f18,f20,f8,rmm
 3ec:	4c41                	c.li	x24,16
 3ee:	545f 655f       	0x5f00655f545f

000003f3 <.LASF29>:
 3f3:	5f5f 3178       	0x5f0031785f5f

000003f8 <.LASF31>:
 3f8:	5f5f 3378       	0x520033785f5f

000003fd <.LASF17>:
 3fd:	5f52                	c.lwsp	x30,52(x2)
 3ff:	3066                	c.fldsp	f0,120(x2)
	...

00000402 <.LASF35>:
 402:	5f5f 6876       	0x5f0068765f5f

00000407 <.LASF41>:
 407:	465f 5f50 5246      	0x52465f50465f
 40d:	4341                	c.li	x6,16
 40f:	535f 5352 5f54      	0x5f545352535f
 415:	5f34                	c.lw	x13,120(x14)
 417:	7075                	c.lui	x0,0xffffd
	...

0000041a <.LASF33>:
 41a:	5f5f 6c76       	0x5f006c765f5f

0000041f <.LASF24>:
 41f:	5f5f 6c63 737a      	0x737a6c635f5f
 425:	3269                	c.jal	fffffdaf <.LC1+0xffffbc17>
	...

00000428 <.LASF59>:
 428:	5f5f 756d 646c      	0x646c756d5f5f
 42e:	3366                	c.fldsp	f6,120(x2)
	...

00000431 <.LASF27>:
 431:	465f 5f50 554d      	0x554d5f50465f
 437:	5f4c                	c.lw	x11,60(x14)
 439:	454d                	c.li	x10,19
 43b:	5441                	c.li	x8,-16
 43d:	445f 5f57 5f32      	0x5f325f57445f
 443:	65646977          	0x65646977
 447:	635f 665f 0031      	0x31665f635f

0000044d <.LASF39>:
 44d:	5f5f 5046 465f      	0x465f50465f5f
 453:	4152                	c.lwsp	x2,20(x2)
 455:	44415f43          	0x44415f43
 459:	5f44                	c.lw	x9,60(x14)
 45b:	32635f33          	0x32635f33
	...

00000460 <.LASF23>:
 460:	465f 5f50 554d      	0x554d5f50465f
 466:	5f4c                	c.lw	x11,60(x14)
 468:	454d                	c.li	x10,19
 46a:	5441                	c.li	x8,-16
 46c:	325f 775f 6469      	0x6469775f325f
 472:	5f65                	c.li	x30,-7
 474:	5f7a                	c.lwsp	x30,188(x2)
 476:	0066                	c.slli	x0,0x19

00000478 <.LASF28>:
 478:	5f5f 3078       	0x5f0030785f5f

0000047d <.LASF38>:
 47d:	5f5f 5046 465f      	0x465f50465f5f
 483:	4152                	c.lwsp	x2,20(x2)
 485:	44415f43          	0x44415f43
 489:	5f44                	c.lw	x9,60(x14)
 48b:	31635f33          	0x31635f33
	...

00000490 <.LASF24>:
 490:	465f 5f50 554d      	0x554d5f50465f
 496:	5f4c                	c.lw	x11,60(x14)
 498:	454d                	c.li	x10,19
 49a:	5441                	c.li	x8,-16
 49c:	445f 5f57 5f32      	0x5f325f57445f
 4a2:	65646977          	0x65646977
 4a6:	625f 665f 0030      	0x30665f625f

000004ac <.LASF25>:
 4ac:	465f 5f50 554d      	0x554d5f50465f
 4b2:	5f4c                	c.lw	x11,60(x14)
 4b4:	454d                	c.li	x10,19
 4b6:	5441                	c.li	x8,-16
 4b8:	445f 5f57 5f32      	0x5f325f57445f
 4be:	65646977          	0x65646977
 4c2:	625f 665f 0031      	0x31665f625f

000004c8 <.LASF18>:
 4c8:	5f52                	c.lwsp	x30,52(x2)
 4ca:	3166                	c.fldsp	f2,120(x2)
	...

000004cd <.LASF26>:
 4cd:	32627573          	csrrci	x10,mhpmevent6,4
	...

000004d2 <.LASF23>:
 4d2:	6461                	c.lui	x8,0x18
 4d4:	5f64                	c.lw	x9,124(x14)
 4d6:	6f64                	c.flw	f9,92(x14)
 4d8:	656e                	c.flwsp	f10,216(x2)
	...

000004db <.LASF20>:
 4db:	465f 5f50 4150      	0x41505f50465f
 4e1:	535f4b43          	fmadd.d	f22,f30,f21,f10,rmm
 4e5:	4d45                	c.li	x26,17
 4e7:	5249                	c.li	x4,-14
 4e9:	5741                	c.li	x14,-16
 4eb:	545f 735f       	0x7300735f545f

000004f0 <.LASF25>:
 4f0:	31627573          	csrrci	x10,0x316,4
	...

000004f5 <.LASF27>:
 4f5:	33627573          	csrrci	x10,mhpmevent22,4
	...

000004fa <.LASF21>:
 4fa:	465f 5f50 4150      	0x41505f50465f
 500:	535f4b43          	fmadd.d	f22,f30,f21,f10,rmm
 504:	4d45                	c.li	x26,17
 506:	5249                	c.li	x4,-14
 508:	5741                	c.li	x14,-16
 50a:	545f 655f       	0x6e00655f545f

0000050f <.LASF28>:
 50f:	6f6e                	c.flwsp	f30,216(x2)
 511:	6d72                	c.flwsp	f26,28(x2)
	...

00000514 <.LASF45>:
 514:	5f5f 7573 6462      	0x646275735f5f
 51a:	3366                	c.fldsp	f6,120(x2)
	...

0000051d <.LASF30>:
 51d:	465f 5f50 4441      	0x44415f50465f
 523:	5f44                	c.lw	x9,60(x14)
 525:	4e49                	c.li	x28,18
 527:	4554                	c.lw	x13,12(x10)
 529:	4e52                	c.lwsp	x28,20(x2)
 52b:	4c41                	c.li	x24,16
 52d:	645f 6669 0066      	0x666669645f

00000533 <.LASF18>:
 533:	465f 5f50 4150      	0x41505f50465f
 539:	535f4b43          	fmadd.d	f22,f30,f21,f10,rmm
 53d:	4d45                	c.li	x26,17
 53f:	5249                	c.li	x4,-14
 541:	5741                	c.li	x14,-16
 543:	695f 5f73 6974      	0x69745f73695f
 549:	796e                	c.flwsp	f18,248(x2)
	...

0000054c <.LASF22>:
 54c:	465f 5f50 4150      	0x41505f50465f
 552:	535f4b43          	fmadd.d	f22,f30,f21,f10,rmm
 556:	4d45                	c.li	x26,17
 558:	5249                	c.li	x4,-14
 55a:	5741                	c.li	x14,-16
 55c:	545f 665f 0030      	0x30665f545f

00000562 <.LASF23>:
 562:	465f 5f50 4150      	0x41505f50465f
 568:	535f4b43          	fmadd.d	f22,f30,f21,f10,rmm
 56c:	4d45                	c.li	x26,17
 56e:	5249                	c.li	x4,-14
 570:	5741                	c.li	x14,-16
 572:	545f 665f 0031      	0x31665f545f

00000578 <.LASF24>:
 578:	465f 5f50 4441      	0x44415f50465f
 57e:	5f44                	c.lw	x9,60(x14)
 580:	4e49                	c.li	x28,18
 582:	4554                	c.lw	x13,12(x10)
 584:	4e52                	c.lwsp	x28,20(x2)
 586:	4c41                	c.li	x24,16
 588:	655f 6964 6666      	0x66666964655f
	...

0000058f <.LASF19>:
 58f:	465f 5f50 4150      	0x41505f50465f
 595:	535f4b43          	fmadd.d	f22,f30,f21,f10,rmm
 599:	4d45                	c.li	x26,17
 59b:	5249                	c.li	x4,-14
 59d:	5741                	c.li	x14,-16
 59f:	545f 635f       	0x7300635f545f

000005a4 <.LASF29>:
 5a4:	5f627573          	csrrci	x10,0x5f6,4
 5a8:	6f64                	c.flw	f9,92(x14)
 5aa:	656e                	c.flwsp	f10,216(x2)
	...

000005ad <.LASF20>:
 5ad:	6461                	c.lui	x8,0x18
 5af:	3164                	c.fld	f9,224(x10)
	...

000005b2 <.LASF21>:
 5b2:	6461                	c.lui	x8,0x18
 5b4:	3264                	c.fld	f9,224(x12)
	...

000005b7 <.LASF22>:
 5b7:	6461                	c.lui	x8,0x18
 5b9:	3364                	c.fld	f9,224(x14)
	...

000005bc <.LASF41>:
 5bc:	2e2e                	c.fldsp	f28,200(x2)
 5be:	2f2e2e2f          	0x2f2e2e2f
 5c2:	2e2e                	c.fldsp	f28,200(x2)
 5c4:	722f2e2f          	0x722f2e2f
 5c8:	7369                	c.lui	x6,0xffffa
 5ca:	672d7663          	bgeu	x26,x18,c36 <.LBB18+0x6>
 5ce:	6c2f6363          	bltu	x30,x2,c94 <.L10+0x4>
 5d2:	6269                	c.lui	x4,0x1a
 5d4:	2f636367          	0x2f636367
 5d8:	74666f73          	csrrsi	x30,0x746,12
 5dc:	662d                	c.lui	x12,0xb
 5de:	2f70                	c.fld	f12,216(x14)
 5e0:	64627573          	csrrci	x10,0x646,4
 5e4:	3366                	c.fldsp	f6,120(x2)
 5e6:	632e                	c.flwsp	f6,200(x2)
	...

000005e9 <.LASF23>:
 5e9:	2e2e                	c.fldsp	f28,200(x2)
 5eb:	2f2e2e2f          	0x2f2e2e2f
 5ef:	2e2e                	c.fldsp	f28,200(x2)
 5f1:	722f2e2f          	0x722f2e2f
 5f5:	7369                	c.lui	x6,0xffffa
 5f7:	672d7663          	bgeu	x26,x18,c63 <.LVL47+0x3>
 5fb:	6c2f6363          	bltu	x30,x2,cc1 <.LVL63+0x1>
 5ff:	6269                	c.lui	x4,0x1a
 601:	2f636367          	0x2f636367
 605:	74666f73          	csrrsi	x30,0x746,12
 609:	662d                	c.lui	x12,0xb
 60b:	2f70                	c.fld	f12,216(x14)
 60d:	6966                	c.flwsp	f18,88(x2)
 60f:	6478                	c.flw	f14,76(x8)
 611:	7366                	c.flwsp	f6,120(x2)
 613:	2e69                	c.jal	9ad <.L5+0x1d>
 615:	          	beq	x30,x5,a75 <.LVL22+0x1>

00000617 <.LASF19>:
 617:	465f 5f50 4f54      	0x4f545f50465f
 61d:	495f 544e 695f      	0x695f544e495f
 623:	656e                	c.flwsp	f10,216(x2)
 625:	6178                	c.flw	f14,68(x10)
 627:	          	bgeu	x0,x16,c0f <.LLST33+0x3>

0000062a <.LASF26>:
 62a:	5f5f 6966 6478      	0x647869665f5f
 630:	7366                	c.flwsp	f6,120(x2)
 632:	0069                	c.addi	x0,26

00000634 <.LASF13>:
 634:	                	c.li	x6,-11

00000635 <.LASF12>:
 635:	79744953          	0x79744953
 639:	6570                	c.flw	f12,76(x10)
	...

0000063c <.LASF28>:
 63c:	2e2e                	c.fldsp	f28,200(x2)
 63e:	2f2e2e2f          	0x2f2e2e2f
 642:	2e2e                	c.fldsp	f28,200(x2)
 644:	722f2e2f          	0x722f2e2f
 648:	7369                	c.lui	x6,0xffffa
 64a:	672d7663          	bgeu	x26,x18,cb6 <.LVL60+0x6>
 64e:	6c2f6363          	bltu	x30,x2,d14 <.LBB25+0x4>
 652:	6269                	c.lui	x4,0x1a
 654:	2f636367          	0x2f636367
 658:	74666f73          	csrrsi	x30,0x746,12
 65c:	662d                	c.lui	x12,0xb
 65e:	2f70                	c.fld	f12,216(x14)
 660:	6c66                	c.flwsp	f24,88(x2)
 662:	7374616f          	jal	x2,47598 <.LC1+0x43400>
 666:	6469                	c.lui	x8,0x1a
 668:	2e66                	c.fldsp	f28,88(x2)
 66a:	          	beq	x0,x23,c6a <.LLST36+0x4>

0000066c <.LASF32>:
 66c:	6170                	c.flw	f12,68(x10)
 66e:	735f6b63          	bltu	x30,x21,da4 <.LBE32+0x8>
 672:	6d65                	c.lui	x26,0x19
 674:	7269                	c.lui	x4,0xffffa
 676:	7761                	c.lui	x14,0xffff8
	...

00000679 <.LASF16>:
 679:	465f 5f50 5246      	0x52465f50465f
 67f:	495f4d4f          	fnmadd.s	f26,f30,f21,f9,rmm
 683:	544e                	c.lwsp	x8,240(x2)
 685:	755f 0072       	0x465f0072755f

00000689 <.LASF17>:
 689:	465f 5f50 5246      	0x52465f50465f
 68f:	495f4d4f          	fnmadd.s	f26,f30,f21,f9,rmm
 693:	544e                	c.lwsp	x8,240(x2)
 695:	6c5f 007a       	0x5f5f007a6c5f

00000699 <.LASF31>:
 699:	5f5f 6c66 616f      	0x616f6c665f5f
 69f:	7374                	c.flw	f13,100(x14)
 6a1:	6469                	c.lui	x8,0x1a
 6a3:	0066                	c.slli	x0,0x19
 6a5:	2e2e                	c.fldsp	f28,200(x2)
 6a7:	2f2e2e2f          	0x2f2e2e2f
 6ab:	2e2e                	c.fldsp	f28,200(x2)
 6ad:	722f2e2f          	0x722f2e2f
 6b1:	7369                	c.lui	x6,0xffffa
 6b3:	672d7663          	bgeu	x26,x18,d1f <.LBE25+0x3>
 6b7:	6c2f6363          	bltu	x30,x2,d7d <.LLST46+0x1>
 6bb:	6269                	c.lui	x4,0x1a
 6bd:	2f636367          	0x2f636367
 6c1:	666e6f63          	bltu	x28,x6,d3f <.LVL80+0x3>
 6c5:	6769                	c.lui	x14,0x1a
 6c7:	7369722f          	0x7369722f
 6cb:	6d2f7663          	bgeu	x30,x18,d97 <.LVL88+0x3>
 6cf:	6c75                	c.lui	x24,0x1d
 6d1:	6964                	c.flw	f9,84(x10)
 6d3:	00532e33          	slt	x28,x6,x5
 6d7:	20554e47          	fmsub.s	f28,f10,f5,f4,rmm
 6db:	5341                	c.li	x6,-16
 6dd:	3220                	c.fld	f8,96(x12)
 6df:	332e                	c.fldsp	f6,232(x2)
 6e1:	0035                	c.addi	x0,13
 6e3:	2e2e                	c.fldsp	f28,200(x2)
 6e5:	2f2e2e2f          	0x2f2e2e2f
 6e9:	2e2e                	c.fldsp	f28,200(x2)
 6eb:	722f2e2f          	0x722f2e2f
 6ef:	7369                	c.lui	x6,0xffffa
 6f1:	672d7663          	bgeu	x26,x18,d5d <.LLST45+0xa>
 6f5:	6c2f6363          	bltu	x30,x2,dbb <.LVL92+0x3>
 6f9:	6269                	c.lui	x4,0x1a
 6fb:	2f636367          	0x2f636367
 6ff:	666e6f63          	bltu	x28,x6,d7d <.LLST46+0x1>
 703:	6769                	c.lui	x14,0x1a
 705:	7369722f          	0x7369722f
 709:	642f7663          	bgeu	x30,x2,d55 <.LLST45+0x2>
 70d:	7669                	c.lui	x12,0xffffa
 70f:	532e                	c.lwsp	x6,232(x2)
	...

00000712 <.LASF14>:
 712:	706d6f63          	bltu	x26,x6,e30 <.LVL106+0x4>
 716:	656c                	c.flw	f11,76(x10)
 718:	2078                	c.fld	f14,192(x8)
 71a:	6f64                	c.flw	f9,92(x14)
 71c:	6275                	c.lui	x4,0x1d
 71e:	656c                	c.flw	f11,76(x10)
	...

00000721 <.LASF19>:
 721:	5f5f 7278       	0x2e0072785f5f

00000726 <.LASF17>:
 726:	2e2e                	c.fldsp	f28,200(x2)
 728:	2f2e2e2f          	0x2f2e2e2f
 72c:	2e2e                	c.fldsp	f28,200(x2)
 72e:	722f2e2f          	0x722f2e2f
 732:	7369                	c.lui	x6,0xffffa
 734:	672d7663          	bgeu	x26,x18,da0 <.LBE32+0x4>
 738:	6c2f6363          	bltu	x30,x2,dfe <.LBB38+0xa>
 73c:	6269                	c.lui	x4,0x1a
 73e:	2f636367          	0x2f636367
 742:	696c                	c.flw	f11,84(x10)
 744:	6762                	c.flwsp	f14,24(x2)
 746:	2e326363          	bltu	x4,x3,a2c <.L7>
 74a:	          	beq	x30,x21,d2a <.LBB26+0x2>

0000074c <.LASF20>:
 74c:	5f5f 6c63 5f7a      	0x5f7a6c635f5f
 752:	6174                	c.flw	f13,68(x10)
 754:	0062                	c.slli	x0,0x18

00000756 <.LASF15>:
 756:	706d6f63          	bltu	x26,x6,e74 <.LLST53+0x3>
 75a:	656c                	c.flw	f11,76(x10)
 75c:	2078                	c.fld	f14,192(x8)

0000075e <.LASF2>:
 75e:	6f6c                	c.flw	f11,92(x14)
 760:	676e                	c.flwsp	f14,216(x2)
 762:	                	c.flw	f8,72(x8)

00000763 <.LASF0>:
 763:	6f64                	c.flw	f9,92(x14)
 765:	6275                	c.lui	x4,0x1d
 767:	656c                	c.flw	f11,76(x10)
	...

0000076a <.LASF12>:
 76a:	706d6f63          	bltu	x26,x6,e88 <.LBE47+0x4>
 76e:	656c                	c.flw	f11,76(x10)
 770:	2078                	c.fld	f14,192(x8)

00000772 <.LASF11>:
 772:	6c66                	c.flwsp	f24,88(x2)
 774:	0074616f          	jal	x2,46f7a <.LC1+0x42de2>

00000778 <.LASF11>:
 778:	5155                	c.li	x2,-11
 77a:	7449                	c.lui	x8,0xffff2
 77c:	7079                	c.lui	x0,0xffffe
 77e:	0065                	c.addi	x0,25

00000780 <.LASF5>:
 780:	726f6873          	csrrsi	x16,0x726,30
 784:	2074                	c.fld	f13,192(x8)
 786:	6e69                	c.lui	x28,0x1a
 788:	0074                	c.addi4spn	x13,x2,12

Disassembly of section .debug_frame:

00000000 <.debug_frame>:
   0:	000c                	0xc
   2:	0000                	c.unimp
   4:	ffff                	0xffff
   6:	ffff                	0xffff
   8:	7c010003          	lb	x0,1984(x2)
   c:	0d01                	c.addi	x26,0
   e:	0002                	c.slli64	x0
  10:	000c                	0xc
  12:	0000                	c.unimp
  14:	0000                	c.unimp
  16:	0000                	c.unimp
  18:	0930                	c.addi4spn	x12,x2,152
  1a:	0000                	c.unimp
  1c:	008c                	c.addi4spn	x11,x2,64
  1e:	0000                	c.unimp
  20:	000c                	0xc
  22:	0000                	c.unimp
  24:	ffff                	0xffff
  26:	ffff                	0xffff
  28:	7c010003          	lb	x0,1984(x2)
  2c:	0d01                	c.addi	x26,0
  2e:	0002                	c.slli64	x0
  30:	000c                	0xc
  32:	0000                	c.unimp
  34:	0020                	c.addi4spn	x8,x2,8
  36:	0000                	c.unimp
  38:	09bc                	c.addi4spn	x15,x2,216
  3a:	0000                	c.unimp
  3c:	00e4                	c.addi4spn	x9,x2,76
  3e:	0000                	c.unimp
  40:	000c                	0xc
  42:	0000                	c.unimp
  44:	ffff                	0xffff
  46:	ffff                	0xffff
  48:	7c010003          	lb	x0,1984(x2)
  4c:	0d01                	c.addi	x26,0
  4e:	0002                	c.slli64	x0
  50:	0040                	c.addi4spn	x8,x2,4
  52:	0000                	c.unimp
  54:	0040                	c.addi4spn	x8,x2,4
  56:	0000                	c.unimp
  58:	0aa0                	c.addi4spn	x8,x2,344
  5a:	0000                	c.unimp
  5c:	0688                	c.addi4spn	x10,x2,832
  5e:	0000                	c.unimp
  60:	0e44                	c.addi4spn	x9,x2,788
  62:	4430                	c.lw	x12,72(x8)
  64:	88580593          	addi	x11,x16,-1915
  68:	8902                	c.jr	x18
  6a:	95069403          	lh	x8,-1712(x13)
  6e:	50099707          	0x50099707
  72:	0181                	c.addi	x3,0
  74:	0492                	c.slli	x9,0x4
  76:	0896                	c.slli	x17,0x5
  78:	0a04f803          	0xa04f803
  7c:	48c1                	c.li	x17,16
  7e:	44c8                	c.lw	x10,12(x9)
  80:	44c9                	c.li	x9,18
  82:	44d2                	c.lwsp	x9,20(x2)
  84:	44d444d3          	0x44d444d3
  88:	44d5                	c.li	x9,21
  8a:	44d6                	c.lwsp	x9,84(x2)
  8c:	000e4cd7          	0xe4cd7
  90:	0b44                	c.addi4spn	x9,x2,404
  92:	0000                	c.unimp
  94:	000c                	0xc
  96:	0000                	c.unimp
  98:	ffff                	0xffff
  9a:	ffff                	0xffff
  9c:	7c010003          	lb	x0,1984(x2)
  a0:	0d01                	c.addi	x26,0
  a2:	0002                	c.slli64	x0
  a4:	0030                	c.addi4spn	x12,x2,8
  a6:	0000                	c.unimp
  a8:	0094                	c.addi4spn	x13,x2,64
  aa:	0000                	c.unimp
  ac:	1128                	c.addi4spn	x10,x2,168
  ae:	0000                	c.unimp
  b0:	07ec                	c.addi4spn	x11,x2,972
  b2:	0000                	c.unimp
  b4:	0e4c                	c.addi4spn	x11,x2,788
  b6:	5820                	c.lw	x8,112(x8)
  b8:	0288                	c.addi4spn	x10,x2,320
  ba:	8950                	0x8950
  bc:	01815c03          	lhu	x24,24(x2)
  c0:	0492                	c.slli	x9,0x4
  c2:	20030593          	addi	x11,x6,512 # ffffa200 <.LC1+0xffff6068>
  c6:	44c10a07          	0x44c10a07
  ca:	58c8                	c.lw	x10,52(x9)
  cc:	44d2                	c.lwsp	x9,20(x2)
  ce:	44c9                	c.li	x9,18
  d0:	000e48d3          	fadd.s	f17,f28,f0,rmm
  d4:	0b44                	c.addi4spn	x9,x2,404
  d6:	0000                	c.unimp
  d8:	000c                	0xc
  da:	0000                	c.unimp
  dc:	ffff                	0xffff
  de:	ffff                	0xffff
  e0:	7c010003          	lb	x0,1984(x2)
  e4:	0d01                	c.addi	x26,0
  e6:	0002                	c.slli64	x0
  e8:	000c                	0xc
  ea:	0000                	c.unimp
  ec:	00d8                	c.addi4spn	x14,x2,68
  ee:	0000                	c.unimp
  f0:	1914                	c.addi4spn	x13,x2,176
  f2:	0000                	c.unimp
  f4:	0080                	c.addi4spn	x8,x2,64
  f6:	0000                	c.unimp
  f8:	000c                	0xc
  fa:	0000                	c.unimp
  fc:	ffff                	0xffff
  fe:	ffff                	0xffff
 100:	7c010003          	lb	x0,1984(x2)
 104:	0d01                	c.addi	x26,0
 106:	0002                	c.slli64	x0
 108:	0024                	c.addi4spn	x9,x2,8
 10a:	0000                	c.unimp
 10c:	00f8                	c.addi4spn	x14,x2,76
 10e:	0000                	c.unimp
 110:	1994                	c.addi4spn	x13,x2,240
 112:	0000                	c.unimp
 114:	00a8                	c.addi4spn	x10,x2,72
 116:	0000                	c.unimp
 118:	0e44                	c.addi4spn	x9,x2,788
 11a:	4c10                	c.lw	x12,24(x8)
 11c:	0181                	c.addi	x3,0
 11e:	0288                	c.addi4spn	x10,x2,320
 120:	0389                	c.addi	x7,2
 122:	5c02                	c.lwsp	x24,32(x2)
 124:	c10a                	c.swsp	x2,128(x2)
 126:	c84c                	c.sw	x11,20(x8)
 128:	c944                	c.sw	x9,20(x10)
 12a:	0e48                	c.addi4spn	x10,x2,788
 12c:	4400                	c.lw	x8,8(x8)
 12e:	000c000b          	0xc000b
 132:	0000                	c.unimp
 134:	ffff                	0xffff
 136:	ffff                	0xffff
 138:	7c010003          	lb	x0,1984(x2)
 13c:	0d01                	c.addi	x26,0
 13e:	0002                	c.slli64	x0
 140:	000c                	0xc
 142:	0000                	c.unimp
 144:	0130                	c.addi4spn	x12,x2,136
 146:	0000                	c.unimp
 148:	1b14                	c.addi4spn	x13,x2,432
 14a:	0000                	c.unimp
 14c:	004c                	c.addi4spn	x11,x2,4
	...
