
bubble_32:     file format elf32-littleriscv


Disassembly of section .text:

00010074 <register_fini>:
   10074:	00000793          	li	a5,0
   10078:	c791                	beqz	a5,10084 <register_fini+0x10>
   1007a:	654d                	lui	a0,0x13
   1007c:	a5c50513          	addi	a0,a0,-1444 # 12a5c <__libc_fini_array>
   10080:	3730906f          	j	19bf2 <atexit>
   10084:	8082                	ret

00010086 <_start>:
   10086:	00011197          	auipc	gp,0x11
   1008a:	c7a18193          	addi	gp,gp,-902 # 20d00 <__global_pointer$>
   1008e:	1cc18513          	addi	a0,gp,460 # 20ecc <_PathLocale>
   10092:	22818613          	addi	a2,gp,552 # 20f28 <__BSS_END__>
   10096:	8e09                	sub	a2,a2,a0
   10098:	4581                	li	a1,0
   1009a:	2c81                	jal	102ea <memset>
   1009c:	0000a517          	auipc	a0,0xa
   100a0:	b5650513          	addi	a0,a0,-1194 # 19bf2 <atexit>
   100a4:	c519                	beqz	a0,100b2 <_start+0x2c>
   100a6:	00003517          	auipc	a0,0x3
   100aa:	9b650513          	addi	a0,a0,-1610 # 12a5c <__libc_fini_array>
   100ae:	345090ef          	jal	ra,19bf2 <atexit>
   100b2:	22d9                	jal	10278 <__libc_init_array>
   100b4:	4502                	lw	a0,0(sp)
   100b6:	004c                	addi	a1,sp,4
   100b8:	4601                	li	a2,0
   100ba:	2891                	jal	1010e <main>
   100bc:	aa79                	j	1025a <exit>

000100be <__do_global_dtors_aux>:
   100be:	1e41c703          	lbu	a4,484(gp) # 20ee4 <completed.1>
   100c2:	e71d                	bnez	a4,100f0 <__do_global_dtors_aux+0x32>
   100c4:	1141                	addi	sp,sp,-16
   100c6:	c422                	sw	s0,8(sp)
   100c8:	843e                	mv	s0,a5
   100ca:	c606                	sw	ra,12(sp)
   100cc:	00000793          	li	a5,0
   100d0:	cb89                	beqz	a5,100e2 <__do_global_dtors_aux+0x24>
   100d2:	00020537          	lui	a0,0x20
   100d6:	4b450513          	addi	a0,a0,1204 # 204b4 <__EH_FRAME_BEGIN__>
   100da:	00000097          	auipc	ra,0x0
   100de:	000000e7          	jalr	zero # 0 <register_fini-0x10074>
   100e2:	4785                	li	a5,1
   100e4:	40b2                	lw	ra,12(sp)
   100e6:	1ef18223          	sb	a5,484(gp) # 20ee4 <completed.1>
   100ea:	4422                	lw	s0,8(sp)
   100ec:	0141                	addi	sp,sp,16
   100ee:	8082                	ret
   100f0:	8082                	ret

000100f2 <frame_dummy>:
   100f2:	00000793          	li	a5,0
   100f6:	cb99                	beqz	a5,1010c <frame_dummy+0x1a>
   100f8:	00020537          	lui	a0,0x20
   100fc:	1e818593          	addi	a1,gp,488 # 20ee8 <object.0>
   10100:	4b450513          	addi	a0,a0,1204 # 204b4 <__EH_FRAME_BEGIN__>
   10104:	00000317          	auipc	t1,0x0
   10108:	00000067          	jr	zero # 0 <register_fini-0x10074>
   1010c:	8082                	ret

0001010e <main>:
   1010e:	715d                	addi	sp,sp,-80
   10110:	c686                	sw	ra,76(sp)
   10112:	c4a2                	sw	s0,72(sp)
   10114:	0880                	addi	s0,sp,80
   10116:	67f9                	lui	a5,0x1e
   10118:	69478793          	addi	a5,a5,1684 # 1e694 <__clzsi2+0x66>
   1011c:	0007ae03          	lw	t3,0(a5)
   10120:	0047a303          	lw	t1,4(a5)
   10124:	0087a883          	lw	a7,8(a5)
   10128:	00c7a803          	lw	a6,12(a5)
   1012c:	4b88                	lw	a0,16(a5)
   1012e:	4bcc                	lw	a1,20(a5)
   10130:	4f90                	lw	a2,24(a5)
   10132:	4fd4                	lw	a3,28(a5)
   10134:	5398                	lw	a4,32(a5)
   10136:	53dc                	lw	a5,36(a5)
   10138:	fbc42e23          	sw	t3,-68(s0)
   1013c:	fc642023          	sw	t1,-64(s0)
   10140:	fd142223          	sw	a7,-60(s0)
   10144:	fd042423          	sw	a6,-56(s0)
   10148:	fca42623          	sw	a0,-52(s0)
   1014c:	fcb42823          	sw	a1,-48(s0)
   10150:	fcc42a23          	sw	a2,-44(s0)
   10154:	fcd42c23          	sw	a3,-40(s0)
   10158:	fce42e23          	sw	a4,-36(s0)
   1015c:	fef42023          	sw	a5,-32(s0)
   10160:	4785                	li	a5,1
   10162:	fef42623          	sw	a5,-20(s0)
   10166:	a045                	j	10206 <main+0xf8>
   10168:	fe042423          	sw	zero,-24(s0)
   1016c:	a8bd                	j	101ea <main+0xdc>
   1016e:	fe842783          	lw	a5,-24(s0)
   10172:	078a                	slli	a5,a5,0x2
   10174:	ff040713          	addi	a4,s0,-16
   10178:	97ba                	add	a5,a5,a4
   1017a:	fcc7a703          	lw	a4,-52(a5)
   1017e:	fe842783          	lw	a5,-24(s0)
   10182:	0785                	addi	a5,a5,1
   10184:	078a                	slli	a5,a5,0x2
   10186:	ff040693          	addi	a3,s0,-16
   1018a:	97b6                	add	a5,a5,a3
   1018c:	fcc7a783          	lw	a5,-52(a5)
   10190:	04e7d863          	bge	a5,a4,101e0 <main+0xd2>
   10194:	fe842783          	lw	a5,-24(s0)
   10198:	078a                	slli	a5,a5,0x2
   1019a:	ff040713          	addi	a4,s0,-16
   1019e:	97ba                	add	a5,a5,a4
   101a0:	fcc7a783          	lw	a5,-52(a5)
   101a4:	fef42223          	sw	a5,-28(s0)
   101a8:	fe842783          	lw	a5,-24(s0)
   101ac:	0785                	addi	a5,a5,1
   101ae:	078a                	slli	a5,a5,0x2
   101b0:	ff040713          	addi	a4,s0,-16
   101b4:	97ba                	add	a5,a5,a4
   101b6:	fcc7a703          	lw	a4,-52(a5)
   101ba:	fe842783          	lw	a5,-24(s0)
   101be:	078a                	slli	a5,a5,0x2
   101c0:	ff040693          	addi	a3,s0,-16
   101c4:	97b6                	add	a5,a5,a3
   101c6:	fce7a623          	sw	a4,-52(a5)
   101ca:	fe842783          	lw	a5,-24(s0)
   101ce:	0785                	addi	a5,a5,1
   101d0:	078a                	slli	a5,a5,0x2
   101d2:	ff040713          	addi	a4,s0,-16
   101d6:	97ba                	add	a5,a5,a4
   101d8:	fe442703          	lw	a4,-28(s0)
   101dc:	fce7a623          	sw	a4,-52(a5)
   101e0:	fe842783          	lw	a5,-24(s0)
   101e4:	0785                	addi	a5,a5,1
   101e6:	fef42423          	sw	a5,-24(s0)
   101ea:	4725                	li	a4,9
   101ec:	fec42783          	lw	a5,-20(s0)
   101f0:	40f707b3          	sub	a5,a4,a5
   101f4:	fe842703          	lw	a4,-24(s0)
   101f8:	f6e7dbe3          	bge	a5,a4,1016e <main+0x60>
   101fc:	fec42783          	lw	a5,-20(s0)
   10200:	0785                	addi	a5,a5,1
   10202:	fef42623          	sw	a5,-20(s0)
   10206:	fec42703          	lw	a4,-20(s0)
   1020a:	47a5                	li	a5,9
   1020c:	f4e7dee3          	bge	a5,a4,10168 <main+0x5a>
   10210:	67f9                	lui	a5,0x1e
   10212:	67078513          	addi	a0,a5,1648 # 1e670 <__clzsi2+0x42>
   10216:	2e29                	jal	10530 <puts>
   10218:	fe042623          	sw	zero,-20(s0)
   1021c:	a01d                	j	10242 <main+0x134>
   1021e:	fec42783          	lw	a5,-20(s0)
   10222:	078a                	slli	a5,a5,0x2
   10224:	ff040713          	addi	a4,s0,-16
   10228:	97ba                	add	a5,a5,a4
   1022a:	fcc7a783          	lw	a5,-52(a5)
   1022e:	85be                	mv	a1,a5
   10230:	67f9                	lui	a5,0x1e
   10232:	68c78513          	addi	a0,a5,1676 # 1e68c <__clzsi2+0x5e>
   10236:	2ab5                	jal	103b2 <printf>
   10238:	fec42783          	lw	a5,-20(s0)
   1023c:	0785                	addi	a5,a5,1
   1023e:	fef42623          	sw	a5,-20(s0)
   10242:	fec42703          	lw	a4,-20(s0)
   10246:	47a5                	li	a5,9
   10248:	fce7dbe3          	bge	a5,a4,1021e <main+0x110>
   1024c:	4529                	li	a0,10
   1024e:	2a49                	jal	103e0 <putchar>
   10250:	0001                	nop
   10252:	40b6                	lw	ra,76(sp)
   10254:	4426                	lw	s0,72(sp)
   10256:	6161                	addi	sp,sp,80
   10258:	8082                	ret

0001025a <exit>:
   1025a:	1141                	addi	sp,sp,-16
   1025c:	4581                	li	a1,0
   1025e:	c422                	sw	s0,8(sp)
   10260:	c606                	sw	ra,12(sp)
   10262:	842a                	mv	s0,a0
   10264:	296020ef          	jal	ra,124fa <__call_exitprocs>
   10268:	1b81a503          	lw	a0,440(gp) # 20eb8 <_global_impure_ptr>
   1026c:	5d5c                	lw	a5,60(a0)
   1026e:	c391                	beqz	a5,10272 <exit+0x18>
   10270:	9782                	jalr	a5
   10272:	8522                	mv	a0,s0
   10274:	0a00b0ef          	jal	ra,1b314 <_exit>

00010278 <__libc_init_array>:
   10278:	1141                	addi	sp,sp,-16
   1027a:	c422                	sw	s0,8(sp)
   1027c:	c04a                	sw	s2,0(sp)
   1027e:	00020437          	lui	s0,0x20
   10282:	00020937          	lui	s2,0x20
   10286:	4f440793          	addi	a5,s0,1268 # 204f4 <__init_array_start>
   1028a:	4f490913          	addi	s2,s2,1268 # 204f4 <__init_array_start>
   1028e:	40f90933          	sub	s2,s2,a5
   10292:	c606                	sw	ra,12(sp)
   10294:	c226                	sw	s1,4(sp)
   10296:	40295913          	srai	s2,s2,0x2
   1029a:	00090b63          	beqz	s2,102b0 <__libc_init_array+0x38>
   1029e:	4f440413          	addi	s0,s0,1268
   102a2:	4481                	li	s1,0
   102a4:	401c                	lw	a5,0(s0)
   102a6:	0485                	addi	s1,s1,1
   102a8:	0411                	addi	s0,s0,4
   102aa:	9782                	jalr	a5
   102ac:	fe991ce3          	bne	s2,s1,102a4 <__libc_init_array+0x2c>
   102b0:	00020437          	lui	s0,0x20
   102b4:	00020937          	lui	s2,0x20
   102b8:	4f440793          	addi	a5,s0,1268 # 204f4 <__init_array_start>
   102bc:	4fc90913          	addi	s2,s2,1276 # 204fc <__do_global_dtors_aux_fini_array_entry>
   102c0:	40f90933          	sub	s2,s2,a5
   102c4:	40295913          	srai	s2,s2,0x2
   102c8:	00090b63          	beqz	s2,102de <__libc_init_array+0x66>
   102cc:	4f440413          	addi	s0,s0,1268
   102d0:	4481                	li	s1,0
   102d2:	401c                	lw	a5,0(s0)
   102d4:	0485                	addi	s1,s1,1
   102d6:	0411                	addi	s0,s0,4
   102d8:	9782                	jalr	a5
   102da:	fe991ce3          	bne	s2,s1,102d2 <__libc_init_array+0x5a>
   102de:	40b2                	lw	ra,12(sp)
   102e0:	4422                	lw	s0,8(sp)
   102e2:	4492                	lw	s1,4(sp)
   102e4:	4902                	lw	s2,0(sp)
   102e6:	0141                	addi	sp,sp,16
   102e8:	8082                	ret

000102ea <memset>:
   102ea:	433d                	li	t1,15
   102ec:	872a                	mv	a4,a0
   102ee:	02c37363          	bgeu	t1,a2,10314 <memset+0x2a>
   102f2:	00f77793          	andi	a5,a4,15
   102f6:	efbd                	bnez	a5,10374 <memset+0x8a>
   102f8:	e5ad                	bnez	a1,10362 <memset+0x78>
   102fa:	ff067693          	andi	a3,a2,-16
   102fe:	8a3d                	andi	a2,a2,15
   10300:	96ba                	add	a3,a3,a4
   10302:	c30c                	sw	a1,0(a4)
   10304:	c34c                	sw	a1,4(a4)
   10306:	c70c                	sw	a1,8(a4)
   10308:	c74c                	sw	a1,12(a4)
   1030a:	0741                	addi	a4,a4,16
   1030c:	fed76be3          	bltu	a4,a3,10302 <memset+0x18>
   10310:	e211                	bnez	a2,10314 <memset+0x2a>
   10312:	8082                	ret
   10314:	40c306b3          	sub	a3,t1,a2
   10318:	068a                	slli	a3,a3,0x2
   1031a:	00000297          	auipc	t0,0x0
   1031e:	9696                	add	a3,a3,t0
   10320:	00a68067          	jr	10(a3)
   10324:	00b70723          	sb	a1,14(a4)
   10328:	00b706a3          	sb	a1,13(a4)
   1032c:	00b70623          	sb	a1,12(a4)
   10330:	00b705a3          	sb	a1,11(a4)
   10334:	00b70523          	sb	a1,10(a4)
   10338:	00b704a3          	sb	a1,9(a4)
   1033c:	00b70423          	sb	a1,8(a4)
   10340:	00b703a3          	sb	a1,7(a4)
   10344:	00b70323          	sb	a1,6(a4)
   10348:	00b702a3          	sb	a1,5(a4)
   1034c:	00b70223          	sb	a1,4(a4)
   10350:	00b701a3          	sb	a1,3(a4)
   10354:	00b70123          	sb	a1,2(a4)
   10358:	00b700a3          	sb	a1,1(a4)
   1035c:	00b70023          	sb	a1,0(a4)
   10360:	8082                	ret
   10362:	0ff5f593          	andi	a1,a1,255
   10366:	00859693          	slli	a3,a1,0x8
   1036a:	8dd5                	or	a1,a1,a3
   1036c:	01059693          	slli	a3,a1,0x10
   10370:	8dd5                	or	a1,a1,a3
   10372:	b761                	j	102fa <memset+0x10>
   10374:	00279693          	slli	a3,a5,0x2
   10378:	00000297          	auipc	t0,0x0
   1037c:	9696                	add	a3,a3,t0
   1037e:	8286                	mv	t0,ra
   10380:	fa8680e7          	jalr	-88(a3)
   10384:	8096                	mv	ra,t0
   10386:	17c1                	addi	a5,a5,-16
   10388:	8f1d                	sub	a4,a4,a5
   1038a:	963e                	add	a2,a2,a5
   1038c:	f8c374e3          	bgeu	t1,a2,10314 <memset+0x2a>
   10390:	b7a5                	j	102f8 <memset+0xe>

00010392 <_printf_r>:
   10392:	7139                	addi	sp,sp,-64
   10394:	d432                	sw	a2,40(sp)
   10396:	d636                	sw	a3,44(sp)
   10398:	d83a                	sw	a4,48(sp)
   1039a:	da3e                	sw	a5,52(sp)
   1039c:	dc42                	sw	a6,56(sp)
   1039e:	de46                	sw	a7,60(sp)
   103a0:	862e                	mv	a2,a1
   103a2:	450c                	lw	a1,8(a0)
   103a4:	1034                	addi	a3,sp,40
   103a6:	ce06                	sw	ra,28(sp)
   103a8:	c636                	sw	a3,12(sp)
   103aa:	2ac5                	jal	1059a <_vfprintf_r>
   103ac:	40f2                	lw	ra,28(sp)
   103ae:	6121                	addi	sp,sp,64
   103b0:	8082                	ret

000103b2 <printf>:
   103b2:	1c01a303          	lw	t1,448(gp) # 20ec0 <_impure_ptr>
   103b6:	7139                	addi	sp,sp,-64
   103b8:	d432                	sw	a2,40(sp)
   103ba:	d636                	sw	a3,44(sp)
   103bc:	d22e                	sw	a1,36(sp)
   103be:	d83a                	sw	a4,48(sp)
   103c0:	da3e                	sw	a5,52(sp)
   103c2:	dc42                	sw	a6,56(sp)
   103c4:	de46                	sw	a7,60(sp)
   103c6:	00832583          	lw	a1,8(t1) # 1010c <frame_dummy+0x1a>
   103ca:	1054                	addi	a3,sp,36
   103cc:	862a                	mv	a2,a0
   103ce:	851a                	mv	a0,t1
   103d0:	ce06                	sw	ra,28(sp)
   103d2:	c636                	sw	a3,12(sp)
   103d4:	22d9                	jal	1059a <_vfprintf_r>
   103d6:	40f2                	lw	ra,28(sp)
   103d8:	6121                	addi	sp,sp,64
   103da:	8082                	ret

000103dc <_putchar_r>:
   103dc:	4510                	lw	a2,8(a0)
   103de:	a039                	j	103ec <_putc_r>

000103e0 <putchar>:
   103e0:	1c01a783          	lw	a5,448(gp) # 20ec0 <_impure_ptr>
   103e4:	85aa                	mv	a1,a0
   103e6:	4790                	lw	a2,8(a5)
   103e8:	853e                	mv	a0,a5
   103ea:	a009                	j	103ec <_putc_r>

000103ec <_putc_r>:
   103ec:	1101                	addi	sp,sp,-32
   103ee:	cc4a                	sw	s2,24(sp)
   103f0:	ce06                	sw	ra,28(sp)
   103f2:	892a                	mv	s2,a0
   103f4:	c119                	beqz	a0,103fa <_putc_r+0xe>
   103f6:	5d1c                	lw	a5,56(a0)
   103f8:	cb95                	beqz	a5,1042c <_putc_r+0x40>
   103fa:	461c                	lw	a5,8(a2)
   103fc:	17fd                	addi	a5,a5,-1
   103fe:	c61c                	sw	a5,8(a2)
   10400:	0007da63          	bgez	a5,10414 <_putc_r+0x28>
   10404:	4e18                	lw	a4,24(a2)
   10406:	02e7ca63          	blt	a5,a4,1043a <_putc_r+0x4e>
   1040a:	0ff5f793          	andi	a5,a1,255
   1040e:	4729                	li	a4,10
   10410:	02e78563          	beq	a5,a4,1043a <_putc_r+0x4e>
   10414:	421c                	lw	a5,0(a2)
   10416:	0ff5f513          	andi	a0,a1,255
   1041a:	00178713          	addi	a4,a5,1
   1041e:	c218                	sw	a4,0(a2)
   10420:	00b78023          	sb	a1,0(a5)
   10424:	40f2                	lw	ra,28(sp)
   10426:	4962                	lw	s2,24(sp)
   10428:	6105                	addi	sp,sp,32
   1042a:	8082                	ret
   1042c:	c632                	sw	a2,12(sp)
   1042e:	c42e                	sw	a1,8(sp)
   10430:	604020ef          	jal	ra,12a34 <__sinit>
   10434:	4632                	lw	a2,12(sp)
   10436:	45a2                	lw	a1,8(sp)
   10438:	b7c9                	j	103fa <_putc_r+0xe>
   1043a:	40f2                	lw	ra,28(sp)
   1043c:	854a                	mv	a0,s2
   1043e:	4962                	lw	s2,24(sp)
   10440:	6105                	addi	sp,sp,32
   10442:	6c90106f          	j	1230a <__swbuf_r>

00010446 <putc>:
   10446:	1141                	addi	sp,sp,-16
   10448:	c04a                	sw	s2,0(sp)
   1044a:	1c01a903          	lw	s2,448(gp) # 20ec0 <_impure_ptr>
   1044e:	c422                	sw	s0,8(sp)
   10450:	c226                	sw	s1,4(sp)
   10452:	c606                	sw	ra,12(sp)
   10454:	84aa                	mv	s1,a0
   10456:	842e                	mv	s0,a1
   10458:	00090563          	beqz	s2,10462 <putc+0x1c>
   1045c:	03892783          	lw	a5,56(s2)
   10460:	cf85                	beqz	a5,10498 <putc+0x52>
   10462:	441c                	lw	a5,8(s0)
   10464:	17fd                	addi	a5,a5,-1
   10466:	c41c                	sw	a5,8(s0)
   10468:	0007da63          	bgez	a5,1047c <putc+0x36>
   1046c:	4c18                	lw	a4,24(s0)
   1046e:	02e7c963          	blt	a5,a4,104a0 <putc+0x5a>
   10472:	0ff4f793          	andi	a5,s1,255
   10476:	4729                	li	a4,10
   10478:	02e78463          	beq	a5,a4,104a0 <putc+0x5a>
   1047c:	401c                	lw	a5,0(s0)
   1047e:	0ff4f513          	andi	a0,s1,255
   10482:	00178713          	addi	a4,a5,1
   10486:	c018                	sw	a4,0(s0)
   10488:	00978023          	sb	s1,0(a5)
   1048c:	40b2                	lw	ra,12(sp)
   1048e:	4422                	lw	s0,8(sp)
   10490:	4492                	lw	s1,4(sp)
   10492:	4902                	lw	s2,0(sp)
   10494:	0141                	addi	sp,sp,16
   10496:	8082                	ret
   10498:	854a                	mv	a0,s2
   1049a:	59a020ef          	jal	ra,12a34 <__sinit>
   1049e:	b7d1                	j	10462 <putc+0x1c>
   104a0:	8622                	mv	a2,s0
   104a2:	4422                	lw	s0,8(sp)
   104a4:	40b2                	lw	ra,12(sp)
   104a6:	85a6                	mv	a1,s1
   104a8:	854a                	mv	a0,s2
   104aa:	4492                	lw	s1,4(sp)
   104ac:	4902                	lw	s2,0(sp)
   104ae:	0141                	addi	sp,sp,16
   104b0:	65b0106f          	j	1230a <__swbuf_r>

000104b4 <_puts_r>:
   104b4:	7139                	addi	sp,sp,-64
   104b6:	dc22                	sw	s0,56(sp)
   104b8:	842a                	mv	s0,a0
   104ba:	852e                	mv	a0,a1
   104bc:	da26                	sw	s1,52(sp)
   104be:	de06                	sw	ra,60(sp)
   104c0:	84ae                	mv	s1,a1
   104c2:	289d                	jal	10538 <strlen>
   104c4:	67f9                	lui	a5,0x1e
   104c6:	6bc78793          	addi	a5,a5,1724 # 1e6bc <__clzsi2+0x8e>
   104ca:	d43e                	sw	a5,40(sp)
   104cc:	4785                	li	a5,1
   104ce:	d63e                	sw	a5,44(sp)
   104d0:	5c18                	lw	a4,56(s0)
   104d2:	101c                	addi	a5,sp,32
   104d4:	00150693          	addi	a3,a0,1
   104d8:	ca3e                	sw	a5,20(sp)
   104da:	4789                	li	a5,2
   104dc:	d026                	sw	s1,32(sp)
   104de:	d22a                	sw	a0,36(sp)
   104e0:	ce36                	sw	a3,28(sp)
   104e2:	cc3e                	sw	a5,24(sp)
   104e4:	440c                	lw	a1,8(s0)
   104e6:	cf1d                	beqz	a4,10524 <_puts_r+0x70>
   104e8:	00c59783          	lh	a5,12(a1)
   104ec:	01279713          	slli	a4,a5,0x12
   104f0:	00074b63          	bltz	a4,10506 <_puts_r+0x52>
   104f4:	51f8                	lw	a4,100(a1)
   104f6:	6689                	lui	a3,0x2
   104f8:	8fd5                	or	a5,a5,a3
   104fa:	76f9                	lui	a3,0xffffe
   104fc:	16fd                	addi	a3,a3,-1
   104fe:	8f75                	and	a4,a4,a3
   10500:	00f59623          	sh	a5,12(a1)
   10504:	d1f8                	sw	a4,100(a1)
   10506:	0850                	addi	a2,sp,20
   10508:	8522                	mv	a0,s0
   1050a:	081020ef          	jal	ra,12d8a <__sfvwrite_r>
   1050e:	50f2                	lw	ra,60(sp)
   10510:	5462                	lw	s0,56(sp)
   10512:	00a03533          	snez	a0,a0
   10516:	40a00533          	neg	a0,a0
   1051a:	54d2                	lw	s1,52(sp)
   1051c:	00a56513          	ori	a0,a0,10
   10520:	6121                	addi	sp,sp,64
   10522:	8082                	ret
   10524:	8522                	mv	a0,s0
   10526:	c62e                	sw	a1,12(sp)
   10528:	50c020ef          	jal	ra,12a34 <__sinit>
   1052c:	45b2                	lw	a1,12(sp)
   1052e:	bf6d                	j	104e8 <_puts_r+0x34>

00010530 <puts>:
   10530:	85aa                	mv	a1,a0
   10532:	1c01a503          	lw	a0,448(gp) # 20ec0 <_impure_ptr>
   10536:	bfbd                	j	104b4 <_puts_r>

00010538 <strlen>:
   10538:	00357793          	andi	a5,a0,3
   1053c:	872a                	mv	a4,a0
   1053e:	ef95                	bnez	a5,1057a <strlen+0x42>
   10540:	7f7f86b7          	lui	a3,0x7f7f8
   10544:	f7f68693          	addi	a3,a3,-129 # 7f7f7f7f <__BSS_END__+0x7f7d7057>
   10548:	55fd                	li	a1,-1
   1054a:	4310                	lw	a2,0(a4)
   1054c:	0711                	addi	a4,a4,4
   1054e:	00d677b3          	and	a5,a2,a3
   10552:	97b6                	add	a5,a5,a3
   10554:	8fd1                	or	a5,a5,a2
   10556:	8fd5                	or	a5,a5,a3
   10558:	feb789e3          	beq	a5,a1,1054a <strlen+0x12>
   1055c:	ffc74683          	lbu	a3,-4(a4)
   10560:	ffd74603          	lbu	a2,-3(a4)
   10564:	ffe74783          	lbu	a5,-2(a4)
   10568:	8f09                	sub	a4,a4,a0
   1056a:	c68d                	beqz	a3,10594 <strlen+0x5c>
   1056c:	c20d                	beqz	a2,1058e <strlen+0x56>
   1056e:	00f03533          	snez	a0,a5
   10572:	953a                	add	a0,a0,a4
   10574:	1579                	addi	a0,a0,-2
   10576:	8082                	ret
   10578:	d6e1                	beqz	a3,10540 <strlen+0x8>
   1057a:	00074783          	lbu	a5,0(a4)
   1057e:	0705                	addi	a4,a4,1
   10580:	00377693          	andi	a3,a4,3
   10584:	fbf5                	bnez	a5,10578 <strlen+0x40>
   10586:	8f09                	sub	a4,a4,a0
   10588:	fff70513          	addi	a0,a4,-1
   1058c:	8082                	ret
   1058e:	ffd70513          	addi	a0,a4,-3
   10592:	8082                	ret
   10594:	ffc70513          	addi	a0,a4,-4
   10598:	8082                	ret

0001059a <_vfprintf_r>:
   1059a:	7141                	addi	sp,sp,-496
   1059c:	1e112623          	sw	ra,492(sp)
   105a0:	1f212023          	sw	s2,480(sp)
   105a4:	1d812423          	sw	s8,456(sp)
   105a8:	1da12023          	sw	s10,448(sp)
   105ac:	8c2e                	mv	s8,a1
   105ae:	8932                	mv	s2,a2
   105b0:	ca36                	sw	a3,20(sp)
   105b2:	1e812423          	sw	s0,488(sp)
   105b6:	1e912223          	sw	s1,484(sp)
   105ba:	1d312e23          	sw	s3,476(sp)
   105be:	1d412c23          	sw	s4,472(sp)
   105c2:	1d512a23          	sw	s5,468(sp)
   105c6:	1d612823          	sw	s6,464(sp)
   105ca:	1d712623          	sw	s7,460(sp)
   105ce:	1d912223          	sw	s9,452(sp)
   105d2:	1bb12e23          	sw	s11,444(sp)
   105d6:	8d2a                	mv	s10,a0
   105d8:	3e9040ef          	jal	ra,151c0 <_localeconv_r>
   105dc:	411c                	lw	a5,0(a0)
   105de:	853e                	mv	a0,a5
   105e0:	d83e                	sw	a5,48(sp)
   105e2:	3f99                	jal	10538 <strlen>
   105e4:	d62a                	sw	a0,44(sp)
   105e6:	d982                	sw	zero,240(sp)
   105e8:	db82                	sw	zero,244(sp)
   105ea:	dd82                	sw	zero,248(sp)
   105ec:	df82                	sw	zero,252(sp)
   105ee:	000d0663          	beqz	s10,105fa <_vfprintf_r+0x60>
   105f2:	038d2783          	lw	a5,56(s10)
   105f6:	64078e63          	beqz	a5,10c52 <_vfprintf_r+0x6b8>
   105fa:	00cc1683          	lh	a3,12(s8)
   105fe:	6609                	lui	a2,0x2
   10600:	01069793          	slli	a5,a3,0x10
   10604:	83c1                	srli	a5,a5,0x10
   10606:	00c7f5b3          	and	a1,a5,a2
   1060a:	e185                	bnez	a1,1062a <_vfprintf_r+0x90>
   1060c:	064c2583          	lw	a1,100(s8)
   10610:	00c6e7b3          	or	a5,a3,a2
   10614:	07c2                	slli	a5,a5,0x10
   10616:	76f9                	lui	a3,0xffffe
   10618:	87c1                	srai	a5,a5,0x10
   1061a:	16fd                	addi	a3,a3,-1
   1061c:	8eed                	and	a3,a3,a1
   1061e:	00fc1623          	sh	a5,12(s8)
   10622:	07c2                	slli	a5,a5,0x10
   10624:	06dc2223          	sw	a3,100(s8)
   10628:	83c1                	srli	a5,a5,0x10
   1062a:	0087f693          	andi	a3,a5,8
   1062e:	22068263          	beqz	a3,10852 <_vfprintf_r+0x2b8>
   10632:	010c2683          	lw	a3,16(s8)
   10636:	20068e63          	beqz	a3,10852 <_vfprintf_r+0x2b8>
   1063a:	8be9                	andi	a5,a5,26
   1063c:	46a9                	li	a3,10
   1063e:	22d78763          	beq	a5,a3,1086c <_vfprintf_r+0x2d2>
   10642:	027c                	addi	a5,sp,268
   10644:	d3be                	sw	a5,228(sp)
   10646:	88be                	mv	a7,a5
   10648:	67f9                	lui	a5,0x1e
   1064a:	70478793          	addi	a5,a5,1796 # 1e704 <__clzsi2+0xd6>
   1064e:	cc3e                	sw	a5,24(sp)
   10650:	0001f7b7          	lui	a5,0x1f
   10654:	88078793          	addi	a5,a5,-1920 # 1e880 <zeroes.0>
   10658:	8b4a                	mv	s6,s2
   1065a:	c43e                	sw	a5,8(sp)
   1065c:	000b4783          	lbu	a5,0(s6)
   10660:	d782                	sw	zero,236(sp)
   10662:	d582                	sw	zero,232(sp)
   10664:	d002                	sw	zero,32(sp)
   10666:	da02                	sw	zero,52(sp)
   10668:	dc02                	sw	zero,56(sp)
   1066a:	de02                	sw	zero,60(sp)
   1066c:	c482                	sw	zero,72(sp)
   1066e:	c682                	sw	zero,76(sp)
   10670:	c602                	sw	zero,12(sp)
   10672:	18078863          	beqz	a5,10802 <_vfprintf_r+0x268>
   10676:	845a                	mv	s0,s6
   10678:	02500713          	li	a4,37
   1067c:	22e78d63          	beq	a5,a4,108b6 <_vfprintf_r+0x31c>
   10680:	00144783          	lbu	a5,1(s0)
   10684:	0405                	addi	s0,s0,1
   10686:	fbfd                	bnez	a5,1067c <_vfprintf_r+0xe2>
   10688:	416404b3          	sub	s1,s0,s6
   1068c:	17640b63          	beq	s0,s6,10802 <_vfprintf_r+0x268>
   10690:	573e                	lw	a4,236(sp)
   10692:	57ae                	lw	a5,232(sp)
   10694:	0168a023          	sw	s6,0(a7)
   10698:	9726                	add	a4,a4,s1
   1069a:	0785                	addi	a5,a5,1
   1069c:	0098a223          	sw	s1,4(a7)
   106a0:	d7ba                	sw	a4,236(sp)
   106a2:	d5be                	sw	a5,232(sp)
   106a4:	471d                	li	a4,7
   106a6:	08a1                	addi	a7,a7,8
   106a8:	20f74e63          	blt	a4,a5,108c4 <_vfprintf_r+0x32a>
   106ac:	4732                	lw	a4,12(sp)
   106ae:	00044783          	lbu	a5,0(s0)
   106b2:	9726                	add	a4,a4,s1
   106b4:	c63a                	sw	a4,12(sp)
   106b6:	14078663          	beqz	a5,10802 <_vfprintf_r+0x268>
   106ba:	00144483          	lbu	s1,1(s0)
   106be:	0c0103a3          	sb	zero,199(sp)
   106c2:	0405                	addi	s0,s0,1
   106c4:	5dfd                	li	s11,-1
   106c6:	4981                	li	s3,0
   106c8:	4a01                	li	s4,0
   106ca:	05a00913          	li	s2,90
   106ce:	4aa5                	li	s5,9
   106d0:	02a00b93          	li	s7,42
   106d4:	8cc6                	mv	s9,a7
   106d6:	0405                	addi	s0,s0,1
   106d8:	fe048793          	addi	a5,s1,-32
   106dc:	02f96b63          	bltu	s2,a5,10712 <_vfprintf_r+0x178>
   106e0:	4762                	lw	a4,24(sp)
   106e2:	078a                	slli	a5,a5,0x2
   106e4:	97ba                	add	a5,a5,a4
   106e6:	439c                	lw	a5,0(a5)
   106e8:	8782                	jr	a5
   106ea:	4981                	li	s3,0
   106ec:	fd048693          	addi	a3,s1,-48
   106f0:	00044483          	lbu	s1,0(s0)
   106f4:	00299793          	slli	a5,s3,0x2
   106f8:	97ce                	add	a5,a5,s3
   106fa:	0786                	slli	a5,a5,0x1
   106fc:	00f689b3          	add	s3,a3,a5
   10700:	fd048693          	addi	a3,s1,-48
   10704:	0405                	addi	s0,s0,1
   10706:	fedaf5e3          	bgeu	s5,a3,106f0 <_vfprintf_r+0x156>
   1070a:	fe048793          	addi	a5,s1,-32
   1070e:	fcf979e3          	bgeu	s2,a5,106e0 <_vfprintf_r+0x146>
   10712:	88e6                	mv	a7,s9
   10714:	c4fd                	beqz	s1,10802 <_vfprintf_r+0x268>
   10716:	14910623          	sb	s1,332(sp)
   1071a:	0c0103a3          	sb	zero,199(sp)
   1071e:	4a85                	li	s5,1
   10720:	4c85                	li	s9,1
   10722:	14c10b13          	addi	s6,sp,332
   10726:	c802                	sw	zero,16(sp)
   10728:	4d81                	li	s11,0
   1072a:	d402                	sw	zero,40(sp)
   1072c:	d202                	sw	zero,36(sp)
   1072e:	ce02                	sw	zero,28(sp)
   10730:	002a7b93          	andi	s7,s4,2
   10734:	000b8363          	beqz	s7,1073a <_vfprintf_r+0x1a0>
   10738:	0a89                	addi	s5,s5,2
   1073a:	084a7913          	andi	s2,s4,132
   1073e:	57be                	lw	a5,236(sp)
   10740:	00091663          	bnez	s2,1074c <_vfprintf_r+0x1b2>
   10744:	415986b3          	sub	a3,s3,s5
   10748:	22d04be3          	bgtz	a3,1117e <_vfprintf_r+0xbe4>
   1074c:	0c714703          	lbu	a4,199(sp)
   10750:	c30d                	beqz	a4,10772 <_vfprintf_r+0x1d8>
   10752:	572e                	lw	a4,232(sp)
   10754:	0c710693          	addi	a3,sp,199
   10758:	00d8a023          	sw	a3,0(a7)
   1075c:	0785                	addi	a5,a5,1
   1075e:	4685                	li	a3,1
   10760:	0705                	addi	a4,a4,1
   10762:	00d8a223          	sw	a3,4(a7)
   10766:	d7be                	sw	a5,236(sp)
   10768:	d5ba                	sw	a4,232(sp)
   1076a:	469d                	li	a3,7
   1076c:	08a1                	addi	a7,a7,8
   1076e:	36e6cf63          	blt	a3,a4,10aec <_vfprintf_r+0x552>
   10772:	020b8163          	beqz	s7,10794 <_vfprintf_r+0x1fa>
   10776:	572e                	lw	a4,232(sp)
   10778:	01b4                	addi	a3,sp,200
   1077a:	00d8a023          	sw	a3,0(a7)
   1077e:	0789                	addi	a5,a5,2
   10780:	4689                	li	a3,2
   10782:	0705                	addi	a4,a4,1
   10784:	00d8a223          	sw	a3,4(a7)
   10788:	d7be                	sw	a5,236(sp)
   1078a:	d5ba                	sw	a4,232(sp)
   1078c:	469d                	li	a3,7
   1078e:	08a1                	addi	a7,a7,8
   10790:	28e6c3e3          	blt	a3,a4,11216 <_vfprintf_r+0xc7c>
   10794:	08000713          	li	a4,128
   10798:	0ce908e3          	beq	s2,a4,11068 <_vfprintf_r+0xace>
   1079c:	419d8db3          	sub	s11,s11,s9
   107a0:	15b044e3          	bgtz	s11,110e8 <_vfprintf_r+0xb4e>
   107a4:	100a7713          	andi	a4,s4,256
   107a8:	7e071b63          	bnez	a4,10f9e <_vfprintf_r+0xa04>
   107ac:	572e                	lw	a4,232(sp)
   107ae:	97e6                	add	a5,a5,s9
   107b0:	0168a023          	sw	s6,0(a7)
   107b4:	0705                	addi	a4,a4,1
   107b6:	0198a223          	sw	s9,4(a7)
   107ba:	d7be                	sw	a5,236(sp)
   107bc:	d5ba                	sw	a4,232(sp)
   107be:	469d                	li	a3,7
   107c0:	3ee6cf63          	blt	a3,a4,10bbe <_vfprintf_r+0x624>
   107c4:	08a1                	addi	a7,a7,8
   107c6:	004a7a13          	andi	s4,s4,4
   107ca:	000a0663          	beqz	s4,107d6 <_vfprintf_r+0x23c>
   107ce:	415984b3          	sub	s1,s3,s5
   107d2:	40904163          	bgtz	s1,10bd4 <_vfprintf_r+0x63a>
   107d6:	0159d363          	bge	s3,s5,107dc <_vfprintf_r+0x242>
   107da:	89d6                	mv	s3,s5
   107dc:	4732                	lw	a4,12(sp)
   107de:	974e                	add	a4,a4,s3
   107e0:	c63a                	sw	a4,12(sp)
   107e2:	16079ee3          	bnez	a5,1115e <_vfprintf_r+0xbc4>
   107e6:	47c2                	lw	a5,16(sp)
   107e8:	d582                	sw	zero,232(sp)
   107ea:	c789                	beqz	a5,107f4 <_vfprintf_r+0x25a>
   107ec:	45c2                	lw	a1,16(sp)
   107ee:	856a                	mv	a0,s10
   107f0:	36e020ef          	jal	ra,12b5e <_free_r>
   107f4:	10c10893          	addi	a7,sp,268
   107f8:	8b22                	mv	s6,s0
   107fa:	000b4783          	lbu	a5,0(s6)
   107fe:	e6079ce3          	bnez	a5,10676 <_vfprintf_r+0xdc>
   10802:	57be                	lw	a5,236(sp)
   10804:	c399                	beqz	a5,1080a <_vfprintf_r+0x270>
   10806:	2c20106f          	j	11ac8 <_vfprintf_r+0x152e>
   1080a:	00cc5783          	lhu	a5,12(s8)
   1080e:	0407f793          	andi	a5,a5,64
   10812:	c399                	beqz	a5,10818 <_vfprintf_r+0x27e>
   10814:	7880106f          	j	11f9c <_vfprintf_r+0x1a02>
   10818:	1ec12083          	lw	ra,492(sp)
   1081c:	1e812403          	lw	s0,488(sp)
   10820:	4532                	lw	a0,12(sp)
   10822:	1e412483          	lw	s1,484(sp)
   10826:	1e012903          	lw	s2,480(sp)
   1082a:	1dc12983          	lw	s3,476(sp)
   1082e:	1d812a03          	lw	s4,472(sp)
   10832:	1d412a83          	lw	s5,468(sp)
   10836:	1d012b03          	lw	s6,464(sp)
   1083a:	1cc12b83          	lw	s7,460(sp)
   1083e:	1c812c03          	lw	s8,456(sp)
   10842:	1c412c83          	lw	s9,452(sp)
   10846:	1c012d03          	lw	s10,448(sp)
   1084a:	1bc12d83          	lw	s11,444(sp)
   1084e:	617d                	addi	sp,sp,496
   10850:	8082                	ret
   10852:	85e2                	mv	a1,s8
   10854:	856a                	mv	a0,s10
   10856:	3b1010ef          	jal	ra,12406 <__swsetup_r>
   1085a:	c119                	beqz	a0,10860 <_vfprintf_r+0x2c6>
   1085c:	7400106f          	j	11f9c <_vfprintf_r+0x1a02>
   10860:	00cc5783          	lhu	a5,12(s8)
   10864:	46a9                	li	a3,10
   10866:	8be9                	andi	a5,a5,26
   10868:	dcd79de3          	bne	a5,a3,10642 <_vfprintf_r+0xa8>
   1086c:	00ec1783          	lh	a5,14(s8)
   10870:	dc07c9e3          	bltz	a5,10642 <_vfprintf_r+0xa8>
   10874:	46d2                	lw	a3,20(sp)
   10876:	864a                	mv	a2,s2
   10878:	85e2                	mv	a1,s8
   1087a:	856a                	mv	a0,s10
   1087c:	1fd010ef          	jal	ra,12278 <__sbprintf>
   10880:	c62a                	sw	a0,12(sp)
   10882:	bf59                	j	10818 <_vfprintf_r+0x27e>
   10884:	856a                	mv	a0,s10
   10886:	13b040ef          	jal	ra,151c0 <_localeconv_r>
   1088a:	415c                	lw	a5,4(a0)
   1088c:	853e                	mv	a0,a5
   1088e:	c6be                	sw	a5,76(sp)
   10890:	3165                	jal	10538 <strlen>
   10892:	87aa                	mv	a5,a0
   10894:	856a                	mv	a0,s10
   10896:	84be                	mv	s1,a5
   10898:	c4be                	sw	a5,72(sp)
   1089a:	127040ef          	jal	ra,151c0 <_localeconv_r>
   1089e:	451c                	lw	a5,8(a0)
   108a0:	de3e                	sw	a5,60(sp)
   108a2:	38049be3          	bnez	s1,11438 <_vfprintf_r+0xe9e>
   108a6:	00044483          	lbu	s1,0(s0)
   108aa:	b535                	j	106d6 <_vfprintf_r+0x13c>
   108ac:	00044483          	lbu	s1,0(s0)
   108b0:	020a6a13          	ori	s4,s4,32
   108b4:	b50d                	j	106d6 <_vfprintf_r+0x13c>
   108b6:	416404b3          	sub	s1,s0,s6
   108ba:	dd641be3          	bne	s0,s6,10690 <_vfprintf_r+0xf6>
   108be:	00044783          	lbu	a5,0(s0)
   108c2:	bbd5                	j	106b6 <_vfprintf_r+0x11c>
   108c4:	11d0                	addi	a2,sp,228
   108c6:	85e2                	mv	a1,s8
   108c8:	856a                	mv	a0,s10
   108ca:	4c4080ef          	jal	ra,18d8e <__sprint_r>
   108ce:	fd15                	bnez	a0,1080a <_vfprintf_r+0x270>
   108d0:	10c10893          	addi	a7,sp,268
   108d4:	bbe1                	j	106ac <_vfprintf_r+0x112>
   108d6:	008a7793          	andi	a5,s4,8
   108da:	88e6                	mv	a7,s9
   108dc:	38079ae3          	bnez	a5,11470 <_vfprintf_r+0xed6>
   108e0:	47d2                	lw	a5,20(sp)
   108e2:	1908                	addi	a0,sp,176
   108e4:	c866                	sw	s9,16(sp)
   108e6:	079d                	addi	a5,a5,7
   108e8:	9be1                	andi	a5,a5,-8
   108ea:	438c                	lw	a1,0(a5)
   108ec:	43d0                	lw	a2,4(a5)
   108ee:	07a1                	addi	a5,a5,8
   108f0:	ca3e                	sw	a5,20(sp)
   108f2:	1b10d0ef          	jal	ra,1e2a2 <__extenddftf2>
   108f6:	57ca                	lw	a5,176(sp)
   108f8:	48c2                	lw	a7,16(sp)
   108fa:	d9be                	sw	a5,240(sp)
   108fc:	57da                	lw	a5,180(sp)
   108fe:	dbbe                	sw	a5,244(sp)
   10900:	57ea                	lw	a5,184(sp)
   10902:	ddbe                	sw	a5,248(sp)
   10904:	57fa                	lw	a5,188(sp)
   10906:	dfbe                	sw	a5,252(sp)
   10908:	1988                	addi	a0,sp,240
   1090a:	c846                	sw	a7,16(sp)
   1090c:	065040ef          	jal	ra,15170 <_ldcheck>
   10910:	c7aa                	sw	a0,204(sp)
   10912:	4789                	li	a5,2
   10914:	48c2                	lw	a7,16(sp)
   10916:	62f50be3          	beq	a0,a5,1174c <_vfprintf_r+0x11b2>
   1091a:	4785                	li	a5,1
   1091c:	74f50de3          	beq	a0,a5,11876 <_vfprintf_r+0x12dc>
   10920:	06100793          	li	a5,97
   10924:	00f49463          	bne	s1,a5,1092c <_vfprintf_r+0x392>
   10928:	68e0106f          	j	11fb6 <_vfprintf_r+0x1a1c>
   1092c:	04100793          	li	a5,65
   10930:	00f49463          	bne	s1,a5,10938 <_vfprintf_r+0x39e>
   10934:	1bc0106f          	j	11af0 <_vfprintf_r+0x1556>
   10938:	fdf4f713          	andi	a4,s1,-33
   1093c:	57fd                	li	a5,-1
   1093e:	d43a                	sw	a4,40(sp)
   10940:	00fd9463          	bne	s11,a5,10948 <_vfprintf_r+0x3ae>
   10944:	76c0106f          	j	120b0 <_vfprintf_r+0x1b16>
   10948:	04700793          	li	a5,71
   1094c:	00f71463          	bne	a4,a5,10954 <_vfprintf_r+0x3ba>
   10950:	7520106f          	j	120a2 <_vfprintf_r+0x1b08>
   10954:	5bfe                	lw	s7,252(sp)
   10956:	c8d2                	sw	s4,80(sp)
   10958:	5e4e                	lw	t3,240(sp)
   1095a:	5ede                	lw	t4,244(sp)
   1095c:	5f6e                	lw	t5,248(sp)
   1095e:	100a6793          	ori	a5,s4,256
   10962:	000bd463          	bgez	s7,1096a <_vfprintf_r+0x3d0>
   10966:	4400106f          	j	11da6 <_vfprintf_r+0x180c>
   1096a:	cc82                	sw	zero,88(sp)
   1096c:	8a3e                	mv	s4,a5
   1096e:	c802                	sw	zero,16(sp)
   10970:	5722                	lw	a4,40(sp)
   10972:	04600793          	li	a5,70
   10976:	00f71463          	bne	a4,a5,1097e <_vfprintf_r+0x3e4>
   1097a:	45a0106f          	j	11dd4 <_vfprintf_r+0x183a>
   1097e:	04500793          	li	a5,69
   10982:	c0c6                	sw	a7,64(sp)
   10984:	00f71463          	bne	a4,a5,1098c <_vfprintf_r+0x3f2>
   10988:	6d40106f          	j	1205c <_vfprintf_r+0x1ac2>
   1098c:	0b010a93          	addi	s5,sp,176
   10990:	099c                	addi	a5,sp,208
   10992:	01f8                	addi	a4,sp,204
   10994:	0dc10813          	addi	a6,sp,220
   10998:	86ee                	mv	a3,s11
   1099a:	4609                	li	a2,2
   1099c:	85d6                	mv	a1,s5
   1099e:	856a                	mv	a0,s10
   109a0:	d972                	sw	t3,176(sp)
   109a2:	d272                	sw	t3,36(sp)
   109a4:	db76                	sw	t4,180(sp)
   109a6:	d076                	sw	t4,32(sp)
   109a8:	dd7a                	sw	t5,184(sp)
   109aa:	ce7a                	sw	t5,28(sp)
   109ac:	df5e                	sw	s7,188(sp)
   109ae:	1f1030ef          	jal	ra,1439e <_ldtoa_r>
   109b2:	5722                	lw	a4,40(sp)
   109b4:	04700793          	li	a5,71
   109b8:	4f72                	lw	t5,28(sp)
   109ba:	5e82                	lw	t4,32(sp)
   109bc:	5e12                	lw	t3,36(sp)
   109be:	4886                	lw	a7,64(sp)
   109c0:	8b2a                	mv	s6,a0
   109c2:	00f70463          	beq	a4,a5,109ca <_vfprintf_r+0x430>
   109c6:	08f0106f          	j	12254 <_vfprintf_r+0x1cba>
   109ca:	47c6                	lw	a5,80(sp)
   109cc:	8b85                	andi	a5,a5,1
   109ce:	c399                	beqz	a5,109d4 <_vfprintf_r+0x43a>
   109d0:	6c80106f          	j	12098 <_vfprintf_r+0x1afe>
   109d4:	46fe                	lw	a3,220(sp)
   109d6:	416687b3          	sub	a5,a3,s6
   109da:	d03e                	sw	a5,32(sp)
   109dc:	473e                	lw	a4,204(sp)
   109de:	04700793          	li	a5,71
   109e2:	ce3a                	sw	a4,28(sp)
   109e4:	5722                	lw	a4,40(sp)
   109e6:	00f71463          	bne	a4,a5,109ee <_vfprintf_r+0x454>
   109ea:	3500106f          	j	11d3a <_vfprintf_r+0x17a0>
   109ee:	5722                	lw	a4,40(sp)
   109f0:	04600793          	li	a5,70
   109f4:	00f71463          	bne	a4,a5,109fc <_vfprintf_r+0x462>
   109f8:	5440106f          	j	11f3c <_vfprintf_r+0x19a2>
   109fc:	47f2                	lw	a5,28(sp)
   109fe:	55a2                	lw	a1,40(sp)
   10a00:	04100613          	li	a2,65
   10a04:	17fd                	addi	a5,a5,-1
   10a06:	c7be                	sw	a5,204(sp)
   10a08:	0ff4f713          	andi	a4,s1,255
   10a0c:	4681                	li	a3,0
   10a0e:	00c59663          	bne	a1,a2,10a1a <_vfprintf_r+0x480>
   10a12:	073d                	addi	a4,a4,15
   10a14:	0ff77713          	andi	a4,a4,255
   10a18:	4685                	li	a3,1
   10a1a:	0ce10a23          	sb	a4,212(sp)
   10a1e:	02b00713          	li	a4,43
   10a22:	0007d763          	bgez	a5,10a30 <_vfprintf_r+0x496>
   10a26:	4772                	lw	a4,28(sp)
   10a28:	4785                	li	a5,1
   10a2a:	8f99                	sub	a5,a5,a4
   10a2c:	02d00713          	li	a4,45
   10a30:	0ce10aa3          	sb	a4,213(sp)
   10a34:	4725                	li	a4,9
   10a36:	00f74463          	blt	a4,a5,10a3e <_vfprintf_r+0x4a4>
   10a3a:	6e40106f          	j	1211e <_vfprintf_r+0x1b84>
   10a3e:	0e310513          	addi	a0,sp,227
   10a42:	85aa                	mv	a1,a0
   10a44:	46a9                	li	a3,10
   10a46:	06300e13          	li	t3,99
   10a4a:	02d7e733          	rem	a4,a5,a3
   10a4e:	862e                	mv	a2,a1
   10a50:	883e                	mv	a6,a5
   10a52:	15fd                	addi	a1,a1,-1
   10a54:	03070713          	addi	a4,a4,48
   10a58:	fee60fa3          	sb	a4,-1(a2) # 1fff <register_fini-0xe075>
   10a5c:	02d7c7b3          	div	a5,a5,a3
   10a60:	ff0e45e3          	blt	t3,a6,10a4a <_vfprintf_r+0x4b0>
   10a64:	03078793          	addi	a5,a5,48
   10a68:	0ff7f693          	andi	a3,a5,255
   10a6c:	fed58fa3          	sb	a3,-1(a1)
   10a70:	ffe60793          	addi	a5,a2,-2
   10a74:	00a7e463          	bltu	a5,a0,10a7c <_vfprintf_r+0x4e2>
   10a78:	7d40106f          	j	1224c <_vfprintf_r+0x1cb2>
   10a7c:	0d610713          	addi	a4,sp,214
   10a80:	a019                	j	10a86 <_vfprintf_r+0x4ec>
   10a82:	0007c683          	lbu	a3,0(a5)
   10a86:	00d70023          	sb	a3,0(a4)
   10a8a:	0785                	addi	a5,a5,1
   10a8c:	0705                	addi	a4,a4,1
   10a8e:	fea79ae3          	bne	a5,a0,10a82 <_vfprintf_r+0x4e8>
   10a92:	0e510793          	addi	a5,sp,229
   10a96:	0d610713          	addi	a4,sp,214
   10a9a:	8f91                	sub	a5,a5,a2
   10a9c:	97ba                	add	a5,a5,a4
   10a9e:	09d8                	addi	a4,sp,212
   10aa0:	8f99                	sub	a5,a5,a4
   10aa2:	dc3e                	sw	a5,56(sp)
   10aa4:	56e2                	lw	a3,56(sp)
   10aa6:	5702                	lw	a4,32(sp)
   10aa8:	4785                	li	a5,1
   10aaa:	00e68cb3          	add	s9,a3,a4
   10aae:	00e7c463          	blt	a5,a4,10ab6 <_vfprintf_r+0x51c>
   10ab2:	7400106f          	j	121f2 <_vfprintf_r+0x1c58>
   10ab6:	57b2                	lw	a5,44(sp)
   10ab8:	9cbe                	add	s9,s9,a5
   10aba:	47c6                	lw	a5,80(sp)
   10abc:	fffcca93          	not	s5,s9
   10ac0:	41fada93          	srai	s5,s5,0x1f
   10ac4:	bff7fa13          	andi	s4,a5,-1025
   10ac8:	100a6a13          	ori	s4,s4,256
   10acc:	015cfab3          	and	s5,s9,s5
   10ad0:	d402                	sw	zero,40(sp)
   10ad2:	d202                	sw	zero,36(sp)
   10ad4:	ce02                	sw	zero,28(sp)
   10ad6:	47e6                	lw	a5,88(sp)
   10ad8:	e399                	bnez	a5,10ade <_vfprintf_r+0x544>
   10ada:	2780106f          	j	11d52 <_vfprintf_r+0x17b8>
   10ade:	02d00793          	li	a5,45
   10ae2:	0cf103a3          	sb	a5,199(sp)
   10ae6:	4d81                	li	s11,0
   10ae8:	0a85                	addi	s5,s5,1
   10aea:	b199                	j	10730 <_vfprintf_r+0x196>
   10aec:	11d0                	addi	a2,sp,228
   10aee:	85e2                	mv	a1,s8
   10af0:	856a                	mv	a0,s10
   10af2:	29c080ef          	jal	ra,18d8e <__sprint_r>
   10af6:	66051b63          	bnez	a0,1116c <_vfprintf_r+0xbd2>
   10afa:	57be                	lw	a5,236(sp)
   10afc:	10c10893          	addi	a7,sp,268
   10b00:	b98d                	j	10772 <_vfprintf_r+0x1d8>
   10b02:	572e                	lw	a4,232(sp)
   10b04:	00178c93          	addi	s9,a5,1
   10b08:	5782                	lw	a5,32(sp)
   10b0a:	4685                	li	a3,1
   10b0c:	0168a023          	sw	s6,0(a7)
   10b10:	00170493          	addi	s1,a4,1
   10b14:	00888913          	addi	s2,a7,8
   10b18:	00f6dce3          	bge	a3,a5,11330 <_vfprintf_r+0xd96>
   10b1c:	4785                	li	a5,1
   10b1e:	00f8a223          	sw	a5,4(a7)
   10b22:	d7e6                	sw	s9,236(sp)
   10b24:	d5a6                	sw	s1,232(sp)
   10b26:	479d                	li	a5,7
   10b28:	2c97c4e3          	blt	a5,s1,115f0 <_vfprintf_r+0x1056>
   10b2c:	57b2                	lw	a5,44(sp)
   10b2e:	5742                	lw	a4,48(sp)
   10b30:	0485                	addi	s1,s1,1
   10b32:	9cbe                	add	s9,s9,a5
   10b34:	00f92223          	sw	a5,4(s2)
   10b38:	00e92023          	sw	a4,0(s2)
   10b3c:	d7e6                	sw	s9,236(sp)
   10b3e:	d5a6                	sw	s1,232(sp)
   10b40:	479d                	li	a5,7
   10b42:	0921                	addi	s2,s2,8
   10b44:	2c97c3e3          	blt	a5,s1,1160a <_vfprintf_r+0x1070>
   10b48:	57ce                	lw	a5,240(sp)
   10b4a:	00148693          	addi	a3,s1,1
   10b4e:	110c                	addi	a1,sp,160
   10b50:	d93e                	sw	a5,176(sp)
   10b52:	57de                	lw	a5,244(sp)
   10b54:	1908                	addi	a0,sp,176
   10b56:	ce36                	sw	a3,28(sp)
   10b58:	db3e                	sw	a5,180(sp)
   10b5a:	57ee                	lw	a5,248(sp)
   10b5c:	d102                	sw	zero,160(sp)
   10b5e:	d302                	sw	zero,164(sp)
   10b60:	dd3e                	sw	a5,184(sp)
   10b62:	57fe                	lw	a5,252(sp)
   10b64:	d502                	sw	zero,168(sp)
   10b66:	d702                	sw	zero,172(sp)
   10b68:	df3e                	sw	a5,188(sp)
   10b6a:	1b30b0ef          	jal	ra,1c51c <__eqtf2>
   10b6e:	46f2                	lw	a3,28(sp)
   10b70:	5782                	lw	a5,32(sp)
   10b72:	00890893          	addi	a7,s2,8
   10b76:	8736                	mv	a4,a3
   10b78:	fff78d93          	addi	s11,a5,-1
   10b7c:	7c050863          	beqz	a0,1134c <_vfprintf_r+0xdb2>
   10b80:	001b0813          	addi	a6,s6,1
   10b84:	9cee                	add	s9,s9,s11
   10b86:	01092023          	sw	a6,0(s2)
   10b8a:	01b92223          	sw	s11,4(s2)
   10b8e:	d7e6                	sw	s9,236(sp)
   10b90:	d5b6                	sw	a3,232(sp)
   10b92:	479d                	li	a5,7
   10b94:	12d7cae3          	blt	a5,a3,114c8 <_vfprintf_r+0xf2e>
   10b98:	01090793          	addi	a5,s2,16
   10b9c:	00248713          	addi	a4,s1,2
   10ba0:	8946                	mv	s2,a7
   10ba2:	88be                	mv	a7,a5
   10ba4:	5662                	lw	a2,56(sp)
   10ba6:	09d4                	addi	a3,sp,212
   10ba8:	00d92023          	sw	a3,0(s2)
   10bac:	019607b3          	add	a5,a2,s9
   10bb0:	00c92223          	sw	a2,4(s2)
   10bb4:	d7be                	sw	a5,236(sp)
   10bb6:	d5ba                	sw	a4,232(sp)
   10bb8:	469d                	li	a3,7
   10bba:	c0e6d6e3          	bge	a3,a4,107c6 <_vfprintf_r+0x22c>
   10bbe:	11d0                	addi	a2,sp,228
   10bc0:	85e2                	mv	a1,s8
   10bc2:	856a                	mv	a0,s10
   10bc4:	1ca080ef          	jal	ra,18d8e <__sprint_r>
   10bc8:	5a051263          	bnez	a0,1116c <_vfprintf_r+0xbd2>
   10bcc:	57be                	lw	a5,236(sp)
   10bce:	10c10893          	addi	a7,sp,268
   10bd2:	bed5                	j	107c6 <_vfprintf_r+0x22c>
   10bd4:	46c1                	li	a3,16
   10bd6:	572e                	lw	a4,232(sp)
   10bd8:	0096c463          	blt	a3,s1,10be0 <_vfprintf_r+0x646>
   10bdc:	3c80106f          	j	11fa4 <_vfprintf_r+0x1a0a>
   10be0:	0001f6b7          	lui	a3,0x1f
   10be4:	87068e93          	addi	t4,a3,-1936 # 1e870 <blanks.1>
   10be8:	4941                	li	s2,16
   10bea:	4a1d                	li	s4,7
   10bec:	8b76                	mv	s6,t4
   10bee:	a021                	j	10bf6 <_vfprintf_r+0x65c>
   10bf0:	14c1                	addi	s1,s1,-16
   10bf2:	02995b63          	bge	s2,s1,10c28 <_vfprintf_r+0x68e>
   10bf6:	07c1                	addi	a5,a5,16
   10bf8:	0705                	addi	a4,a4,1
   10bfa:	0168a023          	sw	s6,0(a7)
   10bfe:	0128a223          	sw	s2,4(a7)
   10c02:	d7be                	sw	a5,236(sp)
   10c04:	d5ba                	sw	a4,232(sp)
   10c06:	08a1                	addi	a7,a7,8
   10c08:	feea54e3          	bge	s4,a4,10bf0 <_vfprintf_r+0x656>
   10c0c:	11d0                	addi	a2,sp,228
   10c0e:	85e2                	mv	a1,s8
   10c10:	856a                	mv	a0,s10
   10c12:	17c080ef          	jal	ra,18d8e <__sprint_r>
   10c16:	54051b63          	bnez	a0,1116c <_vfprintf_r+0xbd2>
   10c1a:	14c1                	addi	s1,s1,-16
   10c1c:	57be                	lw	a5,236(sp)
   10c1e:	572e                	lw	a4,232(sp)
   10c20:	10c10893          	addi	a7,sp,268
   10c24:	fc9949e3          	blt	s2,s1,10bf6 <_vfprintf_r+0x65c>
   10c28:	8eda                	mv	t4,s6
   10c2a:	97a6                	add	a5,a5,s1
   10c2c:	0705                	addi	a4,a4,1
   10c2e:	01d8a023          	sw	t4,0(a7)
   10c32:	0098a223          	sw	s1,4(a7)
   10c36:	d7be                	sw	a5,236(sp)
   10c38:	d5ba                	sw	a4,232(sp)
   10c3a:	469d                	li	a3,7
   10c3c:	b8e6dde3          	bge	a3,a4,107d6 <_vfprintf_r+0x23c>
   10c40:	11d0                	addi	a2,sp,228
   10c42:	85e2                	mv	a1,s8
   10c44:	856a                	mv	a0,s10
   10c46:	148080ef          	jal	ra,18d8e <__sprint_r>
   10c4a:	52051163          	bnez	a0,1116c <_vfprintf_r+0xbd2>
   10c4e:	57be                	lw	a5,236(sp)
   10c50:	b659                	j	107d6 <_vfprintf_r+0x23c>
   10c52:	856a                	mv	a0,s10
   10c54:	5e1010ef          	jal	ra,12a34 <__sinit>
   10c58:	b24d                	j	105fa <_vfprintf_r+0x60>
   10c5a:	4752                	lw	a4,20(sp)
   10c5c:	88e6                	mv	a7,s9
   10c5e:	0c0103a3          	sb	zero,199(sp)
   10c62:	431c                	lw	a5,0(a4)
   10c64:	0711                	addi	a4,a4,4
   10c66:	ca3a                	sw	a4,20(sp)
   10c68:	14f10623          	sb	a5,332(sp)
   10c6c:	4a85                	li	s5,1
   10c6e:	4c85                	li	s9,1
   10c70:	14c10b13          	addi	s6,sp,332
   10c74:	bc4d                	j	10726 <_vfprintf_r+0x18c>
   10c76:	47d2                	lw	a5,20(sp)
   10c78:	0c0103a3          	sb	zero,199(sp)
   10c7c:	88e6                	mv	a7,s9
   10c7e:	0007ab03          	lw	s6,0(a5)
   10c82:	00478913          	addi	s2,a5,4
   10c86:	0e0b0ce3          	beqz	s6,1157e <_vfprintf_r+0xfe4>
   10c8a:	57fd                	li	a5,-1
   10c8c:	34fd8fe3          	beq	s11,a5,117ea <_vfprintf_r+0x1250>
   10c90:	866e                	mv	a2,s11
   10c92:	4581                	li	a1,0
   10c94:	855a                	mv	a0,s6
   10c96:	ca66                	sw	s9,20(sp)
   10c98:	55f040ef          	jal	ra,159f6 <memchr>
   10c9c:	c82a                	sw	a0,16(sp)
   10c9e:	48d2                	lw	a7,20(sp)
   10ca0:	e119                	bnez	a0,10ca6 <_vfprintf_r+0x70c>
   10ca2:	22a0106f          	j	11ecc <_vfprintf_r+0x1932>
   10ca6:	47c2                	lw	a5,16(sp)
   10ca8:	ca4a                	sw	s2,20(sp)
   10caa:	c802                	sw	zero,16(sp)
   10cac:	41678cb3          	sub	s9,a5,s6
   10cb0:	0c714783          	lbu	a5,199(sp)
   10cb4:	fffcca93          	not	s5,s9
   10cb8:	41fada93          	srai	s5,s5,0x1f
   10cbc:	d402                	sw	zero,40(sp)
   10cbe:	d202                	sw	zero,36(sp)
   10cc0:	ce02                	sw	zero,28(sp)
   10cc2:	015cfab3          	and	s5,s9,s5
   10cc6:	4d81                	li	s11,0
   10cc8:	a60784e3          	beqz	a5,10730 <_vfprintf_r+0x196>
   10ccc:	0a85                	addi	s5,s5,1
   10cce:	b48d                	j	10730 <_vfprintf_r+0x196>
   10cd0:	00044483          	lbu	s1,0(s0)
   10cd4:	06800793          	li	a5,104
   10cd8:	08f48ce3          	beq	s1,a5,11570 <_vfprintf_r+0xfd6>
   10cdc:	040a6a13          	ori	s4,s4,64
   10ce0:	badd                	j	106d6 <_vfprintf_r+0x13c>
   10ce2:	46d2                	lw	a3,20(sp)
   10ce4:	020a7793          	andi	a5,s4,32
   10ce8:	88e6                	mv	a7,s9
   10cea:	4298                	lw	a4,0(a3)
   10cec:	0691                	addi	a3,a3,4
   10cee:	ca36                	sw	a3,20(sp)
   10cf0:	76079163          	bnez	a5,11452 <_vfprintf_r+0xeb8>
   10cf4:	010a7793          	andi	a5,s4,16
   10cf8:	2a0793e3          	bnez	a5,1179e <_vfprintf_r+0x1204>
   10cfc:	040a7793          	andi	a5,s4,64
   10d00:	56079be3          	bnez	a5,11a76 <_vfprintf_r+0x14dc>
   10d04:	200a7a13          	andi	s4,s4,512
   10d08:	280a0be3          	beqz	s4,1179e <_vfprintf_r+0x1204>
   10d0c:	47b2                	lw	a5,12(sp)
   10d0e:	8b22                	mv	s6,s0
   10d10:	00f70023          	sb	a5,0(a4)
   10d14:	b4dd                	j	107fa <_vfprintf_r+0x260>
   10d16:	00044483          	lbu	s1,0(s0)
   10d1a:	06c00793          	li	a5,108
   10d1e:	02f481e3          	beq	s1,a5,11540 <_vfprintf_r+0xfa6>
   10d22:	010a6a13          	ori	s4,s4,16
   10d26:	ba45                	j	106d6 <_vfprintf_r+0x13c>
   10d28:	4752                	lw	a4,20(sp)
   10d2a:	77e1                	lui	a5,0xffff8
   10d2c:	8307c793          	xori	a5,a5,-2000
   10d30:	0cf11423          	sh	a5,200(sp)
   10d34:	00470793          	addi	a5,a4,4
   10d38:	88e6                	mv	a7,s9
   10d3a:	ca3e                	sw	a5,20(sp)
   10d3c:	00072c83          	lw	s9,0(a4)
   10d40:	67f9                	lui	a5,0x1e
   10d42:	6d078793          	addi	a5,a5,1744 # 1e6d0 <__clzsi2+0xa2>
   10d46:	da3e                	sw	a5,52(sp)
   10d48:	4901                	li	s2,0
   10d4a:	002a6b93          	ori	s7,s4,2
   10d4e:	4789                	li	a5,2
   10d50:	07800493          	li	s1,120
   10d54:	0c0103a3          	sb	zero,199(sp)
   10d58:	56fd                	li	a3,-1
   10d5a:	1add8363          	beq	s11,a3,10f00 <_vfprintf_r+0x966>
   10d5e:	012ce6b3          	or	a3,s9,s2
   10d62:	f7fbfa13          	andi	s4,s7,-129
   10d66:	18069c63          	bnez	a3,10efe <_vfprintf_r+0x964>
   10d6a:	1e0d9663          	bnez	s11,10f56 <_vfprintf_r+0x9bc>
   10d6e:	ebf9                	bnez	a5,10e44 <_vfprintf_r+0x8aa>
   10d70:	001bfc93          	andi	s9,s7,1
   10d74:	1b010b13          	addi	s6,sp,432
   10d78:	6a0c9963          	bnez	s9,1142a <_vfprintf_r+0xe90>
   10d7c:	0c714783          	lbu	a5,199(sp)
   10d80:	8aee                	mv	s5,s11
   10d82:	019dd363          	bge	s11,s9,10d88 <_vfprintf_r+0x7ee>
   10d86:	8ae6                	mv	s5,s9
   10d88:	c802                	sw	zero,16(sp)
   10d8a:	d402                	sw	zero,40(sp)
   10d8c:	d202                	sw	zero,36(sp)
   10d8e:	ce02                	sw	zero,28(sp)
   10d90:	ff95                	bnez	a5,10ccc <_vfprintf_r+0x732>
   10d92:	ba79                	j	10730 <_vfprintf_r+0x196>
   10d94:	88e6                	mv	a7,s9
   10d96:	010a6a13          	ori	s4,s4,16
   10d9a:	020a7793          	andi	a5,s4,32
   10d9e:	5e078c63          	beqz	a5,11396 <_vfprintf_r+0xdfc>
   10da2:	47d2                	lw	a5,20(sp)
   10da4:	00778b13          	addi	s6,a5,7
   10da8:	ff8b7b13          	andi	s6,s6,-8
   10dac:	000b2c83          	lw	s9,0(s6)
   10db0:	004b2903          	lw	s2,4(s6)
   10db4:	008b0793          	addi	a5,s6,8
   10db8:	ca3e                	sw	a5,20(sp)
   10dba:	bffa7b93          	andi	s7,s4,-1025
   10dbe:	4781                	li	a5,0
   10dc0:	bf51                	j	10d54 <_vfprintf_r+0x7ba>
   10dc2:	88e6                	mv	a7,s9
   10dc4:	010a6b93          	ori	s7,s4,16
   10dc8:	020bf793          	andi	a5,s7,32
   10dcc:	62078763          	beqz	a5,113fa <_vfprintf_r+0xe60>
   10dd0:	47d2                	lw	a5,20(sp)
   10dd2:	00778b13          	addi	s6,a5,7
   10dd6:	ff8b7b13          	andi	s6,s6,-8
   10dda:	008b0793          	addi	a5,s6,8
   10dde:	ca3e                	sw	a5,20(sp)
   10de0:	000b2c83          	lw	s9,0(s6)
   10de4:	004b2903          	lw	s2,4(s6)
   10de8:	4785                	li	a5,1
   10dea:	b7ad                	j	10d54 <_vfprintf_r+0x7ba>
   10dec:	00044483          	lbu	s1,0(s0)
   10df0:	080a6a13          	ori	s4,s4,128
   10df4:	b0cd                	j	106d6 <_vfprintf_r+0x13c>
   10df6:	00044483          	lbu	s1,0(s0)
   10dfa:	008a6a13          	ori	s4,s4,8
   10dfe:	b8e1                	j	106d6 <_vfprintf_r+0x13c>
   10e00:	88e6                	mv	a7,s9
   10e02:	010a6a13          	ori	s4,s4,16
   10e06:	020a7793          	andi	a5,s4,32
   10e0a:	5a078663          	beqz	a5,113b6 <_vfprintf_r+0xe1c>
   10e0e:	47d2                	lw	a5,20(sp)
   10e10:	00778b13          	addi	s6,a5,7
   10e14:	ff8b7b13          	andi	s6,s6,-8
   10e18:	004b2783          	lw	a5,4(s6)
   10e1c:	000b2c83          	lw	s9,0(s6)
   10e20:	008b0713          	addi	a4,s6,8
   10e24:	ca3a                	sw	a4,20(sp)
   10e26:	893e                	mv	s2,a5
   10e28:	5a07ca63          	bltz	a5,113dc <_vfprintf_r+0xe42>
   10e2c:	57fd                	li	a5,-1
   10e2e:	8bd2                	mv	s7,s4
   10e30:	00fd8f63          	beq	s11,a5,10e4e <_vfprintf_r+0x8b4>
   10e34:	012ce7b3          	or	a5,s9,s2
   10e38:	f7fa7b93          	andi	s7,s4,-129
   10e3c:	eb89                	bnez	a5,10e4e <_vfprintf_r+0x8b4>
   10e3e:	000d9d63          	bnez	s11,10e58 <_vfprintf_r+0x8be>
   10e42:	8a5e                	mv	s4,s7
   10e44:	4d81                	li	s11,0
   10e46:	4c81                	li	s9,0
   10e48:	1b010b13          	addi	s6,sp,432
   10e4c:	bf05                	j	10d7c <_vfprintf_r+0x7e2>
   10e4e:	7c091b63          	bnez	s2,11624 <_vfprintf_r+0x108a>
   10e52:	47a5                	li	a5,9
   10e54:	7d97e863          	bltu	a5,s9,11624 <_vfprintf_r+0x108a>
   10e58:	030c8c93          	addi	s9,s9,48
   10e5c:	1b9107a3          	sb	s9,431(sp)
   10e60:	8a5e                	mv	s4,s7
   10e62:	4c85                	li	s9,1
   10e64:	1af10b13          	addi	s6,sp,431
   10e68:	bf11                	j	10d7c <_vfprintf_r+0x7e2>
   10e6a:	47d2                	lw	a5,20(sp)
   10e6c:	00044483          	lbu	s1,0(s0)
   10e70:	0007a983          	lw	s3,0(a5)
   10e74:	0791                	addi	a5,a5,4
   10e76:	ca3e                	sw	a5,20(sp)
   10e78:	8409dfe3          	bgez	s3,106d6 <_vfprintf_r+0x13c>
   10e7c:	413009b3          	neg	s3,s3
   10e80:	004a6a13          	ori	s4,s4,4
   10e84:	b889                	j	106d6 <_vfprintf_r+0x13c>
   10e86:	00044483          	lbu	s1,0(s0)
   10e8a:	001a6a13          	ori	s4,s4,1
   10e8e:	b0a1                	j	106d6 <_vfprintf_r+0x13c>
   10e90:	0c714783          	lbu	a5,199(sp)
   10e94:	00044483          	lbu	s1,0(s0)
   10e98:	82079fe3          	bnez	a5,106d6 <_vfprintf_r+0x13c>
   10e9c:	02000793          	li	a5,32
   10ea0:	0cf103a3          	sb	a5,199(sp)
   10ea4:	833ff06f          	j	106d6 <_vfprintf_r+0x13c>
   10ea8:	00044483          	lbu	s1,0(s0)
   10eac:	004a6a13          	ori	s4,s4,4
   10eb0:	827ff06f          	j	106d6 <_vfprintf_r+0x13c>
   10eb4:	02b00793          	li	a5,43
   10eb8:	00044483          	lbu	s1,0(s0)
   10ebc:	0cf103a3          	sb	a5,199(sp)
   10ec0:	817ff06f          	j	106d6 <_vfprintf_r+0x13c>
   10ec4:	00044483          	lbu	s1,0(s0)
   10ec8:	00140713          	addi	a4,s0,1
   10ecc:	01749463          	bne	s1,s7,10ed4 <_vfprintf_r+0x93a>
   10ed0:	35c0106f          	j	1222c <_vfprintf_r+0x1c92>
   10ed4:	fd048693          	addi	a3,s1,-48
   10ed8:	843a                	mv	s0,a4
   10eda:	4d81                	li	s11,0
   10edc:	fedaee63          	bltu	s5,a3,106d8 <_vfprintf_r+0x13e>
   10ee0:	00044483          	lbu	s1,0(s0)
   10ee4:	002d9793          	slli	a5,s11,0x2
   10ee8:	97ee                	add	a5,a5,s11
   10eea:	0786                	slli	a5,a5,0x1
   10eec:	00d78db3          	add	s11,a5,a3
   10ef0:	fd048693          	addi	a3,s1,-48
   10ef4:	0405                	addi	s0,s0,1
   10ef6:	fedaf5e3          	bgeu	s5,a3,10ee0 <_vfprintf_r+0x946>
   10efa:	fdeff06f          	j	106d8 <_vfprintf_r+0x13e>
   10efe:	8bd2                	mv	s7,s4
   10f00:	4685                	li	a3,1
   10f02:	f4d786e3          	beq	a5,a3,10e4e <_vfprintf_r+0x8b4>
   10f06:	4689                	li	a3,2
   10f08:	06d78063          	beq	a5,a3,10f68 <_vfprintf_r+0x9ce>
   10f0c:	1b010b13          	addi	s6,sp,432
   10f10:	01d91713          	slli	a4,s2,0x1d
   10f14:	007cf793          	andi	a5,s9,7
   10f18:	003cdc93          	srli	s9,s9,0x3
   10f1c:	03078793          	addi	a5,a5,48
   10f20:	01976cb3          	or	s9,a4,s9
   10f24:	00395913          	srli	s2,s2,0x3
   10f28:	fefb0fa3          	sb	a5,-1(s6)
   10f2c:	012ce733          	or	a4,s9,s2
   10f30:	865a                	mv	a2,s6
   10f32:	1b7d                	addi	s6,s6,-1
   10f34:	ff71                	bnez	a4,10f10 <_vfprintf_r+0x976>
   10f36:	001bf693          	andi	a3,s7,1
   10f3a:	cea9                	beqz	a3,10f94 <_vfprintf_r+0x9fa>
   10f3c:	03000693          	li	a3,48
   10f40:	04d78a63          	beq	a5,a3,10f94 <_vfprintf_r+0x9fa>
   10f44:	1679                	addi	a2,a2,-2
   10f46:	1b1c                	addi	a5,sp,432
   10f48:	fedb0fa3          	sb	a3,-1(s6)
   10f4c:	40c78cb3          	sub	s9,a5,a2
   10f50:	8a5e                	mv	s4,s7
   10f52:	8b32                	mv	s6,a2
   10f54:	b525                	j	10d7c <_vfprintf_r+0x7e2>
   10f56:	4705                	li	a4,1
   10f58:	00e79463          	bne	a5,a4,10f60 <_vfprintf_r+0x9c6>
   10f5c:	0540106f          	j	11fb0 <_vfprintf_r+0x1a16>
   10f60:	4709                	li	a4,2
   10f62:	8bd2                	mv	s7,s4
   10f64:	fae794e3          	bne	a5,a4,10f0c <_vfprintf_r+0x972>
   10f68:	56d2                	lw	a3,52(sp)
   10f6a:	1b010b13          	addi	s6,sp,432
   10f6e:	00fcf793          	andi	a5,s9,15
   10f72:	97b6                	add	a5,a5,a3
   10f74:	0007c703          	lbu	a4,0(a5)
   10f78:	004cdc93          	srli	s9,s9,0x4
   10f7c:	01c91793          	slli	a5,s2,0x1c
   10f80:	0197ecb3          	or	s9,a5,s9
   10f84:	00495913          	srli	s2,s2,0x4
   10f88:	feeb0fa3          	sb	a4,-1(s6)
   10f8c:	012ce7b3          	or	a5,s9,s2
   10f90:	1b7d                	addi	s6,s6,-1
   10f92:	fff1                	bnez	a5,10f6e <_vfprintf_r+0x9d4>
   10f94:	1b1c                	addi	a5,sp,432
   10f96:	41678cb3          	sub	s9,a5,s6
   10f9a:	8a5e                	mv	s4,s7
   10f9c:	b3c5                	j	10d7c <_vfprintf_r+0x7e2>
   10f9e:	06500713          	li	a4,101
   10fa2:	b69750e3          	bge	a4,s1,10b02 <_vfprintf_r+0x568>
   10fa6:	574e                	lw	a4,240(sp)
   10fa8:	110c                	addi	a1,sp,160
   10faa:	1908                	addi	a0,sp,176
   10fac:	d93a                	sw	a4,176(sp)
   10fae:	575e                	lw	a4,244(sp)
   10fb0:	c2c6                	sw	a7,68(sp)
   10fb2:	c0be                	sw	a5,64(sp)
   10fb4:	db3a                	sw	a4,180(sp)
   10fb6:	576e                	lw	a4,248(sp)
   10fb8:	d102                	sw	zero,160(sp)
   10fba:	d302                	sw	zero,164(sp)
   10fbc:	dd3a                	sw	a4,184(sp)
   10fbe:	577e                	lw	a4,252(sp)
   10fc0:	d502                	sw	zero,168(sp)
   10fc2:	d702                	sw	zero,172(sp)
   10fc4:	df3a                	sw	a4,188(sp)
   10fc6:	5560b0ef          	jal	ra,1c51c <__eqtf2>
   10fca:	4786                	lw	a5,64(sp)
   10fcc:	4896                	lw	a7,68(sp)
   10fce:	24051f63          	bnez	a0,1122c <_vfprintf_r+0xc92>
   10fd2:	572e                	lw	a4,232(sp)
   10fd4:	66f9                	lui	a3,0x1e
   10fd6:	70068693          	addi	a3,a3,1792 # 1e700 <__clzsi2+0xd2>
   10fda:	00d8a023          	sw	a3,0(a7)
   10fde:	0785                	addi	a5,a5,1
   10fe0:	4685                	li	a3,1
   10fe2:	0705                	addi	a4,a4,1
   10fe4:	00d8a223          	sw	a3,4(a7)
   10fe8:	d7be                	sw	a5,236(sp)
   10fea:	d5ba                	sw	a4,232(sp)
   10fec:	469d                	li	a3,7
   10fee:	08a1                	addi	a7,a7,8
   10ff0:	72e6c363          	blt	a3,a4,11716 <_vfprintf_r+0x117c>
   10ff4:	473e                	lw	a4,204(sp)
   10ff6:	5682                	lw	a3,32(sp)
   10ff8:	42d75263          	bge	a4,a3,1141c <_vfprintf_r+0xe82>
   10ffc:	5742                	lw	a4,48(sp)
   10ffe:	56b2                	lw	a3,44(sp)
   11000:	08a1                	addi	a7,a7,8
   11002:	fee8ac23          	sw	a4,-8(a7)
   11006:	572e                	lw	a4,232(sp)
   11008:	97b6                	add	a5,a5,a3
   1100a:	fed8ae23          	sw	a3,-4(a7)
   1100e:	0705                	addi	a4,a4,1
   11010:	d7be                	sw	a5,236(sp)
   11012:	d5ba                	sw	a4,232(sp)
   11014:	469d                	li	a3,7
   11016:	52e6cc63          	blt	a3,a4,1154e <_vfprintf_r+0xfb4>
   1101a:	5702                	lw	a4,32(sp)
   1101c:	fff70493          	addi	s1,a4,-1
   11020:	fa905363          	blez	s1,107c6 <_vfprintf_r+0x22c>
   11024:	46c1                	li	a3,16
   11026:	572e                	lw	a4,232(sp)
   11028:	7096d263          	bge	a3,s1,1172c <_vfprintf_r+0x1192>
   1102c:	4941                	li	s2,16
   1102e:	4c9d                	li	s9,7
   11030:	a021                	j	11038 <_vfprintf_r+0xa9e>
   11032:	14c1                	addi	s1,s1,-16
   11034:	6e995c63          	bge	s2,s1,1172c <_vfprintf_r+0x1192>
   11038:	46a2                	lw	a3,8(sp)
   1103a:	07c1                	addi	a5,a5,16
   1103c:	0705                	addi	a4,a4,1
   1103e:	00d8a023          	sw	a3,0(a7)
   11042:	0128a223          	sw	s2,4(a7)
   11046:	d7be                	sw	a5,236(sp)
   11048:	d5ba                	sw	a4,232(sp)
   1104a:	08a1                	addi	a7,a7,8
   1104c:	feecd3e3          	bge	s9,a4,11032 <_vfprintf_r+0xa98>
   11050:	11d0                	addi	a2,sp,228
   11052:	85e2                	mv	a1,s8
   11054:	856a                	mv	a0,s10
   11056:	539070ef          	jal	ra,18d8e <__sprint_r>
   1105a:	10051963          	bnez	a0,1116c <_vfprintf_r+0xbd2>
   1105e:	57be                	lw	a5,236(sp)
   11060:	572e                	lw	a4,232(sp)
   11062:	10c10893          	addi	a7,sp,268
   11066:	b7f1                	j	11032 <_vfprintf_r+0xa98>
   11068:	41598933          	sub	s2,s3,s5
   1106c:	f3205863          	blez	s2,1079c <_vfprintf_r+0x202>
   11070:	4641                	li	a2,16
   11072:	572e                	lw	a4,232(sp)
   11074:	05265263          	bge	a2,s2,110b8 <_vfprintf_r+0xb1e>
   11078:	4e41                	li	t3,16
   1107a:	4b9d                	li	s7,7
   1107c:	a021                	j	11084 <_vfprintf_r+0xaea>
   1107e:	1941                	addi	s2,s2,-16
   11080:	032e5c63          	bge	t3,s2,110b8 <_vfprintf_r+0xb1e>
   11084:	46a2                	lw	a3,8(sp)
   11086:	07c1                	addi	a5,a5,16
   11088:	0705                	addi	a4,a4,1
   1108a:	00d8a023          	sw	a3,0(a7)
   1108e:	01c8a223          	sw	t3,4(a7)
   11092:	d7be                	sw	a5,236(sp)
   11094:	d5ba                	sw	a4,232(sp)
   11096:	08a1                	addi	a7,a7,8
   11098:	feebd3e3          	bge	s7,a4,1107e <_vfprintf_r+0xae4>
   1109c:	11d0                	addi	a2,sp,228
   1109e:	85e2                	mv	a1,s8
   110a0:	856a                	mv	a0,s10
   110a2:	4ed070ef          	jal	ra,18d8e <__sprint_r>
   110a6:	e179                	bnez	a0,1116c <_vfprintf_r+0xbd2>
   110a8:	4e41                	li	t3,16
   110aa:	1941                	addi	s2,s2,-16
   110ac:	57be                	lw	a5,236(sp)
   110ae:	572e                	lw	a4,232(sp)
   110b0:	10c10893          	addi	a7,sp,268
   110b4:	fd2e48e3          	blt	t3,s2,11084 <_vfprintf_r+0xaea>
   110b8:	46a2                	lw	a3,8(sp)
   110ba:	97ca                	add	a5,a5,s2
   110bc:	0705                	addi	a4,a4,1
   110be:	00d8a023          	sw	a3,0(a7)
   110c2:	0128a223          	sw	s2,4(a7)
   110c6:	d7be                	sw	a5,236(sp)
   110c8:	d5ba                	sw	a4,232(sp)
   110ca:	469d                	li	a3,7
   110cc:	08a1                	addi	a7,a7,8
   110ce:	ece6d763          	bge	a3,a4,1079c <_vfprintf_r+0x202>
   110d2:	11d0                	addi	a2,sp,228
   110d4:	85e2                	mv	a1,s8
   110d6:	856a                	mv	a0,s10
   110d8:	4b7070ef          	jal	ra,18d8e <__sprint_r>
   110dc:	e941                	bnez	a0,1116c <_vfprintf_r+0xbd2>
   110de:	57be                	lw	a5,236(sp)
   110e0:	10c10893          	addi	a7,sp,268
   110e4:	eb8ff06f          	j	1079c <_vfprintf_r+0x202>
   110e8:	4641                	li	a2,16
   110ea:	572e                	lw	a4,232(sp)
   110ec:	05b65163          	bge	a2,s11,1112e <_vfprintf_r+0xb94>
   110f0:	4bc1                	li	s7,16
   110f2:	491d                	li	s2,7
   110f4:	a021                	j	110fc <_vfprintf_r+0xb62>
   110f6:	1dc1                	addi	s11,s11,-16
   110f8:	03bbdb63          	bge	s7,s11,1112e <_vfprintf_r+0xb94>
   110fc:	46a2                	lw	a3,8(sp)
   110fe:	07c1                	addi	a5,a5,16
   11100:	0705                	addi	a4,a4,1
   11102:	00d8a023          	sw	a3,0(a7)
   11106:	0178a223          	sw	s7,4(a7)
   1110a:	d7be                	sw	a5,236(sp)
   1110c:	d5ba                	sw	a4,232(sp)
   1110e:	08a1                	addi	a7,a7,8
   11110:	fee953e3          	bge	s2,a4,110f6 <_vfprintf_r+0xb5c>
   11114:	11d0                	addi	a2,sp,228
   11116:	85e2                	mv	a1,s8
   11118:	856a                	mv	a0,s10
   1111a:	475070ef          	jal	ra,18d8e <__sprint_r>
   1111e:	e539                	bnez	a0,1116c <_vfprintf_r+0xbd2>
   11120:	1dc1                	addi	s11,s11,-16
   11122:	57be                	lw	a5,236(sp)
   11124:	572e                	lw	a4,232(sp)
   11126:	10c10893          	addi	a7,sp,268
   1112a:	fdbbc9e3          	blt	s7,s11,110fc <_vfprintf_r+0xb62>
   1112e:	46a2                	lw	a3,8(sp)
   11130:	97ee                	add	a5,a5,s11
   11132:	0705                	addi	a4,a4,1
   11134:	00d8a023          	sw	a3,0(a7)
   11138:	01b8a223          	sw	s11,4(a7)
   1113c:	d7be                	sw	a5,236(sp)
   1113e:	d5ba                	sw	a4,232(sp)
   11140:	469d                	li	a3,7
   11142:	08a1                	addi	a7,a7,8
   11144:	e6e6d063          	bge	a3,a4,107a4 <_vfprintf_r+0x20a>
   11148:	11d0                	addi	a2,sp,228
   1114a:	85e2                	mv	a1,s8
   1114c:	856a                	mv	a0,s10
   1114e:	441070ef          	jal	ra,18d8e <__sprint_r>
   11152:	ed09                	bnez	a0,1116c <_vfprintf_r+0xbd2>
   11154:	57be                	lw	a5,236(sp)
   11156:	10c10893          	addi	a7,sp,268
   1115a:	e4aff06f          	j	107a4 <_vfprintf_r+0x20a>
   1115e:	11d0                	addi	a2,sp,228
   11160:	85e2                	mv	a1,s8
   11162:	856a                	mv	a0,s10
   11164:	42b070ef          	jal	ra,18d8e <__sprint_r>
   11168:	e6050f63          	beqz	a0,107e6 <_vfprintf_r+0x24c>
   1116c:	4bc2                	lw	s7,16(sp)
   1116e:	e80b8e63          	beqz	s7,1080a <_vfprintf_r+0x270>
   11172:	85de                	mv	a1,s7
   11174:	856a                	mv	a0,s10
   11176:	1e9010ef          	jal	ra,12b5e <_free_r>
   1117a:	e90ff06f          	j	1080a <_vfprintf_r+0x270>
   1117e:	4641                	li	a2,16
   11180:	572e                	lw	a4,232(sp)
   11182:	52d65fe3          	bge	a2,a3,11ec0 <_vfprintf_r+0x1926>
   11186:	0001f637          	lui	a2,0x1f
   1118a:	87060e93          	addi	t4,a2,-1936 # 1e870 <blanks.1>
   1118e:	c0a2                	sw	s0,64(sp)
   11190:	c2a6                	sw	s1,68(sp)
   11192:	846a                	mv	s0,s10
   11194:	84e2                	mv	s1,s8
   11196:	4e41                	li	t3,16
   11198:	429d                	li	t0,7
   1119a:	8c36                	mv	s8,a3
   1119c:	8d76                	mv	s10,t4
   1119e:	a021                	j	111a6 <_vfprintf_r+0xc0c>
   111a0:	1c41                	addi	s8,s8,-16
   111a2:	038e5d63          	bge	t3,s8,111dc <_vfprintf_r+0xc42>
   111a6:	07c1                	addi	a5,a5,16
   111a8:	0705                	addi	a4,a4,1
   111aa:	01a8a023          	sw	s10,0(a7)
   111ae:	01c8a223          	sw	t3,4(a7)
   111b2:	d7be                	sw	a5,236(sp)
   111b4:	d5ba                	sw	a4,232(sp)
   111b6:	08a1                	addi	a7,a7,8
   111b8:	fee2d4e3          	bge	t0,a4,111a0 <_vfprintf_r+0xc06>
   111bc:	11d0                	addi	a2,sp,228
   111be:	85a6                	mv	a1,s1
   111c0:	8522                	mv	a0,s0
   111c2:	3cd070ef          	jal	ra,18d8e <__sprint_r>
   111c6:	52051a63          	bnez	a0,116fa <_vfprintf_r+0x1160>
   111ca:	4e41                	li	t3,16
   111cc:	1c41                	addi	s8,s8,-16
   111ce:	57be                	lw	a5,236(sp)
   111d0:	572e                	lw	a4,232(sp)
   111d2:	10c10893          	addi	a7,sp,268
   111d6:	429d                	li	t0,7
   111d8:	fd8e47e3          	blt	t3,s8,111a6 <_vfprintf_r+0xc0c>
   111dc:	86e2                	mv	a3,s8
   111de:	8eea                	mv	t4,s10
   111e0:	8c26                	mv	s8,s1
   111e2:	8d22                	mv	s10,s0
   111e4:	4496                	lw	s1,68(sp)
   111e6:	4406                	lw	s0,64(sp)
   111e8:	97b6                	add	a5,a5,a3
   111ea:	0705                	addi	a4,a4,1
   111ec:	00d8a223          	sw	a3,4(a7)
   111f0:	01d8a023          	sw	t4,0(a7)
   111f4:	d7be                	sw	a5,236(sp)
   111f6:	d5ba                	sw	a4,232(sp)
   111f8:	469d                	li	a3,7
   111fa:	08a1                	addi	a7,a7,8
   111fc:	d4e6d863          	bge	a3,a4,1074c <_vfprintf_r+0x1b2>
   11200:	11d0                	addi	a2,sp,228
   11202:	85e2                	mv	a1,s8
   11204:	856a                	mv	a0,s10
   11206:	389070ef          	jal	ra,18d8e <__sprint_r>
   1120a:	f12d                	bnez	a0,1116c <_vfprintf_r+0xbd2>
   1120c:	57be                	lw	a5,236(sp)
   1120e:	10c10893          	addi	a7,sp,268
   11212:	d3aff06f          	j	1074c <_vfprintf_r+0x1b2>
   11216:	11d0                	addi	a2,sp,228
   11218:	85e2                	mv	a1,s8
   1121a:	856a                	mv	a0,s10
   1121c:	373070ef          	jal	ra,18d8e <__sprint_r>
   11220:	f531                	bnez	a0,1116c <_vfprintf_r+0xbd2>
   11222:	57be                	lw	a5,236(sp)
   11224:	10c10893          	addi	a7,sp,268
   11228:	d6cff06f          	j	10794 <_vfprintf_r+0x1fa>
   1122c:	463e                	lw	a2,204(sp)
   1122e:	46c05e63          	blez	a2,116aa <_vfprintf_r+0x1110>
   11232:	4772                	lw	a4,28(sp)
   11234:	5682                	lw	a3,32(sp)
   11236:	84ba                	mv	s1,a4
   11238:	26e6c563          	blt	a3,a4,114a2 <_vfprintf_r+0xf08>
   1123c:	00905f63          	blez	s1,1125a <_vfprintf_r+0xcc0>
   11240:	572e                	lw	a4,232(sp)
   11242:	97a6                	add	a5,a5,s1
   11244:	0168a023          	sw	s6,0(a7)
   11248:	0705                	addi	a4,a4,1
   1124a:	0098a223          	sw	s1,4(a7)
   1124e:	d7be                	sw	a5,236(sp)
   11250:	d5ba                	sw	a4,232(sp)
   11252:	469d                	li	a3,7
   11254:	08a1                	addi	a7,a7,8
   11256:	7ee6c663          	blt	a3,a4,11a42 <_vfprintf_r+0x14a8>
   1125a:	fff4c713          	not	a4,s1
   1125e:	877d                	srai	a4,a4,0x1f
   11260:	8cf9                	and	s1,s1,a4
   11262:	4772                	lw	a4,28(sp)
   11264:	409704b3          	sub	s1,a4,s1
   11268:	32904663          	bgtz	s1,11594 <_vfprintf_r+0xffa>
   1126c:	46f2                	lw	a3,28(sp)
   1126e:	400a7713          	andi	a4,s4,1024
   11272:	00db0db3          	add	s11,s6,a3
   11276:	64071563          	bnez	a4,118c0 <_vfprintf_r+0x1326>
   1127a:	44be                	lw	s1,204(sp)
   1127c:	5702                	lw	a4,32(sp)
   1127e:	00e4c663          	blt	s1,a4,1128a <_vfprintf_r+0xcf0>
   11282:	001a7713          	andi	a4,s4,1
   11286:	7c070c63          	beqz	a4,11a5e <_vfprintf_r+0x14c4>
   1128a:	5742                	lw	a4,48(sp)
   1128c:	56b2                	lw	a3,44(sp)
   1128e:	461d                	li	a2,7
   11290:	00e8a023          	sw	a4,0(a7)
   11294:	572e                	lw	a4,232(sp)
   11296:	97b6                	add	a5,a5,a3
   11298:	00d8a223          	sw	a3,4(a7)
   1129c:	0705                	addi	a4,a4,1
   1129e:	d7be                	sw	a5,236(sp)
   112a0:	d5ba                	sw	a4,232(sp)
   112a2:	08a1                	addi	a7,a7,8
   112a4:	40e641e3          	blt	a2,a4,11ea6 <_vfprintf_r+0x190c>
   112a8:	5682                	lw	a3,32(sp)
   112aa:	00db0733          	add	a4,s6,a3
   112ae:	409684b3          	sub	s1,a3,s1
   112b2:	41b70733          	sub	a4,a4,s11
   112b6:	8926                	mv	s2,s1
   112b8:	00975363          	bge	a4,s1,112be <_vfprintf_r+0xd24>
   112bc:	893a                	mv	s2,a4
   112be:	01205f63          	blez	s2,112dc <_vfprintf_r+0xd42>
   112c2:	572e                	lw	a4,232(sp)
   112c4:	97ca                	add	a5,a5,s2
   112c6:	01b8a023          	sw	s11,0(a7)
   112ca:	0705                	addi	a4,a4,1
   112cc:	0128a223          	sw	s2,4(a7)
   112d0:	d7be                	sw	a5,236(sp)
   112d2:	d5ba                	sw	a4,232(sp)
   112d4:	469d                	li	a3,7
   112d6:	08a1                	addi	a7,a7,8
   112d8:	40e6c8e3          	blt	a3,a4,11ee8 <_vfprintf_r+0x194e>
   112dc:	fff94713          	not	a4,s2
   112e0:	877d                	srai	a4,a4,0x1f
   112e2:	00e97733          	and	a4,s2,a4
   112e6:	8c99                	sub	s1,s1,a4
   112e8:	cc905f63          	blez	s1,107c6 <_vfprintf_r+0x22c>
   112ec:	46c1                	li	a3,16
   112ee:	572e                	lw	a4,232(sp)
   112f0:	4296de63          	bge	a3,s1,1172c <_vfprintf_r+0x1192>
   112f4:	4941                	li	s2,16
   112f6:	4c9d                	li	s9,7
   112f8:	a021                	j	11300 <_vfprintf_r+0xd66>
   112fa:	14c1                	addi	s1,s1,-16
   112fc:	42995863          	bge	s2,s1,1172c <_vfprintf_r+0x1192>
   11300:	46a2                	lw	a3,8(sp)
   11302:	07c1                	addi	a5,a5,16
   11304:	0705                	addi	a4,a4,1
   11306:	00d8a023          	sw	a3,0(a7)
   1130a:	0128a223          	sw	s2,4(a7)
   1130e:	d7be                	sw	a5,236(sp)
   11310:	d5ba                	sw	a4,232(sp)
   11312:	08a1                	addi	a7,a7,8
   11314:	feecd3e3          	bge	s9,a4,112fa <_vfprintf_r+0xd60>
   11318:	11d0                	addi	a2,sp,228
   1131a:	85e2                	mv	a1,s8
   1131c:	856a                	mv	a0,s10
   1131e:	271070ef          	jal	ra,18d8e <__sprint_r>
   11322:	e40515e3          	bnez	a0,1116c <_vfprintf_r+0xbd2>
   11326:	57be                	lw	a5,236(sp)
   11328:	572e                	lw	a4,232(sp)
   1132a:	10c10893          	addi	a7,sp,268
   1132e:	b7f1                	j	112fa <_vfprintf_r+0xd60>
   11330:	001a7793          	andi	a5,s4,1
   11334:	fe079463          	bnez	a5,10b1c <_vfprintf_r+0x582>
   11338:	00d8a223          	sw	a3,4(a7)
   1133c:	d7e6                	sw	s9,236(sp)
   1133e:	d5a6                	sw	s1,232(sp)
   11340:	479d                	li	a5,7
   11342:	1897c363          	blt	a5,s1,114c8 <_vfprintf_r+0xf2e>
   11346:	0709                	addi	a4,a4,2
   11348:	08c1                	addi	a7,a7,16
   1134a:	b8a9                	j	10ba4 <_vfprintf_r+0x60a>
   1134c:	85b05ce3          	blez	s11,10ba4 <_vfprintf_r+0x60a>
   11350:	4641                	li	a2,16
   11352:	6db65ae3          	bge	a2,s11,12226 <_vfprintf_r+0x1c8c>
   11356:	4741                	li	a4,16
   11358:	4b1d                	li	s6,7
   1135a:	84b6                	mv	s1,a3
   1135c:	a029                	j	11366 <_vfprintf_r+0xdcc>
   1135e:	1dc1                	addi	s11,s11,-16
   11360:	15b75563          	bge	a4,s11,114aa <_vfprintf_r+0xf10>
   11364:	0485                	addi	s1,s1,1
   11366:	47a2                	lw	a5,8(sp)
   11368:	0cc1                	addi	s9,s9,16
   1136a:	00e92223          	sw	a4,4(s2)
   1136e:	00f92023          	sw	a5,0(s2)
   11372:	d7e6                	sw	s9,236(sp)
   11374:	d5a6                	sw	s1,232(sp)
   11376:	0921                	addi	s2,s2,8
   11378:	fe9b53e3          	bge	s6,s1,1135e <_vfprintf_r+0xdc4>
   1137c:	11d0                	addi	a2,sp,228
   1137e:	85e2                	mv	a1,s8
   11380:	856a                	mv	a0,s10
   11382:	20d070ef          	jal	ra,18d8e <__sprint_r>
   11386:	de0513e3          	bnez	a0,1116c <_vfprintf_r+0xbd2>
   1138a:	5cbe                	lw	s9,236(sp)
   1138c:	54ae                	lw	s1,232(sp)
   1138e:	10c10913          	addi	s2,sp,268
   11392:	4741                	li	a4,16
   11394:	b7e9                	j	1135e <_vfprintf_r+0xdc4>
   11396:	46d2                	lw	a3,20(sp)
   11398:	010a7793          	andi	a5,s4,16
   1139c:	00468713          	addi	a4,a3,4
   113a0:	e7f5                	bnez	a5,1148c <_vfprintf_r+0xef2>
   113a2:	040a7793          	andi	a5,s4,64
   113a6:	48078663          	beqz	a5,11832 <_vfprintf_r+0x1298>
   113aa:	47d2                	lw	a5,20(sp)
   113ac:	4901                	li	s2,0
   113ae:	ca3a                	sw	a4,20(sp)
   113b0:	0007dc83          	lhu	s9,0(a5)
   113b4:	b419                	j	10dba <_vfprintf_r+0x820>
   113b6:	46d2                	lw	a3,20(sp)
   113b8:	010a7793          	andi	a5,s4,16
   113bc:	00468713          	addi	a4,a3,4
   113c0:	e3cd                	bnez	a5,11462 <_vfprintf_r+0xec8>
   113c2:	040a7793          	andi	a5,s4,64
   113c6:	48078163          	beqz	a5,11848 <_vfprintf_r+0x12ae>
   113ca:	47d2                	lw	a5,20(sp)
   113cc:	ca3a                	sw	a4,20(sp)
   113ce:	00079c83          	lh	s9,0(a5)
   113d2:	41fcd913          	srai	s2,s9,0x1f
   113d6:	87ca                	mv	a5,s2
   113d8:	a407dae3          	bgez	a5,10e2c <_vfprintf_r+0x892>
   113dc:	019037b3          	snez	a5,s9
   113e0:	41200933          	neg	s2,s2
   113e4:	40f90933          	sub	s2,s2,a5
   113e8:	02d00793          	li	a5,45
   113ec:	0cf103a3          	sb	a5,199(sp)
   113f0:	41900cb3          	neg	s9,s9
   113f4:	8bd2                	mv	s7,s4
   113f6:	4785                	li	a5,1
   113f8:	b285                	j	10d58 <_vfprintf_r+0x7be>
   113fa:	4752                	lw	a4,20(sp)
   113fc:	010bf793          	andi	a5,s7,16
   11400:	00470693          	addi	a3,a4,4
   11404:	ebc9                	bnez	a5,11496 <_vfprintf_r+0xefc>
   11406:	040bf793          	andi	a5,s7,64
   1140a:	40078863          	beqz	a5,1181a <_vfprintf_r+0x1280>
   1140e:	47d2                	lw	a5,20(sp)
   11410:	4901                	li	s2,0
   11412:	ca36                	sw	a3,20(sp)
   11414:	0007dc83          	lhu	s9,0(a5)
   11418:	4785                	li	a5,1
   1141a:	ba2d                	j	10d54 <_vfprintf_r+0x7ba>
   1141c:	001a7713          	andi	a4,s4,1
   11420:	ba070363          	beqz	a4,107c6 <_vfprintf_r+0x22c>
   11424:	bee1                	j	10ffc <_vfprintf_r+0xa62>
   11426:	88e6                	mv	a7,s9
   11428:	baf9                	j	10e06 <_vfprintf_r+0x86c>
   1142a:	03000793          	li	a5,48
   1142e:	1af107a3          	sb	a5,431(sp)
   11432:	1af10b13          	addi	s6,sp,431
   11436:	b299                	j	10d7c <_vfprintf_r+0x7e2>
   11438:	57f2                	lw	a5,60(sp)
   1143a:	00044483          	lbu	s1,0(s0)
   1143e:	a8078c63          	beqz	a5,106d6 <_vfprintf_r+0x13c>
   11442:	0007c783          	lbu	a5,0(a5)
   11446:	a8078863          	beqz	a5,106d6 <_vfprintf_r+0x13c>
   1144a:	400a6a13          	ori	s4,s4,1024
   1144e:	a88ff06f          	j	106d6 <_vfprintf_r+0x13c>
   11452:	46b2                	lw	a3,12(sp)
   11454:	8b22                	mv	s6,s0
   11456:	41f6d793          	srai	a5,a3,0x1f
   1145a:	c314                	sw	a3,0(a4)
   1145c:	c35c                	sw	a5,4(a4)
   1145e:	b9cff06f          	j	107fa <_vfprintf_r+0x260>
   11462:	0006ac83          	lw	s9,0(a3)
   11466:	ca3a                	sw	a4,20(sp)
   11468:	41fcd913          	srai	s2,s9,0x1f
   1146c:	87ca                	mv	a5,s2
   1146e:	ba6d                	j	10e28 <_vfprintf_r+0x88e>
   11470:	4752                	lw	a4,20(sp)
   11472:	431c                	lw	a5,0(a4)
   11474:	0711                	addi	a4,a4,4
   11476:	ca3a                	sw	a4,20(sp)
   11478:	4390                	lw	a2,0(a5)
   1147a:	43d4                	lw	a3,4(a5)
   1147c:	4798                	lw	a4,8(a5)
   1147e:	47dc                	lw	a5,12(a5)
   11480:	d9b2                	sw	a2,240(sp)
   11482:	dbb6                	sw	a3,244(sp)
   11484:	ddba                	sw	a4,248(sp)
   11486:	dfbe                	sw	a5,252(sp)
   11488:	c80ff06f          	j	10908 <_vfprintf_r+0x36e>
   1148c:	0006ac83          	lw	s9,0(a3)
   11490:	4901                	li	s2,0
   11492:	ca3a                	sw	a4,20(sp)
   11494:	b21d                	j	10dba <_vfprintf_r+0x820>
   11496:	00072c83          	lw	s9,0(a4)
   1149a:	4901                	li	s2,0
   1149c:	ca36                	sw	a3,20(sp)
   1149e:	4785                	li	a5,1
   114a0:	b855                	j	10d54 <_vfprintf_r+0x7ba>
   114a2:	84b6                	mv	s1,a3
   114a4:	d8904ee3          	bgtz	s1,11240 <_vfprintf_r+0xca6>
   114a8:	bb4d                	j	1125a <_vfprintf_r+0xcc0>
   114aa:	00148713          	addi	a4,s1,1
   114ae:	00890693          	addi	a3,s2,8
   114b2:	47a2                	lw	a5,8(sp)
   114b4:	9cee                	add	s9,s9,s11
   114b6:	01b92223          	sw	s11,4(s2)
   114ba:	00f92023          	sw	a5,0(s2)
   114be:	d7e6                	sw	s9,236(sp)
   114c0:	d5ba                	sw	a4,232(sp)
   114c2:	479d                	li	a5,7
   114c4:	54e7d963          	bge	a5,a4,11a16 <_vfprintf_r+0x147c>
   114c8:	11d0                	addi	a2,sp,228
   114ca:	85e2                	mv	a1,s8
   114cc:	856a                	mv	a0,s10
   114ce:	0c1070ef          	jal	ra,18d8e <__sprint_r>
   114d2:	c8051de3          	bnez	a0,1116c <_vfprintf_r+0xbd2>
   114d6:	572e                	lw	a4,232(sp)
   114d8:	5cbe                	lw	s9,236(sp)
   114da:	11410893          	addi	a7,sp,276
   114de:	0705                	addi	a4,a4,1
   114e0:	10c10913          	addi	s2,sp,268
   114e4:	ec0ff06f          	j	10ba4 <_vfprintf_r+0x60a>
   114e8:	88e6                	mv	a7,s9
   114ea:	8bd2                	mv	s7,s4
   114ec:	b8f1                	j	10dc8 <_vfprintf_r+0x82e>
   114ee:	67f9                	lui	a5,0x1e
   114f0:	6d078793          	addi	a5,a5,1744 # 1e6d0 <__clzsi2+0xa2>
   114f4:	88e6                	mv	a7,s9
   114f6:	da3e                	sw	a5,52(sp)
   114f8:	020a7793          	andi	a5,s4,32
   114fc:	cff1                	beqz	a5,115d8 <_vfprintf_r+0x103e>
   114fe:	47d2                	lw	a5,20(sp)
   11500:	00778b13          	addi	s6,a5,7
   11504:	ff8b7b13          	andi	s6,s6,-8
   11508:	000b2c83          	lw	s9,0(s6)
   1150c:	004b2903          	lw	s2,4(s6)
   11510:	008b0793          	addi	a5,s6,8
   11514:	ca3e                	sw	a5,20(sp)
   11516:	001a7793          	andi	a5,s4,1
   1151a:	cf81                	beqz	a5,11532 <_vfprintf_r+0xf98>
   1151c:	012ce7b3          	or	a5,s9,s2
   11520:	cb89                	beqz	a5,11532 <_vfprintf_r+0xf98>
   11522:	03000793          	li	a5,48
   11526:	0cf10423          	sb	a5,200(sp)
   1152a:	0c9104a3          	sb	s1,201(sp)
   1152e:	002a6a13          	ori	s4,s4,2
   11532:	bffa7b93          	andi	s7,s4,-1025
   11536:	4789                	li	a5,2
   11538:	81dff06f          	j	10d54 <_vfprintf_r+0x7ba>
   1153c:	88e6                	mv	a7,s9
   1153e:	b8b1                	j	10d9a <_vfprintf_r+0x800>
   11540:	00144483          	lbu	s1,1(s0)
   11544:	020a6a13          	ori	s4,s4,32
   11548:	0405                	addi	s0,s0,1
   1154a:	98cff06f          	j	106d6 <_vfprintf_r+0x13c>
   1154e:	11d0                	addi	a2,sp,228
   11550:	85e2                	mv	a1,s8
   11552:	856a                	mv	a0,s10
   11554:	03b070ef          	jal	ra,18d8e <__sprint_r>
   11558:	c0051ae3          	bnez	a0,1116c <_vfprintf_r+0xbd2>
   1155c:	57be                	lw	a5,236(sp)
   1155e:	10c10893          	addi	a7,sp,268
   11562:	bc65                	j	1101a <_vfprintf_r+0xa80>
   11564:	67f9                	lui	a5,0x1e
   11566:	6e478793          	addi	a5,a5,1764 # 1e6e4 <__clzsi2+0xb6>
   1156a:	88e6                	mv	a7,s9
   1156c:	da3e                	sw	a5,52(sp)
   1156e:	b769                	j	114f8 <_vfprintf_r+0xf5e>
   11570:	00144483          	lbu	s1,1(s0)
   11574:	200a6a13          	ori	s4,s4,512
   11578:	0405                	addi	s0,s0,1
   1157a:	95cff06f          	j	106d6 <_vfprintf_r+0x13c>
   1157e:	4799                	li	a5,6
   11580:	8cee                	mv	s9,s11
   11582:	4db7ec63          	bltu	a5,s11,11a5a <_vfprintf_r+0x14c0>
   11586:	6879                	lui	a6,0x1e
   11588:	8ae6                	mv	s5,s9
   1158a:	ca4a                	sw	s2,20(sp)
   1158c:	6f880b13          	addi	s6,a6,1784 # 1e6f8 <__clzsi2+0xca>
   11590:	996ff06f          	j	10726 <_vfprintf_r+0x18c>
   11594:	46c1                	li	a3,16
   11596:	572e                	lw	a4,232(sp)
   11598:	2e96dc63          	bge	a3,s1,11890 <_vfprintf_r+0x12f6>
   1159c:	4cc1                	li	s9,16
   1159e:	4d9d                	li	s11,7
   115a0:	a021                	j	115a8 <_vfprintf_r+0x100e>
   115a2:	14c1                	addi	s1,s1,-16
   115a4:	2e9cd663          	bge	s9,s1,11890 <_vfprintf_r+0x12f6>
   115a8:	46a2                	lw	a3,8(sp)
   115aa:	07c1                	addi	a5,a5,16
   115ac:	0705                	addi	a4,a4,1
   115ae:	00d8a023          	sw	a3,0(a7)
   115b2:	0198a223          	sw	s9,4(a7)
   115b6:	d7be                	sw	a5,236(sp)
   115b8:	d5ba                	sw	a4,232(sp)
   115ba:	08a1                	addi	a7,a7,8
   115bc:	feedd3e3          	bge	s11,a4,115a2 <_vfprintf_r+0x1008>
   115c0:	11d0                	addi	a2,sp,228
   115c2:	85e2                	mv	a1,s8
   115c4:	856a                	mv	a0,s10
   115c6:	7c8070ef          	jal	ra,18d8e <__sprint_r>
   115ca:	ba0511e3          	bnez	a0,1116c <_vfprintf_r+0xbd2>
   115ce:	57be                	lw	a5,236(sp)
   115d0:	572e                	lw	a4,232(sp)
   115d2:	10c10893          	addi	a7,sp,268
   115d6:	b7f1                	j	115a2 <_vfprintf_r+0x1008>
   115d8:	46d2                	lw	a3,20(sp)
   115da:	010a7793          	andi	a5,s4,16
   115de:	00468713          	addi	a4,a3,4
   115e2:	12078063          	beqz	a5,11702 <_vfprintf_r+0x1168>
   115e6:	0006ac83          	lw	s9,0(a3)
   115ea:	4901                	li	s2,0
   115ec:	ca3a                	sw	a4,20(sp)
   115ee:	b725                	j	11516 <_vfprintf_r+0xf7c>
   115f0:	11d0                	addi	a2,sp,228
   115f2:	85e2                	mv	a1,s8
   115f4:	856a                	mv	a0,s10
   115f6:	798070ef          	jal	ra,18d8e <__sprint_r>
   115fa:	b60519e3          	bnez	a0,1116c <_vfprintf_r+0xbd2>
   115fe:	5cbe                	lw	s9,236(sp)
   11600:	54ae                	lw	s1,232(sp)
   11602:	10c10913          	addi	s2,sp,268
   11606:	d26ff06f          	j	10b2c <_vfprintf_r+0x592>
   1160a:	11d0                	addi	a2,sp,228
   1160c:	85e2                	mv	a1,s8
   1160e:	856a                	mv	a0,s10
   11610:	77e070ef          	jal	ra,18d8e <__sprint_r>
   11614:	b4051ce3          	bnez	a0,1116c <_vfprintf_r+0xbd2>
   11618:	5cbe                	lw	s9,236(sp)
   1161a:	54ae                	lw	s1,232(sp)
   1161c:	10c10913          	addi	s2,sp,268
   11620:	d28ff06f          	j	10b48 <_vfprintf_r+0x5ae>
   11624:	1b010b13          	addi	s6,sp,432
   11628:	4781                	li	a5,0
   1162a:	c822                	sw	s0,16(sp)
   1162c:	ce26                	sw	s1,28(sp)
   1162e:	845a                	mv	s0,s6
   11630:	d24e                	sw	s3,36(sp)
   11632:	8b62                	mv	s6,s8
   11634:	84e6                	mv	s1,s9
   11636:	89ca                	mv	s3,s2
   11638:	5cf2                	lw	s9,60(sp)
   1163a:	400bfa13          	andi	s4,s7,1024
   1163e:	0ff00a93          	li	s5,255
   11642:	8c46                	mv	s8,a7
   11644:	893e                	mv	s2,a5
   11646:	a819                	j	1165c <_vfprintf_r+0x10c2>
   11648:	4629                	li	a2,10
   1164a:	4681                	li	a3,0
   1164c:	8526                	mv	a0,s1
   1164e:	85ce                	mv	a1,s3
   11650:	6b1090ef          	jal	ra,1b500 <__udivdi3>
   11654:	3a098d63          	beqz	s3,11a0e <_vfprintf_r+0x1474>
   11658:	84aa                	mv	s1,a0
   1165a:	89ae                	mv	s3,a1
   1165c:	4629                	li	a2,10
   1165e:	4681                	li	a3,0
   11660:	8526                	mv	a0,s1
   11662:	85ce                	mv	a1,s3
   11664:	1fc0a0ef          	jal	ra,1b860 <__umoddi3>
   11668:	03050513          	addi	a0,a0,48
   1166c:	fea40fa3          	sb	a0,-1(s0)
   11670:	0905                	addi	s2,s2,1
   11672:	147d                	addi	s0,s0,-1
   11674:	fc0a0ae3          	beqz	s4,11648 <_vfprintf_r+0x10ae>
   11678:	000cc683          	lbu	a3,0(s9)
   1167c:	fcd916e3          	bne	s2,a3,11648 <_vfprintf_r+0x10ae>
   11680:	fd5904e3          	beq	s2,s5,11648 <_vfprintf_r+0x10ae>
   11684:	36099163          	bnez	s3,119e6 <_vfprintf_r+0x144c>
   11688:	47a5                	li	a5,9
   1168a:	3497ee63          	bltu	a5,s1,119e6 <_vfprintf_r+0x144c>
   1168e:	88e2                	mv	a7,s8
   11690:	1b1c                	addi	a5,sp,432
   11692:	8c5a                	mv	s8,s6
   11694:	8b22                	mv	s6,s0
   11696:	de66                	sw	s9,60(sp)
   11698:	44f2                	lw	s1,28(sp)
   1169a:	5992                	lw	s3,36(sp)
   1169c:	4442                	lw	s0,16(sp)
   1169e:	d04a                	sw	s2,32(sp)
   116a0:	41678cb3          	sub	s9,a5,s6
   116a4:	8a5e                	mv	s4,s7
   116a6:	ed6ff06f          	j	10d7c <_vfprintf_r+0x7e2>
   116aa:	572e                	lw	a4,232(sp)
   116ac:	66f9                	lui	a3,0x1e
   116ae:	70068693          	addi	a3,a3,1792 # 1e700 <__clzsi2+0xd2>
   116b2:	00d8a023          	sw	a3,0(a7)
   116b6:	0785                	addi	a5,a5,1
   116b8:	4685                	li	a3,1
   116ba:	0705                	addi	a4,a4,1
   116bc:	00d8a223          	sw	a3,4(a7)
   116c0:	d7be                	sw	a5,236(sp)
   116c2:	d5ba                	sw	a4,232(sp)
   116c4:	469d                	li	a3,7
   116c6:	08a1                	addi	a7,a7,8
   116c8:	34e6cd63          	blt	a3,a4,11a22 <_vfprintf_r+0x1488>
   116cc:	ee71                	bnez	a2,117a8 <_vfprintf_r+0x120e>
   116ce:	5682                	lw	a3,32(sp)
   116d0:	001a7713          	andi	a4,s4,1
   116d4:	8f55                	or	a4,a4,a3
   116d6:	8e070863          	beqz	a4,107c6 <_vfprintf_r+0x22c>
   116da:	5742                	lw	a4,48(sp)
   116dc:	56b2                	lw	a3,44(sp)
   116de:	00e8a023          	sw	a4,0(a7)
   116e2:	572e                	lw	a4,232(sp)
   116e4:	97b6                	add	a5,a5,a3
   116e6:	00d8a223          	sw	a3,4(a7)
   116ea:	0705                	addi	a4,a4,1
   116ec:	d7be                	sw	a5,236(sp)
   116ee:	d5ba                	sw	a4,232(sp)
   116f0:	469d                	li	a3,7
   116f2:	3ee6c263          	blt	a3,a4,11ad6 <_vfprintf_r+0x153c>
   116f6:	08a1                	addi	a7,a7,8
   116f8:	a8c9                	j	117ca <_vfprintf_r+0x1230>
   116fa:	4bc2                	lw	s7,16(sp)
   116fc:	8d22                	mv	s10,s0
   116fe:	8c26                	mv	s8,s1
   11700:	b4bd                	j	1116e <_vfprintf_r+0xbd4>
   11702:	040a7793          	andi	a5,s4,64
   11706:	14078e63          	beqz	a5,11862 <_vfprintf_r+0x12c8>
   1170a:	47d2                	lw	a5,20(sp)
   1170c:	4901                	li	s2,0
   1170e:	ca3a                	sw	a4,20(sp)
   11710:	0007dc83          	lhu	s9,0(a5)
   11714:	b509                	j	11516 <_vfprintf_r+0xf7c>
   11716:	11d0                	addi	a2,sp,228
   11718:	85e2                	mv	a1,s8
   1171a:	856a                	mv	a0,s10
   1171c:	672070ef          	jal	ra,18d8e <__sprint_r>
   11720:	a40516e3          	bnez	a0,1116c <_vfprintf_r+0xbd2>
   11724:	57be                	lw	a5,236(sp)
   11726:	10c10893          	addi	a7,sp,268
   1172a:	b0e9                	j	10ff4 <_vfprintf_r+0xa5a>
   1172c:	46a2                	lw	a3,8(sp)
   1172e:	97a6                	add	a5,a5,s1
   11730:	0098a223          	sw	s1,4(a7)
   11734:	00d8a023          	sw	a3,0(a7)
   11738:	0705                	addi	a4,a4,1
   1173a:	d7be                	sw	a5,236(sp)
   1173c:	d5ba                	sw	a4,232(sp)
   1173e:	469d                	li	a3,7
   11740:	00e6c463          	blt	a3,a4,11748 <_vfprintf_r+0x11ae>
   11744:	880ff06f          	j	107c4 <_vfprintf_r+0x22a>
   11748:	c76ff06f          	j	10bbe <_vfprintf_r+0x624>
   1174c:	57ce                	lw	a5,240(sp)
   1174e:	110c                	addi	a1,sp,160
   11750:	1908                	addi	a0,sp,176
   11752:	d93e                	sw	a5,176(sp)
   11754:	57de                	lw	a5,244(sp)
   11756:	d102                	sw	zero,160(sp)
   11758:	d302                	sw	zero,164(sp)
   1175a:	db3e                	sw	a5,180(sp)
   1175c:	57ee                	lw	a5,248(sp)
   1175e:	d502                	sw	zero,168(sp)
   11760:	d702                	sw	zero,172(sp)
   11762:	dd3e                	sw	a5,184(sp)
   11764:	57fe                	lw	a5,252(sp)
   11766:	df3e                	sw	a5,188(sp)
   11768:	74f0a0ef          	jal	ra,1c6b6 <__letf2>
   1176c:	48c2                	lw	a7,16(sp)
   1176e:	72054763          	bltz	a0,11e9c <_vfprintf_r+0x1902>
   11772:	0c714783          	lbu	a5,199(sp)
   11776:	04700713          	li	a4,71
   1177a:	2c975063          	bge	a4,s1,11a3a <_vfprintf_r+0x14a0>
   1177e:	6879                	lui	a6,0x1e
   11780:	6c480b13          	addi	s6,a6,1732 # 1e6c4 <__clzsi2+0x96>
   11784:	c802                	sw	zero,16(sp)
   11786:	d402                	sw	zero,40(sp)
   11788:	d202                	sw	zero,36(sp)
   1178a:	ce02                	sw	zero,28(sp)
   1178c:	f7fa7a13          	andi	s4,s4,-129
   11790:	4a8d                	li	s5,3
   11792:	4c8d                	li	s9,3
   11794:	4d81                	li	s11,0
   11796:	d2079b63          	bnez	a5,10ccc <_vfprintf_r+0x732>
   1179a:	f97fe06f          	j	10730 <_vfprintf_r+0x196>
   1179e:	47b2                	lw	a5,12(sp)
   117a0:	8b22                	mv	s6,s0
   117a2:	c31c                	sw	a5,0(a4)
   117a4:	856ff06f          	j	107fa <_vfprintf_r+0x260>
   117a8:	5742                	lw	a4,48(sp)
   117aa:	56b2                	lw	a3,44(sp)
   117ac:	08a1                	addi	a7,a7,8
   117ae:	fee8ac23          	sw	a4,-8(a7)
   117b2:	572e                	lw	a4,232(sp)
   117b4:	97b6                	add	a5,a5,a3
   117b6:	fed8ae23          	sw	a3,-4(a7)
   117ba:	0705                	addi	a4,a4,1
   117bc:	d7be                	sw	a5,236(sp)
   117be:	d5ba                	sw	a4,232(sp)
   117c0:	469d                	li	a3,7
   117c2:	30e6ca63          	blt	a3,a4,11ad6 <_vfprintf_r+0x153c>
   117c6:	78064863          	bltz	a2,11f56 <_vfprintf_r+0x19bc>
   117ca:	5682                	lw	a3,32(sp)
   117cc:	0705                	addi	a4,a4,1
   117ce:	0168a023          	sw	s6,0(a7)
   117d2:	97b6                	add	a5,a5,a3
   117d4:	00d8a223          	sw	a3,4(a7)
   117d8:	d7be                	sw	a5,236(sp)
   117da:	d5ba                	sw	a4,232(sp)
   117dc:	469d                	li	a3,7
   117de:	00e6c463          	blt	a3,a4,117e6 <_vfprintf_r+0x124c>
   117e2:	fe3fe06f          	j	107c4 <_vfprintf_r+0x22a>
   117e6:	bd8ff06f          	j	10bbe <_vfprintf_r+0x624>
   117ea:	855a                	mv	a0,s6
   117ec:	c0e6                	sw	s9,64(sp)
   117ee:	d4bfe0ef          	jal	ra,10538 <strlen>
   117f2:	0c714783          	lbu	a5,199(sp)
   117f6:	fff54a93          	not	s5,a0
   117fa:	41fada93          	srai	s5,s5,0x1f
   117fe:	ca4a                	sw	s2,20(sp)
   11800:	c802                	sw	zero,16(sp)
   11802:	d402                	sw	zero,40(sp)
   11804:	d202                	sw	zero,36(sp)
   11806:	ce02                	sw	zero,28(sp)
   11808:	4886                	lw	a7,64(sp)
   1180a:	8caa                	mv	s9,a0
   1180c:	01557ab3          	and	s5,a0,s5
   11810:	4d81                	li	s11,0
   11812:	ca079d63          	bnez	a5,10ccc <_vfprintf_r+0x732>
   11816:	f1bfe06f          	j	10730 <_vfprintf_r+0x196>
   1181a:	200bf793          	andi	a5,s7,512
   1181e:	28078863          	beqz	a5,11aae <_vfprintf_r+0x1514>
   11822:	47d2                	lw	a5,20(sp)
   11824:	4901                	li	s2,0
   11826:	ca36                	sw	a3,20(sp)
   11828:	0007cc83          	lbu	s9,0(a5)
   1182c:	4785                	li	a5,1
   1182e:	d26ff06f          	j	10d54 <_vfprintf_r+0x7ba>
   11832:	200a7793          	andi	a5,s4,512
   11836:	26078563          	beqz	a5,11aa0 <_vfprintf_r+0x1506>
   1183a:	47d2                	lw	a5,20(sp)
   1183c:	4901                	li	s2,0
   1183e:	ca3a                	sw	a4,20(sp)
   11840:	0007cc83          	lbu	s9,0(a5)
   11844:	d76ff06f          	j	10dba <_vfprintf_r+0x820>
   11848:	200a7793          	andi	a5,s4,512
   1184c:	24078163          	beqz	a5,11a8e <_vfprintf_r+0x14f4>
   11850:	47d2                	lw	a5,20(sp)
   11852:	ca3a                	sw	a4,20(sp)
   11854:	00078c83          	lb	s9,0(a5)
   11858:	41fcd913          	srai	s2,s9,0x1f
   1185c:	87ca                	mv	a5,s2
   1185e:	dcaff06f          	j	10e28 <_vfprintf_r+0x88e>
   11862:	200a7793          	andi	a5,s4,512
   11866:	20078e63          	beqz	a5,11a82 <_vfprintf_r+0x14e8>
   1186a:	47d2                	lw	a5,20(sp)
   1186c:	4901                	li	s2,0
   1186e:	ca3a                	sw	a4,20(sp)
   11870:	0007cc83          	lbu	s9,0(a5)
   11874:	b14d                	j	11516 <_vfprintf_r+0xf7c>
   11876:	57fe                	lw	a5,252(sp)
   11878:	2407c363          	bltz	a5,11abe <_vfprintf_r+0x1524>
   1187c:	0c714783          	lbu	a5,199(sp)
   11880:	04700713          	li	a4,71
   11884:	6a975763          	bge	a4,s1,11f32 <_vfprintf_r+0x1998>
   11888:	6879                	lui	a6,0x1e
   1188a:	6cc80b13          	addi	s6,a6,1740 # 1e6cc <__clzsi2+0x9e>
   1188e:	bddd                	j	11784 <_vfprintf_r+0x11ea>
   11890:	46a2                	lw	a3,8(sp)
   11892:	97a6                	add	a5,a5,s1
   11894:	0705                	addi	a4,a4,1
   11896:	00d8a023          	sw	a3,0(a7)
   1189a:	0098a223          	sw	s1,4(a7)
   1189e:	d7be                	sw	a5,236(sp)
   118a0:	d5ba                	sw	a4,232(sp)
   118a2:	469d                	li	a3,7
   118a4:	08a1                	addi	a7,a7,8
   118a6:	9ce6d3e3          	bge	a3,a4,1126c <_vfprintf_r+0xcd2>
   118aa:	11d0                	addi	a2,sp,228
   118ac:	85e2                	mv	a1,s8
   118ae:	856a                	mv	a0,s10
   118b0:	4de070ef          	jal	ra,18d8e <__sprint_r>
   118b4:	8a051ce3          	bnez	a0,1116c <_vfprintf_r+0xbd2>
   118b8:	57be                	lw	a5,236(sp)
   118ba:	10c10893          	addi	a7,sp,268
   118be:	b27d                	j	1126c <_vfprintf_r+0xcd2>
   118c0:	5702                	lw	a4,32(sp)
   118c2:	5c92                	lw	s9,36(sp)
   118c4:	ce52                	sw	s4,28(sp)
   118c6:	c0a2                	sw	s0,64(sp)
   118c8:	c2ce                	sw	s3,68(sp)
   118ca:	d256                	sw	s5,36(sp)
   118cc:	59a2                	lw	s3,40(sp)
   118ce:	d45a                	sw	s6,40(sp)
   118d0:	00eb0bb3          	add	s7,s6,a4
   118d4:	5472                	lw	s0,60(sp)
   118d6:	4a26                	lw	s4,72(sp)
   118d8:	4ab6                	lw	s5,76(sp)
   118da:	449d                	li	s1,7
   118dc:	4941                	li	s2,16
   118de:	8b62                	mv	s6,s8
   118e0:	060c8663          	beqz	s9,1194c <_vfprintf_r+0x13b2>
   118e4:	06099663          	bnez	s3,11950 <_vfprintf_r+0x13b6>
   118e8:	147d                	addi	s0,s0,-1
   118ea:	1cfd                	addi	s9,s9,-1
   118ec:	572e                	lw	a4,232(sp)
   118ee:	97d2                	add	a5,a5,s4
   118f0:	0158a023          	sw	s5,0(a7)
   118f4:	0705                	addi	a4,a4,1
   118f6:	0148a223          	sw	s4,4(a7)
   118fa:	d7be                	sw	a5,236(sp)
   118fc:	d5ba                	sw	a4,232(sp)
   118fe:	08a1                	addi	a7,a7,8
   11900:	0ae4cb63          	blt	s1,a4,119b6 <_vfprintf_r+0x141c>
   11904:	00044683          	lbu	a3,0(s0)
   11908:	41bb8633          	sub	a2,s7,s11
   1190c:	8c36                	mv	s8,a3
   1190e:	00d65363          	bge	a2,a3,11914 <_vfprintf_r+0x137a>
   11912:	8c32                	mv	s8,a2
   11914:	03805063          	blez	s8,11934 <_vfprintf_r+0x139a>
   11918:	56ae                	lw	a3,232(sp)
   1191a:	97e2                	add	a5,a5,s8
   1191c:	01b8a023          	sw	s11,0(a7)
   11920:	0685                	addi	a3,a3,1
   11922:	0188a223          	sw	s8,4(a7)
   11926:	d7be                	sw	a5,236(sp)
   11928:	d5b6                	sw	a3,232(sp)
   1192a:	0ad4c163          	blt	s1,a3,119cc <_vfprintf_r+0x1432>
   1192e:	00044683          	lbu	a3,0(s0)
   11932:	08a1                	addi	a7,a7,8
   11934:	fffc4613          	not	a2,s8
   11938:	867d                	srai	a2,a2,0x1f
   1193a:	00cc7733          	and	a4,s8,a2
   1193e:	40e68c33          	sub	s8,a3,a4
   11942:	01804963          	bgtz	s8,11954 <_vfprintf_r+0x13ba>
   11946:	9db6                	add	s11,s11,a3
   11948:	f80c9ee3          	bnez	s9,118e4 <_vfprintf_r+0x134a>
   1194c:	3c098963          	beqz	s3,11d1e <_vfprintf_r+0x1784>
   11950:	19fd                	addi	s3,s3,-1
   11952:	bf69                	j	118ec <_vfprintf_r+0x1352>
   11954:	56ae                	lw	a3,232(sp)
   11956:	01894663          	blt	s2,s8,11962 <_vfprintf_r+0x13c8>
   1195a:	a835                	j	11996 <_vfprintf_r+0x13fc>
   1195c:	1c41                	addi	s8,s8,-16
   1195e:	03895c63          	bge	s2,s8,11996 <_vfprintf_r+0x13fc>
   11962:	4722                	lw	a4,8(sp)
   11964:	07c1                	addi	a5,a5,16
   11966:	0685                	addi	a3,a3,1
   11968:	00e8a023          	sw	a4,0(a7)
   1196c:	0128a223          	sw	s2,4(a7)
   11970:	d7be                	sw	a5,236(sp)
   11972:	d5b6                	sw	a3,232(sp)
   11974:	08a1                	addi	a7,a7,8
   11976:	fed4d3e3          	bge	s1,a3,1195c <_vfprintf_r+0x13c2>
   1197a:	11d0                	addi	a2,sp,228
   1197c:	85da                	mv	a1,s6
   1197e:	856a                	mv	a0,s10
   11980:	40e070ef          	jal	ra,18d8e <__sprint_r>
   11984:	40051d63          	bnez	a0,11d9e <_vfprintf_r+0x1804>
   11988:	1c41                	addi	s8,s8,-16
   1198a:	57be                	lw	a5,236(sp)
   1198c:	56ae                	lw	a3,232(sp)
   1198e:	10c10893          	addi	a7,sp,268
   11992:	fd8948e3          	blt	s2,s8,11962 <_vfprintf_r+0x13c8>
   11996:	4722                	lw	a4,8(sp)
   11998:	97e2                	add	a5,a5,s8
   1199a:	0685                	addi	a3,a3,1
   1199c:	00e8a023          	sw	a4,0(a7)
   119a0:	0188a223          	sw	s8,4(a7)
   119a4:	d7be                	sw	a5,236(sp)
   119a6:	d5b6                	sw	a3,232(sp)
   119a8:	40d4c963          	blt	s1,a3,11dba <_vfprintf_r+0x1820>
   119ac:	00044683          	lbu	a3,0(s0)
   119b0:	08a1                	addi	a7,a7,8
   119b2:	9db6                	add	s11,s11,a3
   119b4:	bf51                	j	11948 <_vfprintf_r+0x13ae>
   119b6:	11d0                	addi	a2,sp,228
   119b8:	85da                	mv	a1,s6
   119ba:	856a                	mv	a0,s10
   119bc:	3d2070ef          	jal	ra,18d8e <__sprint_r>
   119c0:	3c051f63          	bnez	a0,11d9e <_vfprintf_r+0x1804>
   119c4:	57be                	lw	a5,236(sp)
   119c6:	10c10893          	addi	a7,sp,268
   119ca:	bf2d                	j	11904 <_vfprintf_r+0x136a>
   119cc:	11d0                	addi	a2,sp,228
   119ce:	85da                	mv	a1,s6
   119d0:	856a                	mv	a0,s10
   119d2:	3bc070ef          	jal	ra,18d8e <__sprint_r>
   119d6:	3c051463          	bnez	a0,11d9e <_vfprintf_r+0x1804>
   119da:	00044683          	lbu	a3,0(s0)
   119de:	57be                	lw	a5,236(sp)
   119e0:	10c10893          	addi	a7,sp,268
   119e4:	bf81                	j	11934 <_vfprintf_r+0x139a>
   119e6:	47a6                	lw	a5,72(sp)
   119e8:	45b6                	lw	a1,76(sp)
   119ea:	4901                	li	s2,0
   119ec:	8c1d                	sub	s0,s0,a5
   119ee:	863e                	mv	a2,a5
   119f0:	8522                	mv	a0,s0
   119f2:	5e2050ef          	jal	ra,16fd4 <strncpy>
   119f6:	001cc583          	lbu	a1,1(s9)
   119fa:	4629                	li	a2,10
   119fc:	4681                	li	a3,0
   119fe:	00b03833          	snez	a6,a1
   11a02:	8526                	mv	a0,s1
   11a04:	85ce                	mv	a1,s3
   11a06:	9cc2                	add	s9,s9,a6
   11a08:	2f9090ef          	jal	ra,1b500 <__udivdi3>
   11a0c:	b1b1                	j	11658 <_vfprintf_r+0x10be>
   11a0e:	47a5                	li	a5,9
   11a10:	c497e4e3          	bltu	a5,s1,11658 <_vfprintf_r+0x10be>
   11a14:	b9ad                	j	1168e <_vfprintf_r+0x10f4>
   11a16:	0705                	addi	a4,a4,1
   11a18:	00868893          	addi	a7,a3,8
   11a1c:	8936                	mv	s2,a3
   11a1e:	986ff06f          	j	10ba4 <_vfprintf_r+0x60a>
   11a22:	11d0                	addi	a2,sp,228
   11a24:	85e2                	mv	a1,s8
   11a26:	856a                	mv	a0,s10
   11a28:	366070ef          	jal	ra,18d8e <__sprint_r>
   11a2c:	f4051063          	bnez	a0,1116c <_vfprintf_r+0xbd2>
   11a30:	463e                	lw	a2,204(sp)
   11a32:	57be                	lw	a5,236(sp)
   11a34:	10c10893          	addi	a7,sp,268
   11a38:	b951                	j	116cc <_vfprintf_r+0x1132>
   11a3a:	6879                	lui	a6,0x1e
   11a3c:	6c080b13          	addi	s6,a6,1728 # 1e6c0 <__clzsi2+0x92>
   11a40:	b391                	j	11784 <_vfprintf_r+0x11ea>
   11a42:	11d0                	addi	a2,sp,228
   11a44:	85e2                	mv	a1,s8
   11a46:	856a                	mv	a0,s10
   11a48:	346070ef          	jal	ra,18d8e <__sprint_r>
   11a4c:	f2051063          	bnez	a0,1116c <_vfprintf_r+0xbd2>
   11a50:	57be                	lw	a5,236(sp)
   11a52:	10c10893          	addi	a7,sp,268
   11a56:	805ff06f          	j	1125a <_vfprintf_r+0xcc0>
   11a5a:	4c99                	li	s9,6
   11a5c:	b62d                	j	11586 <_vfprintf_r+0xfec>
   11a5e:	5702                	lw	a4,32(sp)
   11a60:	00eb0833          	add	a6,s6,a4
   11a64:	409704b3          	sub	s1,a4,s1
   11a68:	41b806b3          	sub	a3,a6,s11
   11a6c:	8926                	mv	s2,s1
   11a6e:	8696d7e3          	bge	a3,s1,112dc <_vfprintf_r+0xd42>
   11a72:	8936                	mv	s2,a3
   11a74:	b0a5                	j	112dc <_vfprintf_r+0xd42>
   11a76:	47b2                	lw	a5,12(sp)
   11a78:	8b22                	mv	s6,s0
   11a7a:	00f71023          	sh	a5,0(a4)
   11a7e:	d7dfe06f          	j	107fa <_vfprintf_r+0x260>
   11a82:	47d2                	lw	a5,20(sp)
   11a84:	4901                	li	s2,0
   11a86:	ca3a                	sw	a4,20(sp)
   11a88:	0007ac83          	lw	s9,0(a5)
   11a8c:	b469                	j	11516 <_vfprintf_r+0xf7c>
   11a8e:	47d2                	lw	a5,20(sp)
   11a90:	ca3a                	sw	a4,20(sp)
   11a92:	0007ac83          	lw	s9,0(a5)
   11a96:	41fcd913          	srai	s2,s9,0x1f
   11a9a:	87ca                	mv	a5,s2
   11a9c:	b8cff06f          	j	10e28 <_vfprintf_r+0x88e>
   11aa0:	47d2                	lw	a5,20(sp)
   11aa2:	4901                	li	s2,0
   11aa4:	ca3a                	sw	a4,20(sp)
   11aa6:	0007ac83          	lw	s9,0(a5)
   11aaa:	b10ff06f          	j	10dba <_vfprintf_r+0x820>
   11aae:	47d2                	lw	a5,20(sp)
   11ab0:	4901                	li	s2,0
   11ab2:	ca36                	sw	a3,20(sp)
   11ab4:	0007ac83          	lw	s9,0(a5)
   11ab8:	4785                	li	a5,1
   11aba:	a9aff06f          	j	10d54 <_vfprintf_r+0x7ba>
   11abe:	02d00793          	li	a5,45
   11ac2:	0cf103a3          	sb	a5,199(sp)
   11ac6:	bb6d                	j	11880 <_vfprintf_r+0x12e6>
   11ac8:	11d0                	addi	a2,sp,228
   11aca:	85e2                	mv	a1,s8
   11acc:	856a                	mv	a0,s10
   11ace:	2c0070ef          	jal	ra,18d8e <__sprint_r>
   11ad2:	d39fe06f          	j	1080a <_vfprintf_r+0x270>
   11ad6:	11d0                	addi	a2,sp,228
   11ad8:	85e2                	mv	a1,s8
   11ada:	856a                	mv	a0,s10
   11adc:	2b2070ef          	jal	ra,18d8e <__sprint_r>
   11ae0:	e8051663          	bnez	a0,1116c <_vfprintf_r+0xbd2>
   11ae4:	463e                	lw	a2,204(sp)
   11ae6:	57be                	lw	a5,236(sp)
   11ae8:	572e                	lw	a4,232(sp)
   11aea:	10c10893          	addi	a7,sp,268
   11aee:	b9e1                	j	117c6 <_vfprintf_r+0x122c>
   11af0:	03000793          	li	a5,48
   11af4:	0cf10423          	sb	a5,200(sp)
   11af8:	05800793          	li	a5,88
   11afc:	002a6713          	ori	a4,s4,2
   11b00:	0cf104a3          	sb	a5,201(sp)
   11b04:	c8ba                	sw	a4,80(sp)
   11b06:	06300793          	li	a5,99
   11b0a:	c802                	sw	zero,16(sp)
   11b0c:	14c10b13          	addi	s6,sp,332
   11b10:	4fb7c363          	blt	a5,s11,11ff6 <_vfprintf_r+0x1a5c>
   11b14:	5bfe                	lw	s7,252(sp)
   11b16:	fdf4f793          	andi	a5,s1,-33
   11b1a:	d43e                	sw	a5,40(sp)
   11b1c:	cc82                	sw	zero,88(sp)
   11b1e:	5e4e                	lw	t3,240(sp)
   11b20:	5ede                	lw	t4,244(sp)
   11b22:	5f6e                	lw	t5,248(sp)
   11b24:	102a6a13          	ori	s4,s4,258
   11b28:	280bc163          	bltz	s7,11daa <_vfprintf_r+0x1810>
   11b2c:	06100793          	li	a5,97
   11b30:	60f48c63          	beq	s1,a5,12148 <_vfprintf_r+0x1bae>
   11b34:	04100793          	li	a5,65
   11b38:	00f48463          	beq	s1,a5,11b40 <_vfprintf_r+0x15a6>
   11b3c:	e35fe06f          	j	10970 <_vfprintf_r+0x3d6>
   11b40:	0b010a93          	addi	s5,sp,176
   11b44:	8556                	mv	a0,s5
   11b46:	cac6                	sw	a7,84(sp)
   11b48:	d972                	sw	t3,176(sp)
   11b4a:	db76                	sw	t4,180(sp)
   11b4c:	dd7a                	sw	t5,184(sp)
   11b4e:	df5e                	sw	s7,188(sp)
   11b50:	0a30c0ef          	jal	ra,1e3f2 <__trunctfdf2>
   11b54:	01f0                	addi	a2,sp,204
   11b56:	10e050ef          	jal	ra,16c64 <frexp>
   11b5a:	862e                	mv	a2,a1
   11b5c:	85aa                	mv	a1,a0
   11b5e:	8556                	mv	a0,s5
   11b60:	7420c0ef          	jal	ra,1e2a2 <__extenddftf2>
   11b64:	57ca                	lw	a5,176(sp)
   11b66:	0a010c93          	addi	s9,sp,160
   11b6a:	09010913          	addi	s2,sp,144
   11b6e:	c93e                	sw	a5,144(sp)
   11b70:	57da                	lw	a5,180(sp)
   11b72:	0110                	addi	a2,sp,128
   11b74:	85ca                	mv	a1,s2
   11b76:	cb3e                	sw	a5,148(sp)
   11b78:	57ea                	lw	a5,184(sp)
   11b7a:	8566                	mv	a0,s9
   11b7c:	c0b2                	sw	a2,64(sp)
   11b7e:	cd3e                	sw	a5,152(sp)
   11b80:	57fa                	lw	a5,188(sp)
   11b82:	c102                	sw	zero,128(sp)
   11b84:	c302                	sw	zero,132(sp)
   11b86:	cf3e                	sw	a5,156(sp)
   11b88:	3ffc07b7          	lui	a5,0x3ffc0
   11b8c:	c73e                	sw	a5,140(sp)
   11b8e:	c502                	sw	zero,136(sp)
   11b90:	41b0a0ef          	jal	ra,1c7aa <__multf3>
   11b94:	568a                	lw	a3,160(sp)
   11b96:	5e1a                	lw	t3,164(sp)
   11b98:	5eaa                	lw	t4,168(sp)
   11b9a:	5f3a                	lw	t5,172(sp)
   11b9c:	85e6                	mv	a1,s9
   11b9e:	8556                	mv	a0,s5
   11ba0:	d936                	sw	a3,176(sp)
   11ba2:	c2b6                	sw	a3,68(sp)
   11ba4:	db72                	sw	t3,180(sp)
   11ba6:	d272                	sw	t3,36(sp)
   11ba8:	dd76                	sw	t4,184(sp)
   11baa:	d076                	sw	t4,32(sp)
   11bac:	df7a                	sw	t5,188(sp)
   11bae:	ce7a                	sw	t5,28(sp)
   11bb0:	d102                	sw	zero,160(sp)
   11bb2:	d302                	sw	zero,164(sp)
   11bb4:	d502                	sw	zero,168(sp)
   11bb6:	d702                	sw	zero,172(sp)
   11bb8:	1650a0ef          	jal	ra,1c51c <__eqtf2>
   11bbc:	4f72                	lw	t5,28(sp)
   11bbe:	5e82                	lw	t4,32(sp)
   11bc0:	5e12                	lw	t3,36(sp)
   11bc2:	4696                	lw	a3,68(sp)
   11bc4:	48d6                	lw	a7,84(sp)
   11bc6:	e119                	bnez	a0,11bcc <_vfprintf_r+0x1632>
   11bc8:	4785                	li	a5,1
   11bca:	c7be                	sw	a5,204(sp)
   11bcc:	67f9                	lui	a5,0x1e
   11bce:	6e478793          	addi	a5,a5,1764 # 1e6e4 <__clzsi2+0xb6>
   11bd2:	d23e                	sw	a5,36(sp)
   11bd4:	fffd8713          	addi	a4,s11,-1
   11bd8:	ced2                	sw	s4,92(sp)
   11bda:	d2a6                	sw	s1,100(sp)
   11bdc:	d6ee                	sw	s11,108(sp)
   11bde:	daea                	sw	s10,116(sp)
   11be0:	dce2                	sw	s8,120(sp)
   11be2:	d0a2                	sw	s0,96(sp)
   11be4:	d4ce                	sw	s3,104(sp)
   11be6:	d8c6                	sw	a7,112(sp)
   11be8:	8c5a                	mv	s8,s6
   11bea:	8bba                	mv	s7,a4
   11bec:	deda                	sw	s6,124(sp)
   11bee:	8d36                	mv	s10,a3
   11bf0:	8df2                	mv	s11,t3
   11bf2:	84f6                	mv	s1,t4
   11bf4:	8a7a                	mv	s4,t5
   11bf6:	a01d                	j	11c1c <_vfprintf_r+0x1682>
   11bf8:	85e6                	mv	a1,s9
   11bfa:	8556                	mv	a0,s5
   11bfc:	d032                	sw	a2,32(sp)
   11bfe:	ce7e                	sw	t6,28(sp)
   11c00:	dd7e                	sw	t6,184(sp)
   11c02:	df32                	sw	a2,188(sp)
   11c04:	d95a                	sw	s6,176(sp)
   11c06:	db4e                	sw	s3,180(sp)
   11c08:	d102                	sw	zero,160(sp)
   11c0a:	d302                	sw	zero,164(sp)
   11c0c:	d502                	sw	zero,168(sp)
   11c0e:	d702                	sw	zero,172(sp)
   11c10:	10d0a0ef          	jal	ra,1c51c <__eqtf2>
   11c14:	1bfd                	addi	s7,s7,-1
   11c16:	8fa6                	mv	t6,s1
   11c18:	8652                	mv	a2,s4
   11c1a:	c151                	beqz	a0,11c9e <_vfprintf_r+0x1704>
   11c1c:	400307b7          	lui	a5,0x40030
   11c20:	864a                	mv	a2,s2
   11c22:	85e6                	mv	a1,s9
   11c24:	8556                	mv	a0,s5
   11c26:	cf3e                	sw	a5,156(sp)
   11c28:	d16a                	sw	s10,160(sp)
   11c2a:	d36e                	sw	s11,164(sp)
   11c2c:	d526                	sw	s1,168(sp)
   11c2e:	d752                	sw	s4,172(sp)
   11c30:	c902                	sw	zero,144(sp)
   11c32:	cb02                	sw	zero,148(sp)
   11c34:	cd02                	sw	zero,152(sp)
   11c36:	3750a0ef          	jal	ra,1c7aa <__multf3>
   11c3a:	8556                	mv	a0,s5
   11c3c:	4da0c0ef          	jal	ra,1e116 <__fixtfsi>
   11c40:	85aa                	mv	a1,a0
   11c42:	842a                	mv	s0,a0
   11c44:	8556                	mv	a0,s5
   11c46:	59ca                	lw	s3,176(sp)
   11c48:	54da                	lw	s1,180(sp)
   11c4a:	5b6a                	lw	s6,184(sp)
   11c4c:	5a7a                	lw	s4,188(sp)
   11c4e:	5840c0ef          	jal	ra,1e1d2 <__floatsitf>
   11c52:	56ca                	lw	a3,176(sp)
   11c54:	4606                	lw	a2,64(sp)
   11c56:	85ca                	mv	a1,s2
   11c58:	c136                	sw	a3,128(sp)
   11c5a:	56da                	lw	a3,180(sp)
   11c5c:	8566                	mv	a0,s9
   11c5e:	c94e                	sw	s3,144(sp)
   11c60:	c336                	sw	a3,132(sp)
   11c62:	56ea                	lw	a3,184(sp)
   11c64:	cb26                	sw	s1,148(sp)
   11c66:	cd5a                	sw	s6,152(sp)
   11c68:	c536                	sw	a3,136(sp)
   11c6a:	56fa                	lw	a3,188(sp)
   11c6c:	cf52                	sw	s4,156(sp)
   11c6e:	c736                	sw	a3,140(sp)
   11c70:	6480b0ef          	jal	ra,1d2b8 <__subtf3>
   11c74:	5792                	lw	a5,36(sp)
   11c76:	5b0a                	lw	s6,160(sp)
   11c78:	599a                	lw	s3,164(sp)
   11c7a:	008786b3          	add	a3,a5,s0
   11c7e:	0006c683          	lbu	a3,0(a3)
   11c82:	5faa                	lw	t6,168(sp)
   11c84:	563a                	lw	a2,172(sp)
   11c86:	cae2                	sw	s8,84(sp)
   11c88:	00dc0023          	sb	a3,0(s8)
   11c8c:	c2de                	sw	s7,68(sp)
   11c8e:	57fd                	li	a5,-1
   11c90:	0c05                	addi	s8,s8,1
   11c92:	8d5a                	mv	s10,s6
   11c94:	8dce                	mv	s11,s3
   11c96:	84fe                	mv	s1,t6
   11c98:	8a32                	mv	s4,a2
   11c9a:	f4fb9fe3          	bne	s7,a5,11bf8 <_vfprintf_r+0x165e>
   11c9e:	58c6                	lw	a7,112(sp)
   11ca0:	83da                	mv	t2,s6
   11ca2:	82ce                	mv	t0,s3
   11ca4:	3ffe0937          	lui	s2,0x3ffe0
   11ca8:	85e6                	mv	a1,s9
   11caa:	8556                	mv	a0,s5
   11cac:	d046                	sw	a7,32(sp)
   11cae:	ce22                	sw	s0,28(sp)
   11cb0:	4a76                	lw	s4,92(sp)
   11cb2:	5496                	lw	s1,100(sp)
   11cb4:	5406                	lw	s0,96(sp)
   11cb6:	d91e                	sw	t2,176(sp)
   11cb8:	d29e                	sw	t2,100(sp)
   11cba:	db16                	sw	t0,180(sp)
   11cbc:	d096                	sw	t0,96(sp)
   11cbe:	dd7e                	sw	t6,184(sp)
   11cc0:	cefe                	sw	t6,92(sp)
   11cc2:	df32                	sw	a2,188(sp)
   11cc4:	c0b2                	sw	a2,64(sp)
   11cc6:	d102                	sw	zero,160(sp)
   11cc8:	d302                	sw	zero,164(sp)
   11cca:	d502                	sw	zero,168(sp)
   11ccc:	d74a                	sw	s2,172(sp)
   11cce:	0f50a0ef          	jal	ra,1c5c2 <__getf2>
   11cd2:	8be2                	mv	s7,s8
   11cd4:	5db6                	lw	s11,108(sp)
   11cd6:	5d56                	lw	s10,116(sp)
   11cd8:	5c66                	lw	s8,120(sp)
   11cda:	5b76                	lw	s6,124(sp)
   11cdc:	59a6                	lw	s3,104(sp)
   11cde:	5882                	lw	a7,32(sp)
   11ce0:	32a04763          	bgtz	a0,1200e <_vfprintf_r+0x1a74>
   11ce4:	85e6                	mv	a1,s9
   11ce6:	8556                	mv	a0,s5
   11ce8:	0350a0ef          	jal	ra,1c51c <__eqtf2>
   11cec:	5882                	lw	a7,32(sp)
   11cee:	e511                	bnez	a0,11cfa <_vfprintf_r+0x1760>
   11cf0:	47f2                	lw	a5,28(sp)
   11cf2:	0017fc93          	andi	s9,a5,1
   11cf6:	300c9c63          	bnez	s9,1200e <_vfprintf_r+0x1a74>
   11cfa:	4796                	lw	a5,68(sp)
   11cfc:	03000693          	li	a3,48
   11d00:	00178713          	addi	a4,a5,1 # 40030001 <__BSS_END__+0x4000f0d9>
   11d04:	975e                	add	a4,a4,s7
   11d06:	0007c763          	bltz	a5,11d14 <_vfprintf_r+0x177a>
   11d0a:	0b85                	addi	s7,s7,1
   11d0c:	fedb8fa3          	sb	a3,-1(s7)
   11d10:	ff771de3          	bne	a4,s7,11d0a <_vfprintf_r+0x1770>
   11d14:	416b87b3          	sub	a5,s7,s6
   11d18:	d03e                	sw	a5,32(sp)
   11d1a:	cc3fe06f          	j	109dc <_vfprintf_r+0x442>
   11d1e:	5702                	lw	a4,32(sp)
   11d20:	8c5a                	mv	s8,s6
   11d22:	5b22                	lw	s6,40(sp)
   11d24:	de22                	sw	s0,60(sp)
   11d26:	4a72                	lw	s4,28(sp)
   11d28:	975a                	add	a4,a4,s6
   11d2a:	4406                	lw	s0,64(sp)
   11d2c:	4996                	lw	s3,68(sp)
   11d2e:	5a92                	lw	s5,36(sp)
   11d30:	d5b77563          	bgeu	a4,s11,1127a <_vfprintf_r+0xce0>
   11d34:	8dba                	mv	s11,a4
   11d36:	d44ff06f          	j	1127a <_vfprintf_r+0xce0>
   11d3a:	4772                	lw	a4,28(sp)
   11d3c:	57f5                	li	a5,-3
   11d3e:	00f74463          	blt	a4,a5,11d46 <_vfprintf_r+0x17ac>
   11d42:	02edd063          	bge	s11,a4,11d62 <_vfprintf_r+0x17c8>
   11d46:	14f9                	addi	s1,s1,-2
   11d48:	fdf4f793          	andi	a5,s1,-33
   11d4c:	d43e                	sw	a5,40(sp)
   11d4e:	caffe06f          	j	109fc <_vfprintf_r+0x462>
   11d52:	0c714783          	lbu	a5,199(sp)
   11d56:	4d81                	li	s11,0
   11d58:	c399                	beqz	a5,11d5e <_vfprintf_r+0x17c4>
   11d5a:	f73fe06f          	j	10ccc <_vfprintf_r+0x732>
   11d5e:	9d3fe06f          	j	10730 <_vfprintf_r+0x196>
   11d62:	4772                	lw	a4,28(sp)
   11d64:	5782                	lw	a5,32(sp)
   11d66:	1af74163          	blt	a4,a5,11f08 <_vfprintf_r+0x196e>
   11d6a:	47c6                	lw	a5,80(sp)
   11d6c:	8cba                	mv	s9,a4
   11d6e:	8b85                	andi	a5,a5,1
   11d70:	c781                	beqz	a5,11d78 <_vfprintf_r+0x17de>
   11d72:	57b2                	lw	a5,44(sp)
   11d74:	00f70cb3          	add	s9,a4,a5
   11d78:	47c6                	lw	a5,80(sp)
   11d7a:	4007f793          	andi	a5,a5,1024
   11d7e:	c781                	beqz	a5,11d86 <_vfprintf_r+0x17ec>
   11d80:	47f2                	lw	a5,28(sp)
   11d82:	34f04163          	bgtz	a5,120c4 <_vfprintf_r+0x1b2a>
   11d86:	fffcca93          	not	s5,s9
   11d8a:	41fada93          	srai	s5,s5,0x1f
   11d8e:	015cfab3          	and	s5,s9,s5
   11d92:	06700493          	li	s1,103
   11d96:	d402                	sw	zero,40(sp)
   11d98:	d202                	sw	zero,36(sp)
   11d9a:	d3dfe06f          	j	10ad6 <_vfprintf_r+0x53c>
   11d9e:	4bc2                	lw	s7,16(sp)
   11da0:	8c5a                	mv	s8,s6
   11da2:	bccff06f          	j	1116e <_vfprintf_r+0xbd4>
   11da6:	c802                	sw	zero,16(sp)
   11da8:	8a3e                	mv	s4,a5
   11daa:	800007b7          	lui	a5,0x80000
   11dae:	0177cbb3          	xor	s7,a5,s7
   11db2:	02d00793          	li	a5,45
   11db6:	ccbe                	sw	a5,88(sp)
   11db8:	bb95                	j	11b2c <_vfprintf_r+0x1592>
   11dba:	11d0                	addi	a2,sp,228
   11dbc:	85da                	mv	a1,s6
   11dbe:	856a                	mv	a0,s10
   11dc0:	7cf060ef          	jal	ra,18d8e <__sprint_r>
   11dc4:	fd69                	bnez	a0,11d9e <_vfprintf_r+0x1804>
   11dc6:	00044683          	lbu	a3,0(s0)
   11dca:	57be                	lw	a5,236(sp)
   11dcc:	10c10893          	addi	a7,sp,268
   11dd0:	9db6                	add	s11,s11,a3
   11dd2:	be9d                	j	11948 <_vfprintf_r+0x13ae>
   11dd4:	0b010a93          	addi	s5,sp,176
   11dd8:	099c                	addi	a5,sp,208
   11dda:	01f8                	addi	a4,sp,204
   11ddc:	0dc10813          	addi	a6,sp,220
   11de0:	86ee                	mv	a3,s11
   11de2:	460d                	li	a2,3
   11de4:	85d6                	mv	a1,s5
   11de6:	856a                	mv	a0,s10
   11de8:	c0c6                	sw	a7,64(sp)
   11dea:	d972                	sw	t3,176(sp)
   11dec:	d272                	sw	t3,36(sp)
   11dee:	db76                	sw	t4,180(sp)
   11df0:	d076                	sw	t4,32(sp)
   11df2:	dd7a                	sw	t5,184(sp)
   11df4:	ce7a                	sw	t5,28(sp)
   11df6:	df5e                	sw	s7,188(sp)
   11df8:	5a6020ef          	jal	ra,1439e <_ldtoa_r>
   11dfc:	00054703          	lbu	a4,0(a0)
   11e00:	03000793          	li	a5,48
   11e04:	4f72                	lw	t5,28(sp)
   11e06:	5e82                	lw	t4,32(sp)
   11e08:	5e12                	lw	t3,36(sp)
   11e0a:	4886                	lw	a7,64(sp)
   11e0c:	8b2a                	mv	s6,a0
   11e0e:	0a010c93          	addi	s9,sp,160
   11e12:	04f70963          	beq	a4,a5,11e64 <_vfprintf_r+0x18ca>
   11e16:	47be                	lw	a5,204(sp)
   11e18:	97ee                	add	a5,a5,s11
   11e1a:	00fb0933          	add	s2,s6,a5
   11e1e:	85e6                	mv	a1,s9
   11e20:	8556                	mv	a0,s5
   11e22:	ce46                	sw	a7,28(sp)
   11e24:	d972                	sw	t3,176(sp)
   11e26:	db76                	sw	t4,180(sp)
   11e28:	dd7a                	sw	t5,184(sp)
   11e2a:	df5e                	sw	s7,188(sp)
   11e2c:	d102                	sw	zero,160(sp)
   11e2e:	d302                	sw	zero,164(sp)
   11e30:	d502                	sw	zero,168(sp)
   11e32:	d702                	sw	zero,172(sp)
   11e34:	6e80a0ef          	jal	ra,1c51c <__eqtf2>
   11e38:	48f2                	lw	a7,28(sp)
   11e3a:	86ca                	mv	a3,s2
   11e3c:	e119                	bnez	a0,11e42 <_vfprintf_r+0x18a8>
   11e3e:	b99fe06f          	j	109d6 <_vfprintf_r+0x43c>
   11e42:	46fe                	lw	a3,220(sp)
   11e44:	0126e463          	bltu	a3,s2,11e4c <_vfprintf_r+0x18b2>
   11e48:	b8ffe06f          	j	109d6 <_vfprintf_r+0x43c>
   11e4c:	03000713          	li	a4,48
   11e50:	00168793          	addi	a5,a3,1
   11e54:	cfbe                	sw	a5,220(sp)
   11e56:	00e68023          	sb	a4,0(a3)
   11e5a:	46fe                	lw	a3,220(sp)
   11e5c:	ff26eae3          	bltu	a3,s2,11e50 <_vfprintf_r+0x18b6>
   11e60:	b77fe06f          	j	109d6 <_vfprintf_r+0x43c>
   11e64:	0a010c93          	addi	s9,sp,160
   11e68:	85e6                	mv	a1,s9
   11e6a:	8556                	mv	a0,s5
   11e6c:	c0c6                	sw	a7,64(sp)
   11e6e:	d972                	sw	t3,176(sp)
   11e70:	d272                	sw	t3,36(sp)
   11e72:	db76                	sw	t4,180(sp)
   11e74:	d076                	sw	t4,32(sp)
   11e76:	dd7a                	sw	t5,184(sp)
   11e78:	ce7a                	sw	t5,28(sp)
   11e7a:	df5e                	sw	s7,188(sp)
   11e7c:	d102                	sw	zero,160(sp)
   11e7e:	d302                	sw	zero,164(sp)
   11e80:	d502                	sw	zero,168(sp)
   11e82:	d702                	sw	zero,172(sp)
   11e84:	6980a0ef          	jal	ra,1c51c <__eqtf2>
   11e88:	4f72                	lw	t5,28(sp)
   11e8a:	5e82                	lw	t4,32(sp)
   11e8c:	5e12                	lw	t3,36(sp)
   11e8e:	4886                	lw	a7,64(sp)
   11e90:	d159                	beqz	a0,11e16 <_vfprintf_r+0x187c>
   11e92:	4785                	li	a5,1
   11e94:	41b787b3          	sub	a5,a5,s11
   11e98:	c7be                	sw	a5,204(sp)
   11e9a:	bfbd                	j	11e18 <_vfprintf_r+0x187e>
   11e9c:	02d00793          	li	a5,45
   11ea0:	0cf103a3          	sb	a5,199(sp)
   11ea4:	b8c9                	j	11776 <_vfprintf_r+0x11dc>
   11ea6:	11d0                	addi	a2,sp,228
   11ea8:	85e2                	mv	a1,s8
   11eaa:	856a                	mv	a0,s10
   11eac:	6e3060ef          	jal	ra,18d8e <__sprint_r>
   11eb0:	aa051e63          	bnez	a0,1116c <_vfprintf_r+0xbd2>
   11eb4:	44be                	lw	s1,204(sp)
   11eb6:	57be                	lw	a5,236(sp)
   11eb8:	10c10893          	addi	a7,sp,268
   11ebc:	becff06f          	j	112a8 <_vfprintf_r+0xd0e>
   11ec0:	0001f637          	lui	a2,0x1f
   11ec4:	87060e93          	addi	t4,a2,-1936 # 1e870 <blanks.1>
   11ec8:	b20ff06f          	j	111e8 <_vfprintf_r+0xc4e>
   11ecc:	0c714783          	lbu	a5,199(sp)
   11ed0:	ca4a                	sw	s2,20(sp)
   11ed2:	d402                	sw	zero,40(sp)
   11ed4:	d202                	sw	zero,36(sp)
   11ed6:	ce02                	sw	zero,28(sp)
   11ed8:	8aee                	mv	s5,s11
   11eda:	8cee                	mv	s9,s11
   11edc:	4d81                	li	s11,0
   11ede:	c399                	beqz	a5,11ee4 <_vfprintf_r+0x194a>
   11ee0:	dedfe06f          	j	10ccc <_vfprintf_r+0x732>
   11ee4:	84dfe06f          	j	10730 <_vfprintf_r+0x196>
   11ee8:	11d0                	addi	a2,sp,228
   11eea:	85e2                	mv	a1,s8
   11eec:	856a                	mv	a0,s10
   11eee:	6a1060ef          	jal	ra,18d8e <__sprint_r>
   11ef2:	a6051d63          	bnez	a0,1116c <_vfprintf_r+0xbd2>
   11ef6:	44be                	lw	s1,204(sp)
   11ef8:	5702                	lw	a4,32(sp)
   11efa:	57be                	lw	a5,236(sp)
   11efc:	10c10893          	addi	a7,sp,268
   11f00:	409704b3          	sub	s1,a4,s1
   11f04:	bd8ff06f          	j	112dc <_vfprintf_r+0xd42>
   11f08:	5782                	lw	a5,32(sp)
   11f0a:	5732                	lw	a4,44(sp)
   11f0c:	06700493          	li	s1,103
   11f10:	00e78cb3          	add	s9,a5,a4
   11f14:	47f2                	lw	a5,28(sp)
   11f16:	2cf05463          	blez	a5,121de <_vfprintf_r+0x1c44>
   11f1a:	47c6                	lw	a5,80(sp)
   11f1c:	4007f793          	andi	a5,a5,1024
   11f20:	1a079463          	bnez	a5,120c8 <_vfprintf_r+0x1b2e>
   11f24:	fffcca93          	not	s5,s9
   11f28:	41fada93          	srai	s5,s5,0x1f
   11f2c:	015cfab3          	and	s5,s9,s5
   11f30:	b59d                	j	11d96 <_vfprintf_r+0x17fc>
   11f32:	6879                	lui	a6,0x1e
   11f34:	6c880b13          	addi	s6,a6,1736 # 1e6c8 <__clzsi2+0x9a>
   11f38:	84dff06f          	j	11784 <_vfprintf_r+0x11ea>
   11f3c:	47c6                	lw	a5,80(sp)
   11f3e:	4772                	lw	a4,28(sp)
   11f40:	8b85                	andi	a5,a5,1
   11f42:	01b7e7b3          	or	a5,a5,s11
   11f46:	2ae05d63          	blez	a4,12200 <_vfprintf_r+0x1c66>
   11f4a:	16079663          	bnez	a5,120b6 <_vfprintf_r+0x1b1c>
   11f4e:	4cf2                	lw	s9,28(sp)
   11f50:	06600493          	li	s1,102
   11f54:	b7d9                	j	11f1a <_vfprintf_r+0x1980>
   11f56:	56c1                	li	a3,-16
   11f58:	40c004b3          	neg	s1,a2
   11f5c:	06d65463          	bge	a2,a3,11fc4 <_vfprintf_r+0x1a2a>
   11f60:	4941                	li	s2,16
   11f62:	4c9d                	li	s9,7
   11f64:	a021                	j	11f6c <_vfprintf_r+0x19d2>
   11f66:	14c1                	addi	s1,s1,-16
   11f68:	04995e63          	bge	s2,s1,11fc4 <_vfprintf_r+0x1a2a>
   11f6c:	46a2                	lw	a3,8(sp)
   11f6e:	07c1                	addi	a5,a5,16
   11f70:	0705                	addi	a4,a4,1
   11f72:	00d8a023          	sw	a3,0(a7)
   11f76:	0128a223          	sw	s2,4(a7)
   11f7a:	d7be                	sw	a5,236(sp)
   11f7c:	d5ba                	sw	a4,232(sp)
   11f7e:	08a1                	addi	a7,a7,8
   11f80:	feecd3e3          	bge	s9,a4,11f66 <_vfprintf_r+0x19cc>
   11f84:	11d0                	addi	a2,sp,228
   11f86:	85e2                	mv	a1,s8
   11f88:	856a                	mv	a0,s10
   11f8a:	605060ef          	jal	ra,18d8e <__sprint_r>
   11f8e:	9c051f63          	bnez	a0,1116c <_vfprintf_r+0xbd2>
   11f92:	57be                	lw	a5,236(sp)
   11f94:	572e                	lw	a4,232(sp)
   11f96:	10c10893          	addi	a7,sp,268
   11f9a:	b7f1                	j	11f66 <_vfprintf_r+0x19cc>
   11f9c:	57fd                	li	a5,-1
   11f9e:	c63e                	sw	a5,12(sp)
   11fa0:	879fe06f          	j	10818 <_vfprintf_r+0x27e>
   11fa4:	0001f6b7          	lui	a3,0x1f
   11fa8:	87068e93          	addi	t4,a3,-1936 # 1e870 <blanks.1>
   11fac:	c7ffe06f          	j	10c2a <_vfprintf_r+0x690>
   11fb0:	8bd2                	mv	s7,s4
   11fb2:	ea7fe06f          	j	10e58 <_vfprintf_r+0x8be>
   11fb6:	03000793          	li	a5,48
   11fba:	0cf10423          	sb	a5,200(sp)
   11fbe:	07800793          	li	a5,120
   11fc2:	be2d                	j	11afc <_vfprintf_r+0x1562>
   11fc4:	46a2                	lw	a3,8(sp)
   11fc6:	97a6                	add	a5,a5,s1
   11fc8:	0705                	addi	a4,a4,1
   11fca:	00d8a023          	sw	a3,0(a7)
   11fce:	0098a223          	sw	s1,4(a7)
   11fd2:	d7be                	sw	a5,236(sp)
   11fd4:	d5ba                	sw	a4,232(sp)
   11fd6:	469d                	li	a3,7
   11fd8:	f0e6df63          	bge	a3,a4,116f6 <_vfprintf_r+0x115c>
   11fdc:	11d0                	addi	a2,sp,228
   11fde:	85e2                	mv	a1,s8
   11fe0:	856a                	mv	a0,s10
   11fe2:	5ad060ef          	jal	ra,18d8e <__sprint_r>
   11fe6:	98051363          	bnez	a0,1116c <_vfprintf_r+0xbd2>
   11fea:	57be                	lw	a5,236(sp)
   11fec:	572e                	lw	a4,232(sp)
   11fee:	10c10893          	addi	a7,sp,268
   11ff2:	fd8ff06f          	j	117ca <_vfprintf_r+0x1230>
   11ff6:	001d8593          	addi	a1,s11,1
   11ffa:	856a                	mv	a0,s10
   11ffc:	c846                	sw	a7,16(sp)
   11ffe:	408030ef          	jal	ra,15406 <_malloc_r>
   12002:	48c2                	lw	a7,16(sp)
   12004:	8b2a                	mv	s6,a0
   12006:	24050963          	beqz	a0,12258 <_vfprintf_r+0x1cbe>
   1200a:	c82a                	sw	a0,16(sp)
   1200c:	b621                	j	11b14 <_vfprintf_r+0x157a>
   1200e:	47d6                	lw	a5,84(sp)
   12010:	875e                	mv	a4,s7
   12012:	cfbe                	sw	a5,220(sp)
   12014:	5792                	lw	a5,36(sp)
   12016:	fffbc683          	lbu	a3,-1(s7)
   1201a:	00f7c603          	lbu	a2,15(a5) # 8000000f <__BSS_END__+0x7ffdf0e7>
   1201e:	00c69e63          	bne	a3,a2,1203a <_vfprintf_r+0x1aa0>
   12022:	03000593          	li	a1,48
   12026:	feb70fa3          	sb	a1,-1(a4)
   1202a:	477e                	lw	a4,220(sp)
   1202c:	fff70793          	addi	a5,a4,-1
   12030:	cfbe                	sw	a5,220(sp)
   12032:	fff74683          	lbu	a3,-1(a4)
   12036:	fed608e3          	beq	a2,a3,12026 <_vfprintf_r+0x1a8c>
   1203a:	00168613          	addi	a2,a3,1
   1203e:	03900593          	li	a1,57
   12042:	0ff67613          	andi	a2,a2,255
   12046:	00b68563          	beq	a3,a1,12050 <_vfprintf_r+0x1ab6>
   1204a:	fec70fa3          	sb	a2,-1(a4)
   1204e:	b1d9                	j	11d14 <_vfprintf_r+0x177a>
   12050:	5792                	lw	a5,36(sp)
   12052:	00a7c603          	lbu	a2,10(a5)
   12056:	fec70fa3          	sb	a2,-1(a4)
   1205a:	b96d                	j	11d14 <_vfprintf_r+0x177a>
   1205c:	001d8913          	addi	s2,s11,1
   12060:	0b010a93          	addi	s5,sp,176
   12064:	0dc10813          	addi	a6,sp,220
   12068:	099c                	addi	a5,sp,208
   1206a:	01f8                	addi	a4,sp,204
   1206c:	86ca                	mv	a3,s2
   1206e:	4609                	li	a2,2
   12070:	85d6                	mv	a1,s5
   12072:	856a                	mv	a0,s10
   12074:	d972                	sw	t3,176(sp)
   12076:	d272                	sw	t3,36(sp)
   12078:	db76                	sw	t4,180(sp)
   1207a:	d076                	sw	t4,32(sp)
   1207c:	dd7a                	sw	t5,184(sp)
   1207e:	ce7a                	sw	t5,28(sp)
   12080:	df5e                	sw	s7,188(sp)
   12082:	31c020ef          	jal	ra,1439e <_ldtoa_r>
   12086:	4f72                	lw	t5,28(sp)
   12088:	5e82                	lw	t4,32(sp)
   1208a:	5e12                	lw	t3,36(sp)
   1208c:	4886                	lw	a7,64(sp)
   1208e:	8b2a                	mv	s6,a0
   12090:	995a                	add	s2,s2,s6
   12092:	0a010c93          	addi	s9,sp,160
   12096:	b361                	j	11e1e <_vfprintf_r+0x1884>
   12098:	01bb0933          	add	s2,s6,s11
   1209c:	0a010c93          	addi	s9,sp,160
   120a0:	bbbd                	j	11e1e <_vfprintf_r+0x1884>
   120a2:	000d8463          	beqz	s11,120aa <_vfprintf_r+0x1b10>
   120a6:	8affe06f          	j	10954 <_vfprintf_r+0x3ba>
   120aa:	4d85                	li	s11,1
   120ac:	8a9fe06f          	j	10954 <_vfprintf_r+0x3ba>
   120b0:	4d99                	li	s11,6
   120b2:	8a3fe06f          	j	10954 <_vfprintf_r+0x3ba>
   120b6:	57b2                	lw	a5,44(sp)
   120b8:	06600493          	li	s1,102
   120bc:	00f70cb3          	add	s9,a4,a5
   120c0:	9cee                	add	s9,s9,s11
   120c2:	bda1                	j	11f1a <_vfprintf_r+0x1980>
   120c4:	06700493          	li	s1,103
   120c8:	5672                	lw	a2,60(sp)
   120ca:	0ff00713          	li	a4,255
   120ce:	00064783          	lbu	a5,0(a2)
   120d2:	16e78a63          	beq	a5,a4,12246 <_vfprintf_r+0x1cac>
   120d6:	46f2                	lw	a3,28(sp)
   120d8:	4501                	li	a0,0
   120da:	4581                	li	a1,0
   120dc:	00d7da63          	bge	a5,a3,120f0 <_vfprintf_r+0x1b56>
   120e0:	8e9d                	sub	a3,a3,a5
   120e2:	00164783          	lbu	a5,1(a2)
   120e6:	cb85                	beqz	a5,12116 <_vfprintf_r+0x1b7c>
   120e8:	0585                	addi	a1,a1,1
   120ea:	0605                	addi	a2,a2,1
   120ec:	fee798e3          	bne	a5,a4,120dc <_vfprintf_r+0x1b42>
   120f0:	ce36                	sw	a3,28(sp)
   120f2:	de32                	sw	a2,60(sp)
   120f4:	d22e                	sw	a1,36(sp)
   120f6:	d42a                	sw	a0,40(sp)
   120f8:	5722                	lw	a4,40(sp)
   120fa:	5792                	lw	a5,36(sp)
   120fc:	97ba                	add	a5,a5,a4
   120fe:	4726                	lw	a4,72(sp)
   12100:	02e787b3          	mul	a5,a5,a4
   12104:	9cbe                	add	s9,s9,a5
   12106:	fffcca93          	not	s5,s9
   1210a:	41fada93          	srai	s5,s5,0x1f
   1210e:	015cfab3          	and	s5,s9,s5
   12112:	9c5fe06f          	j	10ad6 <_vfprintf_r+0x53c>
   12116:	00064783          	lbu	a5,0(a2)
   1211a:	0505                	addi	a0,a0,1
   1211c:	bfc1                	j	120ec <_vfprintf_r+0x1b52>
   1211e:	0d610713          	addi	a4,sp,214
   12122:	e699                	bnez	a3,12130 <_vfprintf_r+0x1b96>
   12124:	03000713          	li	a4,48
   12128:	0ce10b23          	sb	a4,214(sp)
   1212c:	0d710713          	addi	a4,sp,215
   12130:	1b14                	addi	a3,sp,432
   12132:	03078793          	addi	a5,a5,48
   12136:	40d706b3          	sub	a3,a4,a3
   1213a:	00f70023          	sb	a5,0(a4)
   1213e:	0dd68793          	addi	a5,a3,221
   12142:	dc3e                	sw	a5,56(sp)
   12144:	961fe06f          	j	10aa4 <_vfprintf_r+0x50a>
   12148:	0b010a93          	addi	s5,sp,176
   1214c:	8556                	mv	a0,s5
   1214e:	cac6                	sw	a7,84(sp)
   12150:	d972                	sw	t3,176(sp)
   12152:	db76                	sw	t4,180(sp)
   12154:	dd7a                	sw	t5,184(sp)
   12156:	df5e                	sw	s7,188(sp)
   12158:	29a0c0ef          	jal	ra,1e3f2 <__trunctfdf2>
   1215c:	01f0                	addi	a2,sp,204
   1215e:	307040ef          	jal	ra,16c64 <frexp>
   12162:	862e                	mv	a2,a1
   12164:	85aa                	mv	a1,a0
   12166:	8556                	mv	a0,s5
   12168:	13a0c0ef          	jal	ra,1e2a2 <__extenddftf2>
   1216c:	57ca                	lw	a5,176(sp)
   1216e:	0a010c93          	addi	s9,sp,160
   12172:	09010913          	addi	s2,sp,144
   12176:	c93e                	sw	a5,144(sp)
   12178:	57da                	lw	a5,180(sp)
   1217a:	0110                	addi	a2,sp,128
   1217c:	85ca                	mv	a1,s2
   1217e:	cb3e                	sw	a5,148(sp)
   12180:	57ea                	lw	a5,184(sp)
   12182:	8566                	mv	a0,s9
   12184:	c0b2                	sw	a2,64(sp)
   12186:	cd3e                	sw	a5,152(sp)
   12188:	57fa                	lw	a5,188(sp)
   1218a:	c102                	sw	zero,128(sp)
   1218c:	c302                	sw	zero,132(sp)
   1218e:	cf3e                	sw	a5,156(sp)
   12190:	3ffc07b7          	lui	a5,0x3ffc0
   12194:	c73e                	sw	a5,140(sp)
   12196:	c502                	sw	zero,136(sp)
   12198:	6120a0ef          	jal	ra,1c7aa <__multf3>
   1219c:	568a                	lw	a3,160(sp)
   1219e:	5e1a                	lw	t3,164(sp)
   121a0:	5eaa                	lw	t4,168(sp)
   121a2:	5f3a                	lw	t5,172(sp)
   121a4:	85e6                	mv	a1,s9
   121a6:	8556                	mv	a0,s5
   121a8:	d936                	sw	a3,176(sp)
   121aa:	c2b6                	sw	a3,68(sp)
   121ac:	db72                	sw	t3,180(sp)
   121ae:	d272                	sw	t3,36(sp)
   121b0:	dd76                	sw	t4,184(sp)
   121b2:	d076                	sw	t4,32(sp)
   121b4:	df7a                	sw	t5,188(sp)
   121b6:	ce7a                	sw	t5,28(sp)
   121b8:	d102                	sw	zero,160(sp)
   121ba:	d302                	sw	zero,164(sp)
   121bc:	d502                	sw	zero,168(sp)
   121be:	d702                	sw	zero,172(sp)
   121c0:	35c0a0ef          	jal	ra,1c51c <__eqtf2>
   121c4:	4f72                	lw	t5,28(sp)
   121c6:	5e82                	lw	t4,32(sp)
   121c8:	5e12                	lw	t3,36(sp)
   121ca:	4696                	lw	a3,68(sp)
   121cc:	48d6                	lw	a7,84(sp)
   121ce:	e119                	bnez	a0,121d4 <_vfprintf_r+0x1c3a>
   121d0:	4785                	li	a5,1
   121d2:	c7be                	sw	a5,204(sp)
   121d4:	67f9                	lui	a5,0x1e
   121d6:	6d078793          	addi	a5,a5,1744 # 1e6d0 <__clzsi2+0xa2>
   121da:	d23e                	sw	a5,36(sp)
   121dc:	bae5                	j	11bd4 <_vfprintf_r+0x163a>
   121de:	40fc8cb3          	sub	s9,s9,a5
   121e2:	0c85                	addi	s9,s9,1
   121e4:	fffcca93          	not	s5,s9
   121e8:	41fada93          	srai	s5,s5,0x1f
   121ec:	015cfab3          	and	s5,s9,s5
   121f0:	b65d                	j	11d96 <_vfprintf_r+0x17fc>
   121f2:	47c6                	lw	a5,80(sp)
   121f4:	8b85                	andi	a5,a5,1
   121f6:	e399                	bnez	a5,121fc <_vfprintf_r+0x1c62>
   121f8:	8c3fe06f          	j	10aba <_vfprintf_r+0x520>
   121fc:	8bbfe06f          	j	10ab6 <_vfprintf_r+0x51c>
   12200:	e791                	bnez	a5,1220c <_vfprintf_r+0x1c72>
   12202:	4a85                	li	s5,1
   12204:	06600493          	li	s1,102
   12208:	4c85                	li	s9,1
   1220a:	b671                	j	11d96 <_vfprintf_r+0x17fc>
   1220c:	57b2                	lw	a5,44(sp)
   1220e:	06600493          	li	s1,102
   12212:	00178c93          	addi	s9,a5,1
   12216:	9cee                	add	s9,s9,s11
   12218:	fffcca93          	not	s5,s9
   1221c:	41fada93          	srai	s5,s5,0x1f
   12220:	015cfab3          	and	s5,s9,s5
   12224:	be8d                	j	11d96 <_vfprintf_r+0x17fc>
   12226:	86c6                	mv	a3,a7
   12228:	a8aff06f          	j	114b2 <_vfprintf_r+0xf18>
   1222c:	47d2                	lw	a5,20(sp)
   1222e:	0007ad83          	lw	s11,0(a5)
   12232:	0791                	addi	a5,a5,4
   12234:	000dd363          	bgez	s11,1223a <_vfprintf_r+0x1ca0>
   12238:	5dfd                	li	s11,-1
   1223a:	00144483          	lbu	s1,1(s0)
   1223e:	ca3e                	sw	a5,20(sp)
   12240:	843a                	mv	s0,a4
   12242:	c94fe06f          	j	106d6 <_vfprintf_r+0x13c>
   12246:	d402                	sw	zero,40(sp)
   12248:	d202                	sw	zero,36(sp)
   1224a:	b57d                	j	120f8 <_vfprintf_r+0x1b5e>
   1224c:	4789                	li	a5,2
   1224e:	dc3e                	sw	a5,56(sp)
   12250:	855fe06f          	j	10aa4 <_vfprintf_r+0x50a>
   12254:	896e                	mv	s2,s11
   12256:	bd2d                	j	12090 <_vfprintf_r+0x1af6>
   12258:	00cc5783          	lhu	a5,12(s8)
   1225c:	0407e793          	ori	a5,a5,64
   12260:	00fc1623          	sh	a5,12(s8)
   12264:	da6fe06f          	j	1080a <_vfprintf_r+0x270>

00012268 <vfprintf>:
   12268:	87aa                	mv	a5,a0
   1226a:	1c01a503          	lw	a0,448(gp) # 20ec0 <_impure_ptr>
   1226e:	86b2                	mv	a3,a2
   12270:	862e                	mv	a2,a1
   12272:	85be                	mv	a1,a5
   12274:	b26fe06f          	j	1059a <_vfprintf_r>

00012278 <__sbprintf>:
   12278:	00c5d783          	lhu	a5,12(a1)
   1227c:	0645ae03          	lw	t3,100(a1)
   12280:	00e5d303          	lhu	t1,14(a1)
   12284:	01c5a883          	lw	a7,28(a1)
   12288:	0245a803          	lw	a6,36(a1)
   1228c:	b8010113          	addi	sp,sp,-1152
   12290:	9bf5                	andi	a5,a5,-3
   12292:	40000713          	li	a4,1024
   12296:	46812c23          	sw	s0,1144(sp)
   1229a:	00f11a23          	sh	a5,20(sp)
   1229e:	842e                	mv	s0,a1
   122a0:	189c                	addi	a5,sp,112
   122a2:	002c                	addi	a1,sp,8
   122a4:	46912a23          	sw	s1,1140(sp)
   122a8:	47212823          	sw	s2,1136(sp)
   122ac:	46112e23          	sw	ra,1148(sp)
   122b0:	892a                	mv	s2,a0
   122b2:	d6f2                	sw	t3,108(sp)
   122b4:	00611b23          	sh	t1,22(sp)
   122b8:	d246                	sw	a7,36(sp)
   122ba:	d642                	sw	a6,44(sp)
   122bc:	c43e                	sw	a5,8(sp)
   122be:	cc3e                	sw	a5,24(sp)
   122c0:	c83a                	sw	a4,16(sp)
   122c2:	ce3a                	sw	a4,28(sp)
   122c4:	d002                	sw	zero,32(sp)
   122c6:	ad4fe0ef          	jal	ra,1059a <_vfprintf_r>
   122ca:	84aa                	mv	s1,a0
   122cc:	02055963          	bgez	a0,122fe <__sbprintf+0x86>
   122d0:	01415783          	lhu	a5,20(sp)
   122d4:	0407f793          	andi	a5,a5,64
   122d8:	c799                	beqz	a5,122e6 <__sbprintf+0x6e>
   122da:	00c45783          	lhu	a5,12(s0)
   122de:	0407e793          	ori	a5,a5,64
   122e2:	00f41623          	sh	a5,12(s0)
   122e6:	47c12083          	lw	ra,1148(sp)
   122ea:	47812403          	lw	s0,1144(sp)
   122ee:	47012903          	lw	s2,1136(sp)
   122f2:	8526                	mv	a0,s1
   122f4:	47412483          	lw	s1,1140(sp)
   122f8:	48010113          	addi	sp,sp,1152
   122fc:	8082                	ret
   122fe:	002c                	addi	a1,sp,8
   12300:	854a                	mv	a0,s2
   12302:	21a9                	jal	1274c <_fflush_r>
   12304:	d571                	beqz	a0,122d0 <__sbprintf+0x58>
   12306:	54fd                	li	s1,-1
   12308:	b7e1                	j	122d0 <__sbprintf+0x58>

0001230a <__swbuf_r>:
   1230a:	1101                	addi	sp,sp,-32
   1230c:	cc22                	sw	s0,24(sp)
   1230e:	ca26                	sw	s1,20(sp)
   12310:	c84a                	sw	s2,16(sp)
   12312:	ce06                	sw	ra,28(sp)
   12314:	c64e                	sw	s3,12(sp)
   12316:	892a                	mv	s2,a0
   12318:	84ae                	mv	s1,a1
   1231a:	8432                	mv	s0,a2
   1231c:	c119                	beqz	a0,12322 <__swbuf_r+0x18>
   1231e:	5d1c                	lw	a5,56(a0)
   12320:	cbf9                	beqz	a5,123f6 <__swbuf_r+0xec>
   12322:	00c41703          	lh	a4,12(s0)
   12326:	4c14                	lw	a3,24(s0)
   12328:	00877793          	andi	a5,a4,8
   1232c:	c414                	sw	a3,8(s0)
   1232e:	01071693          	slli	a3,a4,0x10
   12332:	82c1                	srli	a3,a3,0x10
   12334:	cbb9                	beqz	a5,1238a <__swbuf_r+0x80>
   12336:	481c                	lw	a5,16(s0)
   12338:	cba9                	beqz	a5,1238a <__swbuf_r+0x80>
   1233a:	6609                	lui	a2,0x2
   1233c:	8ef1                	and	a3,a3,a2
   1233e:	0ff4f993          	andi	s3,s1,255
   12342:	0ff4f493          	andi	s1,s1,255
   12346:	c2bd                	beqz	a3,123ac <__swbuf_r+0xa2>
   12348:	4018                	lw	a4,0(s0)
   1234a:	4854                	lw	a3,20(s0)
   1234c:	40f707b3          	sub	a5,a4,a5
   12350:	06d7dc63          	bge	a5,a3,123c8 <__swbuf_r+0xbe>
   12354:	4414                	lw	a3,8(s0)
   12356:	00170613          	addi	a2,a4,1
   1235a:	c010                	sw	a2,0(s0)
   1235c:	16fd                	addi	a3,a3,-1
   1235e:	c414                	sw	a3,8(s0)
   12360:	01370023          	sb	s3,0(a4)
   12364:	4858                	lw	a4,20(s0)
   12366:	0785                	addi	a5,a5,1
   12368:	08f70163          	beq	a4,a5,123ea <__swbuf_r+0xe0>
   1236c:	00c45783          	lhu	a5,12(s0)
   12370:	8b85                	andi	a5,a5,1
   12372:	c781                	beqz	a5,1237a <__swbuf_r+0x70>
   12374:	47a9                	li	a5,10
   12376:	06f48a63          	beq	s1,a5,123ea <__swbuf_r+0xe0>
   1237a:	40f2                	lw	ra,28(sp)
   1237c:	4462                	lw	s0,24(sp)
   1237e:	4942                	lw	s2,16(sp)
   12380:	49b2                	lw	s3,12(sp)
   12382:	8526                	mv	a0,s1
   12384:	44d2                	lw	s1,20(sp)
   12386:	6105                	addi	sp,sp,32
   12388:	8082                	ret
   1238a:	85a2                	mv	a1,s0
   1238c:	854a                	mv	a0,s2
   1238e:	28a5                	jal	12406 <__swsetup_r>
   12390:	e12d                	bnez	a0,123f2 <__swbuf_r+0xe8>
   12392:	00c41703          	lh	a4,12(s0)
   12396:	6609                	lui	a2,0x2
   12398:	0ff4f993          	andi	s3,s1,255
   1239c:	01071693          	slli	a3,a4,0x10
   123a0:	82c1                	srli	a3,a3,0x10
   123a2:	8ef1                	and	a3,a3,a2
   123a4:	481c                	lw	a5,16(s0)
   123a6:	0ff4f493          	andi	s1,s1,255
   123aa:	fed9                	bnez	a3,12348 <__swbuf_r+0x3e>
   123ac:	5074                	lw	a3,100(s0)
   123ae:	8f51                	or	a4,a4,a2
   123b0:	7679                	lui	a2,0xffffe
   123b2:	167d                	addi	a2,a2,-1
   123b4:	8ef1                	and	a3,a3,a2
   123b6:	00e41623          	sh	a4,12(s0)
   123ba:	4018                	lw	a4,0(s0)
   123bc:	d074                	sw	a3,100(s0)
   123be:	4854                	lw	a3,20(s0)
   123c0:	40f707b3          	sub	a5,a4,a5
   123c4:	f8d7c8e3          	blt	a5,a3,12354 <__swbuf_r+0x4a>
   123c8:	85a2                	mv	a1,s0
   123ca:	854a                	mv	a0,s2
   123cc:	2641                	jal	1274c <_fflush_r>
   123ce:	e115                	bnez	a0,123f2 <__swbuf_r+0xe8>
   123d0:	4018                	lw	a4,0(s0)
   123d2:	4414                	lw	a3,8(s0)
   123d4:	4785                	li	a5,1
   123d6:	00170613          	addi	a2,a4,1
   123da:	16fd                	addi	a3,a3,-1
   123dc:	c010                	sw	a2,0(s0)
   123de:	c414                	sw	a3,8(s0)
   123e0:	01370023          	sb	s3,0(a4)
   123e4:	4858                	lw	a4,20(s0)
   123e6:	f8f713e3          	bne	a4,a5,1236c <__swbuf_r+0x62>
   123ea:	85a2                	mv	a1,s0
   123ec:	854a                	mv	a0,s2
   123ee:	2eb9                	jal	1274c <_fflush_r>
   123f0:	d549                	beqz	a0,1237a <__swbuf_r+0x70>
   123f2:	54fd                	li	s1,-1
   123f4:	b759                	j	1237a <__swbuf_r+0x70>
   123f6:	2d3d                	jal	12a34 <__sinit>
   123f8:	b72d                	j	12322 <__swbuf_r+0x18>

000123fa <__swbuf>:
   123fa:	87aa                	mv	a5,a0
   123fc:	1c01a503          	lw	a0,448(gp) # 20ec0 <_impure_ptr>
   12400:	862e                	mv	a2,a1
   12402:	85be                	mv	a1,a5
   12404:	b719                	j	1230a <__swbuf_r>

00012406 <__swsetup_r>:
   12406:	1c01a783          	lw	a5,448(gp) # 20ec0 <_impure_ptr>
   1240a:	1141                	addi	sp,sp,-16
   1240c:	c422                	sw	s0,8(sp)
   1240e:	c226                	sw	s1,4(sp)
   12410:	c606                	sw	ra,12(sp)
   12412:	84aa                	mv	s1,a0
   12414:	842e                	mv	s0,a1
   12416:	c399                	beqz	a5,1241c <__swsetup_r+0x16>
   12418:	5f98                	lw	a4,56(a5)
   1241a:	cf21                	beqz	a4,12472 <__swsetup_r+0x6c>
   1241c:	00c41703          	lh	a4,12(s0)
   12420:	01071793          	slli	a5,a4,0x10
   12424:	00877693          	andi	a3,a4,8
   12428:	83c1                	srli	a5,a5,0x10
   1242a:	ceb1                	beqz	a3,12486 <__swsetup_r+0x80>
   1242c:	4814                	lw	a3,16(s0)
   1242e:	cab5                	beqz	a3,124a2 <__swsetup_r+0x9c>
   12430:	0017f613          	andi	a2,a5,1
   12434:	ce11                	beqz	a2,12450 <__swsetup_r+0x4a>
   12436:	4850                	lw	a2,20(s0)
   12438:	00042423          	sw	zero,8(s0)
   1243c:	4501                	li	a0,0
   1243e:	40c00633          	neg	a2,a2
   12442:	cc10                	sw	a2,24(s0)
   12444:	ce91                	beqz	a3,12460 <__swsetup_r+0x5a>
   12446:	40b2                	lw	ra,12(sp)
   12448:	4422                	lw	s0,8(sp)
   1244a:	4492                	lw	s1,4(sp)
   1244c:	0141                	addi	sp,sp,16
   1244e:	8082                	ret
   12450:	0027f613          	andi	a2,a5,2
   12454:	4581                	li	a1,0
   12456:	e211                	bnez	a2,1245a <__swsetup_r+0x54>
   12458:	484c                	lw	a1,20(s0)
   1245a:	c40c                	sw	a1,8(s0)
   1245c:	4501                	li	a0,0
   1245e:	f6e5                	bnez	a3,12446 <__swsetup_r+0x40>
   12460:	0807f793          	andi	a5,a5,128
   12464:	d3ed                	beqz	a5,12446 <__swsetup_r+0x40>
   12466:	04076713          	ori	a4,a4,64
   1246a:	00e41623          	sh	a4,12(s0)
   1246e:	557d                	li	a0,-1
   12470:	bfd9                	j	12446 <__swsetup_r+0x40>
   12472:	853e                	mv	a0,a5
   12474:	23c1                	jal	12a34 <__sinit>
   12476:	00c41703          	lh	a4,12(s0)
   1247a:	01071793          	slli	a5,a4,0x10
   1247e:	00877693          	andi	a3,a4,8
   12482:	83c1                	srli	a5,a5,0x10
   12484:	f6c5                	bnez	a3,1242c <__swsetup_r+0x26>
   12486:	0107f693          	andi	a3,a5,16
   1248a:	c2a5                	beqz	a3,124ea <__swsetup_r+0xe4>
   1248c:	8b91                	andi	a5,a5,4
   1248e:	eb9d                	bnez	a5,124c4 <__swsetup_r+0xbe>
   12490:	4814                	lw	a3,16(s0)
   12492:	00876713          	ori	a4,a4,8
   12496:	01071793          	slli	a5,a4,0x10
   1249a:	00e41623          	sh	a4,12(s0)
   1249e:	83c1                	srli	a5,a5,0x10
   124a0:	fac1                	bnez	a3,12430 <__swsetup_r+0x2a>
   124a2:	2807f613          	andi	a2,a5,640
   124a6:	20000593          	li	a1,512
   124aa:	f8b603e3          	beq	a2,a1,12430 <__swsetup_r+0x2a>
   124ae:	85a2                	mv	a1,s0
   124b0:	8526                	mv	a0,s1
   124b2:	5c9020ef          	jal	ra,1527a <__smakebuf_r>
   124b6:	00c41703          	lh	a4,12(s0)
   124ba:	4814                	lw	a3,16(s0)
   124bc:	01071793          	slli	a5,a4,0x10
   124c0:	83c1                	srli	a5,a5,0x10
   124c2:	b7bd                	j	12430 <__swsetup_r+0x2a>
   124c4:	580c                	lw	a1,48(s0)
   124c6:	c999                	beqz	a1,124dc <__swsetup_r+0xd6>
   124c8:	04040793          	addi	a5,s0,64
   124cc:	00f58663          	beq	a1,a5,124d8 <__swsetup_r+0xd2>
   124d0:	8526                	mv	a0,s1
   124d2:	2571                	jal	12b5e <_free_r>
   124d4:	00c41703          	lh	a4,12(s0)
   124d8:	02042823          	sw	zero,48(s0)
   124dc:	4814                	lw	a3,16(s0)
   124de:	fdb77713          	andi	a4,a4,-37
   124e2:	00042223          	sw	zero,4(s0)
   124e6:	c014                	sw	a3,0(s0)
   124e8:	b76d                	j	12492 <__swsetup_r+0x8c>
   124ea:	47a5                	li	a5,9
   124ec:	c09c                	sw	a5,0(s1)
   124ee:	04076713          	ori	a4,a4,64
   124f2:	00e41623          	sh	a4,12(s0)
   124f6:	557d                	li	a0,-1
   124f8:	b7b9                	j	12446 <__swsetup_r+0x40>

000124fa <__call_exitprocs>:
   124fa:	7179                	addi	sp,sp,-48
   124fc:	cc52                	sw	s4,24(sp)
   124fe:	1b81aa03          	lw	s4,440(gp) # 20eb8 <_global_impure_ptr>
   12502:	d04a                	sw	s2,32(sp)
   12504:	d606                	sw	ra,44(sp)
   12506:	148a2903          	lw	s2,328(s4)
   1250a:	d422                	sw	s0,40(sp)
   1250c:	d226                	sw	s1,36(sp)
   1250e:	ce4e                	sw	s3,28(sp)
   12510:	ca56                	sw	s5,20(sp)
   12512:	c85a                	sw	s6,16(sp)
   12514:	c65e                	sw	s7,12(sp)
   12516:	c462                	sw	s8,8(sp)
   12518:	02090863          	beqz	s2,12548 <__call_exitprocs+0x4e>
   1251c:	8b2a                	mv	s6,a0
   1251e:	8bae                	mv	s7,a1
   12520:	4a85                	li	s5,1
   12522:	59fd                	li	s3,-1
   12524:	00492483          	lw	s1,4(s2) # 3ffe0004 <__BSS_END__+0x3ffbf0dc>
   12528:	fff48413          	addi	s0,s1,-1
   1252c:	00044e63          	bltz	s0,12548 <__call_exitprocs+0x4e>
   12530:	048a                	slli	s1,s1,0x2
   12532:	94ca                	add	s1,s1,s2
   12534:	020b8663          	beqz	s7,12560 <__call_exitprocs+0x66>
   12538:	1044a783          	lw	a5,260(s1)
   1253c:	03778263          	beq	a5,s7,12560 <__call_exitprocs+0x66>
   12540:	147d                	addi	s0,s0,-1
   12542:	14f1                	addi	s1,s1,-4
   12544:	ff3418e3          	bne	s0,s3,12534 <__call_exitprocs+0x3a>
   12548:	50b2                	lw	ra,44(sp)
   1254a:	5422                	lw	s0,40(sp)
   1254c:	5492                	lw	s1,36(sp)
   1254e:	5902                	lw	s2,32(sp)
   12550:	49f2                	lw	s3,28(sp)
   12552:	4a62                	lw	s4,24(sp)
   12554:	4ad2                	lw	s5,20(sp)
   12556:	4b42                	lw	s6,16(sp)
   12558:	4bb2                	lw	s7,12(sp)
   1255a:	4c22                	lw	s8,8(sp)
   1255c:	6145                	addi	sp,sp,48
   1255e:	8082                	ret
   12560:	00492783          	lw	a5,4(s2)
   12564:	40d4                	lw	a3,4(s1)
   12566:	17fd                	addi	a5,a5,-1
   12568:	04878263          	beq	a5,s0,125ac <__call_exitprocs+0xb2>
   1256c:	0004a223          	sw	zero,4(s1)
   12570:	dae1                	beqz	a3,12540 <__call_exitprocs+0x46>
   12572:	18892783          	lw	a5,392(s2)
   12576:	008a9733          	sll	a4,s5,s0
   1257a:	00492c03          	lw	s8,4(s2)
   1257e:	8ff9                	and	a5,a5,a4
   12580:	ef89                	bnez	a5,1259a <__call_exitprocs+0xa0>
   12582:	9682                	jalr	a3
   12584:	00492703          	lw	a4,4(s2)
   12588:	148a2783          	lw	a5,328(s4)
   1258c:	01871463          	bne	a4,s8,12594 <__call_exitprocs+0x9a>
   12590:	fb2788e3          	beq	a5,s2,12540 <__call_exitprocs+0x46>
   12594:	dbd5                	beqz	a5,12548 <__call_exitprocs+0x4e>
   12596:	893e                	mv	s2,a5
   12598:	b771                	j	12524 <__call_exitprocs+0x2a>
   1259a:	18c92783          	lw	a5,396(s2)
   1259e:	0844a583          	lw	a1,132(s1)
   125a2:	8f7d                	and	a4,a4,a5
   125a4:	e719                	bnez	a4,125b2 <__call_exitprocs+0xb8>
   125a6:	855a                	mv	a0,s6
   125a8:	9682                	jalr	a3
   125aa:	bfe9                	j	12584 <__call_exitprocs+0x8a>
   125ac:	00892223          	sw	s0,4(s2)
   125b0:	b7c1                	j	12570 <__call_exitprocs+0x76>
   125b2:	852e                	mv	a0,a1
   125b4:	9682                	jalr	a3
   125b6:	b7f9                	j	12584 <__call_exitprocs+0x8a>

000125b8 <__sflush_r>:
   125b8:	00c59783          	lh	a5,12(a1)
   125bc:	1101                	addi	sp,sp,-32
   125be:	cc22                	sw	s0,24(sp)
   125c0:	c64e                	sw	s3,12(sp)
   125c2:	ce06                	sw	ra,28(sp)
   125c4:	ca26                	sw	s1,20(sp)
   125c6:	c84a                	sw	s2,16(sp)
   125c8:	0087f693          	andi	a3,a5,8
   125cc:	842e                	mv	s0,a1
   125ce:	89aa                	mv	s3,a0
   125d0:	ead5                	bnez	a3,12684 <__sflush_r+0xcc>
   125d2:	6705                	lui	a4,0x1
   125d4:	80070713          	addi	a4,a4,-2048 # 800 <register_fini-0xf874>
   125d8:	41d4                	lw	a3,4(a1)
   125da:	8fd9                	or	a5,a5,a4
   125dc:	00f59623          	sh	a5,12(a1)
   125e0:	10d05063          	blez	a3,126e0 <__sflush_r+0x128>
   125e4:	5418                	lw	a4,40(s0)
   125e6:	c759                	beqz	a4,12674 <__sflush_r+0xbc>
   125e8:	07c2                	slli	a5,a5,0x10
   125ea:	83c1                	srli	a5,a5,0x10
   125ec:	6685                	lui	a3,0x1
   125ee:	0009a483          	lw	s1,0(s3)
   125f2:	8efd                	and	a3,a3,a5
   125f4:	0009a023          	sw	zero,0(s3)
   125f8:	4c4c                	lw	a1,28(s0)
   125fa:	e6fd                	bnez	a3,126e8 <__sflush_r+0x130>
   125fc:	4685                	li	a3,1
   125fe:	4601                	li	a2,0
   12600:	854e                	mv	a0,s3
   12602:	9702                	jalr	a4
   12604:	57fd                	li	a5,-1
   12606:	10f50863          	beq	a0,a5,12716 <__sflush_r+0x15e>
   1260a:	00c45783          	lhu	a5,12(s0)
   1260e:	5418                	lw	a4,40(s0)
   12610:	4c4c                	lw	a1,28(s0)
   12612:	8b91                	andi	a5,a5,4
   12614:	c799                	beqz	a5,12622 <__sflush_r+0x6a>
   12616:	4054                	lw	a3,4(s0)
   12618:	581c                	lw	a5,48(s0)
   1261a:	8d15                	sub	a0,a0,a3
   1261c:	c399                	beqz	a5,12622 <__sflush_r+0x6a>
   1261e:	5c5c                	lw	a5,60(s0)
   12620:	8d1d                	sub	a0,a0,a5
   12622:	862a                	mv	a2,a0
   12624:	4681                	li	a3,0
   12626:	854e                	mv	a0,s3
   12628:	9702                	jalr	a4
   1262a:	57fd                	li	a5,-1
   1262c:	0cf51063          	bne	a0,a5,126ec <__sflush_r+0x134>
   12630:	0009a703          	lw	a4,0(s3)
   12634:	00c41783          	lh	a5,12(s0)
   12638:	10070063          	beqz	a4,12738 <__sflush_r+0x180>
   1263c:	46f5                	li	a3,29
   1263e:	00d70563          	beq	a4,a3,12648 <__sflush_r+0x90>
   12642:	46d9                	li	a3,22
   12644:	08d71363          	bne	a4,a3,126ca <__sflush_r+0x112>
   12648:	4814                	lw	a3,16(s0)
   1264a:	777d                	lui	a4,0xfffff
   1264c:	7ff70713          	addi	a4,a4,2047 # fffff7ff <__BSS_END__+0xfffde8d7>
   12650:	8ff9                	and	a5,a5,a4
   12652:	00f41623          	sh	a5,12(s0)
   12656:	00042223          	sw	zero,4(s0)
   1265a:	c014                	sw	a3,0(s0)
   1265c:	580c                	lw	a1,48(s0)
   1265e:	0099a023          	sw	s1,0(s3)
   12662:	c989                	beqz	a1,12674 <__sflush_r+0xbc>
   12664:	04040793          	addi	a5,s0,64
   12668:	00f58463          	beq	a1,a5,12670 <__sflush_r+0xb8>
   1266c:	854e                	mv	a0,s3
   1266e:	29c5                	jal	12b5e <_free_r>
   12670:	02042823          	sw	zero,48(s0)
   12674:	4501                	li	a0,0
   12676:	40f2                	lw	ra,28(sp)
   12678:	4462                	lw	s0,24(sp)
   1267a:	44d2                	lw	s1,20(sp)
   1267c:	4942                	lw	s2,16(sp)
   1267e:	49b2                	lw	s3,12(sp)
   12680:	6105                	addi	sp,sp,32
   12682:	8082                	ret
   12684:	0105a903          	lw	s2,16(a1)
   12688:	fe0906e3          	beqz	s2,12674 <__sflush_r+0xbc>
   1268c:	4184                	lw	s1,0(a1)
   1268e:	01079713          	slli	a4,a5,0x10
   12692:	8341                	srli	a4,a4,0x10
   12694:	8b0d                	andi	a4,a4,3
   12696:	0125a023          	sw	s2,0(a1)
   1269a:	412484b3          	sub	s1,s1,s2
   1269e:	4781                	li	a5,0
   126a0:	e311                	bnez	a4,126a4 <__sflush_r+0xec>
   126a2:	49dc                	lw	a5,20(a1)
   126a4:	c41c                	sw	a5,8(s0)
   126a6:	00904663          	bgtz	s1,126b2 <__sflush_r+0xfa>
   126aa:	b7e9                	j	12674 <__sflush_r+0xbc>
   126ac:	992a                	add	s2,s2,a0
   126ae:	fc9053e3          	blez	s1,12674 <__sflush_r+0xbc>
   126b2:	505c                	lw	a5,36(s0)
   126b4:	4c4c                	lw	a1,28(s0)
   126b6:	86a6                	mv	a3,s1
   126b8:	864a                	mv	a2,s2
   126ba:	854e                	mv	a0,s3
   126bc:	9782                	jalr	a5
   126be:	8c89                	sub	s1,s1,a0
   126c0:	fea046e3          	bgtz	a0,126ac <__sflush_r+0xf4>
   126c4:	00c45783          	lhu	a5,12(s0)
   126c8:	557d                	li	a0,-1
   126ca:	0407e793          	ori	a5,a5,64
   126ce:	40f2                	lw	ra,28(sp)
   126d0:	00f41623          	sh	a5,12(s0)
   126d4:	4462                	lw	s0,24(sp)
   126d6:	44d2                	lw	s1,20(sp)
   126d8:	4942                	lw	s2,16(sp)
   126da:	49b2                	lw	s3,12(sp)
   126dc:	6105                	addi	sp,sp,32
   126de:	8082                	ret
   126e0:	5dd8                	lw	a4,60(a1)
   126e2:	f0e041e3          	bgtz	a4,125e4 <__sflush_r+0x2c>
   126e6:	b779                	j	12674 <__sflush_r+0xbc>
   126e8:	4828                	lw	a0,80(s0)
   126ea:	b725                	j	12612 <__sflush_r+0x5a>
   126ec:	00c45783          	lhu	a5,12(s0)
   126f0:	777d                	lui	a4,0xfffff
   126f2:	7ff70713          	addi	a4,a4,2047 # fffff7ff <__BSS_END__+0xfffde8d7>
   126f6:	8ff9                	and	a5,a5,a4
   126f8:	4814                	lw	a3,16(s0)
   126fa:	07c2                	slli	a5,a5,0x10
   126fc:	87c1                	srai	a5,a5,0x10
   126fe:	00c7d713          	srli	a4,a5,0xc
   12702:	00f41623          	sh	a5,12(s0)
   12706:	00042223          	sw	zero,4(s0)
   1270a:	c014                	sw	a3,0(s0)
   1270c:	00177793          	andi	a5,a4,1
   12710:	d7b1                	beqz	a5,1265c <__sflush_r+0xa4>
   12712:	c828                	sw	a0,80(s0)
   12714:	b7a1                	j	1265c <__sflush_r+0xa4>
   12716:	0009a783          	lw	a5,0(s3)
   1271a:	ee0788e3          	beqz	a5,1260a <__sflush_r+0x52>
   1271e:	4775                	li	a4,29
   12720:	02e78263          	beq	a5,a4,12744 <__sflush_r+0x18c>
   12724:	4759                	li	a4,22
   12726:	00e78f63          	beq	a5,a4,12744 <__sflush_r+0x18c>
   1272a:	00c45783          	lhu	a5,12(s0)
   1272e:	0407e793          	ori	a5,a5,64
   12732:	00f41623          	sh	a5,12(s0)
   12736:	b781                	j	12676 <__sflush_r+0xbe>
   12738:	777d                	lui	a4,0xfffff
   1273a:	7ff70713          	addi	a4,a4,2047 # fffff7ff <__BSS_END__+0xfffde8d7>
   1273e:	4814                	lw	a3,16(s0)
   12740:	8ff9                	and	a5,a5,a4
   12742:	bf75                	j	126fe <__sflush_r+0x146>
   12744:	0099a023          	sw	s1,0(s3)
   12748:	4501                	li	a0,0
   1274a:	b735                	j	12676 <__sflush_r+0xbe>

0001274c <_fflush_r>:
   1274c:	1101                	addi	sp,sp,-32
   1274e:	cc22                	sw	s0,24(sp)
   12750:	ce06                	sw	ra,28(sp)
   12752:	842a                	mv	s0,a0
   12754:	c119                	beqz	a0,1275a <_fflush_r+0xe>
   12756:	5d1c                	lw	a5,56(a0)
   12758:	cb89                	beqz	a5,1276a <_fflush_r+0x1e>
   1275a:	00c59783          	lh	a5,12(a1)
   1275e:	ef81                	bnez	a5,12776 <_fflush_r+0x2a>
   12760:	40f2                	lw	ra,28(sp)
   12762:	4462                	lw	s0,24(sp)
   12764:	4501                	li	a0,0
   12766:	6105                	addi	sp,sp,32
   12768:	8082                	ret
   1276a:	c62e                	sw	a1,12(sp)
   1276c:	24e1                	jal	12a34 <__sinit>
   1276e:	45b2                	lw	a1,12(sp)
   12770:	00c59783          	lh	a5,12(a1)
   12774:	d7f5                	beqz	a5,12760 <_fflush_r+0x14>
   12776:	8522                	mv	a0,s0
   12778:	4462                	lw	s0,24(sp)
   1277a:	40f2                	lw	ra,28(sp)
   1277c:	6105                	addi	sp,sp,32
   1277e:	bd2d                	j	125b8 <__sflush_r>

00012780 <fflush>:
   12780:	cd15                	beqz	a0,127bc <fflush+0x3c>
   12782:	1101                	addi	sp,sp,-32
   12784:	cc22                	sw	s0,24(sp)
   12786:	842a                	mv	s0,a0
   12788:	1c01a503          	lw	a0,448(gp) # 20ec0 <_impure_ptr>
   1278c:	ce06                	sw	ra,28(sp)
   1278e:	c119                	beqz	a0,12794 <fflush+0x14>
   12790:	5d1c                	lw	a5,56(a0)
   12792:	cf91                	beqz	a5,127ae <fflush+0x2e>
   12794:	00c41783          	lh	a5,12(s0)
   12798:	e791                	bnez	a5,127a4 <fflush+0x24>
   1279a:	40f2                	lw	ra,28(sp)
   1279c:	4462                	lw	s0,24(sp)
   1279e:	4501                	li	a0,0
   127a0:	6105                	addi	sp,sp,32
   127a2:	8082                	ret
   127a4:	85a2                	mv	a1,s0
   127a6:	4462                	lw	s0,24(sp)
   127a8:	40f2                	lw	ra,28(sp)
   127aa:	6105                	addi	sp,sp,32
   127ac:	b531                	j	125b8 <__sflush_r>
   127ae:	c62a                	sw	a0,12(sp)
   127b0:	2451                	jal	12a34 <__sinit>
   127b2:	00c41783          	lh	a5,12(s0)
   127b6:	4532                	lw	a0,12(sp)
   127b8:	d3ed                	beqz	a5,1279a <fflush+0x1a>
   127ba:	b7ed                	j	127a4 <fflush+0x24>
   127bc:	1b81a503          	lw	a0,440(gp) # 20eb8 <_global_impure_ptr>
   127c0:	65c9                	lui	a1,0x12
   127c2:	74c58593          	addi	a1,a1,1868 # 1274c <_fflush_r>
   127c6:	15f0006f          	j	13124 <_fwalk_reent>

000127ca <__fp_lock>:
   127ca:	4501                	li	a0,0
   127cc:	8082                	ret

000127ce <_cleanup_r>:
   127ce:	65e9                	lui	a1,0x1a
   127d0:	d6058593          	addi	a1,a1,-672 # 19d60 <_fclose_r>
   127d4:	1510006f          	j	13124 <_fwalk_reent>

000127d8 <__fp_unlock>:
   127d8:	4501                	li	a0,0
   127da:	8082                	ret

000127dc <__sinit.part.0>:
   127dc:	1101                	addi	sp,sp,-32
   127de:	67c9                	lui	a5,0x12
   127e0:	ce06                	sw	ra,28(sp)
   127e2:	cc22                	sw	s0,24(sp)
   127e4:	ca26                	sw	s1,20(sp)
   127e6:	c84a                	sw	s2,16(sp)
   127e8:	c64e                	sw	s3,12(sp)
   127ea:	c452                	sw	s4,8(sp)
   127ec:	c256                	sw	s5,4(sp)
   127ee:	c05a                	sw	s6,0(sp)
   127f0:	4140                	lw	s0,4(a0)
   127f2:	7ce78793          	addi	a5,a5,1998 # 127ce <_cleanup_r>
   127f6:	dd5c                	sw	a5,60(a0)
   127f8:	2ec50713          	addi	a4,a0,748
   127fc:	478d                	li	a5,3
   127fe:	2ee52423          	sw	a4,744(a0)
   12802:	2ef52223          	sw	a5,740(a0)
   12806:	2e052023          	sw	zero,736(a0)
   1280a:	4791                	li	a5,4
   1280c:	892a                	mv	s2,a0
   1280e:	c45c                	sw	a5,12(s0)
   12810:	4621                	li	a2,8
   12812:	4581                	li	a1,0
   12814:	06042223          	sw	zero,100(s0)
   12818:	00042023          	sw	zero,0(s0)
   1281c:	00042223          	sw	zero,4(s0)
   12820:	00042423          	sw	zero,8(s0)
   12824:	00042823          	sw	zero,16(s0)
   12828:	00042a23          	sw	zero,20(s0)
   1282c:	00042c23          	sw	zero,24(s0)
   12830:	05c40513          	addi	a0,s0,92
   12834:	ab7fd0ef          	jal	ra,102ea <memset>
   12838:	6b5d                	lui	s6,0x17
   1283a:	00892483          	lw	s1,8(s2)
   1283e:	6add                	lui	s5,0x17
   12840:	6a5d                	lui	s4,0x17
   12842:	69dd                	lui	s3,0x17
   12844:	d64b0b13          	addi	s6,s6,-668 # 16d64 <__sread>
   12848:	da0a8a93          	addi	s5,s5,-608 # 16da0 <__swrite>
   1284c:	df4a0a13          	addi	s4,s4,-524 # 16df4 <__sseek>
   12850:	e3698993          	addi	s3,s3,-458 # 16e36 <__sclose>
   12854:	67c1                	lui	a5,0x10
   12856:	03642023          	sw	s6,32(s0)
   1285a:	03542223          	sw	s5,36(s0)
   1285e:	03442423          	sw	s4,40(s0)
   12862:	03342623          	sw	s3,44(s0)
   12866:	cc40                	sw	s0,28(s0)
   12868:	07a5                	addi	a5,a5,9
   1286a:	c4dc                	sw	a5,12(s1)
   1286c:	4621                	li	a2,8
   1286e:	4581                	li	a1,0
   12870:	0604a223          	sw	zero,100(s1)
   12874:	0004a023          	sw	zero,0(s1)
   12878:	0004a223          	sw	zero,4(s1)
   1287c:	0004a423          	sw	zero,8(s1)
   12880:	0004a823          	sw	zero,16(s1)
   12884:	0004aa23          	sw	zero,20(s1)
   12888:	0004ac23          	sw	zero,24(s1)
   1288c:	05c48513          	addi	a0,s1,92
   12890:	a5bfd0ef          	jal	ra,102ea <memset>
   12894:	00c92403          	lw	s0,12(s2)
   12898:	000207b7          	lui	a5,0x20
   1289c:	0364a023          	sw	s6,32(s1)
   128a0:	0354a223          	sw	s5,36(s1)
   128a4:	0344a423          	sw	s4,40(s1)
   128a8:	0334a623          	sw	s3,44(s1)
   128ac:	ccc4                	sw	s1,28(s1)
   128ae:	07c9                	addi	a5,a5,18
   128b0:	c45c                	sw	a5,12(s0)
   128b2:	06042223          	sw	zero,100(s0)
   128b6:	00042023          	sw	zero,0(s0)
   128ba:	00042223          	sw	zero,4(s0)
   128be:	00042423          	sw	zero,8(s0)
   128c2:	00042823          	sw	zero,16(s0)
   128c6:	00042a23          	sw	zero,20(s0)
   128ca:	00042c23          	sw	zero,24(s0)
   128ce:	05c40513          	addi	a0,s0,92
   128d2:	4621                	li	a2,8
   128d4:	4581                	li	a1,0
   128d6:	a15fd0ef          	jal	ra,102ea <memset>
   128da:	40f2                	lw	ra,28(sp)
   128dc:	03642023          	sw	s6,32(s0)
   128e0:	03542223          	sw	s5,36(s0)
   128e4:	03442423          	sw	s4,40(s0)
   128e8:	03342623          	sw	s3,44(s0)
   128ec:	cc40                	sw	s0,28(s0)
   128ee:	4462                	lw	s0,24(sp)
   128f0:	4785                	li	a5,1
   128f2:	02f92c23          	sw	a5,56(s2)
   128f6:	44d2                	lw	s1,20(sp)
   128f8:	4942                	lw	s2,16(sp)
   128fa:	49b2                	lw	s3,12(sp)
   128fc:	4a22                	lw	s4,8(sp)
   128fe:	4a92                	lw	s5,4(sp)
   12900:	4b02                	lw	s6,0(sp)
   12902:	6105                	addi	sp,sp,32
   12904:	8082                	ret

00012906 <__sfmoreglue>:
   12906:	1141                	addi	sp,sp,-16
   12908:	c226                	sw	s1,4(sp)
   1290a:	06800613          	li	a2,104
   1290e:	fff58493          	addi	s1,a1,-1
   12912:	02c484b3          	mul	s1,s1,a2
   12916:	c04a                	sw	s2,0(sp)
   12918:	892e                	mv	s2,a1
   1291a:	c422                	sw	s0,8(sp)
   1291c:	c606                	sw	ra,12(sp)
   1291e:	07448593          	addi	a1,s1,116
   12922:	2e5020ef          	jal	ra,15406 <_malloc_r>
   12926:	842a                	mv	s0,a0
   12928:	cd01                	beqz	a0,12940 <__sfmoreglue+0x3a>
   1292a:	0531                	addi	a0,a0,12
   1292c:	00042023          	sw	zero,0(s0)
   12930:	01242223          	sw	s2,4(s0)
   12934:	c408                	sw	a0,8(s0)
   12936:	06848613          	addi	a2,s1,104
   1293a:	4581                	li	a1,0
   1293c:	9affd0ef          	jal	ra,102ea <memset>
   12940:	40b2                	lw	ra,12(sp)
   12942:	8522                	mv	a0,s0
   12944:	4422                	lw	s0,8(sp)
   12946:	4492                	lw	s1,4(sp)
   12948:	4902                	lw	s2,0(sp)
   1294a:	0141                	addi	sp,sp,16
   1294c:	8082                	ret

0001294e <__sfp>:
   1294e:	1101                	addi	sp,sp,-32
   12950:	c84a                	sw	s2,16(sp)
   12952:	1b81a903          	lw	s2,440(gp) # 20eb8 <_global_impure_ptr>
   12956:	c64e                	sw	s3,12(sp)
   12958:	ce06                	sw	ra,28(sp)
   1295a:	03892783          	lw	a5,56(s2)
   1295e:	cc22                	sw	s0,24(sp)
   12960:	ca26                	sw	s1,20(sp)
   12962:	c452                	sw	s4,8(sp)
   12964:	89aa                	mv	s3,a0
   12966:	c3d1                	beqz	a5,129ea <__sfp+0x9c>
   12968:	2e090913          	addi	s2,s2,736
   1296c:	54fd                	li	s1,-1
   1296e:	4a11                	li	s4,4
   12970:	00492783          	lw	a5,4(s2)
   12974:	00892403          	lw	s0,8(s2)
   12978:	17fd                	addi	a5,a5,-1
   1297a:	0007d763          	bgez	a5,12988 <__sfp+0x3a>
   1297e:	a08d                	j	129e0 <__sfp+0x92>
   12980:	06840413          	addi	s0,s0,104
   12984:	04978e63          	beq	a5,s1,129e0 <__sfp+0x92>
   12988:	00c41703          	lh	a4,12(s0)
   1298c:	17fd                	addi	a5,a5,-1
   1298e:	fb6d                	bnez	a4,12980 <__sfp+0x32>
   12990:	77c1                	lui	a5,0xffff0
   12992:	0785                	addi	a5,a5,1
   12994:	06042223          	sw	zero,100(s0)
   12998:	00042023          	sw	zero,0(s0)
   1299c:	00042223          	sw	zero,4(s0)
   129a0:	00042423          	sw	zero,8(s0)
   129a4:	c45c                	sw	a5,12(s0)
   129a6:	00042823          	sw	zero,16(s0)
   129aa:	00042a23          	sw	zero,20(s0)
   129ae:	00042c23          	sw	zero,24(s0)
   129b2:	4621                	li	a2,8
   129b4:	4581                	li	a1,0
   129b6:	05c40513          	addi	a0,s0,92
   129ba:	931fd0ef          	jal	ra,102ea <memset>
   129be:	02042823          	sw	zero,48(s0)
   129c2:	02042a23          	sw	zero,52(s0)
   129c6:	04042223          	sw	zero,68(s0)
   129ca:	04042423          	sw	zero,72(s0)
   129ce:	40f2                	lw	ra,28(sp)
   129d0:	8522                	mv	a0,s0
   129d2:	4462                	lw	s0,24(sp)
   129d4:	44d2                	lw	s1,20(sp)
   129d6:	4942                	lw	s2,16(sp)
   129d8:	49b2                	lw	s3,12(sp)
   129da:	4a22                	lw	s4,8(sp)
   129dc:	6105                	addi	sp,sp,32
   129de:	8082                	ret
   129e0:	00092403          	lw	s0,0(s2)
   129e4:	c411                	beqz	s0,129f0 <__sfp+0xa2>
   129e6:	8922                	mv	s2,s0
   129e8:	b761                	j	12970 <__sfp+0x22>
   129ea:	854a                	mv	a0,s2
   129ec:	3bc5                	jal	127dc <__sinit.part.0>
   129ee:	bfad                	j	12968 <__sfp+0x1a>
   129f0:	1ac00593          	li	a1,428
   129f4:	854e                	mv	a0,s3
   129f6:	211020ef          	jal	ra,15406 <_malloc_r>
   129fa:	842a                	mv	s0,a0
   129fc:	c105                	beqz	a0,12a1c <__sfp+0xce>
   129fe:	0531                	addi	a0,a0,12
   12a00:	00042023          	sw	zero,0(s0)
   12a04:	01442223          	sw	s4,4(s0)
   12a08:	c408                	sw	a0,8(s0)
   12a0a:	1a000613          	li	a2,416
   12a0e:	4581                	li	a1,0
   12a10:	8dbfd0ef          	jal	ra,102ea <memset>
   12a14:	00892023          	sw	s0,0(s2)
   12a18:	8922                	mv	s2,s0
   12a1a:	bf99                	j	12970 <__sfp+0x22>
   12a1c:	00092023          	sw	zero,0(s2)
   12a20:	47b1                	li	a5,12
   12a22:	00f9a023          	sw	a5,0(s3)
   12a26:	b765                	j	129ce <__sfp+0x80>

00012a28 <_cleanup>:
   12a28:	1b81a503          	lw	a0,440(gp) # 20eb8 <_global_impure_ptr>
   12a2c:	65e9                	lui	a1,0x1a
   12a2e:	d6058593          	addi	a1,a1,-672 # 19d60 <_fclose_r>
   12a32:	adcd                	j	13124 <_fwalk_reent>

00012a34 <__sinit>:
   12a34:	5d1c                	lw	a5,56(a0)
   12a36:	c391                	beqz	a5,12a3a <__sinit+0x6>
   12a38:	8082                	ret
   12a3a:	b34d                	j	127dc <__sinit.part.0>

00012a3c <__sfp_lock_acquire>:
   12a3c:	8082                	ret

00012a3e <__sfp_lock_release>:
   12a3e:	8082                	ret

00012a40 <__sinit_lock_acquire>:
   12a40:	8082                	ret

00012a42 <__sinit_lock_release>:
   12a42:	8082                	ret

00012a44 <__fp_lock_all>:
   12a44:	1c01a503          	lw	a0,448(gp) # 20ec0 <_impure_ptr>
   12a48:	65c9                	lui	a1,0x12
   12a4a:	7ca58593          	addi	a1,a1,1994 # 127ca <__fp_lock>
   12a4e:	a5ad                	j	130b8 <_fwalk>

00012a50 <__fp_unlock_all>:
   12a50:	1c01a503          	lw	a0,448(gp) # 20ec0 <_impure_ptr>
   12a54:	65c9                	lui	a1,0x12
   12a56:	7d858593          	addi	a1,a1,2008 # 127d8 <__fp_unlock>
   12a5a:	adb9                	j	130b8 <_fwalk>

00012a5c <__libc_fini_array>:
   12a5c:	1141                	addi	sp,sp,-16
   12a5e:	c422                	sw	s0,8(sp)
   12a60:	000207b7          	lui	a5,0x20
   12a64:	00020437          	lui	s0,0x20
   12a68:	4fc40413          	addi	s0,s0,1276 # 204fc <__do_global_dtors_aux_fini_array_entry>
   12a6c:	50078793          	addi	a5,a5,1280 # 20500 <impure_data>
   12a70:	8f81                	sub	a5,a5,s0
   12a72:	c226                	sw	s1,4(sp)
   12a74:	c606                	sw	ra,12(sp)
   12a76:	4027d493          	srai	s1,a5,0x2
   12a7a:	c881                	beqz	s1,12a8a <__libc_fini_array+0x2e>
   12a7c:	17f1                	addi	a5,a5,-4
   12a7e:	943e                	add	s0,s0,a5
   12a80:	401c                	lw	a5,0(s0)
   12a82:	14fd                	addi	s1,s1,-1
   12a84:	1471                	addi	s0,s0,-4
   12a86:	9782                	jalr	a5
   12a88:	fce5                	bnez	s1,12a80 <__libc_fini_array+0x24>
   12a8a:	40b2                	lw	ra,12(sp)
   12a8c:	4422                	lw	s0,8(sp)
   12a8e:	4492                	lw	s1,4(sp)
   12a90:	0141                	addi	sp,sp,16
   12a92:	8082                	ret

00012a94 <_malloc_trim_r>:
   12a94:	1101                	addi	sp,sp,-32
   12a96:	c64e                	sw	s3,12(sp)
   12a98:	cc22                	sw	s0,24(sp)
   12a9a:	ca26                	sw	s1,20(sp)
   12a9c:	c84a                	sw	s2,16(sp)
   12a9e:	c452                	sw	s4,8(sp)
   12aa0:	ce06                	sw	ra,28(sp)
   12aa2:	8a2e                	mv	s4,a1
   12aa4:	892a                	mv	s2,a0
   12aa6:	d9418993          	addi	s3,gp,-620 # 20a94 <__malloc_av_>
   12aaa:	198030ef          	jal	ra,15c42 <__malloc_lock>
   12aae:	0089a703          	lw	a4,8(s3)
   12ab2:	6785                	lui	a5,0x1
   12ab4:	fef78413          	addi	s0,a5,-17 # fef <register_fini-0xf085>
   12ab8:	4344                	lw	s1,4(a4)
   12aba:	41440433          	sub	s0,s0,s4
   12abe:	98f1                	andi	s1,s1,-4
   12ac0:	9426                	add	s0,s0,s1
   12ac2:	8031                	srli	s0,s0,0xc
   12ac4:	147d                	addi	s0,s0,-1
   12ac6:	0432                	slli	s0,s0,0xc
   12ac8:	00f44b63          	blt	s0,a5,12ade <_malloc_trim_r+0x4a>
   12acc:	4581                	li	a1,0
   12ace:	854a                	mv	a0,s2
   12ad0:	15e040ef          	jal	ra,16c2e <_sbrk_r>
   12ad4:	0089a783          	lw	a5,8(s3)
   12ad8:	97a6                	add	a5,a5,s1
   12ada:	00f50e63          	beq	a0,a5,12af6 <_malloc_trim_r+0x62>
   12ade:	854a                	mv	a0,s2
   12ae0:	164030ef          	jal	ra,15c44 <__malloc_unlock>
   12ae4:	40f2                	lw	ra,28(sp)
   12ae6:	4462                	lw	s0,24(sp)
   12ae8:	44d2                	lw	s1,20(sp)
   12aea:	4942                	lw	s2,16(sp)
   12aec:	49b2                	lw	s3,12(sp)
   12aee:	4a22                	lw	s4,8(sp)
   12af0:	4501                	li	a0,0
   12af2:	6105                	addi	sp,sp,32
   12af4:	8082                	ret
   12af6:	408005b3          	neg	a1,s0
   12afa:	854a                	mv	a0,s2
   12afc:	132040ef          	jal	ra,16c2e <_sbrk_r>
   12b00:	57fd                	li	a5,-1
   12b02:	02f50a63          	beq	a0,a5,12b36 <_malloc_trim_r+0xa2>
   12b06:	20018793          	addi	a5,gp,512 # 20f00 <__malloc_current_mallinfo>
   12b0a:	4398                	lw	a4,0(a5)
   12b0c:	0089a683          	lw	a3,8(s3)
   12b10:	8c81                	sub	s1,s1,s0
   12b12:	0014e493          	ori	s1,s1,1
   12b16:	40870433          	sub	s0,a4,s0
   12b1a:	854a                	mv	a0,s2
   12b1c:	c2c4                	sw	s1,4(a3)
   12b1e:	c380                	sw	s0,0(a5)
   12b20:	124030ef          	jal	ra,15c44 <__malloc_unlock>
   12b24:	40f2                	lw	ra,28(sp)
   12b26:	4462                	lw	s0,24(sp)
   12b28:	44d2                	lw	s1,20(sp)
   12b2a:	4942                	lw	s2,16(sp)
   12b2c:	49b2                	lw	s3,12(sp)
   12b2e:	4a22                	lw	s4,8(sp)
   12b30:	4505                	li	a0,1
   12b32:	6105                	addi	sp,sp,32
   12b34:	8082                	ret
   12b36:	4581                	li	a1,0
   12b38:	854a                	mv	a0,s2
   12b3a:	0f4040ef          	jal	ra,16c2e <_sbrk_r>
   12b3e:	0089a703          	lw	a4,8(s3)
   12b42:	46bd                	li	a3,15
   12b44:	40e507b3          	sub	a5,a0,a4
   12b48:	f8f6dbe3          	bge	a3,a5,12ade <_malloc_trim_r+0x4a>
   12b4c:	1c41a683          	lw	a3,452(gp) # 20ec4 <__malloc_sbrk_base>
   12b50:	0017e793          	ori	a5,a5,1
   12b54:	c35c                	sw	a5,4(a4)
   12b56:	8d15                	sub	a0,a0,a3
   12b58:	20a1a023          	sw	a0,512(gp) # 20f00 <__malloc_current_mallinfo>
   12b5c:	b749                	j	12ade <_malloc_trim_r+0x4a>

00012b5e <_free_r>:
   12b5e:	cde9                	beqz	a1,12c38 <_free_r+0xda>
   12b60:	1141                	addi	sp,sp,-16
   12b62:	c422                	sw	s0,8(sp)
   12b64:	c226                	sw	s1,4(sp)
   12b66:	842e                	mv	s0,a1
   12b68:	84aa                	mv	s1,a0
   12b6a:	c606                	sw	ra,12(sp)
   12b6c:	0d6030ef          	jal	ra,15c42 <__malloc_lock>
   12b70:	ffc42803          	lw	a6,-4(s0)
   12b74:	ff840713          	addi	a4,s0,-8
   12b78:	ffe87793          	andi	a5,a6,-2
   12b7c:	00f70633          	add	a2,a4,a5
   12b80:	d9418593          	addi	a1,gp,-620 # 20a94 <__malloc_av_>
   12b84:	4254                	lw	a3,4(a2)
   12b86:	4588                	lw	a0,8(a1)
   12b88:	9af1                	andi	a3,a3,-4
   12b8a:	12c50c63          	beq	a0,a2,12cc2 <_free_r+0x164>
   12b8e:	c254                	sw	a3,4(a2)
   12b90:	00187813          	andi	a6,a6,1
   12b94:	00d60533          	add	a0,a2,a3
   12b98:	06081b63          	bnez	a6,12c0e <_free_r+0xb0>
   12b9c:	ff842303          	lw	t1,-8(s0)
   12ba0:	00452803          	lw	a6,4(a0)
   12ba4:	40670733          	sub	a4,a4,t1
   12ba8:	00872883          	lw	a7,8(a4)
   12bac:	d9c18513          	addi	a0,gp,-612 # 20a9c <__malloc_av_+0x8>
   12bb0:	979a                	add	a5,a5,t1
   12bb2:	00187813          	andi	a6,a6,1
   12bb6:	0ea88363          	beq	a7,a0,12c9c <_free_r+0x13e>
   12bba:	00c72303          	lw	t1,12(a4)
   12bbe:	0068a623          	sw	t1,12(a7)
   12bc2:	01132423          	sw	a7,8(t1)
   12bc6:	14080763          	beqz	a6,12d14 <_free_r+0x1b6>
   12bca:	0017e693          	ori	a3,a5,1
   12bce:	c354                	sw	a3,4(a4)
   12bd0:	c21c                	sw	a5,0(a2)
   12bd2:	1ff00693          	li	a3,511
   12bd6:	06f6eb63          	bltu	a3,a5,12c4c <_free_r+0xee>
   12bda:	ff87f693          	andi	a3,a5,-8
   12bde:	06a1                	addi	a3,a3,8
   12be0:	41c8                	lw	a0,4(a1)
   12be2:	96ae                	add	a3,a3,a1
   12be4:	4290                	lw	a2,0(a3)
   12be6:	0057d813          	srli	a6,a5,0x5
   12bea:	4785                	li	a5,1
   12bec:	010797b3          	sll	a5,a5,a6
   12bf0:	8fc9                	or	a5,a5,a0
   12bf2:	ff868513          	addi	a0,a3,-8 # ff8 <register_fini-0xf07c>
   12bf6:	c748                	sw	a0,12(a4)
   12bf8:	c710                	sw	a2,8(a4)
   12bfa:	c1dc                	sw	a5,4(a1)
   12bfc:	c298                	sw	a4,0(a3)
   12bfe:	c658                	sw	a4,12(a2)
   12c00:	4422                	lw	s0,8(sp)
   12c02:	40b2                	lw	ra,12(sp)
   12c04:	8526                	mv	a0,s1
   12c06:	4492                	lw	s1,4(sp)
   12c08:	0141                	addi	sp,sp,16
   12c0a:	03a0306f          	j	15c44 <__malloc_unlock>
   12c0e:	4148                	lw	a0,4(a0)
   12c10:	8905                	andi	a0,a0,1
   12c12:	e505                	bnez	a0,12c3a <_free_r+0xdc>
   12c14:	97b6                	add	a5,a5,a3
   12c16:	d9c18513          	addi	a0,gp,-612 # 20a9c <__malloc_av_+0x8>
   12c1a:	4614                	lw	a3,8(a2)
   12c1c:	0017e893          	ori	a7,a5,1
   12c20:	00f70833          	add	a6,a4,a5
   12c24:	10a68063          	beq	a3,a0,12d24 <_free_r+0x1c6>
   12c28:	4650                	lw	a2,12(a2)
   12c2a:	c6d0                	sw	a2,12(a3)
   12c2c:	c614                	sw	a3,8(a2)
   12c2e:	01172223          	sw	a7,4(a4)
   12c32:	00f82023          	sw	a5,0(a6)
   12c36:	bf71                	j	12bd2 <_free_r+0x74>
   12c38:	8082                	ret
   12c3a:	0017e693          	ori	a3,a5,1
   12c3e:	fed42e23          	sw	a3,-4(s0)
   12c42:	c21c                	sw	a5,0(a2)
   12c44:	1ff00693          	li	a3,511
   12c48:	f8f6f9e3          	bgeu	a3,a5,12bda <_free_r+0x7c>
   12c4c:	0097d693          	srli	a3,a5,0x9
   12c50:	4611                	li	a2,4
   12c52:	0ad66263          	bltu	a2,a3,12cf6 <_free_r+0x198>
   12c56:	0067d693          	srli	a3,a5,0x6
   12c5a:	03968813          	addi	a6,a3,57
   12c5e:	03868613          	addi	a2,a3,56
   12c62:	080e                	slli	a6,a6,0x3
   12c64:	982e                	add	a6,a6,a1
   12c66:	00082683          	lw	a3,0(a6)
   12c6a:	1861                	addi	a6,a6,-8
   12c6c:	0cd80563          	beq	a6,a3,12d36 <_free_r+0x1d8>
   12c70:	42d0                	lw	a2,4(a3)
   12c72:	9a71                	andi	a2,a2,-4
   12c74:	00c7f563          	bgeu	a5,a2,12c7e <_free_r+0x120>
   12c78:	4694                	lw	a3,8(a3)
   12c7a:	fed81be3          	bne	a6,a3,12c70 <_free_r+0x112>
   12c7e:	00c6a803          	lw	a6,12(a3)
   12c82:	01072623          	sw	a6,12(a4)
   12c86:	c714                	sw	a3,8(a4)
   12c88:	4422                	lw	s0,8(sp)
   12c8a:	40b2                	lw	ra,12(sp)
   12c8c:	00e82423          	sw	a4,8(a6)
   12c90:	8526                	mv	a0,s1
   12c92:	4492                	lw	s1,4(sp)
   12c94:	c6d8                	sw	a4,12(a3)
   12c96:	0141                	addi	sp,sp,16
   12c98:	7ad0206f          	j	15c44 <__malloc_unlock>
   12c9c:	0e081263          	bnez	a6,12d80 <_free_r+0x222>
   12ca0:	464c                	lw	a1,12(a2)
   12ca2:	4610                	lw	a2,8(a2)
   12ca4:	97b6                	add	a5,a5,a3
   12ca6:	4422                	lw	s0,8(sp)
   12ca8:	c64c                	sw	a1,12(a2)
   12caa:	c590                	sw	a2,8(a1)
   12cac:	0017e693          	ori	a3,a5,1
   12cb0:	40b2                	lw	ra,12(sp)
   12cb2:	c354                	sw	a3,4(a4)
   12cb4:	8526                	mv	a0,s1
   12cb6:	973e                	add	a4,a4,a5
   12cb8:	4492                	lw	s1,4(sp)
   12cba:	c31c                	sw	a5,0(a4)
   12cbc:	0141                	addi	sp,sp,16
   12cbe:	7870206f          	j	15c44 <__malloc_unlock>
   12cc2:	00187813          	andi	a6,a6,1
   12cc6:	97b6                	add	a5,a5,a3
   12cc8:	00081a63          	bnez	a6,12cdc <_free_r+0x17e>
   12ccc:	ff842503          	lw	a0,-8(s0)
   12cd0:	8f09                	sub	a4,a4,a0
   12cd2:	4754                	lw	a3,12(a4)
   12cd4:	4710                	lw	a2,8(a4)
   12cd6:	97aa                	add	a5,a5,a0
   12cd8:	c654                	sw	a3,12(a2)
   12cda:	c690                	sw	a2,8(a3)
   12cdc:	0017e613          	ori	a2,a5,1
   12ce0:	1c81a683          	lw	a3,456(gp) # 20ec8 <__malloc_trim_threshold>
   12ce4:	c350                	sw	a2,4(a4)
   12ce6:	c598                	sw	a4,8(a1)
   12ce8:	f0d7ece3          	bltu	a5,a3,12c00 <_free_r+0xa2>
   12cec:	1d81a583          	lw	a1,472(gp) # 20ed8 <__malloc_top_pad>
   12cf0:	8526                	mv	a0,s1
   12cf2:	334d                	jal	12a94 <_malloc_trim_r>
   12cf4:	b731                	j	12c00 <_free_r+0xa2>
   12cf6:	4651                	li	a2,20
   12cf8:	02d67063          	bgeu	a2,a3,12d18 <_free_r+0x1ba>
   12cfc:	05400613          	li	a2,84
   12d00:	04d66363          	bltu	a2,a3,12d46 <_free_r+0x1e8>
   12d04:	00c7d693          	srli	a3,a5,0xc
   12d08:	06f68813          	addi	a6,a3,111
   12d0c:	06e68613          	addi	a2,a3,110
   12d10:	080e                	slli	a6,a6,0x3
   12d12:	bf89                	j	12c64 <_free_r+0x106>
   12d14:	97b6                	add	a5,a5,a3
   12d16:	b711                	j	12c1a <_free_r+0xbc>
   12d18:	05c68813          	addi	a6,a3,92
   12d1c:	05b68613          	addi	a2,a3,91
   12d20:	080e                	slli	a6,a6,0x3
   12d22:	b789                	j	12c64 <_free_r+0x106>
   12d24:	c9d8                	sw	a4,20(a1)
   12d26:	c998                	sw	a4,16(a1)
   12d28:	c748                	sw	a0,12(a4)
   12d2a:	c708                	sw	a0,8(a4)
   12d2c:	01172223          	sw	a7,4(a4)
   12d30:	00f82023          	sw	a5,0(a6)
   12d34:	b5f1                	j	12c00 <_free_r+0xa2>
   12d36:	41c8                	lw	a0,4(a1)
   12d38:	8609                	srai	a2,a2,0x2
   12d3a:	4785                	li	a5,1
   12d3c:	00c79633          	sll	a2,a5,a2
   12d40:	8e49                	or	a2,a2,a0
   12d42:	c1d0                	sw	a2,4(a1)
   12d44:	bf3d                	j	12c82 <_free_r+0x124>
   12d46:	15400613          	li	a2,340
   12d4a:	00d66a63          	bltu	a2,a3,12d5e <_free_r+0x200>
   12d4e:	00f7d693          	srli	a3,a5,0xf
   12d52:	07868813          	addi	a6,a3,120
   12d56:	07768613          	addi	a2,a3,119
   12d5a:	080e                	slli	a6,a6,0x3
   12d5c:	b721                	j	12c64 <_free_r+0x106>
   12d5e:	55400613          	li	a2,1364
   12d62:	00d66a63          	bltu	a2,a3,12d76 <_free_r+0x218>
   12d66:	0127d693          	srli	a3,a5,0x12
   12d6a:	07d68813          	addi	a6,a3,125
   12d6e:	07c68613          	addi	a2,a3,124
   12d72:	080e                	slli	a6,a6,0x3
   12d74:	bdc5                	j	12c64 <_free_r+0x106>
   12d76:	3f800813          	li	a6,1016
   12d7a:	07e00613          	li	a2,126
   12d7e:	b5dd                	j	12c64 <_free_r+0x106>
   12d80:	0017e693          	ori	a3,a5,1
   12d84:	c354                	sw	a3,4(a4)
   12d86:	c21c                	sw	a5,0(a2)
   12d88:	bda5                	j	12c00 <_free_r+0xa2>

00012d8a <__sfvwrite_r>:
   12d8a:	461c                	lw	a5,8(a2)
   12d8c:	22078763          	beqz	a5,12fba <__sfvwrite_r+0x230>
   12d90:	00c5d783          	lhu	a5,12(a1)
   12d94:	7179                	addi	sp,sp,-48
   12d96:	d422                	sw	s0,40(sp)
   12d98:	cc52                	sw	s4,24(sp)
   12d9a:	ca56                	sw	s5,20(sp)
   12d9c:	d606                	sw	ra,44(sp)
   12d9e:	d226                	sw	s1,36(sp)
   12da0:	d04a                	sw	s2,32(sp)
   12da2:	ce4e                	sw	s3,28(sp)
   12da4:	c85a                	sw	s6,16(sp)
   12da6:	c65e                	sw	s7,12(sp)
   12da8:	c462                	sw	s8,8(sp)
   12daa:	c266                	sw	s9,4(sp)
   12dac:	c06a                	sw	s10,0(sp)
   12dae:	0087f713          	andi	a4,a5,8
   12db2:	8a32                	mv	s4,a2
   12db4:	8aaa                	mv	s5,a0
   12db6:	842e                	mv	s0,a1
   12db8:	c335                	beqz	a4,12e1c <__sfvwrite_r+0x92>
   12dba:	4998                	lw	a4,16(a1)
   12dbc:	c325                	beqz	a4,12e1c <__sfvwrite_r+0x92>
   12dbe:	0027f713          	andi	a4,a5,2
   12dc2:	000a2483          	lw	s1,0(s4)
   12dc6:	cb25                	beqz	a4,12e36 <__sfvwrite_r+0xac>
   12dc8:	505c                	lw	a5,36(s0)
   12dca:	4c4c                	lw	a1,28(s0)
   12dcc:	80000b37          	lui	s6,0x80000
   12dd0:	4981                	li	s3,0
   12dd2:	4901                	li	s2,0
   12dd4:	c00b4b13          	xori	s6,s6,-1024
   12dd8:	864e                	mv	a2,s3
   12dda:	8556                	mv	a0,s5
   12ddc:	02090a63          	beqz	s2,12e10 <__sfvwrite_r+0x86>
   12de0:	86ca                	mv	a3,s2
   12de2:	012b7363          	bgeu	s6,s2,12de8 <__sfvwrite_r+0x5e>
   12de6:	86da                	mv	a3,s6
   12de8:	9782                	jalr	a5
   12dea:	1ca05063          	blez	a0,12faa <__sfvwrite_r+0x220>
   12dee:	008a2783          	lw	a5,8(s4)
   12df2:	99aa                	add	s3,s3,a0
   12df4:	40a90933          	sub	s2,s2,a0
   12df8:	40a78533          	sub	a0,a5,a0
   12dfc:	00aa2423          	sw	a0,8(s4)
   12e00:	18050163          	beqz	a0,12f82 <__sfvwrite_r+0x1f8>
   12e04:	505c                	lw	a5,36(s0)
   12e06:	4c4c                	lw	a1,28(s0)
   12e08:	864e                	mv	a2,s3
   12e0a:	8556                	mv	a0,s5
   12e0c:	fc091ae3          	bnez	s2,12de0 <__sfvwrite_r+0x56>
   12e10:	0004a983          	lw	s3,0(s1)
   12e14:	0044a903          	lw	s2,4(s1)
   12e18:	04a1                	addi	s1,s1,8
   12e1a:	bf7d                	j	12dd8 <__sfvwrite_r+0x4e>
   12e1c:	85a2                	mv	a1,s0
   12e1e:	8556                	mv	a0,s5
   12e20:	de6ff0ef          	jal	ra,12406 <__swsetup_r>
   12e24:	28051863          	bnez	a0,130b4 <__sfvwrite_r+0x32a>
   12e28:	00c45783          	lhu	a5,12(s0)
   12e2c:	000a2483          	lw	s1,0(s4)
   12e30:	0027f713          	andi	a4,a5,2
   12e34:	fb51                	bnez	a4,12dc8 <__sfvwrite_r+0x3e>
   12e36:	0017f713          	andi	a4,a5,1
   12e3a:	e765                	bnez	a4,12f22 <__sfvwrite_r+0x198>
   12e3c:	00842c83          	lw	s9,8(s0)
   12e40:	4008                	lw	a0,0(s0)
   12e42:	80000b37          	lui	s6,0x80000
   12e46:	ffeb4b93          	xori	s7,s6,-2
   12e4a:	4c01                	li	s8,0
   12e4c:	4901                	li	s2,0
   12e4e:	fffb4b13          	not	s6,s6
   12e52:	0c090263          	beqz	s2,12f16 <__sfvwrite_r+0x18c>
   12e56:	2007f713          	andi	a4,a5,512
   12e5a:	1a070063          	beqz	a4,12ffa <__sfvwrite_r+0x270>
   12e5e:	8d66                	mv	s10,s9
   12e60:	1f996e63          	bltu	s2,s9,1305c <__sfvwrite_r+0x2d2>
   12e64:	4807f713          	andi	a4,a5,1152
   12e68:	cb2d                	beqz	a4,12eda <__sfvwrite_r+0x150>
   12e6a:	01442983          	lw	s3,20(s0)
   12e6e:	480c                	lw	a1,16(s0)
   12e70:	00190713          	addi	a4,s2,1
   12e74:	00199693          	slli	a3,s3,0x1
   12e78:	96ce                	add	a3,a3,s3
   12e7a:	01f6d993          	srli	s3,a3,0x1f
   12e7e:	40b50d33          	sub	s10,a0,a1
   12e82:	99b6                	add	s3,s3,a3
   12e84:	4019d993          	srai	s3,s3,0x1
   12e88:	976a                	add	a4,a4,s10
   12e8a:	864e                	mv	a2,s3
   12e8c:	00e9f463          	bgeu	s3,a4,12e94 <__sfvwrite_r+0x10a>
   12e90:	89ba                	mv	s3,a4
   12e92:	863a                	mv	a2,a4
   12e94:	4007f793          	andi	a5,a5,1024
   12e98:	1e078263          	beqz	a5,1307c <__sfvwrite_r+0x2f2>
   12e9c:	85b2                	mv	a1,a2
   12e9e:	8556                	mv	a0,s5
   12ea0:	566020ef          	jal	ra,15406 <_malloc_r>
   12ea4:	8caa                	mv	s9,a0
   12ea6:	20050163          	beqz	a0,130a8 <__sfvwrite_r+0x31e>
   12eaa:	480c                	lw	a1,16(s0)
   12eac:	866a                	mv	a2,s10
   12eae:	3dd020ef          	jal	ra,15a8a <memcpy>
   12eb2:	00c45783          	lhu	a5,12(s0)
   12eb6:	b7f7f793          	andi	a5,a5,-1153
   12eba:	0807e793          	ori	a5,a5,128
   12ebe:	00f41623          	sh	a5,12(s0)
   12ec2:	01ac8533          	add	a0,s9,s10
   12ec6:	41a987b3          	sub	a5,s3,s10
   12eca:	01942823          	sw	s9,16(s0)
   12ece:	c008                	sw	a0,0(s0)
   12ed0:	01342a23          	sw	s3,20(s0)
   12ed4:	8cca                	mv	s9,s2
   12ed6:	c41c                	sw	a5,8(s0)
   12ed8:	8d4a                	mv	s10,s2
   12eda:	866a                	mv	a2,s10
   12edc:	85e2                	mv	a1,s8
   12ede:	495020ef          	jal	ra,15b72 <memmove>
   12ee2:	4418                	lw	a4,8(s0)
   12ee4:	401c                	lw	a5,0(s0)
   12ee6:	89ca                	mv	s3,s2
   12ee8:	41970cb3          	sub	s9,a4,s9
   12eec:	97ea                	add	a5,a5,s10
   12eee:	01942423          	sw	s9,8(s0)
   12ef2:	c01c                	sw	a5,0(s0)
   12ef4:	4901                	li	s2,0
   12ef6:	008a2603          	lw	a2,8(s4)
   12efa:	9c4e                	add	s8,s8,s3
   12efc:	413609b3          	sub	s3,a2,s3
   12f00:	013a2423          	sw	s3,8(s4)
   12f04:	06098f63          	beqz	s3,12f82 <__sfvwrite_r+0x1f8>
   12f08:	00842c83          	lw	s9,8(s0)
   12f0c:	4008                	lw	a0,0(s0)
   12f0e:	00c45783          	lhu	a5,12(s0)
   12f12:	f40912e3          	bnez	s2,12e56 <__sfvwrite_r+0xcc>
   12f16:	0004ac03          	lw	s8,0(s1)
   12f1a:	0044a903          	lw	s2,4(s1)
   12f1e:	04a1                	addi	s1,s1,8
   12f20:	bf0d                	j	12e52 <__sfvwrite_r+0xc8>
   12f22:	4b01                	li	s6,0
   12f24:	4501                	li	a0,0
   12f26:	4c01                	li	s8,0
   12f28:	4981                	li	s3,0
   12f2a:	08098a63          	beqz	s3,12fbe <__sfvwrite_r+0x234>
   12f2e:	cd59                	beqz	a0,12fcc <__sfvwrite_r+0x242>
   12f30:	87da                	mv	a5,s6
   12f32:	8bce                	mv	s7,s3
   12f34:	0137f363          	bgeu	a5,s3,12f3a <__sfvwrite_r+0x1b0>
   12f38:	8bbe                	mv	s7,a5
   12f3a:	4008                	lw	a0,0(s0)
   12f3c:	481c                	lw	a5,16(s0)
   12f3e:	4854                	lw	a3,20(s0)
   12f40:	00a7f763          	bgeu	a5,a0,12f4e <__sfvwrite_r+0x1c4>
   12f44:	00842903          	lw	s2,8(s0)
   12f48:	9936                	add	s2,s2,a3
   12f4a:	09794b63          	blt	s2,s7,12fe0 <__sfvwrite_r+0x256>
   12f4e:	10dbca63          	blt	s7,a3,13062 <__sfvwrite_r+0x2d8>
   12f52:	505c                	lw	a5,36(s0)
   12f54:	4c4c                	lw	a1,28(s0)
   12f56:	8662                	mv	a2,s8
   12f58:	8556                	mv	a0,s5
   12f5a:	9782                	jalr	a5
   12f5c:	892a                	mv	s2,a0
   12f5e:	04a05663          	blez	a0,12faa <__sfvwrite_r+0x220>
   12f62:	412b0b33          	sub	s6,s6,s2
   12f66:	4505                	li	a0,1
   12f68:	020b0c63          	beqz	s6,12fa0 <__sfvwrite_r+0x216>
   12f6c:	008a2603          	lw	a2,8(s4)
   12f70:	9c4a                	add	s8,s8,s2
   12f72:	412989b3          	sub	s3,s3,s2
   12f76:	41260933          	sub	s2,a2,s2
   12f7a:	012a2423          	sw	s2,8(s4)
   12f7e:	fa0916e3          	bnez	s2,12f2a <__sfvwrite_r+0x1a0>
   12f82:	4501                	li	a0,0
   12f84:	50b2                	lw	ra,44(sp)
   12f86:	5422                	lw	s0,40(sp)
   12f88:	5492                	lw	s1,36(sp)
   12f8a:	5902                	lw	s2,32(sp)
   12f8c:	49f2                	lw	s3,28(sp)
   12f8e:	4a62                	lw	s4,24(sp)
   12f90:	4ad2                	lw	s5,20(sp)
   12f92:	4b42                	lw	s6,16(sp)
   12f94:	4bb2                	lw	s7,12(sp)
   12f96:	4c22                	lw	s8,8(sp)
   12f98:	4c92                	lw	s9,4(sp)
   12f9a:	4d02                	lw	s10,0(sp)
   12f9c:	6145                	addi	sp,sp,48
   12f9e:	8082                	ret
   12fa0:	85a2                	mv	a1,s0
   12fa2:	8556                	mv	a0,s5
   12fa4:	fa8ff0ef          	jal	ra,1274c <_fflush_r>
   12fa8:	d171                	beqz	a0,12f6c <__sfvwrite_r+0x1e2>
   12faa:	00c41783          	lh	a5,12(s0)
   12fae:	0407e793          	ori	a5,a5,64
   12fb2:	00f41623          	sh	a5,12(s0)
   12fb6:	557d                	li	a0,-1
   12fb8:	b7f1                	j	12f84 <__sfvwrite_r+0x1fa>
   12fba:	4501                	li	a0,0
   12fbc:	8082                	ret
   12fbe:	0044a983          	lw	s3,4(s1)
   12fc2:	0004ac03          	lw	s8,0(s1)
   12fc6:	04a1                	addi	s1,s1,8
   12fc8:	fe098be3          	beqz	s3,12fbe <__sfvwrite_r+0x234>
   12fcc:	864e                	mv	a2,s3
   12fce:	45a9                	li	a1,10
   12fd0:	8562                	mv	a0,s8
   12fd2:	225020ef          	jal	ra,159f6 <memchr>
   12fd6:	c569                	beqz	a0,130a0 <__sfvwrite_r+0x316>
   12fd8:	0505                	addi	a0,a0,1
   12fda:	41850b33          	sub	s6,a0,s8
   12fde:	bf89                	j	12f30 <__sfvwrite_r+0x1a6>
   12fe0:	85e2                	mv	a1,s8
   12fe2:	864a                	mv	a2,s2
   12fe4:	38f020ef          	jal	ra,15b72 <memmove>
   12fe8:	401c                	lw	a5,0(s0)
   12fea:	85a2                	mv	a1,s0
   12fec:	8556                	mv	a0,s5
   12fee:	97ca                	add	a5,a5,s2
   12ff0:	c01c                	sw	a5,0(s0)
   12ff2:	f5aff0ef          	jal	ra,1274c <_fflush_r>
   12ff6:	d535                	beqz	a0,12f62 <__sfvwrite_r+0x1d8>
   12ff8:	bf4d                	j	12faa <__sfvwrite_r+0x220>
   12ffa:	481c                	lw	a5,16(s0)
   12ffc:	02a7e863          	bltu	a5,a0,1302c <__sfvwrite_r+0x2a2>
   13000:	485c                	lw	a5,20(s0)
   13002:	02f96563          	bltu	s2,a5,1302c <__sfvwrite_r+0x2a2>
   13006:	86ca                	mv	a3,s2
   13008:	012bf363          	bgeu	s7,s2,1300e <__sfvwrite_r+0x284>
   1300c:	86da                	mv	a3,s6
   1300e:	02f6c6b3          	div	a3,a3,a5
   13012:	5058                	lw	a4,36(s0)
   13014:	4c4c                	lw	a1,28(s0)
   13016:	8662                	mv	a2,s8
   13018:	8556                	mv	a0,s5
   1301a:	02f686b3          	mul	a3,a3,a5
   1301e:	9702                	jalr	a4
   13020:	89aa                	mv	s3,a0
   13022:	f8a054e3          	blez	a0,12faa <__sfvwrite_r+0x220>
   13026:	41390933          	sub	s2,s2,s3
   1302a:	b5f1                	j	12ef6 <__sfvwrite_r+0x16c>
   1302c:	89e6                	mv	s3,s9
   1302e:	01997363          	bgeu	s2,s9,13034 <__sfvwrite_r+0x2aa>
   13032:	89ca                	mv	s3,s2
   13034:	864e                	mv	a2,s3
   13036:	85e2                	mv	a1,s8
   13038:	33b020ef          	jal	ra,15b72 <memmove>
   1303c:	441c                	lw	a5,8(s0)
   1303e:	4018                	lw	a4,0(s0)
   13040:	413787b3          	sub	a5,a5,s3
   13044:	974e                	add	a4,a4,s3
   13046:	c41c                	sw	a5,8(s0)
   13048:	c018                	sw	a4,0(s0)
   1304a:	fff1                	bnez	a5,13026 <__sfvwrite_r+0x29c>
   1304c:	85a2                	mv	a1,s0
   1304e:	8556                	mv	a0,s5
   13050:	efcff0ef          	jal	ra,1274c <_fflush_r>
   13054:	f939                	bnez	a0,12faa <__sfvwrite_r+0x220>
   13056:	41390933          	sub	s2,s2,s3
   1305a:	bd71                	j	12ef6 <__sfvwrite_r+0x16c>
   1305c:	8cca                	mv	s9,s2
   1305e:	8d4a                	mv	s10,s2
   13060:	bdad                	j	12eda <__sfvwrite_r+0x150>
   13062:	865e                	mv	a2,s7
   13064:	85e2                	mv	a1,s8
   13066:	30d020ef          	jal	ra,15b72 <memmove>
   1306a:	4418                	lw	a4,8(s0)
   1306c:	401c                	lw	a5,0(s0)
   1306e:	895e                	mv	s2,s7
   13070:	41770733          	sub	a4,a4,s7
   13074:	97de                	add	a5,a5,s7
   13076:	c418                	sw	a4,8(s0)
   13078:	c01c                	sw	a5,0(s0)
   1307a:	b5e5                	j	12f62 <__sfvwrite_r+0x1d8>
   1307c:	8556                	mv	a0,s5
   1307e:	7ca030ef          	jal	ra,16848 <_realloc_r>
   13082:	8caa                	mv	s9,a0
   13084:	e2051fe3          	bnez	a0,12ec2 <__sfvwrite_r+0x138>
   13088:	480c                	lw	a1,16(s0)
   1308a:	8556                	mv	a0,s5
   1308c:	ad3ff0ef          	jal	ra,12b5e <_free_r>
   13090:	00c41783          	lh	a5,12(s0)
   13094:	4731                	li	a4,12
   13096:	00eaa023          	sw	a4,0(s5)
   1309a:	f7f7f793          	andi	a5,a5,-129
   1309e:	bf01                	j	12fae <__sfvwrite_r+0x224>
   130a0:	00198793          	addi	a5,s3,1
   130a4:	8b3e                	mv	s6,a5
   130a6:	b571                	j	12f32 <__sfvwrite_r+0x1a8>
   130a8:	4731                	li	a4,12
   130aa:	00c41783          	lh	a5,12(s0)
   130ae:	00eaa023          	sw	a4,0(s5)
   130b2:	bdf5                	j	12fae <__sfvwrite_r+0x224>
   130b4:	557d                	li	a0,-1
   130b6:	b5f9                	j	12f84 <__sfvwrite_r+0x1fa>

000130b8 <_fwalk>:
   130b8:	1101                	addi	sp,sp,-32
   130ba:	c84a                	sw	s2,16(sp)
   130bc:	c64e                	sw	s3,12(sp)
   130be:	c452                	sw	s4,8(sp)
   130c0:	c256                	sw	s5,4(sp)
   130c2:	c05a                	sw	s6,0(sp)
   130c4:	ce06                	sw	ra,28(sp)
   130c6:	cc22                	sw	s0,24(sp)
   130c8:	ca26                	sw	s1,20(sp)
   130ca:	8b2e                	mv	s6,a1
   130cc:	2e050a93          	addi	s5,a0,736
   130d0:	4a01                	li	s4,0
   130d2:	4985                	li	s3,1
   130d4:	597d                	li	s2,-1
   130d6:	004aa483          	lw	s1,4(s5)
   130da:	008aa403          	lw	s0,8(s5)
   130de:	14fd                	addi	s1,s1,-1
   130e0:	0204c363          	bltz	s1,13106 <_fwalk+0x4e>
   130e4:	00c45783          	lhu	a5,12(s0)
   130e8:	14fd                	addi	s1,s1,-1
   130ea:	00f9fa63          	bgeu	s3,a5,130fe <_fwalk+0x46>
   130ee:	00e41783          	lh	a5,14(s0)
   130f2:	8522                	mv	a0,s0
   130f4:	01278563          	beq	a5,s2,130fe <_fwalk+0x46>
   130f8:	9b02                	jalr	s6
   130fa:	00aa6a33          	or	s4,s4,a0
   130fe:	06840413          	addi	s0,s0,104
   13102:	ff2491e3          	bne	s1,s2,130e4 <_fwalk+0x2c>
   13106:	000aaa83          	lw	s5,0(s5)
   1310a:	fc0a96e3          	bnez	s5,130d6 <_fwalk+0x1e>
   1310e:	40f2                	lw	ra,28(sp)
   13110:	4462                	lw	s0,24(sp)
   13112:	44d2                	lw	s1,20(sp)
   13114:	4942                	lw	s2,16(sp)
   13116:	49b2                	lw	s3,12(sp)
   13118:	4a92                	lw	s5,4(sp)
   1311a:	4b02                	lw	s6,0(sp)
   1311c:	8552                	mv	a0,s4
   1311e:	4a22                	lw	s4,8(sp)
   13120:	6105                	addi	sp,sp,32
   13122:	8082                	ret

00013124 <_fwalk_reent>:
   13124:	7179                	addi	sp,sp,-48
   13126:	d04a                	sw	s2,32(sp)
   13128:	ce4e                	sw	s3,28(sp)
   1312a:	cc52                	sw	s4,24(sp)
   1312c:	ca56                	sw	s5,20(sp)
   1312e:	c85a                	sw	s6,16(sp)
   13130:	c65e                	sw	s7,12(sp)
   13132:	d606                	sw	ra,44(sp)
   13134:	d422                	sw	s0,40(sp)
   13136:	d226                	sw	s1,36(sp)
   13138:	8aaa                	mv	s5,a0
   1313a:	8bae                	mv	s7,a1
   1313c:	2e050b13          	addi	s6,a0,736
   13140:	4a01                	li	s4,0
   13142:	4985                	li	s3,1
   13144:	597d                	li	s2,-1
   13146:	004b2483          	lw	s1,4(s6) # 80000004 <__BSS_END__+0x7ffdf0dc>
   1314a:	008b2403          	lw	s0,8(s6)
   1314e:	14fd                	addi	s1,s1,-1
   13150:	0204c463          	bltz	s1,13178 <_fwalk_reent+0x54>
   13154:	00c45783          	lhu	a5,12(s0)
   13158:	14fd                	addi	s1,s1,-1
   1315a:	00f9fb63          	bgeu	s3,a5,13170 <_fwalk_reent+0x4c>
   1315e:	00e41783          	lh	a5,14(s0)
   13162:	85a2                	mv	a1,s0
   13164:	8556                	mv	a0,s5
   13166:	01278563          	beq	a5,s2,13170 <_fwalk_reent+0x4c>
   1316a:	9b82                	jalr	s7
   1316c:	00aa6a33          	or	s4,s4,a0
   13170:	06840413          	addi	s0,s0,104
   13174:	ff2490e3          	bne	s1,s2,13154 <_fwalk_reent+0x30>
   13178:	000b2b03          	lw	s6,0(s6)
   1317c:	fc0b15e3          	bnez	s6,13146 <_fwalk_reent+0x22>
   13180:	50b2                	lw	ra,44(sp)
   13182:	5422                	lw	s0,40(sp)
   13184:	5492                	lw	s1,36(sp)
   13186:	5902                	lw	s2,32(sp)
   13188:	49f2                	lw	s3,28(sp)
   1318a:	4ad2                	lw	s5,20(sp)
   1318c:	4b42                	lw	s6,16(sp)
   1318e:	4bb2                	lw	s7,12(sp)
   13190:	8552                	mv	a0,s4
   13192:	4a62                	lw	s4,24(sp)
   13194:	6145                	addi	sp,sp,48
   13196:	8082                	ret

00013198 <eshdn1>:
   13198:	00450693          	addi	a3,a0,4
   1319c:	4781                	li	a5,0
   1319e:	0569                	addi	a0,a0,26
   131a0:	7861                	lui	a6,0xffff8
   131a2:	a809                	j	131b4 <eshdn1+0x1c>
   131a4:	0786                	slli	a5,a5,0x1
   131a6:	00e69023          	sh	a4,0(a3)
   131aa:	07c2                	slli	a5,a5,0x10
   131ac:	0689                	addi	a3,a3,2
   131ae:	83c1                	srli	a5,a5,0x10
   131b0:	02d50763          	beq	a0,a3,131de <eshdn1+0x46>
   131b4:	0006d703          	lhu	a4,0(a3)
   131b8:	00177613          	andi	a2,a4,1
   131bc:	c219                	beqz	a2,131c2 <eshdn1+0x2a>
   131be:	0017e793          	ori	a5,a5,1
   131c2:	8305                	srli	a4,a4,0x1
   131c4:	0027f613          	andi	a2,a5,2
   131c8:	010765b3          	or	a1,a4,a6
   131cc:	de61                	beqz	a2,131a4 <eshdn1+0xc>
   131ce:	0786                	slli	a5,a5,0x1
   131d0:	00b69023          	sh	a1,0(a3)
   131d4:	07c2                	slli	a5,a5,0x10
   131d6:	0689                	addi	a3,a3,2
   131d8:	83c1                	srli	a5,a5,0x10
   131da:	fcd51de3          	bne	a0,a3,131b4 <eshdn1+0x1c>
   131de:	8082                	ret

000131e0 <eshup1>:
   131e0:	01850693          	addi	a3,a0,24
   131e4:	4701                	li	a4,0
   131e6:	0509                	addi	a0,a0,2
   131e8:	a809                	j	131fa <eshup1+0x1a>
   131ea:	0706                	slli	a4,a4,0x1
   131ec:	00f69023          	sh	a5,0(a3)
   131f0:	0742                	slli	a4,a4,0x10
   131f2:	16f9                	addi	a3,a3,-2
   131f4:	8341                	srli	a4,a4,0x10
   131f6:	02d50b63          	beq	a0,a3,1322c <eshup1+0x4c>
   131fa:	0006d783          	lhu	a5,0(a3)
   131fe:	01079613          	slli	a2,a5,0x10
   13202:	8641                	srai	a2,a2,0x10
   13204:	0786                	slli	a5,a5,0x1
   13206:	00065463          	bgez	a2,1320e <eshup1+0x2e>
   1320a:	00176713          	ori	a4,a4,1
   1320e:	07c2                	slli	a5,a5,0x10
   13210:	83c1                	srli	a5,a5,0x10
   13212:	00277613          	andi	a2,a4,2
   13216:	0017e593          	ori	a1,a5,1
   1321a:	da61                	beqz	a2,131ea <eshup1+0xa>
   1321c:	0706                	slli	a4,a4,0x1
   1321e:	00b69023          	sh	a1,0(a3)
   13222:	0742                	slli	a4,a4,0x10
   13224:	16f9                	addi	a3,a3,-2
   13226:	8341                	srli	a4,a4,0x10
   13228:	fcd519e3          	bne	a0,a3,131fa <eshup1+0x1a>
   1322c:	8082                	ret

0001322e <m16m>:
   1322e:	1101                	addi	sp,sp,-32
   13230:	6e41                	lui	t3,0x10
   13232:	00011d23          	sh	zero,26(sp)
   13236:	00011e23          	sh	zero,28(sp)
   1323a:	05e1                	addi	a1,a1,24
   1323c:	087c                	addi	a5,sp,28
   1323e:	00810813          	addi	a6,sp,8
   13242:	1e7d                	addi	t3,t3,-1
   13244:	0005d703          	lhu	a4,0(a1)
   13248:	17f9                	addi	a5,a5,-2
   1324a:	15f9                	addi	a1,a1,-2
   1324c:	e315                	bnez	a4,13270 <m16m+0x42>
   1324e:	fe079f23          	sh	zero,-2(a5)
   13252:	ff0799e3          	bne	a5,a6,13244 <m16m+0x16>
   13256:	0611                	addi	a2,a2,4
   13258:	01e10693          	addi	a3,sp,30
   1325c:	0007d703          	lhu	a4,0(a5)
   13260:	0789                	addi	a5,a5,2
   13262:	0609                	addi	a2,a2,2
   13264:	fee61f23          	sh	a4,-2(a2) # ffffdffe <__BSS_END__+0xfffdd0d6>
   13268:	fed79ae3          	bne	a5,a3,1325c <m16m+0x2e>
   1326c:	6105                	addi	sp,sp,32
   1326e:	8082                	ret
   13270:	02a70733          	mul	a4,a4,a0
   13274:	0027d883          	lhu	a7,2(a5)
   13278:	0007d303          	lhu	t1,0(a5)
   1327c:	01c776b3          	and	a3,a4,t3
   13280:	96c6                	add	a3,a3,a7
   13282:	8341                	srli	a4,a4,0x10
   13284:	0106d893          	srli	a7,a3,0x10
   13288:	971a                	add	a4,a4,t1
   1328a:	9746                	add	a4,a4,a7
   1328c:	01075893          	srli	a7,a4,0x10
   13290:	00d79123          	sh	a3,2(a5)
   13294:	00e79023          	sh	a4,0(a5)
   13298:	ff179f23          	sh	a7,-2(a5)
   1329c:	fb0794e3          	bne	a5,a6,13244 <m16m+0x16>
   132a0:	bf5d                	j	13256 <m16m+0x28>

000132a2 <emovo.constprop.0>:
   132a2:	00055703          	lhu	a4,0(a0)
   132a6:	00255783          	lhu	a5,2(a0)
   132aa:	c319                	beqz	a4,132b0 <emovo.constprop.0+0xe>
   132ac:	6721                	lui	a4,0x8
   132ae:	8fd9                	or	a5,a5,a4
   132b0:	00f59923          	sh	a5,18(a1)
   132b4:	00255703          	lhu	a4,2(a0)
   132b8:	67a1                	lui	a5,0x8
   132ba:	17fd                	addi	a5,a5,-1
   132bc:	00f70f63          	beq	a4,a5,132da <emovo.constprop.0+0x38>
   132c0:	00650793          	addi	a5,a0,6
   132c4:	05c1                	addi	a1,a1,16
   132c6:	0561                	addi	a0,a0,24
   132c8:	0007d703          	lhu	a4,0(a5) # 8000 <register_fini-0x8074>
   132cc:	0789                	addi	a5,a5,2
   132ce:	15f9                	addi	a1,a1,-2
   132d0:	00e59123          	sh	a4,2(a1)
   132d4:	fea79ae3          	bne	a5,a0,132c8 <emovo.constprop.0+0x26>
   132d8:	8082                	ret
   132da:	00650793          	addi	a5,a0,6
   132de:	0569                	addi	a0,a0,26
   132e0:	0007d703          	lhu	a4,0(a5)
   132e4:	0789                	addi	a5,a5,2
   132e6:	e31d                	bnez	a4,1330c <emovo.constprop.0+0x6a>
   132e8:	fea79ce3          	bne	a5,a0,132e0 <emovo.constprop.0+0x3e>
   132ec:	01258713          	addi	a4,a1,18
   132f0:	87ae                	mv	a5,a1
   132f2:	0789                	addi	a5,a5,2
   132f4:	fe079f23          	sh	zero,-2(a5)
   132f8:	fef71de3          	bne	a4,a5,132f2 <emovo.constprop.0+0x50>
   132fc:	0125d783          	lhu	a5,18(a1)
   13300:	6721                	lui	a4,0x8
   13302:	177d                	addi	a4,a4,-1
   13304:	8fd9                	or	a5,a5,a4
   13306:	00f59923          	sh	a5,18(a1)
   1330a:	8082                	ret
   1330c:	01058713          	addi	a4,a1,16
   13310:	87ae                	mv	a5,a1
   13312:	0789                	addi	a5,a5,2
   13314:	fe079f23          	sh	zero,-2(a5)
   13318:	fef71de3          	bne	a4,a5,13312 <emovo.constprop.0+0x70>
   1331c:	77f1                	lui	a5,0xffffc
   1331e:	00f59823          	sh	a5,16(a1)
   13322:	77e1                	lui	a5,0xffff8
   13324:	fff7c793          	not	a5,a5
   13328:	00f59923          	sh	a5,18(a1)
   1332c:	8082                	ret

0001332e <enormlz>:
   1332e:	00455783          	lhu	a5,4(a0)
   13332:	1141                	addi	sp,sp,-16
   13334:	c226                	sw	s1,4(sp)
   13336:	c606                	sw	ra,12(sp)
   13338:	c422                	sw	s0,8(sp)
   1333a:	c04a                	sw	s2,0(sp)
   1333c:	84aa                	mv	s1,a0
   1333e:	e3c5                	bnez	a5,133de <enormlz+0xb0>
   13340:	00655703          	lhu	a4,6(a0)
   13344:	4401                	li	s0,0
   13346:	01071793          	slli	a5,a4,0x10
   1334a:	87c1                	srai	a5,a5,0x10
   1334c:	0807c263          	bltz	a5,133d0 <enormlz+0xa2>
   13350:	01a50693          	addi	a3,a0,26
   13354:	0a000613          	li	a2,160
   13358:	e31d                	bnez	a4,1337e <enormlz+0x50>
   1335a:	00648793          	addi	a5,s1,6
   1335e:	a019                	j	13364 <enormlz+0x36>
   13360:	0007d703          	lhu	a4,0(a5) # ffff8000 <__BSS_END__+0xfffd70d8>
   13364:	0789                	addi	a5,a5,2
   13366:	fee79e23          	sh	a4,-4(a5)
   1336a:	fed79be3          	bne	a5,a3,13360 <enormlz+0x32>
   1336e:	00049c23          	sh	zero,24(s1)
   13372:	0441                	addi	s0,s0,16
   13374:	04c40e63          	beq	s0,a2,133d0 <enormlz+0xa2>
   13378:	0064d703          	lhu	a4,6(s1)
   1337c:	df79                	beqz	a4,1335a <enormlz+0x2c>
   1337e:	f0077793          	andi	a5,a4,-256
   13382:	eb8d                	bnez	a5,133b4 <enormlz+0x86>
   13384:	01848513          	addi	a0,s1,24
   13388:	00248593          	addi	a1,s1,2
   1338c:	4781                	li	a5,0
   1338e:	872a                	mv	a4,a0
   13390:	00075683          	lhu	a3,0(a4) # 8000 <register_fini-0x8074>
   13394:	1779                	addi	a4,a4,-2
   13396:	00869613          	slli	a2,a3,0x8
   1339a:	8fd1                	or	a5,a5,a2
   1339c:	00f71123          	sh	a5,2(a4)
   133a0:	0086d793          	srli	a5,a3,0x8
   133a4:	fee596e3          	bne	a1,a4,13390 <enormlz+0x62>
   133a8:	0064d703          	lhu	a4,6(s1)
   133ac:	0421                	addi	s0,s0,8
   133ae:	f0077793          	andi	a5,a4,-256
   133b2:	dfe9                	beqz	a5,1338c <enormlz+0x5e>
   133b4:	0a000913          	li	s2,160
   133b8:	a039                	j	133c6 <enormlz+0x98>
   133ba:	0405                	addi	s0,s0,1
   133bc:	3515                	jal	131e0 <eshup1>
   133be:	00894963          	blt	s2,s0,133d0 <enormlz+0xa2>
   133c2:	0064d703          	lhu	a4,6(s1)
   133c6:	0742                	slli	a4,a4,0x10
   133c8:	8741                	srai	a4,a4,0x10
   133ca:	8526                	mv	a0,s1
   133cc:	fe0757e3          	bgez	a4,133ba <enormlz+0x8c>
   133d0:	40b2                	lw	ra,12(sp)
   133d2:	8522                	mv	a0,s0
   133d4:	4422                	lw	s0,8(sp)
   133d6:	4492                	lw	s1,4(sp)
   133d8:	4902                	lw	s2,0(sp)
   133da:	0141                	addi	sp,sp,16
   133dc:	8082                	ret
   133de:	f007f713          	andi	a4,a5,-256
   133e2:	4401                	li	s0,0
   133e4:	e31d                	bnez	a4,1340a <enormlz+0xdc>
   133e6:	f6f00913          	li	s2,-145
   133ea:	a039                	j	133f8 <enormlz+0xca>
   133ec:	147d                	addi	s0,s0,-1
   133ee:	336d                	jal	13198 <eshdn1>
   133f0:	ff2400e3          	beq	s0,s2,133d0 <enormlz+0xa2>
   133f4:	0044d783          	lhu	a5,4(s1)
   133f8:	8526                	mv	a0,s1
   133fa:	fbed                	bnez	a5,133ec <enormlz+0xbe>
   133fc:	40b2                	lw	ra,12(sp)
   133fe:	8522                	mv	a0,s0
   13400:	4422                	lw	s0,8(sp)
   13402:	4492                	lw	s1,4(sp)
   13404:	4902                	lw	s2,0(sp)
   13406:	0141                	addi	sp,sp,16
   13408:	8082                	ret
   1340a:	00450693          	addi	a3,a0,4
   1340e:	01a50593          	addi	a1,a0,26
   13412:	4701                	li	a4,0
   13414:	a019                	j	1341a <enormlz+0xec>
   13416:	0006d783          	lhu	a5,0(a3)
   1341a:	0087d613          	srli	a2,a5,0x8
   1341e:	8f51                	or	a4,a4,a2
   13420:	07a2                	slli	a5,a5,0x8
   13422:	00e69023          	sh	a4,0(a3)
   13426:	01079713          	slli	a4,a5,0x10
   1342a:	0689                	addi	a3,a3,2
   1342c:	8341                	srli	a4,a4,0x10
   1342e:	fed594e3          	bne	a1,a3,13416 <enormlz+0xe8>
   13432:	0044d783          	lhu	a5,4(s1)
   13436:	5461                	li	s0,-8
   13438:	b77d                	j	133e6 <enormlz+0xb8>

0001343a <eshift.part.0>:
   1343a:	1101                	addi	sp,sp,-32
   1343c:	cc22                	sw	s0,24(sp)
   1343e:	ca26                	sw	s1,20(sp)
   13440:	ce06                	sw	ra,28(sp)
   13442:	c84a                	sw	s2,16(sp)
   13444:	c64e                	sw	s3,12(sp)
   13446:	84ae                	mv	s1,a1
   13448:	842a                	mv	s0,a0
   1344a:	0605ca63          	bltz	a1,134be <eshift.part.0+0x84>
   1344e:	47bd                	li	a5,15
   13450:	862e                	mv	a2,a1
   13452:	0511                	addi	a0,a0,4
   13454:	01840693          	addi	a3,s0,24
   13458:	45bd                	li	a1,15
   1345a:	0297d063          	bge	a5,s1,1347a <eshift.part.0+0x40>
   1345e:	87aa                	mv	a5,a0
   13460:	0027d703          	lhu	a4,2(a5)
   13464:	0789                	addi	a5,a5,2
   13466:	fee79f23          	sh	a4,-2(a5)
   1346a:	fef69be3          	bne	a3,a5,13460 <eshift.part.0+0x26>
   1346e:	00041c23          	sh	zero,24(s0)
   13472:	1641                	addi	a2,a2,-16
   13474:	fec5c5e3          	blt	a1,a2,1345e <eshift.part.0+0x24>
   13478:	88bd                	andi	s1,s1,15
   1347a:	479d                	li	a5,7
   1347c:	0297d463          	bge	a5,s1,134a4 <eshift.part.0+0x6a>
   13480:	01840713          	addi	a4,s0,24
   13484:	00240593          	addi	a1,s0,2
   13488:	4781                	li	a5,0
   1348a:	00075683          	lhu	a3,0(a4)
   1348e:	1779                	addi	a4,a4,-2
   13490:	00869613          	slli	a2,a3,0x8
   13494:	8fd1                	or	a5,a5,a2
   13496:	00f71123          	sh	a5,2(a4)
   1349a:	0086d793          	srli	a5,a3,0x8
   1349e:	fee596e3          	bne	a1,a4,1348a <eshift.part.0+0x50>
   134a2:	14e1                	addi	s1,s1,-8
   134a4:	c489                	beqz	s1,134ae <eshift.part.0+0x74>
   134a6:	14fd                	addi	s1,s1,-1
   134a8:	8522                	mv	a0,s0
   134aa:	3b1d                	jal	131e0 <eshup1>
   134ac:	fced                	bnez	s1,134a6 <eshift.part.0+0x6c>
   134ae:	4501                	li	a0,0
   134b0:	40f2                	lw	ra,28(sp)
   134b2:	4462                	lw	s0,24(sp)
   134b4:	44d2                	lw	s1,20(sp)
   134b6:	4942                	lw	s2,16(sp)
   134b8:	49b2                	lw	s3,12(sp)
   134ba:	6105                	addi	sp,sp,32
   134bc:	8082                	ret
   134be:	57c5                	li	a5,-15
   134c0:	40b00933          	neg	s2,a1
   134c4:	0ef5d163          	bge	a1,a5,135a6 <eshift.part.0+0x16c>
   134c8:	01850593          	addi	a1,a0,24
   134cc:	4981                	li	s3,0
   134ce:	00450693          	addi	a3,a0,4
   134d2:	463d                	li	a2,15
   134d4:	01845703          	lhu	a4,24(s0)
   134d8:	87ae                	mv	a5,a1
   134da:	00e9e9b3          	or	s3,s3,a4
   134de:	ffe7d703          	lhu	a4,-2(a5)
   134e2:	17f9                	addi	a5,a5,-2
   134e4:	00e79123          	sh	a4,2(a5)
   134e8:	fed79be3          	bne	a5,a3,134de <eshift.part.0+0xa4>
   134ec:	00041223          	sh	zero,4(s0)
   134f0:	1941                	addi	s2,s2,-16
   134f2:	ff2641e3          	blt	a2,s2,134d4 <eshift.part.0+0x9a>
   134f6:	5941                	li	s2,-16
   134f8:	5745                	li	a4,-15
   134fa:	40990933          	sub	s2,s2,s1
   134fe:	4781                	li	a5,0
   13500:	06e4cd63          	blt	s1,a4,1357a <eshift.part.0+0x140>
   13504:	993e                	add	s2,s2,a5
   13506:	479d                	li	a5,7
   13508:	0327cc63          	blt	a5,s2,13540 <eshift.part.0+0x106>
   1350c:	08090563          	beqz	s2,13596 <eshift.part.0+0x15c>
   13510:	01845783          	lhu	a5,24(s0)
   13514:	197d                	addi	s2,s2,-1
   13516:	8522                	mv	a0,s0
   13518:	8b85                	andi	a5,a5,1
   1351a:	0137e9b3          	or	s3,a5,s3
   1351e:	39ad                	jal	13198 <eshdn1>
   13520:	fe0918e3          	bnez	s2,13510 <eshift.part.0+0xd6>
   13524:	01099793          	slli	a5,s3,0x10
   13528:	87c1                	srai	a5,a5,0x10
   1352a:	e3ad                	bnez	a5,1358c <eshift.part.0+0x152>
   1352c:	01099513          	slli	a0,s3,0x10
   13530:	8141                	srli	a0,a0,0x10
   13532:	40f2                	lw	ra,28(sp)
   13534:	4462                	lw	s0,24(sp)
   13536:	44d2                	lw	s1,20(sp)
   13538:	4942                	lw	s2,16(sp)
   1353a:	49b2                	lw	s3,12(sp)
   1353c:	6105                	addi	sp,sp,32
   1353e:	8082                	ret
   13540:	09c2                	slli	s3,s3,0x10
   13542:	4109d993          	srai	s3,s3,0x10
   13546:	01844783          	lbu	a5,24(s0)
   1354a:	01a40593          	addi	a1,s0,26
   1354e:	00f9e9b3          	or	s3,s3,a5
   13552:	09c2                	slli	s3,s3,0x10
   13554:	0109d993          	srli	s3,s3,0x10
   13558:	4781                	li	a5,0
   1355a:	0006d703          	lhu	a4,0(a3)
   1355e:	0689                	addi	a3,a3,2
   13560:	00875613          	srli	a2,a4,0x8
   13564:	8fd1                	or	a5,a5,a2
   13566:	0722                	slli	a4,a4,0x8
   13568:	fef69f23          	sh	a5,-2(a3)
   1356c:	01071793          	slli	a5,a4,0x10
   13570:	83c1                	srli	a5,a5,0x10
   13572:	fed594e3          	bne	a1,a3,1355a <eshift.part.0+0x120>
   13576:	1961                	addi	s2,s2,-8
   13578:	bf51                	j	1350c <eshift.part.0+0xd2>
   1357a:	ff097793          	andi	a5,s2,-16
   1357e:	40f007b3          	neg	a5,a5
   13582:	993e                	add	s2,s2,a5
   13584:	479d                	li	a5,7
   13586:	f927d3e3          	bge	a5,s2,1350c <eshift.part.0+0xd2>
   1358a:	bf5d                	j	13540 <eshift.part.0+0x106>
   1358c:	4985                	li	s3,1
   1358e:	01099513          	slli	a0,s3,0x10
   13592:	8141                	srli	a0,a0,0x10
   13594:	bf79                	j	13532 <eshift.part.0+0xf8>
   13596:	854e                	mv	a0,s3
   13598:	00099563          	bnez	s3,135a2 <eshift.part.0+0x168>
   1359c:	0542                	slli	a0,a0,0x10
   1359e:	8141                	srli	a0,a0,0x10
   135a0:	bf01                	j	134b0 <eshift.part.0+0x76>
   135a2:	4505                	li	a0,1
   135a4:	bfe5                	j	1359c <eshift.part.0+0x162>
   135a6:	57e5                	li	a5,-7
   135a8:	4981                	li	s3,0
   135aa:	00450693          	addi	a3,a0,4
   135ae:	f8f5cce3          	blt	a1,a5,13546 <eshift.part.0+0x10c>
   135b2:	bfb9                	j	13510 <eshift.part.0+0xd6>

000135b4 <emovi>:
   135b4:	01255783          	lhu	a5,18(a0)
   135b8:	6621                	lui	a2,0x8
   135ba:	167d                	addi	a2,a2,-1
   135bc:	83bd                	srli	a5,a5,0xf
   135be:	40f007b3          	neg	a5,a5
   135c2:	00f59023          	sh	a5,0(a1)
   135c6:	01255683          	lhu	a3,18(a0)
   135ca:	01050793          	addi	a5,a0,16
   135ce:	00458713          	addi	a4,a1,4
   135d2:	8ef1                	and	a3,a3,a2
   135d4:	00d59123          	sh	a3,2(a1)
   135d8:	02c68263          	beq	a3,a2,135fc <emovi+0x48>
   135dc:	00658713          	addi	a4,a1,6
   135e0:	00059223          	sh	zero,4(a1)
   135e4:	1579                	addi	a0,a0,-2
   135e6:	0007d683          	lhu	a3,0(a5)
   135ea:	17f9                	addi	a5,a5,-2
   135ec:	0709                	addi	a4,a4,2
   135ee:	fed71f23          	sh	a3,-2(a4)
   135f2:	fef51ae3          	bne	a0,a5,135e6 <emovi+0x32>
   135f6:	00059c23          	sh	zero,24(a1)
   135fa:	8082                	ret
   135fc:	01255603          	lhu	a2,18(a0)
   13600:	8e75                	and	a2,a2,a3
   13602:	00d61b63          	bne	a2,a3,13618 <emovi+0x64>
   13606:	01250813          	addi	a6,a0,18
   1360a:	86aa                	mv	a3,a0
   1360c:	0006d603          	lhu	a2,0(a3)
   13610:	0689                	addi	a3,a3,2
   13612:	ea11                	bnez	a2,13626 <emovi+0x72>
   13614:	ff069ce3          	bne	a3,a6,1360c <emovi+0x58>
   13618:	05e9                	addi	a1,a1,26
   1361a:	0709                	addi	a4,a4,2
   1361c:	fe071f23          	sh	zero,-2(a4)
   13620:	fee59de3          	bne	a1,a4,1361a <emovi+0x66>
   13624:	8082                	ret
   13626:	00658713          	addi	a4,a1,6
   1362a:	00059223          	sh	zero,4(a1)
   1362e:	1571                	addi	a0,a0,-4
   13630:	0007d683          	lhu	a3,0(a5)
   13634:	17f9                	addi	a5,a5,-2
   13636:	0709                	addi	a4,a4,2
   13638:	fed71f23          	sh	a3,-2(a4)
   1363c:	fea79ae3          	bne	a5,a0,13630 <emovi+0x7c>
   13640:	8082                	ret

00013642 <ecmp>:
   13642:	01255783          	lhu	a5,18(a0)
   13646:	715d                	addi	sp,sp,-80
   13648:	c4a2                	sw	s0,72(sp)
   1364a:	fff7c793          	not	a5,a5
   1364e:	c686                	sw	ra,76(sp)
   13650:	01179713          	slli	a4,a5,0x11
   13654:	842e                	mv	s0,a1
   13656:	eb11                	bnez	a4,1366a <ecmp+0x28>
   13658:	01250693          	addi	a3,a0,18
   1365c:	87aa                	mv	a5,a0
   1365e:	0007d703          	lhu	a4,0(a5)
   13662:	0789                	addi	a5,a5,2
   13664:	e735                	bnez	a4,136d0 <ecmp+0x8e>
   13666:	fed79ce3          	bne	a5,a3,1365e <ecmp+0x1c>
   1366a:	01245783          	lhu	a5,18(s0)
   1366e:	fff7c793          	not	a5,a5
   13672:	01179713          	slli	a4,a5,0x11
   13676:	c321                	beqz	a4,136b6 <ecmp+0x74>
   13678:	002c                	addi	a1,sp,8
   1367a:	3f2d                	jal	135b4 <emovi>
   1367c:	104c                	addi	a1,sp,36
   1367e:	8522                	mv	a0,s0
   13680:	3f15                	jal	135b4 <emovi>
   13682:	00815583          	lhu	a1,8(sp)
   13686:	02415503          	lhu	a0,36(sp)
   1368a:	04b50863          	beq	a0,a1,136da <ecmp+0x98>
   1368e:	00a10793          	addi	a5,sp,10
   13692:	02610713          	addi	a4,sp,38
   13696:	1010                	addi	a2,sp,32
   13698:	0007d683          	lhu	a3,0(a5)
   1369c:	0789                	addi	a5,a5,2
   1369e:	eeb5                	bnez	a3,1371a <ecmp+0xd8>
   136a0:	00075683          	lhu	a3,0(a4)
   136a4:	0709                	addi	a4,a4,2
   136a6:	eab5                	bnez	a3,1371a <ecmp+0xd8>
   136a8:	fef618e3          	bne	a2,a5,13698 <ecmp+0x56>
   136ac:	4501                	li	a0,0
   136ae:	40b6                	lw	ra,76(sp)
   136b0:	4426                	lw	s0,72(sp)
   136b2:	6161                	addi	sp,sp,80
   136b4:	8082                	ret
   136b6:	87a2                	mv	a5,s0
   136b8:	0007d703          	lhu	a4,0(a5)
   136bc:	01240693          	addi	a3,s0,18
   136c0:	0789                	addi	a5,a5,2
   136c2:	e719                	bnez	a4,136d0 <ecmp+0x8e>
   136c4:	fad78ae3          	beq	a5,a3,13678 <ecmp+0x36>
   136c8:	0007d703          	lhu	a4,0(a5)
   136cc:	0789                	addi	a5,a5,2
   136ce:	db7d                	beqz	a4,136c4 <ecmp+0x82>
   136d0:	40b6                	lw	ra,76(sp)
   136d2:	4426                	lw	s0,72(sp)
   136d4:	5579                	li	a0,-2
   136d6:	6161                	addi	sp,sp,80
   136d8:	8082                	ret
   136da:	00a15603          	lhu	a2,10(sp)
   136de:	02615683          	lhu	a3,38(sp)
   136e2:	00153513          	seqz	a0,a0
   136e6:	00a10713          	addi	a4,sp,10
   136ea:	02610793          	addi	a5,sp,38
   136ee:	0506                	slli	a0,a0,0x1
   136f0:	157d                	addi	a0,a0,-1
   136f2:	186c                	addi	a1,sp,60
   136f4:	0789                	addi	a5,a5,2
   136f6:	0709                	addi	a4,a4,2
   136f8:	00d61c63          	bne	a2,a3,13710 <ecmp+0xce>
   136fc:	fab788e3          	beq	a5,a1,136ac <ecmp+0x6a>
   13700:	00075603          	lhu	a2,0(a4)
   13704:	0007d683          	lhu	a3,0(a5)
   13708:	0709                	addi	a4,a4,2
   1370a:	0789                	addi	a5,a5,2
   1370c:	fed608e3          	beq	a2,a3,136fc <ecmp+0xba>
   13710:	f8c6efe3          	bltu	a3,a2,136ae <ecmp+0x6c>
   13714:	40a00533          	neg	a0,a0
   13718:	bf59                	j	136ae <ecmp+0x6c>
   1371a:	4505                	li	a0,1
   1371c:	d9c9                	beqz	a1,136ae <ecmp+0x6c>
   1371e:	557d                	li	a0,-1
   13720:	b779                	j	136ae <ecmp+0x6c>

00013722 <emdnorm>:
   13722:	1101                	addi	sp,sp,-32
   13724:	cc22                	sw	s0,24(sp)
   13726:	ca26                	sw	s1,20(sp)
   13728:	c84a                	sw	s2,16(sp)
   1372a:	c64e                	sw	s3,12(sp)
   1372c:	c452                	sw	s4,8(sp)
   1372e:	c256                	sw	s5,4(sp)
   13730:	8936                	mv	s2,a3
   13732:	84be                	mv	s1,a5
   13734:	ce06                	sw	ra,28(sp)
   13736:	842a                	mv	s0,a0
   13738:	89ae                	mv	s3,a1
   1373a:	8a32                	mv	s4,a2
   1373c:	8aba                	mv	s5,a4
   1373e:	3ec5                	jal	1332e <enormlz>
   13740:	09000793          	li	a5,144
   13744:	40a90933          	sub	s2,s2,a0
   13748:	12a7db63          	bge	a5,a0,1387e <emdnorm+0x15c>
   1374c:	67a1                	lui	a5,0x8
   1374e:	17f9                	addi	a5,a5,-2
   13750:	1927dc63          	bge	a5,s2,138e8 <emdnorm+0x1c6>
   13754:	160a8a63          	beqz	s5,138c8 <emdnorm+0x1a6>
   13758:	40c8                	lw	a0,4(s1)
   1375a:	409c                	lw	a5,0(s1)
   1375c:	04f50d63          	beq	a0,a5,137b6 <emdnorm+0x94>
   13760:	01a48713          	addi	a4,s1,26
   13764:	03448793          	addi	a5,s1,52
   13768:	0709                	addi	a4,a4,2
   1376a:	fe071f23          	sh	zero,-2(a4)
   1376e:	fef71de3          	bne	a4,a5,13768 <emdnorm+0x46>
   13772:	03800793          	li	a5,56
   13776:	26f50b63          	beq	a0,a5,139ec <emdnorm+0x2ca>
   1377a:	12a7d163          	bge	a5,a0,1389c <emdnorm+0x17a>
   1377e:	04000793          	li	a5,64
   13782:	22f50b63          	beq	a0,a5,139b8 <emdnorm+0x296>
   13786:	07100793          	li	a5,113
   1378a:	24f51463          	bne	a0,a5,139d2 <emdnorm+0x2b0>
   1378e:	400087b7          	lui	a5,0x40008
   13792:	17fd                	addi	a5,a5,-1
   13794:	4729                	li	a4,10
   13796:	c8dc                	sw	a5,20(s1)
   13798:	77e1                	lui	a5,0xffff8
   1379a:	c498                	sw	a4,8(s1)
   1379c:	00f49c23          	sh	a5,24(s1)
   137a0:	c4d8                	sw	a4,12(s1)
   137a2:	47a9                	li	a5,10
   137a4:	6721                	lui	a4,0x8
   137a6:	07a1                	addi	a5,a5,8
   137a8:	0786                	slli	a5,a5,0x1
   137aa:	97a6                	add	a5,a5,s1
   137ac:	00e79523          	sh	a4,10(a5) # ffff800a <__BSS_END__+0xfffd70e2>
   137b0:	c088                	sw	a0,0(s1)
   137b2:	15205f63          	blez	s2,13910 <emdnorm+0x1ee>
   137b6:	448c                	lw	a1,8(s1)
   137b8:	0144d783          	lhu	a5,20(s1)
   137bc:	08f00813          	li	a6,143
   137c0:	00159613          	slli	a2,a1,0x1
   137c4:	9622                	add	a2,a2,s0
   137c6:	00065703          	lhu	a4,0(a2) # 8000 <register_fini-0x8074>
   137ca:	00f776b3          	and	a3,a4,a5
   137ce:	02a84663          	blt	a6,a0,137fa <emdnorm+0xd8>
   137d2:	482d                	li	a6,11
   137d4:	02b84363          	blt	a6,a1,137fa <emdnorm+0xd8>
   137d8:	87b2                	mv	a5,a2
   137da:	01840593          	addi	a1,s0,24
   137de:	0027d703          	lhu	a4,2(a5)
   137e2:	c319                	beqz	a4,137e8 <emdnorm+0xc6>
   137e4:	0016e693          	ori	a3,a3,1
   137e8:	00079123          	sh	zero,2(a5)
   137ec:	0789                	addi	a5,a5,2
   137ee:	fef598e3          	bne	a1,a5,137de <emdnorm+0xbc>
   137f2:	00065703          	lhu	a4,0(a2)
   137f6:	0144d783          	lhu	a5,20(s1)
   137fa:	fff7c793          	not	a5,a5
   137fe:	8ff9                	and	a5,a5,a4
   13800:	00f61023          	sh	a5,0(a2)
   13804:	0164d783          	lhu	a5,22(s1)
   13808:	00d7f733          	and	a4,a5,a3
   1380c:	c339                	beqz	a4,13852 <emdnorm+0x130>
   1380e:	00d79d63          	bne	a5,a3,13828 <emdnorm+0x106>
   13812:	18099063          	bnez	s3,13992 <emdnorm+0x270>
   13816:	44dc                	lw	a5,12(s1)
   13818:	0184d703          	lhu	a4,24(s1)
   1381c:	0786                	slli	a5,a5,0x1
   1381e:	97a2                	add	a5,a5,s0
   13820:	0007d783          	lhu	a5,0(a5)
   13824:	8ff9                	and	a5,a5,a4
   13826:	c795                	beqz	a5,13852 <emdnorm+0x130>
   13828:	03248613          	addi	a2,s1,50
   1382c:	01840693          	addi	a3,s0,24
   13830:	04f1                	addi	s1,s1,28
   13832:	4701                	li	a4,0
   13834:	00065783          	lhu	a5,0(a2)
   13838:	0006d583          	lhu	a1,0(a3)
   1383c:	16f9                	addi	a3,a3,-2
   1383e:	1679                	addi	a2,a2,-2
   13840:	97ae                	add	a5,a5,a1
   13842:	97ba                	add	a5,a5,a4
   13844:	0107d713          	srli	a4,a5,0x10
   13848:	00f69123          	sh	a5,2(a3)
   1384c:	8b05                	andi	a4,a4,1
   1384e:	fe9613e3          	bne	a2,s1,13834 <emdnorm+0x112>
   13852:	11205363          	blez	s2,13958 <emdnorm+0x236>
   13856:	00445783          	lhu	a5,4(s0)
   1385a:	e3ed                	bnez	a5,1393c <emdnorm+0x21a>
   1385c:	67a1                	lui	a5,0x8
   1385e:	00041c23          	sh	zero,24(s0)
   13862:	17f9                	addi	a5,a5,-2
   13864:	0727c463          	blt	a5,s2,138cc <emdnorm+0x1aa>
   13868:	01241123          	sh	s2,2(s0)
   1386c:	40f2                	lw	ra,28(sp)
   1386e:	4462                	lw	s0,24(sp)
   13870:	44d2                	lw	s1,20(sp)
   13872:	4942                	lw	s2,16(sp)
   13874:	49b2                	lw	s3,12(sp)
   13876:	4a22                	lw	s4,8(sp)
   13878:	4a92                	lw	s5,4(sp)
   1387a:	6105                	addi	sp,sp,32
   1387c:	8082                	ret
   1387e:	0a095663          	bgez	s2,1392a <emdnorm+0x208>
   13882:	f7000793          	li	a5,-144
   13886:	06f95a63          	bge	s2,a5,138fa <emdnorm+0x1d8>
   1388a:	00240793          	addi	a5,s0,2
   1388e:	0469                	addi	s0,s0,26
   13890:	0789                	addi	a5,a5,2
   13892:	fe079f23          	sh	zero,-2(a5) # 7ffe <register_fini-0x8076>
   13896:	fe879de3          	bne	a5,s0,13890 <emdnorm+0x16e>
   1389a:	bfc9                	j	1386c <emdnorm+0x14a>
   1389c:	47e1                	li	a5,24
   1389e:	0ef50d63          	beq	a0,a5,13998 <emdnorm+0x276>
   138a2:	03500793          	li	a5,53
   138a6:	12f51663          	bne	a0,a5,139d2 <emdnorm+0x2b0>
   138aa:	6705                	lui	a4,0x1
   138ac:	040007b7          	lui	a5,0x4000
   138b0:	4699                	li	a3,6
   138b2:	7ff78793          	addi	a5,a5,2047 # 40007ff <__BSS_END__+0x3fdf8d7>
   138b6:	80070713          	addi	a4,a4,-2048 # 800 <register_fini-0xf874>
   138ba:	c8dc                	sw	a5,20(s1)
   138bc:	c494                	sw	a3,8(s1)
   138be:	00e49c23          	sh	a4,24(s1)
   138c2:	c4d4                	sw	a3,12(s1)
   138c4:	4799                	li	a5,6
   138c6:	b5c5                	j	137a6 <emdnorm+0x84>
   138c8:	00041c23          	sh	zero,24(s0)
   138cc:	77e1                	lui	a5,0xffff8
   138ce:	fff7c793          	not	a5,a5
   138d2:	00f41123          	sh	a5,2(s0)
   138d6:	00440793          	addi	a5,s0,4
   138da:	0461                	addi	s0,s0,24
   138dc:	00079023          	sh	zero,0(a5) # ffff8000 <__BSS_END__+0xfffd70d8>
   138e0:	0789                	addi	a5,a5,2
   138e2:	fef41de3          	bne	s0,a5,138dc <emdnorm+0x1ba>
   138e6:	b759                	j	1386c <emdnorm+0x14a>
   138e8:	00240793          	addi	a5,s0,2
   138ec:	0469                	addi	s0,s0,26
   138ee:	0789                	addi	a5,a5,2
   138f0:	fe079f23          	sh	zero,-2(a5)
   138f4:	fe879de3          	bne	a5,s0,138ee <emdnorm+0x1cc>
   138f8:	bf95                	j	1386c <emdnorm+0x14a>
   138fa:	85ca                	mv	a1,s2
   138fc:	8522                	mv	a0,s0
   138fe:	3e35                	jal	1343a <eshift.part.0>
   13900:	c111                	beqz	a0,13904 <emdnorm+0x1e2>
   13902:	4985                	li	s3,1
   13904:	080a8263          	beqz	s5,13988 <emdnorm+0x266>
   13908:	40c8                	lw	a0,4(s1)
   1390a:	409c                	lw	a5,0(s1)
   1390c:	e4f51ae3          	bne	a0,a5,13760 <emdnorm+0x3e>
   13910:	09000793          	li	a5,144
   13914:	06f50063          	beq	a0,a5,13974 <emdnorm+0x252>
   13918:	01845783          	lhu	a5,24(s0)
   1391c:	8522                	mv	a0,s0
   1391e:	8b85                	andi	a5,a5,1
   13920:	00f9e9b3          	or	s3,s3,a5
   13924:	3895                	jal	13198 <eshdn1>
   13926:	40c8                	lw	a0,4(s1)
   13928:	b579                	j	137b6 <emdnorm+0x94>
   1392a:	f20a89e3          	beqz	s5,1385c <emdnorm+0x13a>
   1392e:	40c8                	lw	a0,4(s1)
   13930:	409c                	lw	a5,0(s1)
   13932:	e2f517e3          	bne	a0,a5,13760 <emdnorm+0x3e>
   13936:	e92040e3          	bgtz	s2,137b6 <emdnorm+0x94>
   1393a:	bfd9                	j	13910 <emdnorm+0x1ee>
   1393c:	8522                	mv	a0,s0
   1393e:	38a9                	jal	13198 <eshdn1>
   13940:	67a1                	lui	a5,0x8
   13942:	0905                	addi	s2,s2,1
   13944:	00041c23          	sh	zero,24(s0)
   13948:	17f9                	addi	a5,a5,-2
   1394a:	f927c1e3          	blt	a5,s2,138cc <emdnorm+0x1aa>
   1394e:	f0095de3          	bgez	s2,13868 <emdnorm+0x146>
   13952:	00041123          	sh	zero,2(s0)
   13956:	bf19                	j	1386c <emdnorm+0x14a>
   13958:	09000793          	li	a5,144
   1395c:	00f50463          	beq	a0,a5,13964 <emdnorm+0x242>
   13960:	8522                	mv	a0,s0
   13962:	38bd                	jal	131e0 <eshup1>
   13964:	00445783          	lhu	a5,4(s0)
   13968:	fbf1                	bnez	a5,1393c <emdnorm+0x21a>
   1396a:	00041c23          	sh	zero,24(s0)
   1396e:	fe0942e3          	bltz	s2,13952 <emdnorm+0x230>
   13972:	bddd                	j	13868 <emdnorm+0x146>
   13974:	4490                	lw	a2,8(s1)
   13976:	0144d783          	lhu	a5,20(s1)
   1397a:	0606                	slli	a2,a2,0x1
   1397c:	9622                	add	a2,a2,s0
   1397e:	00065703          	lhu	a4,0(a2)
   13982:	00e7f6b3          	and	a3,a5,a4
   13986:	bd95                	j	137fa <emdnorm+0xd8>
   13988:	00041c23          	sh	zero,24(s0)
   1398c:	00041123          	sh	zero,2(s0)
   13990:	bdf1                	j	1386c <emdnorm+0x14a>
   13992:	e80a0be3          	beqz	s4,13828 <emdnorm+0x106>
   13996:	bd75                	j	13852 <emdnorm+0x130>
   13998:	008007b7          	lui	a5,0x800
   1399c:	0ff78793          	addi	a5,a5,255 # 8000ff <__BSS_END__+0x7df1d7>
   139a0:	4711                	li	a4,4
   139a2:	c8dc                	sw	a5,20(s1)
   139a4:	10000793          	li	a5,256
   139a8:	c498                	sw	a4,8(s1)
   139aa:	00f49c23          	sh	a5,24(s1)
   139ae:	c4d8                	sw	a4,12(s1)
   139b0:	4791                	li	a5,4
   139b2:	10000713          	li	a4,256
   139b6:	bbc5                	j	137a6 <emdnorm+0x84>
   139b8:	479d                	li	a5,7
   139ba:	c49c                	sw	a5,8(s1)
   139bc:	800107b7          	lui	a5,0x80010
   139c0:	17fd                	addi	a5,a5,-1
   139c2:	c8dc                	sw	a5,20(s1)
   139c4:	4785                	li	a5,1
   139c6:	00f49c23          	sh	a5,24(s1)
   139ca:	4799                	li	a5,6
   139cc:	c4dc                	sw	a5,12(s1)
   139ce:	4705                	li	a4,1
   139d0:	bbd9                	j	137a6 <emdnorm+0x84>
   139d2:	47b1                	li	a5,12
   139d4:	c49c                	sw	a5,8(s1)
   139d6:	800107b7          	lui	a5,0x80010
   139da:	17fd                	addi	a5,a5,-1
   139dc:	c8dc                	sw	a5,20(s1)
   139de:	4785                	li	a5,1
   139e0:	00f49c23          	sh	a5,24(s1)
   139e4:	47ad                	li	a5,11
   139e6:	c4dc                	sw	a5,12(s1)
   139e8:	4705                	li	a4,1
   139ea:	bb75                	j	137a6 <emdnorm+0x84>
   139ec:	008007b7          	lui	a5,0x800
   139f0:	0ff78793          	addi	a5,a5,255 # 8000ff <__BSS_END__+0x7df1d7>
   139f4:	4719                	li	a4,6
   139f6:	c8dc                	sw	a5,20(s1)
   139f8:	10000793          	li	a5,256
   139fc:	c498                	sw	a4,8(s1)
   139fe:	00f49c23          	sh	a5,24(s1)
   13a02:	c4d8                	sw	a4,12(s1)
   13a04:	4799                	li	a5,6
   13a06:	10000713          	li	a4,256
   13a0a:	bb71                	j	137a6 <emdnorm+0x84>

00013a0c <eiremain>:
   13a0c:	7179                	addi	sp,sp,-48
   13a0e:	d04a                	sw	s2,32(sp)
   13a10:	ce4e                	sw	s3,28(sp)
   13a12:	892e                	mv	s2,a1
   13a14:	00255983          	lhu	s3,2(a0)
   13a18:	d606                	sw	ra,44(sp)
   13a1a:	d422                	sw	s0,40(sp)
   13a1c:	d226                	sw	s1,36(sp)
   13a1e:	cc52                	sw	s4,24(sp)
   13a20:	84b2                	mv	s1,a2
   13a22:	c65e                	sw	s7,12(sp)
   13a24:	ca56                	sw	s5,20(sp)
   13a26:	c85a                	sw	s6,16(sp)
   13a28:	c462                	sw	s8,8(sp)
   13a2a:	c266                	sw	s9,4(sp)
   13a2c:	c06a                	sw	s10,0(sp)
   13a2e:	8baa                	mv	s7,a0
   13a30:	38fd                	jal	1332e <enormlz>
   13a32:	00295403          	lhu	s0,2(s2)
   13a36:	87aa                	mv	a5,a0
   13a38:	854a                	mv	a0,s2
   13a3a:	40f989b3          	sub	s3,s3,a5
   13a3e:	03448a13          	addi	s4,s1,52
   13a42:	30f5                	jal	1332e <enormlz>
   13a44:	8c09                	sub	s0,s0,a0
   13a46:	04e48713          	addi	a4,s1,78
   13a4a:	87d2                	mv	a5,s4
   13a4c:	0789                	addi	a5,a5,2
   13a4e:	fe079f23          	sh	zero,-2(a5)
   13a52:	fee79de3          	bne	a5,a4,13a4c <eiremain+0x40>
   13a56:	07344a63          	blt	s0,s3,13aca <eiremain+0xbe>
   13a5a:	004b8b13          	addi	s6,s7,4
   13a5e:	00490a93          	addi	s5,s2,4
   13a62:	01ab8c13          	addi	s8,s7,26
   13a66:	00290d13          	addi	s10,s2,2
   13a6a:	8756                	mv	a4,s5
   13a6c:	87da                	mv	a5,s6
   13a6e:	0007d603          	lhu	a2,0(a5)
   13a72:	00075683          	lhu	a3,0(a4)
   13a76:	0789                	addi	a5,a5,2
   13a78:	0709                	addi	a4,a4,2
   13a7a:	06d61c63          	bne	a2,a3,13af2 <eiremain+0xe6>
   13a7e:	ff8798e3          	bne	a5,s8,13a6e <eiremain+0x62>
   13a82:	018b8613          	addi	a2,s7,24
   13a86:	01890713          	addi	a4,s2,24
   13a8a:	4681                	li	a3,0
   13a8c:	00075783          	lhu	a5,0(a4)
   13a90:	00065583          	lhu	a1,0(a2)
   13a94:	1779                	addi	a4,a4,-2
   13a96:	8f95                	sub	a5,a5,a3
   13a98:	8f8d                	sub	a5,a5,a1
   13a9a:	0107d693          	srli	a3,a5,0x10
   13a9e:	00f71123          	sh	a5,2(a4)
   13aa2:	8a85                	andi	a3,a3,1
   13aa4:	1679                	addi	a2,a2,-2
   13aa6:	feed13e3          	bne	s10,a4,13a8c <eiremain+0x80>
   13aaa:	4c85                	li	s9,1
   13aac:	8552                	mv	a0,s4
   13aae:	f32ff0ef          	jal	ra,131e0 <eshup1>
   13ab2:	04c4d783          	lhu	a5,76(s1)
   13ab6:	147d                	addi	s0,s0,-1
   13ab8:	854a                	mv	a0,s2
   13aba:	00fce7b3          	or	a5,s9,a5
   13abe:	04f49623          	sh	a5,76(s1)
   13ac2:	f1eff0ef          	jal	ra,131e0 <eshup1>
   13ac6:	fb3452e3          	bge	s0,s3,13a6a <eiremain+0x5e>
   13aca:	86a2                	mv	a3,s0
   13acc:	5422                	lw	s0,40(sp)
   13ace:	50b2                	lw	ra,44(sp)
   13ad0:	49f2                	lw	s3,28(sp)
   13ad2:	4a62                	lw	s4,24(sp)
   13ad4:	4ad2                	lw	s5,20(sp)
   13ad6:	4b42                	lw	s6,16(sp)
   13ad8:	4bb2                	lw	s7,12(sp)
   13ada:	4c22                	lw	s8,8(sp)
   13adc:	4c92                	lw	s9,4(sp)
   13ade:	4d02                	lw	s10,0(sp)
   13ae0:	87a6                	mv	a5,s1
   13ae2:	854a                	mv	a0,s2
   13ae4:	5492                	lw	s1,36(sp)
   13ae6:	5902                	lw	s2,32(sp)
   13ae8:	4701                	li	a4,0
   13aea:	4601                	li	a2,0
   13aec:	4581                	li	a1,0
   13aee:	6145                	addi	sp,sp,48
   13af0:	b90d                	j	13722 <emdnorm>
   13af2:	4c81                	li	s9,0
   13af4:	fac6ece3          	bltu	a3,a2,13aac <eiremain+0xa0>
   13af8:	b769                	j	13a82 <eiremain+0x76>

00013afa <emul>:
   13afa:	7175                	addi	sp,sp,-144
   13afc:	c326                	sw	s1,132(sp)
   13afe:	84aa                	mv	s1,a0
   13b00:	01255503          	lhu	a0,18(a0)
   13b04:	6721                	lui	a4,0x8
   13b06:	177d                	addi	a4,a4,-1
   13b08:	c522                	sw	s0,136(sp)
   13b0a:	c14a                	sw	s2,128(sp)
   13b0c:	dcd2                	sw	s4,120(sp)
   13b0e:	c706                	sw	ra,140(sp)
   13b10:	dece                	sw	s3,124(sp)
   13b12:	dad6                	sw	s5,116(sp)
   13b14:	d8da                	sw	s6,112(sp)
   13b16:	d6de                	sw	s7,108(sp)
   13b18:	d4e2                	sw	s8,104(sp)
   13b1a:	d2e6                	sw	s9,100(sp)
   13b1c:	8d79                	and	a0,a0,a4
   13b1e:	892e                	mv	s2,a1
   13b20:	8432                	mv	s0,a2
   13b22:	8a36                	mv	s4,a3
   13b24:	00e51c63          	bne	a0,a4,13b3c <emul+0x42>
   13b28:	01248993          	addi	s3,s1,18
   13b2c:	8726                	mv	a4,s1
   13b2e:	00075603          	lhu	a2,0(a4) # 8000 <register_fini-0x8074>
   13b32:	0709                	addi	a4,a4,2
   13b34:	1a061863          	bnez	a2,13ce4 <emul+0x1ea>
   13b38:	ff371be3          	bne	a4,s3,13b2e <emul+0x34>
   13b3c:	01295603          	lhu	a2,18(s2)
   13b40:	67a1                	lui	a5,0x8
   13b42:	17fd                	addi	a5,a5,-1
   13b44:	00f675b3          	and	a1,a2,a5
   13b48:	0cf59e63          	bne	a1,a5,13c24 <emul+0x12a>
   13b4c:	01290693          	addi	a3,s2,18
   13b50:	874a                	mv	a4,s2
   13b52:	00075783          	lhu	a5,0(a4)
   13b56:	0709                	addi	a4,a4,2
   13b58:	1a079163          	bnez	a5,13cfa <emul+0x200>
   13b5c:	fee69be3          	bne	a3,a4,13b52 <emul+0x58>
   13b60:	67a1                	lui	a5,0x8
   13b62:	17fd                	addi	a5,a5,-1
   13b64:	0cf50263          	beq	a0,a5,13c28 <emul+0x12e>
   13b68:	87ca                	mv	a5,s2
   13b6a:	0007d703          	lhu	a4,0(a5) # 8000 <register_fini-0x8074>
   13b6e:	0789                	addi	a5,a5,2
   13b70:	14071e63          	bnez	a4,13ccc <emul+0x1d2>
   13b74:	fef69be3          	bne	a3,a5,13b6a <emul+0x70>
   13b78:	0001f5b7          	lui	a1,0x1f
   13b7c:	92c58593          	addi	a1,a1,-1748 # 1e92c <ezero>
   13b80:	8526                	mv	a0,s1
   13b82:	34c1                	jal	13642 <ecmp>
   13b84:	18050663          	beqz	a0,13d10 <emul+0x216>
   13b88:	0124d503          	lhu	a0,18(s1)
   13b8c:	01295603          	lhu	a2,18(s2)
   13b90:	67a1                	lui	a5,0x8
   13b92:	17fd                	addi	a5,a5,-1
   13b94:	00f57833          	and	a6,a0,a5
   13b98:	00f675b3          	and	a1,a2,a5
   13b9c:	14f80163          	beq	a6,a5,13cde <emul+0x1e4>
   13ba0:	67a1                	lui	a5,0x8
   13ba2:	17fd                	addi	a5,a5,-1
   13ba4:	0ef59963          	bne	a1,a5,13c96 <emul+0x19c>
   13ba8:	01290693          	addi	a3,s2,18
   13bac:	87ca                	mv	a5,s2
   13bae:	0007d703          	lhu	a4,0(a5) # 8000 <register_fini-0x8074>
   13bb2:	0789                	addi	a5,a5,2
   13bb4:	e36d                	bnez	a4,13c96 <emul+0x19c>
   13bb6:	fed79ce3          	bne	a5,a3,13bae <emul+0xb4>
   13bba:	6721                	lui	a4,0x8
   13bbc:	177d                	addi	a4,a4,-1
   13bbe:	00f55893          	srli	a7,a0,0xf
   13bc2:	85c2                	mv	a1,a6
   13bc4:	01248993          	addi	s3,s1,18
   13bc8:	0ae80763          	beq	a6,a4,13c76 <emul+0x17c>
   13bcc:	00095703          	lhu	a4,0(s2)
   13bd0:	0909                	addi	s2,s2,2
   13bd2:	26071163          	bnez	a4,13e34 <emul+0x33a>
   13bd6:	fed91be3          	bne	s2,a3,13bcc <emul+0xd2>
   13bda:	00f65793          	srli	a5,a2,0xf
   13bde:	411787b3          	sub	a5,a5,a7
   13be2:	00f037b3          	snez	a5,a5
   13be6:	07be                	slli	a5,a5,0xf
   13be8:	00f41923          	sh	a5,18(s0)
   13bec:	01240713          	addi	a4,s0,18
   13bf0:	87a2                	mv	a5,s0
   13bf2:	0789                	addi	a5,a5,2
   13bf4:	fe079f23          	sh	zero,-2(a5)
   13bf8:	fee79de3          	bne	a5,a4,13bf2 <emul+0xf8>
   13bfc:	01245783          	lhu	a5,18(s0)
   13c00:	6721                	lui	a4,0x8
   13c02:	177d                	addi	a4,a4,-1
   13c04:	8fd9                	or	a5,a5,a4
   13c06:	00f41923          	sh	a5,18(s0)
   13c0a:	40ba                	lw	ra,140(sp)
   13c0c:	442a                	lw	s0,136(sp)
   13c0e:	449a                	lw	s1,132(sp)
   13c10:	490a                	lw	s2,128(sp)
   13c12:	59f6                	lw	s3,124(sp)
   13c14:	5a66                	lw	s4,120(sp)
   13c16:	5ad6                	lw	s5,116(sp)
   13c18:	5b46                	lw	s6,112(sp)
   13c1a:	5bb6                	lw	s7,108(sp)
   13c1c:	5c26                	lw	s8,104(sp)
   13c1e:	5c96                	lw	s9,100(sp)
   13c20:	6149                	addi	sp,sp,144
   13c22:	8082                	ret
   13c24:	06f51963          	bne	a0,a5,13c96 <emul+0x19c>
   13c28:	01248993          	addi	s3,s1,18
   13c2c:	87a6                	mv	a5,s1
   13c2e:	0007d703          	lhu	a4,0(a5)
   13c32:	0789                	addi	a5,a5,2
   13c34:	20071463          	bnez	a4,13e3c <emul+0x342>
   13c38:	fef99be3          	bne	s3,a5,13c2e <emul+0x134>
   13c3c:	0001f5b7          	lui	a1,0x1f
   13c40:	92c58593          	addi	a1,a1,-1748 # 1e92c <ezero>
   13c44:	854a                	mv	a0,s2
   13c46:	3af5                	jal	13642 <ecmp>
   13c48:	c561                	beqz	a0,13d10 <emul+0x216>
   13c4a:	01295603          	lhu	a2,18(s2)
   13c4e:	67a1                	lui	a5,0x8
   13c50:	17fd                	addi	a5,a5,-1
   13c52:	00f675b3          	and	a1,a2,a5
   13c56:	0cf58e63          	beq	a1,a5,13d32 <emul+0x238>
   13c5a:	0124d503          	lhu	a0,18(s1)
   13c5e:	00f57733          	and	a4,a0,a5
   13c62:	02f71a63          	bne	a4,a5,13c96 <emul+0x19c>
   13c66:	87a6                	mv	a5,s1
   13c68:	0007d703          	lhu	a4,0(a5) # 8000 <register_fini-0x8074>
   13c6c:	0789                	addi	a5,a5,2
   13c6e:	1e071e63          	bnez	a4,13e6a <emul+0x370>
   13c72:	fef99be3          	bne	s3,a5,13c68 <emul+0x16e>
   13c76:	0004d783          	lhu	a5,0(s1)
   13c7a:	0489                	addi	s1,s1,2
   13c7c:	1a079e63          	bnez	a5,13e38 <emul+0x33e>
   13c80:	ff349be3          	bne	s1,s3,13c76 <emul+0x17c>
   13c84:	00f55893          	srli	a7,a0,0xf
   13c88:	6721                	lui	a4,0x8
   13c8a:	177d                	addi	a4,a4,-1
   13c8c:	f4e597e3          	bne	a1,a4,13bda <emul+0xe0>
   13c90:	01290693          	addi	a3,s2,18
   13c94:	bf25                	j	13bcc <emul+0xd2>
   13c96:	8526                	mv	a0,s1
   13c98:	006c                	addi	a1,sp,12
   13c9a:	3a29                	jal	135b4 <emovi>
   13c9c:	102c                	addi	a1,sp,40
   13c9e:	854a                	mv	a0,s2
   13ca0:	3a11                	jal	135b4 <emovi>
   13ca2:	00e15483          	lhu	s1,14(sp)
   13ca6:	02a15983          	lhu	s3,42(sp)
   13caa:	e4d9                	bnez	s1,13d38 <emul+0x23e>
   13cac:	081c                	addi	a5,sp,16
   13cae:	1054                	addi	a3,sp,36
   13cb0:	18d78d63          	beq	a5,a3,13e4a <emul+0x350>
   13cb4:	0007d703          	lhu	a4,0(a5)
   13cb8:	0789                	addi	a5,a5,2
   13cba:	db7d                	beqz	a4,13cb0 <emul+0x1b6>
   13cbc:	0068                	addi	a0,sp,12
   13cbe:	e70ff0ef          	jal	ra,1332e <enormlz>
   13cc2:	02a15703          	lhu	a4,42(sp)
   13cc6:	40a004b3          	neg	s1,a0
   13cca:	a885                	j	13d3a <emul+0x240>
   13ccc:	0124d503          	lhu	a0,18(s1)
   13cd0:	67a1                	lui	a5,0x8
   13cd2:	17fd                	addi	a5,a5,-1
   13cd4:	00f575b3          	and	a1,a0,a5
   13cd8:	882e                	mv	a6,a1
   13cda:	ecf599e3          	bne	a1,a5,13bac <emul+0xb2>
   13cde:	01248993          	addi	s3,s1,18
   13ce2:	b751                	j	13c66 <emul+0x16c>
   13ce4:	01448713          	addi	a4,s1,20
   13ce8:	0004d783          	lhu	a5,0(s1)
   13cec:	0489                	addi	s1,s1,2
   13cee:	0409                	addi	s0,s0,2
   13cf0:	fef41f23          	sh	a5,-2(s0)
   13cf4:	fee49ae3          	bne	s1,a4,13ce8 <emul+0x1ee>
   13cf8:	bf09                	j	13c0a <emul+0x110>
   13cfa:	01440713          	addi	a4,s0,20
   13cfe:	00095783          	lhu	a5,0(s2)
   13d02:	0409                	addi	s0,s0,2
   13d04:	0909                	addi	s2,s2,2
   13d06:	fef41f23          	sh	a5,-2(s0)
   13d0a:	fee41ae3          	bne	s0,a4,13cfe <emul+0x204>
   13d0e:	bdf5                	j	13c0a <emul+0x110>
   13d10:	01040713          	addi	a4,s0,16
   13d14:	87a2                	mv	a5,s0
   13d16:	0789                	addi	a5,a5,2
   13d18:	fe079f23          	sh	zero,-2(a5) # 7ffe <register_fini-0x8076>
   13d1c:	fee79de3          	bne	a5,a4,13d16 <emul+0x21c>
   13d20:	77f1                	lui	a5,0xffffc
   13d22:	00f41823          	sh	a5,16(s0)
   13d26:	77e1                	lui	a5,0xffff8
   13d28:	fff7c793          	not	a5,a5
   13d2c:	00f41923          	sh	a5,18(s0)
   13d30:	bde9                	j	13c0a <emul+0x110>
   13d32:	01290693          	addi	a3,s2,18
   13d36:	bd0d                	j	13b68 <emul+0x6e>
   13d38:	874e                	mv	a4,s3
   13d3a:	894e                	mv	s2,s3
   13d3c:	107c                	addi	a5,sp,44
   13d3e:	0094                	addi	a3,sp,64
   13d40:	ef11                	bnez	a4,13d5c <emul+0x262>
   13d42:	10f68c63          	beq	a3,a5,13e5a <emul+0x360>
   13d46:	0007d703          	lhu	a4,0(a5) # ffff8000 <__BSS_END__+0xfffd70d8>
   13d4a:	0789                	addi	a5,a5,2
   13d4c:	db7d                	beqz	a4,13d42 <emul+0x248>
   13d4e:	1028                	addi	a0,sp,40
   13d50:	ddeff0ef          	jal	ra,1332e <enormlz>
   13d54:	02a15703          	lhu	a4,42(sp)
   13d58:	40a98933          	sub	s2,s3,a0
   13d5c:	02815783          	lhu	a5,40(sp)
   13d60:	038a0993          	addi	s3,s4,56
   13d64:	02ea1b23          	sh	a4,54(s4)
   13d68:	02fa1a23          	sh	a5,52(s4)
   13d6c:	04ea0713          	addi	a4,s4,78
   13d70:	87ce                	mv	a5,s3
   13d72:	00079023          	sh	zero,0(a5)
   13d76:	0789                	addi	a5,a5,2
   13d78:	fef71de3          	bne	a4,a5,13d72 <emul+0x278>
   13d7c:	04ca0c13          	addi	s8,s4,76
   13d80:	4b81                	li	s7,0
   13d82:	02410a93          	addi	s5,sp,36
   13d86:	01010c93          	addi	s9,sp,16
   13d8a:	04610b13          	addi	s6,sp,70
   13d8e:	000ad503          	lhu	a0,0(s5)
   13d92:	1af9                	addi	s5,s5,-2
   13d94:	e92d                	bnez	a0,13e06 <emul+0x30c>
   13d96:	04ca5783          	lhu	a5,76(s4)
   13d9a:	8762                	mv	a4,s8
   13d9c:	00fbebb3          	or	s7,s7,a5
   13da0:	ffe75603          	lhu	a2,-2(a4) # 7ffe <register_fini-0x8076>
   13da4:	1779                	addi	a4,a4,-2
   13da6:	00c71123          	sh	a2,2(a4)
   13daa:	fee99be3          	bne	s3,a4,13da0 <emul+0x2a6>
   13dae:	020a1c23          	sh	zero,56(s4)
   13db2:	fd9a9ee3          	bne	s5,s9,13d8e <emul+0x294>
   13db6:	034a0713          	addi	a4,s4,52
   13dba:	103c                	addi	a5,sp,40
   13dbc:	04210613          	addi	a2,sp,66
   13dc0:	00075683          	lhu	a3,0(a4)
   13dc4:	0789                	addi	a5,a5,2
   13dc6:	0709                	addi	a4,a4,2
   13dc8:	fed79f23          	sh	a3,-2(a5)
   13dcc:	fef61ae3          	bne	a2,a5,13dc0 <emul+0x2c6>
   13dd0:	76f1                	lui	a3,0xffffc
   13dd2:	94ca                	add	s1,s1,s2
   13dd4:	0689                	addi	a3,a3,2
   13dd6:	85de                	mv	a1,s7
   13dd8:	1028                	addi	a0,sp,40
   13dda:	87d2                	mv	a5,s4
   13ddc:	04000713          	li	a4,64
   13de0:	96a6                	add	a3,a3,s1
   13de2:	4601                	li	a2,0
   13de4:	3a3d                	jal	13722 <emdnorm>
   13de6:	02815703          	lhu	a4,40(sp)
   13dea:	00c15783          	lhu	a5,12(sp)
   13dee:	85a2                	mv	a1,s0
   13df0:	1028                	addi	a0,sp,40
   13df2:	8f99                	sub	a5,a5,a4
   13df4:	00f037b3          	snez	a5,a5
   13df8:	40f007b3          	neg	a5,a5
   13dfc:	02f11423          	sh	a5,40(sp)
   13e00:	ca2ff0ef          	jal	ra,132a2 <emovo.constprop.0>
   13e04:	b519                	j	13c0a <emul+0x110>
   13e06:	00d0                	addi	a2,sp,68
   13e08:	102c                	addi	a1,sp,40
   13e0a:	c24ff0ef          	jal	ra,1322e <m16m>
   13e0e:	8562                	mv	a0,s8
   13e10:	4581                	li	a1,0
   13e12:	08f0                	addi	a2,sp,92
   13e14:	00055783          	lhu	a5,0(a0)
   13e18:	00065703          	lhu	a4,0(a2)
   13e1c:	1579                	addi	a0,a0,-2
   13e1e:	1679                	addi	a2,a2,-2
   13e20:	973e                	add	a4,a4,a5
   13e22:	972e                	add	a4,a4,a1
   13e24:	01075593          	srli	a1,a4,0x10
   13e28:	00e51123          	sh	a4,2(a0)
   13e2c:	8985                	andi	a1,a1,1
   13e2e:	ff6613e3          	bne	a2,s6,13e14 <emul+0x31a>
   13e32:	b795                	j	13d96 <emul+0x29c>
   13e34:	4781                	li	a5,0
   13e36:	b365                	j	13bde <emul+0xe4>
   13e38:	4881                	li	a7,0
   13e3a:	b5b9                	j	13c88 <emul+0x18e>
   13e3c:	67a1                	lui	a5,0x8
   13e3e:	17fd                	addi	a5,a5,-1
   13e40:	eef589e3          	beq	a1,a5,13d32 <emul+0x238>
   13e44:	0124d503          	lhu	a0,18(s1)
   13e48:	bd39                	j	13c66 <emul+0x16c>
   13e4a:	01440793          	addi	a5,s0,20
   13e4e:	0409                	addi	s0,s0,2
   13e50:	fe041f23          	sh	zero,-2(s0)
   13e54:	fef41de3          	bne	s0,a5,13e4e <emul+0x354>
   13e58:	bb4d                	j	13c0a <emul+0x110>
   13e5a:	01440793          	addi	a5,s0,20
   13e5e:	0409                	addi	s0,s0,2
   13e60:	fe041f23          	sh	zero,-2(s0)
   13e64:	fef41de3          	bne	s0,a5,13e5e <emul+0x364>
   13e68:	b34d                	j	13c0a <emul+0x110>
   13e6a:	6821                	lui	a6,0x8
   13e6c:	187d                	addi	a6,a6,-1
   13e6e:	bb0d                	j	13ba0 <emul+0xa6>

00013e70 <ediv>:
   13e70:	01255783          	lhu	a5,18(a0)
   13e74:	7171                	addi	sp,sp,-176
   13e76:	d522                	sw	s0,168(sp)
   13e78:	fff7c793          	not	a5,a5
   13e7c:	d326                	sw	s1,164(sp)
   13e7e:	d14a                	sw	s2,160(sp)
   13e80:	cf4e                	sw	s3,156(sp)
   13e82:	d706                	sw	ra,172(sp)
   13e84:	cd52                	sw	s4,152(sp)
   13e86:	cb56                	sw	s5,148(sp)
   13e88:	c95a                	sw	s6,144(sp)
   13e8a:	c75e                	sw	s7,140(sp)
   13e8c:	c562                	sw	s8,136(sp)
   13e8e:	c366                	sw	s9,132(sp)
   13e90:	c16a                	sw	s10,128(sp)
   13e92:	deee                	sw	s11,124(sp)
   13e94:	01179713          	slli	a4,a5,0x11
   13e98:	84aa                	mv	s1,a0
   13e9a:	892e                	mv	s2,a1
   13e9c:	8432                	mv	s0,a2
   13e9e:	89b6                	mv	s3,a3
   13ea0:	eb19                	bnez	a4,13eb6 <ediv+0x46>
   13ea2:	01250693          	addi	a3,a0,18
   13ea6:	87aa                	mv	a5,a0
   13ea8:	0007d703          	lhu	a4,0(a5) # 8000 <register_fini-0x8074>
   13eac:	0789                	addi	a5,a5,2
   13eae:	24071063          	bnez	a4,140ee <ediv+0x27e>
   13eb2:	fed79be3          	bne	a5,a3,13ea8 <ediv+0x38>
   13eb6:	01295783          	lhu	a5,18(s2)
   13eba:	fff7c793          	not	a5,a5
   13ebe:	01179713          	slli	a4,a5,0x11
   13ec2:	eb19                	bnez	a4,13ed8 <ediv+0x68>
   13ec4:	01290693          	addi	a3,s2,18
   13ec8:	87ca                	mv	a5,s2
   13eca:	0007d703          	lhu	a4,0(a5)
   13ece:	0789                	addi	a5,a5,2
   13ed0:	22071a63          	bnez	a4,14104 <ediv+0x294>
   13ed4:	fef69be3          	bne	a3,a5,13eca <ediv+0x5a>
   13ed8:	0001fa37          	lui	s4,0x1f
   13edc:	92ca0593          	addi	a1,s4,-1748 # 1e92c <ezero>
   13ee0:	8526                	mv	a0,s1
   13ee2:	f60ff0ef          	jal	ra,13642 <ecmp>
   13ee6:	22050a63          	beqz	a0,1411a <ediv+0x2aa>
   13eea:	0124d603          	lhu	a2,18(s1)
   13eee:	01295583          	lhu	a1,18(s2)
   13ef2:	67a1                	lui	a5,0x8
   13ef4:	17fd                	addi	a5,a5,-1
   13ef6:	00f67533          	and	a0,a2,a5
   13efa:	00f5f6b3          	and	a3,a1,a5
   13efe:	06f51a63          	bne	a0,a5,13f72 <ediv+0x102>
   13f02:	01248813          	addi	a6,s1,18
   13f06:	87a6                	mv	a5,s1
   13f08:	0007d703          	lhu	a4,0(a5) # 8000 <register_fini-0x8074>
   13f0c:	0789                	addi	a5,a5,2
   13f0e:	e325                	bnez	a4,13f6e <ediv+0xfe>
   13f10:	ff079ce3          	bne	a5,a6,13f08 <ediv+0x98>
   13f14:	67a1                	lui	a5,0x8
   13f16:	17fd                	addi	a5,a5,-1
   13f18:	20f69b63          	bne	a3,a5,1412e <ediv+0x2be>
   13f1c:	01290693          	addi	a3,s2,18
   13f20:	87ca                	mv	a5,s2
   13f22:	0007d703          	lhu	a4,0(a5) # 8000 <register_fini-0x8074>
   13f26:	0789                	addi	a5,a5,2
   13f28:	36071363          	bnez	a4,1428e <ediv+0x41e>
   13f2c:	fed79be3          	bne	a5,a3,13f22 <ediv+0xb2>
   13f30:	01040713          	addi	a4,s0,16
   13f34:	87a2                	mv	a5,s0
   13f36:	0789                	addi	a5,a5,2
   13f38:	fe079f23          	sh	zero,-2(a5)
   13f3c:	fee79de3          	bne	a5,a4,13f36 <ediv+0xc6>
   13f40:	77f1                	lui	a5,0xffffc
   13f42:	00f41823          	sh	a5,16(s0)
   13f46:	77e1                	lui	a5,0xffff8
   13f48:	fff7c793          	not	a5,a5
   13f4c:	00f41923          	sh	a5,18(s0)
   13f50:	50ba                	lw	ra,172(sp)
   13f52:	542a                	lw	s0,168(sp)
   13f54:	549a                	lw	s1,164(sp)
   13f56:	590a                	lw	s2,160(sp)
   13f58:	49fa                	lw	s3,156(sp)
   13f5a:	4a6a                	lw	s4,152(sp)
   13f5c:	4ada                	lw	s5,148(sp)
   13f5e:	4b4a                	lw	s6,144(sp)
   13f60:	4bba                	lw	s7,140(sp)
   13f62:	4c2a                	lw	s8,136(sp)
   13f64:	4c9a                	lw	s9,132(sp)
   13f66:	4d0a                	lw	s10,128(sp)
   13f68:	5df6                	lw	s11,124(sp)
   13f6a:	614d                	addi	sp,sp,176
   13f6c:	8082                	ret
   13f6e:	67a1                	lui	a5,0x8
   13f70:	17fd                	addi	a5,a5,-1
   13f72:	1cf68663          	beq	a3,a5,1413e <ediv+0x2ce>
   13f76:	8526                	mv	a0,s1
   13f78:	086c                	addi	a1,sp,28
   13f7a:	e3aff0ef          	jal	ra,135b4 <emovi>
   13f7e:	182c                	addi	a1,sp,56
   13f80:	854a                	mv	a0,s2
   13f82:	e32ff0ef          	jal	ra,135b4 <emovi>
   13f86:	03a15a83          	lhu	s5,58(sp)
   13f8a:	01e15483          	lhu	s1,30(sp)
   13f8e:	200a8d63          	beqz	s5,141a8 <ediv+0x338>
   13f92:	c656                	sw	s5,12(sp)
   13f94:	8626                	mv	a2,s1
   13f96:	c426                	sw	s1,8(sp)
   13f98:	101c                	addi	a5,sp,32
   13f9a:	1854                	addi	a3,sp,52
   13f9c:	ee09                	bnez	a2,13fb6 <ediv+0x146>
   13f9e:	2cf68263          	beq	a3,a5,14262 <ediv+0x3f2>
   13fa2:	0007d703          	lhu	a4,0(a5) # 8000 <register_fini-0x8074>
   13fa6:	0789                	addi	a5,a5,2
   13fa8:	db7d                	beqz	a4,13f9e <ediv+0x12e>
   13faa:	0868                	addi	a0,sp,28
   13fac:	b82ff0ef          	jal	ra,1332e <enormlz>
   13fb0:	40a487b3          	sub	a5,s1,a0
   13fb4:	c43e                	sw	a5,8(sp)
   13fb6:	5762                	lw	a4,56(sp)
   13fb8:	03898a93          	addi	s5,s3,56
   13fbc:	87d6                	mv	a5,s5
   13fbe:	02e9aa23          	sw	a4,52(s3)
   13fc2:	04e98493          	addi	s1,s3,78
   13fc6:	0789                	addi	a5,a5,2
   13fc8:	fe079f23          	sh	zero,-2(a5)
   13fcc:	fe979de3          	bne	a5,s1,13fc6 <ediv+0x156>
   13fd0:	1828                	addi	a0,sp,56
   13fd2:	9c6ff0ef          	jal	ra,13198 <eshdn1>
   13fd6:	02215b03          	lhu	s6,34(sp)
   13fda:	6941                	lui	s2,0x10
   13fdc:	05010c13          	addi	s8,sp,80
   13fe0:	010b1a13          	slli	s4,s6,0x10
   13fe4:	416a0a33          	sub	s4,s4,s6
   13fe8:	03a10c93          	addi	s9,sp,58
   13fec:	197d                	addi	s2,s2,-1
   13fee:	06e10d13          	addi	s10,sp,110
   13ff2:	05610d93          	addi	s11,sp,86
   13ff6:	03c15783          	lhu	a5,60(sp)
   13ffa:	03e15703          	lhu	a4,62(sp)
   13ffe:	8bca                	mv	s7,s2
   14000:	07c2                	slli	a5,a5,0x10
   14002:	97ba                	add	a5,a5,a4
   14004:	00fa6863          	bltu	s4,a5,14014 <ediv+0x1a4>
   14008:	0367d533          	divu	a0,a5,s6
   1400c:	01051b93          	slli	s7,a0,0x10
   14010:	010bdb93          	srli	s7,s7,0x10
   14014:	08d0                	addi	a2,sp,84
   14016:	086c                	addi	a1,sp,28
   14018:	855e                	mv	a0,s7
   1401a:	a14ff0ef          	jal	ra,1322e <m16m>
   1401e:	1878                	addi	a4,sp,60
   14020:	08bc                	addi	a5,sp,88
   14022:	0007d603          	lhu	a2,0(a5)
   14026:	00075683          	lhu	a3,0(a4)
   1402a:	0789                	addi	a5,a5,2
   1402c:	0709                	addi	a4,a4,2
   1402e:	18d61f63          	bne	a2,a3,141cc <ediv+0x35c>
   14032:	ffa798e3          	bne	a5,s10,14022 <ediv+0x1b2>
   14036:	4781                	li	a5,0
   14038:	10f4                	addi	a3,sp,108
   1403a:	8662                	mv	a2,s8
   1403c:	00065703          	lhu	a4,0(a2)
   14040:	0006d583          	lhu	a1,0(a3) # ffffc000 <__BSS_END__+0xfffdb0d8>
   14044:	1679                	addi	a2,a2,-2
   14046:	8f1d                	sub	a4,a4,a5
   14048:	8f0d                	sub	a4,a4,a1
   1404a:	01075793          	srli	a5,a4,0x10
   1404e:	00e61123          	sh	a4,2(a2)
   14052:	8b85                	andi	a5,a5,1
   14054:	16f9                	addi	a3,a3,-2
   14056:	ff9613e3          	bne	a2,s9,1403c <ediv+0x1cc>
   1405a:	017a9023          	sh	s7,0(s5)
   1405e:	187c                	addi	a5,sp,60
   14060:	0027d703          	lhu	a4,2(a5)
   14064:	0789                	addi	a5,a5,2
   14066:	fee79f23          	sh	a4,-2(a5)
   1406a:	ff879be3          	bne	a5,s8,14060 <ediv+0x1f0>
   1406e:	04011823          	sh	zero,80(sp)
   14072:	0a89                	addi	s5,s5,2
   14074:	f95491e3          	bne	s1,s5,13ff6 <ediv+0x186>
   14078:	4701                	li	a4,0
   1407a:	187c                	addi	a5,sp,60
   1407c:	05210613          	addi	a2,sp,82
   14080:	0007d683          	lhu	a3,0(a5)
   14084:	0789                	addi	a5,a5,2
   14086:	8f55                	or	a4,a4,a3
   14088:	fec79ce3          	bne	a5,a2,14080 <ediv+0x210>
   1408c:	01071793          	slli	a5,a4,0x10
   14090:	87c1                	srai	a5,a5,0x10
   14092:	c391                	beqz	a5,14096 <ediv+0x226>
   14094:	4705                	li	a4,1
   14096:	01071593          	slli	a1,a4,0x10
   1409a:	81c1                	srli	a1,a1,0x10
   1409c:	03498713          	addi	a4,s3,52
   140a0:	183c                	addi	a5,sp,56
   140a2:	00075683          	lhu	a3,0(a4)
   140a6:	0789                	addi	a5,a5,2
   140a8:	0709                	addi	a4,a4,2
   140aa:	fed79f23          	sh	a3,-2(a5)
   140ae:	fef61ae3          	bne	a2,a5,140a2 <ediv+0x232>
   140b2:	47b2                	lw	a5,12(sp)
   140b4:	4722                	lw	a4,8(sp)
   140b6:	6691                	lui	a3,0x4
   140b8:	16fd                	addi	a3,a3,-1
   140ba:	40e78ab3          	sub	s5,a5,a4
   140be:	1828                	addi	a0,sp,56
   140c0:	87ce                	mv	a5,s3
   140c2:	04000713          	li	a4,64
   140c6:	96d6                	add	a3,a3,s5
   140c8:	4601                	li	a2,0
   140ca:	e58ff0ef          	jal	ra,13722 <emdnorm>
   140ce:	03815703          	lhu	a4,56(sp)
   140d2:	01c15783          	lhu	a5,28(sp)
   140d6:	85a2                	mv	a1,s0
   140d8:	1828                	addi	a0,sp,56
   140da:	8f99                	sub	a5,a5,a4
   140dc:	00f037b3          	snez	a5,a5
   140e0:	40f007b3          	neg	a5,a5
   140e4:	02f11c23          	sh	a5,56(sp)
   140e8:	9baff0ef          	jal	ra,132a2 <emovo.constprop.0>
   140ec:	b595                	j	13f50 <ediv+0xe0>
   140ee:	01448713          	addi	a4,s1,20
   140f2:	0004d783          	lhu	a5,0(s1)
   140f6:	0489                	addi	s1,s1,2
   140f8:	0409                	addi	s0,s0,2
   140fa:	fef41f23          	sh	a5,-2(s0)
   140fe:	fee49ae3          	bne	s1,a4,140f2 <ediv+0x282>
   14102:	b5b9                	j	13f50 <ediv+0xe0>
   14104:	01490713          	addi	a4,s2,20 # 10014 <register_fini-0x60>
   14108:	00095783          	lhu	a5,0(s2)
   1410c:	0909                	addi	s2,s2,2
   1410e:	0409                	addi	s0,s0,2
   14110:	fef41f23          	sh	a5,-2(s0)
   14114:	fee91ae3          	bne	s2,a4,14108 <ediv+0x298>
   14118:	bd25                	j	13f50 <ediv+0xe0>
   1411a:	92ca0593          	addi	a1,s4,-1748
   1411e:	854a                	mv	a0,s2
   14120:	d22ff0ef          	jal	ra,13642 <ecmp>
   14124:	dc0513e3          	bnez	a0,13eea <ediv+0x7a>
   14128:	b521                	j	13f30 <ediv+0xc0>
   1412a:	e40806e3          	beqz	a6,13f76 <ediv+0x106>
   1412e:	01440793          	addi	a5,s0,20
   14132:	0409                	addi	s0,s0,2
   14134:	fe041f23          	sh	zero,-2(s0)
   14138:	fef41de3          	bne	s0,a5,14132 <ediv+0x2c2>
   1413c:	bd11                	j	13f50 <ediv+0xe0>
   1413e:	4801                	li	a6,0
   14140:	01290693          	addi	a3,s2,18
   14144:	87ca                	mv	a5,s2
   14146:	0007d703          	lhu	a4,0(a5)
   1414a:	0789                	addi	a5,a5,2
   1414c:	ff79                	bnez	a4,1412a <ediv+0x2ba>
   1414e:	fed79ce3          	bne	a5,a3,14146 <ediv+0x2d6>
   14152:	67a1                	lui	a5,0x8
   14154:	17fd                	addi	a5,a5,-1
   14156:	04f50063          	beq	a0,a5,14196 <ediv+0x326>
   1415a:	823d                	srli	a2,a2,0xf
   1415c:	00095783          	lhu	a5,0(s2)
   14160:	0909                	addi	s2,s2,2
   14162:	12079263          	bnez	a5,14286 <ediv+0x416>
   14166:	fed91be3          	bne	s2,a3,1415c <ediv+0x2ec>
   1416a:	81bd                	srli	a1,a1,0xf
   1416c:	00c58363          	beq	a1,a2,14172 <ediv+0x302>
   14170:	6721                	lui	a4,0x8
   14172:	00e41923          	sh	a4,18(s0)
   14176:	87a2                	mv	a5,s0
   14178:	01240713          	addi	a4,s0,18
   1417c:	0789                	addi	a5,a5,2
   1417e:	fe079f23          	sh	zero,-2(a5) # 7ffe <register_fini-0x8076>
   14182:	fee79de3          	bne	a5,a4,1417c <ediv+0x30c>
   14186:	01245783          	lhu	a5,18(s0)
   1418a:	6721                	lui	a4,0x8
   1418c:	177d                	addi	a4,a4,-1
   1418e:	8fd9                	or	a5,a5,a4
   14190:	00f41923          	sh	a5,18(s0)
   14194:	bb75                	j	13f50 <ediv+0xe0>
   14196:	01248513          	addi	a0,s1,18
   1419a:	0004d783          	lhu	a5,0(s1)
   1419e:	0489                	addi	s1,s1,2
   141a0:	e7ed                	bnez	a5,1428a <ediv+0x41a>
   141a2:	fea49ce3          	bne	s1,a0,1419a <ediv+0x32a>
   141a6:	bf55                	j	1415a <ediv+0x2ea>
   141a8:	187c                	addi	a5,sp,60
   141aa:	05010c13          	addi	s8,sp,80
   141ae:	0afc0263          	beq	s8,a5,14252 <ediv+0x3e2>
   141b2:	0007d703          	lhu	a4,0(a5)
   141b6:	0789                	addi	a5,a5,2
   141b8:	db7d                	beqz	a4,141ae <ediv+0x33e>
   141ba:	1828                	addi	a0,sp,56
   141bc:	972ff0ef          	jal	ra,1332e <enormlz>
   141c0:	40a007b3          	neg	a5,a0
   141c4:	01e15603          	lhu	a2,30(sp)
   141c8:	c63e                	sw	a5,12(sp)
   141ca:	b3f1                	j	13f96 <ediv+0x126>
   141cc:	e6c6f5e3          	bgeu	a3,a2,14036 <ediv+0x1c6>
   141d0:	fffb8793          	addi	a5,s7,-1
   141d4:	01079893          	slli	a7,a5,0x10
   141d8:	0108d893          	srli	a7,a7,0x10
   141dc:	4681                	li	a3,0
   141de:	1850                	addi	a2,sp,52
   141e0:	10f8                	addi	a4,sp,108
   141e2:	00075783          	lhu	a5,0(a4) # 8000 <register_fini-0x8074>
   141e6:	00065583          	lhu	a1,0(a2)
   141ea:	1779                	addi	a4,a4,-2
   141ec:	8f95                	sub	a5,a5,a3
   141ee:	8f8d                	sub	a5,a5,a1
   141f0:	0107d693          	srli	a3,a5,0x10
   141f4:	00f71123          	sh	a5,2(a4)
   141f8:	8a85                	andi	a3,a3,1
   141fa:	1679                	addi	a2,a2,-2
   141fc:	ffb713e3          	bne	a4,s11,141e2 <ediv+0x372>
   14200:	1878                	addi	a4,sp,60
   14202:	08bc                	addi	a5,sp,88
   14204:	0007d603          	lhu	a2,0(a5)
   14208:	00075683          	lhu	a3,0(a4)
   1420c:	0789                	addi	a5,a5,2
   1420e:	0709                	addi	a4,a4,2
   14210:	00d61663          	bne	a2,a3,1421c <ediv+0x3ac>
   14214:	ffa798e3          	bne	a5,s10,14204 <ediv+0x394>
   14218:	8bc6                	mv	s7,a7
   1421a:	bd31                	j	14036 <ediv+0x1c6>
   1421c:	fec6fee3          	bgeu	a3,a2,14218 <ediv+0x3a8>
   14220:	ffeb8513          	addi	a0,s7,-2
   14224:	01051b93          	slli	s7,a0,0x10
   14228:	010bdb93          	srli	s7,s7,0x10
   1422c:	4681                	li	a3,0
   1422e:	1850                	addi	a2,sp,52
   14230:	10f8                	addi	a4,sp,108
   14232:	00075783          	lhu	a5,0(a4)
   14236:	00065583          	lhu	a1,0(a2)
   1423a:	1779                	addi	a4,a4,-2
   1423c:	8f95                	sub	a5,a5,a3
   1423e:	8f8d                	sub	a5,a5,a1
   14240:	0107d693          	srli	a3,a5,0x10
   14244:	00f71123          	sh	a5,2(a4)
   14248:	8a85                	andi	a3,a3,1
   1424a:	1679                	addi	a2,a2,-2
   1424c:	ffb713e3          	bne	a4,s11,14232 <ediv+0x3c2>
   14250:	b3dd                	j	14036 <ediv+0x1c6>
   14252:	01440793          	addi	a5,s0,20
   14256:	0409                	addi	s0,s0,2
   14258:	fe041f23          	sh	zero,-2(s0)
   1425c:	fef41de3          	bne	s0,a5,14256 <ediv+0x3e6>
   14260:	b9c5                	j	13f50 <ediv+0xe0>
   14262:	01c15703          	lhu	a4,28(sp)
   14266:	03815783          	lhu	a5,56(sp)
   1426a:	00f70363          	beq	a4,a5,14270 <ediv+0x400>
   1426e:	6621                	lui	a2,0x8
   14270:	00c41923          	sh	a2,18(s0)
   14274:	01240713          	addi	a4,s0,18
   14278:	87a2                	mv	a5,s0
   1427a:	0789                	addi	a5,a5,2
   1427c:	fe079f23          	sh	zero,-2(a5)
   14280:	fee79de3          	bne	a5,a4,1427a <ediv+0x40a>
   14284:	b709                	j	14186 <ediv+0x316>
   14286:	4581                	li	a1,0
   14288:	b5d5                	j	1416c <ediv+0x2fc>
   1428a:	4601                	li	a2,0
   1428c:	bdc1                	j	1415c <ediv+0x2ec>
   1428e:	4805                	li	a6,1
   14290:	bd55                	j	14144 <ediv+0x2d4>

00014292 <e113toe.isra.0>:
   14292:	7179                	addi	sp,sp,-48
   14294:	d422                	sw	s0,40(sp)
   14296:	d606                	sw	ra,44(sp)
   14298:	842e                	mv	s0,a1
   1429a:	005c                	addi	a5,sp,4
   1429c:	01e10713          	addi	a4,sp,30
   142a0:	0789                	addi	a5,a5,2
   142a2:	fe079f23          	sh	zero,-2(a5)
   142a6:	fee79de3          	bne	a5,a4,142a0 <e113toe.isra.0+0xe>
   142aa:	00e55603          	lhu	a2,14(a0)
   142ae:	01061793          	slli	a5,a2,0x10
   142b2:	87c1                	srai	a5,a5,0x10
   142b4:	0407ca63          	bltz	a5,14308 <e113toe.isra.0+0x76>
   142b8:	67a1                	lui	a5,0x8
   142ba:	17fd                	addi	a5,a5,-1
   142bc:	00011223          	sh	zero,4(sp)
   142c0:	8e7d                	and	a2,a2,a5
   142c2:	04f60b63          	beq	a2,a5,14318 <e113toe.isra.0+0x86>
   142c6:	00e50793          	addi	a5,a0,14
   142ca:	00c11323          	sh	a2,6(sp)
   142ce:	00a10713          	addi	a4,sp,10
   142d2:	ffe7d683          	lhu	a3,-2(a5) # 7ffe <register_fini-0x8076>
   142d6:	17f9                	addi	a5,a5,-2
   142d8:	0709                	addi	a4,a4,2
   142da:	fed71f23          	sh	a3,-2(a4)
   142de:	fef51ae3          	bne	a0,a5,142d2 <e113toe.isra.0+0x40>
   142e2:	ea19                	bnez	a2,142f8 <e113toe.isra.0+0x66>
   142e4:	00011423          	sh	zero,8(sp)
   142e8:	85a2                	mv	a1,s0
   142ea:	0048                	addi	a0,sp,4
   142ec:	fb7fe0ef          	jal	ra,132a2 <emovo.constprop.0>
   142f0:	50b2                	lw	ra,44(sp)
   142f2:	5422                	lw	s0,40(sp)
   142f4:	6145                	addi	sp,sp,48
   142f6:	8082                	ret
   142f8:	4785                	li	a5,1
   142fa:	55fd                	li	a1,-1
   142fc:	0048                	addi	a0,sp,4
   142fe:	00f11423          	sh	a5,8(sp)
   14302:	938ff0ef          	jal	ra,1343a <eshift.part.0>
   14306:	b7cd                	j	142e8 <e113toe.isra.0+0x56>
   14308:	57fd                	li	a5,-1
   1430a:	00f11223          	sh	a5,4(sp)
   1430e:	67a1                	lui	a5,0x8
   14310:	17fd                	addi	a5,a5,-1
   14312:	8e7d                	and	a2,a2,a5
   14314:	faf619e3          	bne	a2,a5,142c6 <e113toe.isra.0+0x34>
   14318:	87aa                	mv	a5,a0
   1431a:	00e50693          	addi	a3,a0,14
   1431e:	0007d703          	lhu	a4,0(a5) # 8000 <register_fini-0x8074>
   14322:	0789                	addi	a5,a5,2
   14324:	ef21                	bnez	a4,1437c <e113toe.isra.0+0xea>
   14326:	fef69ce3          	bne	a3,a5,1431e <e113toe.isra.0+0x8c>
   1432a:	01440713          	addi	a4,s0,20
   1432e:	87a2                	mv	a5,s0
   14330:	0789                	addi	a5,a5,2
   14332:	fe079f23          	sh	zero,-2(a5)
   14336:	fee79de3          	bne	a5,a4,14330 <e113toe.isra.0+0x9e>
   1433a:	01240713          	addi	a4,s0,18
   1433e:	87a2                	mv	a5,s0
   14340:	0789                	addi	a5,a5,2
   14342:	fe079f23          	sh	zero,-2(a5)
   14346:	fef71de3          	bne	a4,a5,14340 <e113toe.isra.0+0xae>
   1434a:	01245783          	lhu	a5,18(s0)
   1434e:	66a1                	lui	a3,0x8
   14350:	16fd                	addi	a3,a3,-1
   14352:	8fd5                	or	a5,a5,a3
   14354:	07c2                	slli	a5,a5,0x10
   14356:	83c1                	srli	a5,a5,0x10
   14358:	00f41923          	sh	a5,18(s0)
   1435c:	00e51683          	lh	a3,14(a0)
   14360:	f806d8e3          	bgez	a3,142f0 <e113toe.isra.0+0x5e>
   14364:	86a2                	mv	a3,s0
   14366:	0006d603          	lhu	a2,0(a3) # 8000 <register_fini-0x8074>
   1436a:	0689                	addi	a3,a3,2
   1436c:	f251                	bnez	a2,142f0 <e113toe.isra.0+0x5e>
   1436e:	fed71ce3          	bne	a4,a3,14366 <e113toe.isra.0+0xd4>
   14372:	7761                	lui	a4,0xffff8
   14374:	8fb9                	xor	a5,a5,a4
   14376:	00f41923          	sh	a5,18(s0)
   1437a:	bf9d                	j	142f0 <e113toe.isra.0+0x5e>
   1437c:	01040713          	addi	a4,s0,16
   14380:	87a2                	mv	a5,s0
   14382:	0789                	addi	a5,a5,2
   14384:	fe079f23          	sh	zero,-2(a5)
   14388:	fee79de3          	bne	a5,a4,14382 <e113toe.isra.0+0xf0>
   1438c:	77f1                	lui	a5,0xffffc
   1438e:	00f41823          	sh	a5,16(s0)
   14392:	77e1                	lui	a5,0xffff8
   14394:	fff7c793          	not	a5,a5
   14398:	00f41923          	sh	a5,18(s0)
   1439c:	bf91                	j	142f0 <e113toe.isra.0+0x5e>

0001439e <_ldtoa_r>:
   1439e:	00c5a883          	lw	a7,12(a1)
   143a2:	7141                	addi	sp,sp,-496
   143a4:	0005ae83          	lw	t4,0(a1)
   143a8:	0045ae03          	lw	t3,4(a1)
   143ac:	0085a303          	lw	t1,8(a1)
   143b0:	de46                	sw	a7,60(sp)
   143b2:	412c                	lw	a1,64(a0)
   143b4:	58fd                	li	a7,-1
   143b6:	17112023          	sw	a7,352(sp)
   143ba:	09000893          	li	a7,144
   143be:	1e812423          	sw	s0,488(sp)
   143c2:	1d412c23          	sw	s4,472(sp)
   143c6:	1e112623          	sw	ra,492(sp)
   143ca:	1e912223          	sw	s1,484(sp)
   143ce:	1f212023          	sw	s2,480(sp)
   143d2:	1d312e23          	sw	s3,476(sp)
   143d6:	1d512a23          	sw	s5,468(sp)
   143da:	1d612823          	sw	s6,464(sp)
   143de:	1d712623          	sw	s7,460(sp)
   143e2:	1d812423          	sw	s8,456(sp)
   143e6:	1d912223          	sw	s9,452(sp)
   143ea:	1da12023          	sw	s10,448(sp)
   143ee:	1bb12e23          	sw	s11,444(sp)
   143f2:	d876                	sw	t4,48(sp)
   143f4:	da72                	sw	t3,52(sp)
   143f6:	dc1a                	sw	t1,56(sp)
   143f8:	17112223          	sw	a7,356(sp)
   143fc:	c032                	sw	a2,0(sp)
   143fe:	c436                	sw	a3,8(sp)
   14400:	c63a                	sw	a4,12(sp)
   14402:	ca42                	sw	a6,20(sp)
   14404:	8a2a                	mv	s4,a0
   14406:	843e                	mv	s0,a5
   14408:	c999                	beqz	a1,1441e <_ldtoa_r+0x80>
   1440a:	4178                	lw	a4,68(a0)
   1440c:	4785                	li	a5,1
   1440e:	00e797b3          	sll	a5,a5,a4
   14412:	c1d8                	sw	a4,4(a1)
   14414:	c59c                	sw	a5,8(a1)
   14416:	097010ef          	jal	ra,15cac <_Bfree>
   1441a:	040a2023          	sw	zero,64(s4)
   1441e:	06010913          	addi	s2,sp,96
   14422:	85ca                	mv	a1,s2
   14424:	1808                	addi	a0,sp,48
   14426:	35b5                	jal	14292 <e113toe.isra.0>
   14428:	07215603          	lhu	a2,114(sp)
   1442c:	6721                	lui	a4,0x8
   1442e:	177d                	addi	a4,a4,-1
   14430:	00e675b3          	and	a1,a2,a4
   14434:	00e59c63          	bne	a1,a4,1444c <_ldtoa_r+0xae>
   14438:	874a                	mv	a4,s2
   1443a:	07210793          	addi	a5,sp,114
   1443e:	00075683          	lhu	a3,0(a4) # 8000 <register_fini-0x8074>
   14442:	0709                	addi	a4,a4,2
   14444:	0a069ce3          	bnez	a3,14cfc <_ldtoa_r+0x95e>
   14448:	fef71be3          	bne	a4,a5,1443e <_ldtoa_r+0xa0>
   1444c:	823d                	srli	a2,a2,0xf
   1444e:	4702                	lw	a4,0(sp)
   14450:	c010                	sw	a2,0(s0)
   14452:	478d                	li	a5,3
   14454:	66f70663          	beq	a4,a5,14ac0 <_ldtoa_r+0x722>
   14458:	47d1                	li	a5,20
   1445a:	c23e                	sw	a5,4(sp)
   1445c:	0a0713e3          	bnez	a4,14d02 <_ldtoa_r+0x964>
   14460:	16412703          	lw	a4,356(sp)
   14464:	67a1                	lui	a5,0x8
   14466:	17fd                	addi	a5,a5,-1
   14468:	c83a                	sw	a4,16(sp)
   1446a:	00f59c63          	bne	a1,a5,14482 <_ldtoa_r+0xe4>
   1446e:	87ca                	mv	a5,s2
   14470:	07210693          	addi	a3,sp,114
   14474:	0007d703          	lhu	a4,0(a5) # 8000 <register_fini-0x8074>
   14478:	0789                	addi	a5,a5,2
   1447a:	6a071363          	bnez	a4,14b20 <_ldtoa_r+0x782>
   1447e:	fed79be3          	bne	a5,a3,14474 <_ldtoa_r+0xd6>
   14482:	09000793          	li	a5,144
   14486:	16f12223          	sw	a5,356(sp)
   1448a:	18f8                	addi	a4,sp,124
   1448c:	87ca                	mv	a5,s2
   1448e:	18d0                	addi	a2,sp,116
   14490:	0007d683          	lhu	a3,0(a5)
   14494:	0789                	addi	a5,a5,2
   14496:	0709                	addi	a4,a4,2
   14498:	fed71f23          	sh	a3,-2(a4)
   1449c:	fec79ae3          	bne	a5,a2,14490 <_ldtoa_r+0xf2>
   144a0:	08e15603          	lhu	a2,142(sp)
   144a4:	cc02                	sw	zero,24(sp)
   144a6:	01061793          	slli	a5,a2,0x10
   144aa:	87c1                	srai	a5,a5,0x10
   144ac:	3e07cc63          	bltz	a5,148a4 <_ldtoa_r+0x506>
   144b0:	0001fbb7          	lui	s7,0x1f
   144b4:	92cb8d93          	addi	s11,s7,-1748 # 1e92c <ezero>
   144b8:	014d8c13          	addi	s8,s11,20
   144bc:	4681                	li	a3,0
   144be:	093c                	addi	a5,sp,152
   144c0:	8762                	mv	a4,s8
   144c2:	0ac10d13          	addi	s10,sp,172
   144c6:	a019                	j	144cc <_ldtoa_r+0x12e>
   144c8:	00075683          	lhu	a3,0(a4)
   144cc:	0789                	addi	a5,a5,2
   144ce:	fed79f23          	sh	a3,-2(a5)
   144d2:	0709                	addi	a4,a4,2
   144d4:	ffa79ae3          	bne	a5,s10,144c8 <_ldtoa_r+0x12a>
   144d8:	0e060563          	beqz	a2,145c2 <_ldtoa_r+0x224>
   144dc:	67a1                	lui	a5,0x8
   144de:	17fd                	addi	a5,a5,-1
   144e0:	16f601e3          	beq	a2,a5,14e42 <_ldtoa_r+0xaa4>
   144e4:	08c11783          	lh	a5,140(sp)
   144e8:	1a07dfe3          	bgez	a5,14ea6 <_ldtoa_r+0xb08>
   144ec:	18ec                	addi	a1,sp,124
   144ee:	8562                	mv	a0,s8
   144f0:	952ff0ef          	jal	ra,13642 <ecmp>
   144f4:	c165                	beqz	a0,145d4 <_ldtoa_r+0x236>
   144f6:	64054263          	bltz	a0,14b3a <_ldtoa_r+0x79c>
   144fa:	08e15783          	lhu	a5,142(sp)
   144fe:	22079ae3          	bnez	a5,14f32 <_ldtoa_r+0xb94>
   14502:	08c11783          	lh	a5,140(sp)
   14506:	4481                	li	s1,0
   14508:	16010993          	addi	s3,sp,352
   1450c:	0007cf63          	bltz	a5,1452a <_ldtoa_r+0x18c>
   14510:	118d8413          	addi	s0,s11,280
   14514:	18f0                	addi	a2,sp,124
   14516:	86ce                	mv	a3,s3
   14518:	85b2                	mv	a1,a2
   1451a:	8522                	mv	a0,s0
   1451c:	ddeff0ef          	jal	ra,13afa <emul>
   14520:	08c11783          	lh	a5,140(sp)
   14524:	14fd                	addi	s1,s1,-1
   14526:	fe07d7e3          	bgez	a5,14514 <_ldtoa_r+0x176>
   1452a:	0980                	addi	s0,sp,208
   1452c:	0e810b13          	addi	s6,sp,232
   14530:	8722                	mv	a4,s0
   14532:	18fc                	addi	a5,sp,124
   14534:	0910                	addi	a2,sp,144
   14536:	0007d683          	lhu	a3,0(a5) # 8000 <register_fini-0x8074>
   1453a:	0789                	addi	a5,a5,2
   1453c:	0709                	addi	a4,a4,2
   1453e:	fed71f23          	sh	a3,-2(a4)
   14542:	fec79ae3          	bne	a5,a2,14536 <_ldtoa_r+0x198>
   14546:	4681                	li	a3,0
   14548:	093c                	addi	a5,sp,152
   1454a:	8762                	mv	a4,s8
   1454c:	a019                	j	14552 <_ldtoa_r+0x1b4>
   1454e:	00075683          	lhu	a3,0(a4)
   14552:	0789                	addi	a5,a5,2
   14554:	fed79f23          	sh	a3,-2(a5)
   14558:	0709                	addi	a4,a4,2
   1455a:	ffa79ae3          	bne	a5,s10,1454e <_ldtoa_r+0x1b0>
   1455e:	028d8c93          	addi	s9,s11,40
   14562:	12cd8d13          	addi	s10,s11,300
   14566:	7afd                	lui	s5,0xfffff
   14568:	118d8d93          	addi	s11,s11,280
   1456c:	a019                	j	14572 <_ldtoa_r+0x1d4>
   1456e:	0d51                	addi	s10,s10,20
   14570:	0cd1                	addi	s9,s9,20
   14572:	85a2                	mv	a1,s0
   14574:	8562                	mv	a0,s8
   14576:	8ccff0ef          	jal	ra,13642 <ecmp>
   1457a:	02a05c63          	blez	a0,145b2 <_ldtoa_r+0x214>
   1457e:	85a2                	mv	a1,s0
   14580:	856a                	mv	a0,s10
   14582:	8c0ff0ef          	jal	ra,13642 <ecmp>
   14586:	00054f63          	bltz	a0,145a4 <_ldtoa_r+0x206>
   1458a:	86ce                	mv	a3,s3
   1458c:	8622                	mv	a2,s0
   1458e:	85a2                	mv	a1,s0
   14590:	8566                	mv	a0,s9
   14592:	d68ff0ef          	jal	ra,13afa <emul>
   14596:	0930                	addi	a2,sp,152
   14598:	86ce                	mv	a3,s3
   1459a:	85b2                	mv	a1,a2
   1459c:	8566                	mv	a0,s9
   1459e:	d5cff0ef          	jal	ra,13afa <emul>
   145a2:	94d6                	add	s1,s1,s5
   145a4:	01fad793          	srli	a5,s5,0x1f
   145a8:	97d6                	add	a5,a5,s5
   145aa:	4017da93          	srai	s5,a5,0x1
   145ae:	fdbc90e3          	bne	s9,s11,1456e <_ldtoa_r+0x1d0>
   145b2:	0930                	addi	a2,sp,152
   145b4:	86ce                	mv	a3,s3
   145b6:	85e2                	mv	a1,s8
   145b8:	8532                	mv	a0,a2
   145ba:	385d                	jal	13e70 <ediv>
   145bc:	12410a93          	addi	s5,sp,292
   145c0:	a015                	j	145e4 <_ldtoa_r+0x246>
   145c2:	18fc                	addi	a5,sp,124
   145c4:	08e10693          	addi	a3,sp,142
   145c8:	0007d703          	lhu	a4,0(a5)
   145cc:	f305                	bnez	a4,144ec <_ldtoa_r+0x14e>
   145ce:	0789                	addi	a5,a5,2
   145d0:	fef69ce3          	bne	a3,a5,145c8 <_ldtoa_r+0x22a>
   145d4:	4481                	li	s1,0
   145d6:	12410a93          	addi	s5,sp,292
   145da:	16010993          	addi	s3,sp,352
   145de:	0980                	addi	s0,sp,208
   145e0:	0e810b13          	addi	s6,sp,232
   145e4:	85a2                	mv	a1,s0
   145e6:	0928                	addi	a0,sp,152
   145e8:	fcdfe0ef          	jal	ra,135b4 <emovi>
   145ec:	0938                	addi	a4,sp,152
   145ee:	87a2                	mv	a5,s0
   145f0:	0007d683          	lhu	a3,0(a5)
   145f4:	0789                	addi	a5,a5,2
   145f6:	0709                	addi	a4,a4,2
   145f8:	fed71f23          	sh	a3,-2(a4)
   145fc:	ff679ae3          	bne	a5,s6,145f0 <_ldtoa_r+0x252>
   14600:	85a2                	mv	a1,s0
   14602:	18e8                	addi	a0,sp,124
   14604:	0a011823          	sh	zero,176(sp)
   14608:	fadfe0ef          	jal	ra,135b4 <emovi>
   1460c:	18fc                	addi	a5,sp,124
   1460e:	00045703          	lhu	a4,0(s0)
   14612:	0409                	addi	s0,s0,2
   14614:	0789                	addi	a5,a5,2
   14616:	fee79f23          	sh	a4,-2(a5)
   1461a:	ff641ae3          	bne	s0,s6,1460e <_ldtoa_r+0x270>
   1461e:	0928                	addi	a0,sp,152
   14620:	864e                	mv	a2,s3
   14622:	18ec                	addi	a1,sp,124
   14624:	08011a23          	sh	zero,148(sp)
   14628:	be4ff0ef          	jal	ra,13a0c <eiremain>
   1462c:	1ac15503          	lhu	a0,428(sp)
   14630:	10051763          	bnez	a0,1473e <_ldtoa_r+0x3a0>
   14634:	09410c13          	addi	s8,sp,148
   14638:	07e10c93          	addi	s9,sp,126
   1463c:	0b610413          	addi	s0,sp,182
   14640:	92cb8593          	addi	a1,s7,-1748
   14644:	18e8                	addi	a0,sp,124
   14646:	ffdfe0ef          	jal	ra,13642 <ecmp>
   1464a:	c975                	beqz	a0,1473e <_ldtoa_r+0x3a0>
   1464c:	4701                	li	a4,0
   1464e:	86e2                	mv	a3,s8
   14650:	0006d783          	lhu	a5,0(a3)
   14654:	01079613          	slli	a2,a5,0x10
   14658:	8641                	srai	a2,a2,0x10
   1465a:	00065463          	bgez	a2,14662 <_ldtoa_r+0x2c4>
   1465e:	00176713          	ori	a4,a4,1
   14662:	0786                	slli	a5,a5,0x1
   14664:	07c2                	slli	a5,a5,0x10
   14666:	00277613          	andi	a2,a4,2
   1466a:	83c1                	srli	a5,a5,0x10
   1466c:	c219                	beqz	a2,14672 <_ldtoa_r+0x2d4>
   1466e:	0017e793          	ori	a5,a5,1
   14672:	0706                	slli	a4,a4,0x1
   14674:	00f69023          	sh	a5,0(a3)
   14678:	0742                	slli	a4,a4,0x10
   1467a:	16f9                	addi	a3,a3,-2
   1467c:	8341                	srli	a4,a4,0x10
   1467e:	fd9699e3          	bne	a3,s9,14650 <_ldtoa_r+0x2b2>
   14682:	1958                	addi	a4,sp,180
   14684:	18fc                	addi	a5,sp,124
   14686:	0007d683          	lhu	a3,0(a5)
   1468a:	0789                	addi	a5,a5,2
   1468c:	0709                	addi	a4,a4,2
   1468e:	fed71f23          	sh	a3,-2(a4)
   14692:	ff879ae3          	bne	a5,s8,14686 <_ldtoa_r+0x2e8>
   14696:	0c011623          	sh	zero,204(sp)
   1469a:	4701                	li	a4,0
   1469c:	01f4                	addi	a3,sp,204
   1469e:	0006d783          	lhu	a5,0(a3)
   146a2:	01079613          	slli	a2,a5,0x10
   146a6:	8641                	srai	a2,a2,0x10
   146a8:	00065463          	bgez	a2,146b0 <_ldtoa_r+0x312>
   146ac:	00176713          	ori	a4,a4,1
   146b0:	0786                	slli	a5,a5,0x1
   146b2:	07c2                	slli	a5,a5,0x10
   146b4:	00277613          	andi	a2,a4,2
   146b8:	83c1                	srli	a5,a5,0x10
   146ba:	c219                	beqz	a2,146c0 <_ldtoa_r+0x322>
   146bc:	0017e793          	ori	a5,a5,1
   146c0:	0706                	slli	a4,a4,0x1
   146c2:	00f69023          	sh	a5,0(a3)
   146c6:	0742                	slli	a4,a4,0x10
   146c8:	16f9                	addi	a3,a3,-2
   146ca:	8341                	srli	a4,a4,0x10
   146cc:	fc8699e3          	bne	a3,s0,1469e <_ldtoa_r+0x300>
   146d0:	4701                	li	a4,0
   146d2:	01f4                	addi	a3,sp,204
   146d4:	0006d783          	lhu	a5,0(a3)
   146d8:	01079613          	slli	a2,a5,0x10
   146dc:	8641                	srai	a2,a2,0x10
   146de:	00065463          	bgez	a2,146e6 <_ldtoa_r+0x348>
   146e2:	00176713          	ori	a4,a4,1
   146e6:	0786                	slli	a5,a5,0x1
   146e8:	07c2                	slli	a5,a5,0x10
   146ea:	00277613          	andi	a2,a4,2
   146ee:	83c1                	srli	a5,a5,0x10
   146f0:	c219                	beqz	a2,146f6 <_ldtoa_r+0x358>
   146f2:	0017e793          	ori	a5,a5,1
   146f6:	0706                	slli	a4,a4,0x1
   146f8:	00f69023          	sh	a5,0(a3)
   146fc:	0742                	slli	a4,a4,0x10
   146fe:	16f9                	addi	a3,a3,-2
   14700:	8341                	srli	a4,a4,0x10
   14702:	fc8699e3          	bne	a3,s0,146d4 <_ldtoa_r+0x336>
   14706:	4601                	li	a2,0
   14708:	86e2                	mv	a3,s8
   1470a:	01f8                	addi	a4,sp,204
   1470c:	0006d583          	lhu	a1,0(a3)
   14710:	00075783          	lhu	a5,0(a4)
   14714:	16f9                	addi	a3,a3,-2
   14716:	1779                	addi	a4,a4,-2
   14718:	97ae                	add	a5,a5,a1
   1471a:	97b2                	add	a5,a5,a2
   1471c:	0107d613          	srli	a2,a5,0x10
   14720:	00f69123          	sh	a5,2(a3)
   14724:	8a05                	andi	a2,a2,1
   14726:	fe8713e3          	bne	a4,s0,1470c <_ldtoa_r+0x36e>
   1472a:	0928                	addi	a0,sp,152
   1472c:	864e                	mv	a2,s3
   1472e:	18ec                	addi	a1,sp,124
   14730:	adcff0ef          	jal	ra,13a0c <eiremain>
   14734:	1ac15503          	lhu	a0,428(sp)
   14738:	14fd                	addi	s1,s1,-1
   1473a:	f00503e3          	beqz	a0,14640 <_ldtoa_r+0x2a2>
   1473e:	47e2                	lw	a5,24(sp)
   14740:	4682                	lw	a3,0(sp)
   14742:	470d                	li	a4,3
   14744:	00f037b3          	snez	a5,a5
   14748:	40f007b3          	neg	a5,a5
   1474c:	8bb5                	andi	a5,a5,13
   1474e:	02078793          	addi	a5,a5,32
   14752:	12f10223          	sb	a5,292(sp)
   14756:	4792                	lw	a5,4(sp)
   14758:	00e69363          	bne	a3,a4,1475e <_ldtoa_r+0x3c0>
   1475c:	97a6                	add	a5,a5,s1
   1475e:	02a00713          	li	a4,42
   14762:	cc3e                	sw	a5,24(sp)
   14764:	00f75363          	bge	a4,a5,1476a <_ldtoa_r+0x3cc>
   14768:	cc3a                	sw	a4,24(sp)
   1476a:	4729                	li	a4,10
   1476c:	38e50563          	beq	a0,a4,14af6 <_ldtoa_r+0x758>
   14770:	03050513          	addi	a0,a0,48
   14774:	02e00713          	li	a4,46
   14778:	12a102a3          	sb	a0,293(sp)
   1477c:	12e10323          	sb	a4,294(sp)
   14780:	7407c063          	bltz	a5,14ec0 <_ldtoa_r+0xb22>
   14784:	12710b13          	addi	s6,sp,295
   14788:	4401                	li	s0,0
   1478a:	ce26                	sw	s1,28(sp)
   1478c:	84da                	mv	s1,s6
   1478e:	8b22                	mv	s6,s0
   14790:	4462                	lw	s0,24(sp)
   14792:	0b410c93          	addi	s9,sp,180
   14796:	09410d13          	addi	s10,sp,148
   1479a:	07e10d93          	addi	s11,sp,126
   1479e:	0b610c13          	addi	s8,sp,182
   147a2:	4681                	li	a3,0
   147a4:	866a                	mv	a2,s10
   147a6:	00065783          	lhu	a5,0(a2) # 8000 <register_fini-0x8074>
   147aa:	01079593          	slli	a1,a5,0x10
   147ae:	85c1                	srai	a1,a1,0x10
   147b0:	0005d463          	bgez	a1,147b8 <_ldtoa_r+0x41a>
   147b4:	0016e693          	ori	a3,a3,1
   147b8:	0786                	slli	a5,a5,0x1
   147ba:	07c2                	slli	a5,a5,0x10
   147bc:	0026f593          	andi	a1,a3,2
   147c0:	83c1                	srli	a5,a5,0x10
   147c2:	c199                	beqz	a1,147c8 <_ldtoa_r+0x42a>
   147c4:	0017e793          	ori	a5,a5,1
   147c8:	0686                	slli	a3,a3,0x1
   147ca:	00f61023          	sh	a5,0(a2)
   147ce:	06c2                	slli	a3,a3,0x10
   147d0:	1679                	addi	a2,a2,-2
   147d2:	82c1                	srli	a3,a3,0x10
   147d4:	fdb619e3          	bne	a2,s11,147a6 <_ldtoa_r+0x408>
   147d8:	86e6                	mv	a3,s9
   147da:	18fc                	addi	a5,sp,124
   147dc:	0007d603          	lhu	a2,0(a5)
   147e0:	0789                	addi	a5,a5,2
   147e2:	0689                	addi	a3,a3,2
   147e4:	fec69f23          	sh	a2,-2(a3)
   147e8:	ffa79ae3          	bne	a5,s10,147dc <_ldtoa_r+0x43e>
   147ec:	0c011623          	sh	zero,204(sp)
   147f0:	4681                	li	a3,0
   147f2:	01f0                	addi	a2,sp,204
   147f4:	00065783          	lhu	a5,0(a2)
   147f8:	01079593          	slli	a1,a5,0x10
   147fc:	85c1                	srai	a1,a1,0x10
   147fe:	0005d463          	bgez	a1,14806 <_ldtoa_r+0x468>
   14802:	0016e693          	ori	a3,a3,1
   14806:	0786                	slli	a5,a5,0x1
   14808:	07c2                	slli	a5,a5,0x10
   1480a:	0026f593          	andi	a1,a3,2
   1480e:	83c1                	srli	a5,a5,0x10
   14810:	c199                	beqz	a1,14816 <_ldtoa_r+0x478>
   14812:	0017e793          	ori	a5,a5,1
   14816:	0686                	slli	a3,a3,0x1
   14818:	00f61023          	sh	a5,0(a2)
   1481c:	06c2                	slli	a3,a3,0x10
   1481e:	1679                	addi	a2,a2,-2
   14820:	82c1                	srli	a3,a3,0x10
   14822:	fd8619e3          	bne	a2,s8,147f4 <_ldtoa_r+0x456>
   14826:	4681                	li	a3,0
   14828:	01f0                	addi	a2,sp,204
   1482a:	00065783          	lhu	a5,0(a2)
   1482e:	01079593          	slli	a1,a5,0x10
   14832:	85c1                	srai	a1,a1,0x10
   14834:	0005d463          	bgez	a1,1483c <_ldtoa_r+0x49e>
   14838:	0016e693          	ori	a3,a3,1
   1483c:	0786                	slli	a5,a5,0x1
   1483e:	07c2                	slli	a5,a5,0x10
   14840:	0026f593          	andi	a1,a3,2
   14844:	83c1                	srli	a5,a5,0x10
   14846:	c199                	beqz	a1,1484c <_ldtoa_r+0x4ae>
   14848:	0017e793          	ori	a5,a5,1
   1484c:	0686                	slli	a3,a3,0x1
   1484e:	00f61023          	sh	a5,0(a2)
   14852:	06c2                	slli	a3,a3,0x10
   14854:	1679                	addi	a2,a2,-2
   14856:	82c1                	srli	a3,a3,0x10
   14858:	fd8619e3          	bne	a2,s8,1482a <_ldtoa_r+0x48c>
   1485c:	4581                	li	a1,0
   1485e:	866a                	mv	a2,s10
   14860:	01f4                	addi	a3,sp,204
   14862:	00065503          	lhu	a0,0(a2)
   14866:	0006d783          	lhu	a5,0(a3)
   1486a:	1679                	addi	a2,a2,-2
   1486c:	16f9                	addi	a3,a3,-2
   1486e:	97aa                	add	a5,a5,a0
   14870:	97ae                	add	a5,a5,a1
   14872:	0107d593          	srli	a1,a5,0x10
   14876:	00f61123          	sh	a5,2(a2)
   1487a:	8985                	andi	a1,a1,1
   1487c:	ff8693e3          	bne	a3,s8,14862 <_ldtoa_r+0x4c4>
   14880:	864e                	mv	a2,s3
   14882:	18ec                	addi	a1,sp,124
   14884:	0928                	addi	a0,sp,152
   14886:	986ff0ef          	jal	ra,13a0c <eiremain>
   1488a:	1ac15603          	lhu	a2,428(sp)
   1488e:	00148793          	addi	a5,s1,1
   14892:	0b05                	addi	s6,s6,1
   14894:	03060693          	addi	a3,a2,48
   14898:	fed78fa3          	sb	a3,-1(a5)
   1489c:	01644c63          	blt	s0,s6,148b4 <_ldtoa_r+0x516>
   148a0:	84be                	mv	s1,a5
   148a2:	b701                	j	147a2 <_ldtoa_r+0x404>
   148a4:	0646                	slli	a2,a2,0x11
   148a6:	67c1                	lui	a5,0x10
   148a8:	8245                	srli	a2,a2,0x11
   148aa:	17fd                	addi	a5,a5,-1
   148ac:	08c11723          	sh	a2,142(sp)
   148b0:	cc3e                	sw	a5,24(sp)
   148b2:	befd                	j	144b0 <_ldtoa_r+0x112>
   148b4:	8b26                	mv	s6,s1
   148b6:	44f2                	lw	s1,28(sp)
   148b8:	4711                	li	a4,4
   148ba:	04c75563          	bge	a4,a2,14904 <_ldtoa_r+0x566>
   148be:	4715                	li	a4,5
   148c0:	60e60763          	beq	a2,a4,14ece <_ldtoa_r+0xb30>
   148c4:	ffe7c703          	lbu	a4,-2(a5) # fffe <register_fini-0x76>
   148c8:	46e2                	lw	a3,24(sp)
   148ca:	ffe78613          	addi	a2,a5,-2
   148ce:	07f77713          	andi	a4,a4,127
   148d2:	0206c463          	bltz	a3,148fa <_ldtoa_r+0x55c>
   148d6:	02e00793          	li	a5,46
   148da:	03800593          	li	a1,56
   148de:	03000513          	li	a0,48
   148e2:	58f70363          	beq	a4,a5,14e68 <_ldtoa_r+0xaca>
   148e6:	58e5dd63          	bge	a1,a4,14e80 <_ldtoa_r+0xae2>
   148ea:	fff64703          	lbu	a4,-1(a2)
   148ee:	00a60023          	sb	a0,0(a2)
   148f2:	167d                	addi	a2,a2,-1
   148f4:	07f77713          	andi	a4,a4,127
   148f8:	b7ed                	j	148e2 <_ldtoa_r+0x544>
   148fa:	03100713          	li	a4,49
   148fe:	fee78f23          	sb	a4,-2(a5)
   14902:	0485                	addi	s1,s1,1
   14904:	0001f5b7          	lui	a1,0x1f
   14908:	8626                	mv	a2,s1
   1490a:	8ac58593          	addi	a1,a1,-1876 # 1e8ac <zeroes.0+0x2c>
   1490e:	855a                	mv	a0,s6
   14910:	40c020ef          	jal	ra,16d1c <sprintf>
   14914:	07215783          	lhu	a5,114(sp)
   14918:	4742                	lw	a4,16(sp)
   1491a:	16912823          	sw	s1,368(sp)
   1491e:	fff7c793          	not	a5,a5
   14922:	16e12223          	sw	a4,356(sp)
   14926:	01179713          	slli	a4,a5,0x11
   1492a:	12070e63          	beqz	a4,14a66 <_ldtoa_r+0x6c8>
   1492e:	46b2                	lw	a3,12(sp)
   14930:	12414703          	lbu	a4,292(sp)
   14934:	00148793          	addi	a5,s1,1
   14938:	c29c                	sw	a5,0(a3)
   1493a:	87d6                	mv	a5,s5
   1493c:	c70d                	beqz	a4,14966 <_ldtoa_r+0x5c8>
   1493e:	02e00693          	li	a3,46
   14942:	18d70863          	beq	a4,a3,14ad2 <_ldtoa_r+0x734>
   14946:	0017c703          	lbu	a4,1(a5)
   1494a:	0785                	addi	a5,a5,1
   1494c:	fb7d                	bnez	a4,14942 <_ldtoa_r+0x5a4>
   1494e:	04500693          	li	a3,69
   14952:	00fae563          	bltu	s5,a5,1495c <_ldtoa_r+0x5be>
   14956:	a801                	j	14966 <_ldtoa_r+0x5c8>
   14958:	01578763          	beq	a5,s5,14966 <_ldtoa_r+0x5c8>
   1495c:	fff7c703          	lbu	a4,-1(a5)
   14960:	17fd                	addi	a5,a5,-1
   14962:	fed71be3          	bne	a4,a3,14958 <_ldtoa_r+0x5ba>
   14966:	00078023          	sb	zero,0(a5)
   1496a:	87d6                	mv	a5,s5
   1496c:	02000693          	li	a3,32
   14970:	02d00613          	li	a2,45
   14974:	0007c703          	lbu	a4,0(a5)
   14978:	00d70463          	beq	a4,a3,14980 <_ldtoa_r+0x5e2>
   1497c:	00c71463          	bne	a4,a2,14984 <_ldtoa_r+0x5e6>
   14980:	0785                	addi	a5,a5,1
   14982:	bfcd                	j	14974 <_ldtoa_r+0x5d6>
   14984:	8456                	mv	s0,s5
   14986:	a021                	j	1498e <_ldtoa_r+0x5f0>
   14988:	0007c703          	lbu	a4,0(a5)
   1498c:	8436                	mv	s0,a3
   1498e:	00e40023          	sb	a4,0(s0)
   14992:	00140693          	addi	a3,s0,1
   14996:	0785                	addi	a5,a5,1
   14998:	fb65                	bnez	a4,14988 <_ldtoa_r+0x5ea>
   1499a:	4702                	lw	a4,0(sp)
   1499c:	4789                	li	a5,2
   1499e:	fff44683          	lbu	a3,-1(s0)
   149a2:	0ef70263          	beq	a4,a5,14a86 <_ldtoa_r+0x6e8>
   149a6:	4792                	lw	a5,4(sp)
   149a8:	873e                	mv	a4,a5
   149aa:	0097d363          	bge	a5,s1,149b0 <_ldtoa_r+0x612>
   149ae:	8726                	mv	a4,s1
   149b0:	03000793          	li	a5,48
   149b4:	02f69463          	bne	a3,a5,149dc <_ldtoa_r+0x63e>
   149b8:	415407b3          	sub	a5,s0,s5
   149bc:	02f75063          	bge	a4,a5,149dc <_ldtoa_r+0x63e>
   149c0:	03000693          	li	a3,48
   149c4:	a029                	j	149ce <_ldtoa_r+0x630>
   149c6:	415407b3          	sub	a5,s0,s5
   149ca:	00f75963          	bge	a4,a5,149dc <_ldtoa_r+0x63e>
   149ce:	ffe44783          	lbu	a5,-2(s0)
   149d2:	fe040fa3          	sb	zero,-1(s0)
   149d6:	147d                	addi	s0,s0,-1
   149d8:	fed787e3          	beq	a5,a3,149c6 <_ldtoa_r+0x628>
   149dc:	4702                	lw	a4,0(sp)
   149de:	478d                	li	a5,3
   149e0:	0af70d63          	beq	a4,a5,14a9a <_ldtoa_r+0x6fc>
   149e4:	47a2                	lw	a5,8(sp)
   149e6:	040a2223          	sw	zero,68(s4)
   149ea:	00978613          	addi	a2,a5,9
   149ee:	47dd                	li	a5,23
   149f0:	0cc7f663          	bgeu	a5,a2,14abc <_ldtoa_r+0x71e>
   149f4:	4705                	li	a4,1
   149f6:	4791                	li	a5,4
   149f8:	0786                	slli	a5,a5,0x1
   149fa:	01478693          	addi	a3,a5,20
   149fe:	85ba                	mv	a1,a4
   14a00:	0705                	addi	a4,a4,1
   14a02:	fed67be3          	bgeu	a2,a3,149f8 <_ldtoa_r+0x65a>
   14a06:	04ba2223          	sw	a1,68(s4)
   14a0a:	8552                	mv	a0,s4
   14a0c:	23a010ef          	jal	ra,15c46 <_Balloc>
   14a10:	84aa                	mv	s1,a0
   14a12:	64050a63          	beqz	a0,15066 <_ldtoa_r+0xcc8>
   14a16:	04aa2023          	sw	a0,64(s4)
   14a1a:	85d6                	mv	a1,s5
   14a1c:	540020ef          	jal	ra,16f5c <strcpy>
   14a20:	4752                	lw	a4,20(sp)
   14a22:	c709                	beqz	a4,14a2c <_ldtoa_r+0x68e>
   14a24:	415407b3          	sub	a5,s0,s5
   14a28:	97a6                	add	a5,a5,s1
   14a2a:	c31c                	sw	a5,0(a4)
   14a2c:	1ec12083          	lw	ra,492(sp)
   14a30:	1e812403          	lw	s0,488(sp)
   14a34:	1e012903          	lw	s2,480(sp)
   14a38:	1dc12983          	lw	s3,476(sp)
   14a3c:	1d812a03          	lw	s4,472(sp)
   14a40:	1d412a83          	lw	s5,468(sp)
   14a44:	1d012b03          	lw	s6,464(sp)
   14a48:	1cc12b83          	lw	s7,460(sp)
   14a4c:	1c812c03          	lw	s8,456(sp)
   14a50:	1c412c83          	lw	s9,452(sp)
   14a54:	1c012d03          	lw	s10,448(sp)
   14a58:	1bc12d83          	lw	s11,444(sp)
   14a5c:	8526                	mv	a0,s1
   14a5e:	1e412483          	lw	s1,484(sp)
   14a62:	617d                	addi	sp,sp,496
   14a64:	8082                	ret
   14a66:	87ca                	mv	a5,s2
   14a68:	07210693          	addi	a3,sp,114
   14a6c:	0007d703          	lhu	a4,0(a5)
   14a70:	0789                	addi	a5,a5,2
   14a72:	40071b63          	bnez	a4,14e88 <_ldtoa_r+0xaea>
   14a76:	fed79be3          	bne	a5,a3,14a6c <_ldtoa_r+0x6ce>
   14a7a:	4732                	lw	a4,12(sp)
   14a7c:	6789                	lui	a5,0x2
   14a7e:	70f78793          	addi	a5,a5,1807 # 270f <register_fini-0xd965>
   14a82:	c31c                	sw	a5,0(a4)
   14a84:	b5dd                	j	1496a <_ldtoa_r+0x5cc>
   14a86:	03000793          	li	a5,48
   14a8a:	f4f69de3          	bne	a3,a5,149e4 <_ldtoa_r+0x646>
   14a8e:	415407b3          	sub	a5,s0,s5
   14a92:	4705                	li	a4,1
   14a94:	f2f746e3          	blt	a4,a5,149c0 <_ldtoa_r+0x622>
   14a98:	b7b1                	j	149e4 <_ldtoa_r+0x646>
   14a9a:	4792                	lw	a5,4(sp)
   14a9c:	94be                	add	s1,s1,a5
   14a9e:	3804c363          	bltz	s1,14e24 <_ldtoa_r+0xa86>
   14aa2:	47b2                	lw	a5,12(sp)
   14aa4:	4722                	lw	a4,8(sp)
   14aa6:	439c                	lw	a5,0(a5)
   14aa8:	97ba                	add	a5,a5,a4
   14aaa:	c43e                	sw	a5,8(sp)
   14aac:	47a2                	lw	a5,8(sp)
   14aae:	040a2223          	sw	zero,68(s4)
   14ab2:	00378613          	addi	a2,a5,3
   14ab6:	47dd                	li	a5,23
   14ab8:	f2c7eee3          	bltu	a5,a2,149f4 <_ldtoa_r+0x656>
   14abc:	4581                	li	a1,0
   14abe:	b7b1                	j	14a0a <_ldtoa_r+0x66c>
   14ac0:	47a2                	lw	a5,8(sp)
   14ac2:	873e                	mv	a4,a5
   14ac4:	c23e                	sw	a5,4(sp)
   14ac6:	02a00793          	li	a5,42
   14aca:	98e7dbe3          	bge	a5,a4,14460 <_ldtoa_r+0xc2>
   14ace:	c23e                	sw	a5,4(sp)
   14ad0:	ba41                	j	14460 <_ldtoa_r+0xc2>
   14ad2:	0007c703          	lbu	a4,0(a5)
   14ad6:	e6070ce3          	beqz	a4,1494e <_ldtoa_r+0x5b0>
   14ada:	0017c703          	lbu	a4,1(a5)
   14ade:	0785                	addi	a5,a5,1
   14ae0:	fee78fa3          	sb	a4,-1(a5)
   14ae4:	e60705e3          	beqz	a4,1494e <_ldtoa_r+0x5b0>
   14ae8:	0017c703          	lbu	a4,1(a5)
   14aec:	0785                	addi	a5,a5,1
   14aee:	fee78fa3          	sb	a4,-1(a5)
   14af2:	f765                	bnez	a4,14ada <_ldtoa_r+0x73c>
   14af4:	bda9                	j	1494e <_ldtoa_r+0x5b0>
   14af6:	03100713          	li	a4,49
   14afa:	12e102a3          	sb	a4,293(sp)
   14afe:	02e00713          	li	a4,46
   14b02:	12e10323          	sb	a4,294(sp)
   14b06:	0485                	addi	s1,s1,1
   14b08:	1ef05563          	blez	a5,14cf2 <_ldtoa_r+0x954>
   14b0c:	03000793          	li	a5,48
   14b10:	12f103a3          	sb	a5,295(sp)
   14b14:	47e2                	lw	a5,24(sp)
   14b16:	12810b13          	addi	s6,sp,296
   14b1a:	17fd                	addi	a5,a5,-1
   14b1c:	cc3e                	sw	a5,24(sp)
   14b1e:	b1ad                	j	14788 <_ldtoa_r+0x3ea>
   14b20:	12410a93          	addi	s5,sp,292
   14b24:	0001f5b7          	lui	a1,0x1f
   14b28:	92458593          	addi	a1,a1,-1756 # 1e924 <zeroes.0+0xa4>
   14b2c:	8556                	mv	a0,s5
   14b2e:	6489                	lui	s1,0x2
   14b30:	1ec020ef          	jal	ra,16d1c <sprintf>
   14b34:	70f48493          	addi	s1,s1,1807 # 270f <register_fini-0xd965>
   14b38:	bbf1                	j	14914 <_ldtoa_r+0x576>
   14b3a:	0b410c93          	addi	s9,sp,180
   14b3e:	8766                	mv	a4,s9
   14b40:	18fc                	addi	a5,sp,124
   14b42:	0910                	addi	a2,sp,144
   14b44:	0007d683          	lhu	a3,0(a5)
   14b48:	0789                	addi	a5,a5,2
   14b4a:	0709                	addi	a4,a4,2
   14b4c:	fed71f23          	sh	a3,-2(a4)
   14b50:	fec79ae3          	bne	a5,a2,14b44 <_ldtoa_r+0x7a6>
   14b54:	6791                	lui	a5,0x4
   14b56:	08e78793          	addi	a5,a5,142 # 408e <register_fini-0xbfe6>
   14b5a:	0cf11323          	sh	a5,198(sp)
   14b5e:	67a1                	lui	a5,0x8
   14b60:	17fd                	addi	a5,a5,-1
   14b62:	ce3e                	sw	a5,28(sp)
   14b64:	77f1                	lui	a5,0xffffc
   14b66:	12410a93          	addi	s5,sp,292
   14b6a:	0980                	addi	s0,sp,208
   14b6c:	4741                	li	a4,16
   14b6e:	0c8d8313          	addi	t1,s11,200
   14b72:	0789                	addi	a5,a5,2
   14b74:	d452                	sw	s4,40(sp)
   14b76:	d256                	sw	s5,36(sp)
   14b78:	4481                	li	s1,0
   14b7a:	8aa2                	mv	s5,s0
   14b7c:	16010993          	addi	s3,sp,352
   14b80:	0aa10b13          	addi	s6,sp,170
   14b84:	d03e                	sw	a5,32(sp)
   14b86:	8a1a                	mv	s4,t1
   14b88:	843a                	mv	s0,a4
   14b8a:	86ce                	mv	a3,s3
   14b8c:	0930                	addi	a2,sp,152
   14b8e:	85e6                	mv	a1,s9
   14b90:	8552                	mv	a0,s4
   14b92:	adeff0ef          	jal	ra,13e70 <ediv>
   14b96:	00f8                	addi	a4,sp,76
   14b98:	093c                	addi	a5,sp,152
   14b9a:	0007d683          	lhu	a3,0(a5) # ffffc000 <__BSS_END__+0xfffdb0d8>
   14b9e:	0789                	addi	a5,a5,2
   14ba0:	0709                	addi	a4,a4,2
   14ba2:	fed71f23          	sh	a3,-2(a4)
   14ba6:	ffa79ae3          	bne	a5,s10,14b9a <_ldtoa_r+0x7fc>
   14baa:	47f2                	lw	a5,28(sp)
   14bac:	05e15583          	lhu	a1,94(sp)
   14bb0:	00f5f633          	and	a2,a1,a5
   14bb4:	5782                	lw	a5,32(sp)
   14bb6:	00f60533          	add	a0,a2,a5
   14bba:	26a05c63          	blez	a0,14e32 <_ldtoa_r+0xa94>
   14bbe:	09000613          	li	a2,144
   14bc2:	8e09                	sub	a2,a2,a0
   14bc4:	8756                	mv	a4,s5
   14bc6:	00fc                	addi	a5,sp,76
   14bc8:	0007d683          	lhu	a3,0(a5)
   14bcc:	0789                	addi	a5,a5,2
   14bce:	0709                	addi	a4,a4,2
   14bd0:	fed71f23          	sh	a3,-2(a4)
   14bd4:	ff279ae3          	bne	a5,s2,14bc8 <_ldtoa_r+0x82a>
   14bd8:	04c05763          	blez	a2,14c26 <_ldtoa_r+0x888>
   14bdc:	47bd                	li	a5,15
   14bde:	8756                	mv	a4,s5
   14be0:	02c7d563          	bge	a5,a2,14c0a <_ldtoa_r+0x86c>
   14be4:	08000693          	li	a3,128
   14be8:	8e89                	sub	a3,a3,a0
   14bea:	8291                	srli	a3,a3,0x4
   14bec:	00168713          	addi	a4,a3,1
   14bf0:	0706                	slli	a4,a4,0x1
   14bf2:	9756                	add	a4,a4,s5
   14bf4:	87d6                	mv	a5,s5
   14bf6:	0789                	addi	a5,a5,2
   14bf8:	fe079f23          	sh	zero,-2(a5)
   14bfc:	fef71de3          	bne	a4,a5,14bf6 <_ldtoa_r+0x858>
   14c00:	08000613          	li	a2,128
   14c04:	8e09                	sub	a2,a2,a0
   14c06:	0692                	slli	a3,a3,0x4
   14c08:	8e15                	sub	a2,a2,a3
   14c0a:	00161793          	slli	a5,a2,0x1
   14c0e:	97ee                	add	a5,a5,s11
   14c10:	00075683          	lhu	a3,0(a4)
   14c14:	2307d783          	lhu	a5,560(a5)
   14c18:	8ff5                	and	a5,a5,a3
   14c1a:	00f71023          	sh	a5,0(a4)
   14c1e:	05c2                	slli	a1,a1,0x10
   14c20:	85c1                	srai	a1,a1,0x10
   14c22:	0e05c363          	bltz	a1,14d08 <_ldtoa_r+0x96a>
   14c26:	093c                	addi	a5,sp,152
   14c28:	8756                	mv	a4,s5
   14c2a:	0007d603          	lhu	a2,0(a5)
   14c2e:	00075683          	lhu	a3,0(a4)
   14c32:	02d61163          	bne	a2,a3,14c54 <_ldtoa_r+0x8b6>
   14c36:	0789                	addi	a5,a5,2
   14c38:	0709                	addi	a4,a4,2
   14c3a:	fefb18e3          	bne	s6,a5,14c2a <_ldtoa_r+0x88c>
   14c3e:	8766                	mv	a4,s9
   14c40:	093c                	addi	a5,sp,152
   14c42:	0007d683          	lhu	a3,0(a5)
   14c46:	0789                	addi	a5,a5,2
   14c48:	0709                	addi	a4,a4,2
   14c4a:	fed71f23          	sh	a3,-2(a4)
   14c4e:	ffa79ae3          	bne	a5,s10,14c42 <_ldtoa_r+0x8a4>
   14c52:	94a2                	add	s1,s1,s0
   14c54:	0a51                	addi	s4,s4,20
   14c56:	12cd8793          	addi	a5,s11,300
   14c5a:	8005                	srli	s0,s0,0x1
   14c5c:	f2fa17e3          	bne	s4,a5,14b8a <_ldtoa_r+0x7ec>
   14c60:	0c615783          	lhu	a5,198(sp)
   14c64:	08e15703          	lhu	a4,142(sp)
   14c68:	8456                	mv	s0,s5
   14c6a:	5a22                	lw	s4,40(sp)
   14c6c:	97ba                	add	a5,a5,a4
   14c6e:	7771                	lui	a4,0xffffc
   14c70:	f7270713          	addi	a4,a4,-142 # ffffbf72 <__BSS_END__+0xfffdb04a>
   14c74:	5a92                	lw	s5,36(sp)
   14c76:	97ba                	add	a5,a5,a4
   14c78:	0cf11323          	sh	a5,198(sp)
   14c7c:	18f8                	addi	a4,sp,124
   14c7e:	87e6                	mv	a5,s9
   14c80:	01b0                	addi	a2,sp,200
   14c82:	0007d683          	lhu	a3,0(a5)
   14c86:	0789                	addi	a5,a5,2
   14c88:	0709                	addi	a4,a4,2
   14c8a:	fed71f23          	sh	a3,-2(a4)
   14c8e:	fec79ae3          	bne	a5,a2,14c82 <_ldtoa_r+0x8e4>
   14c92:	4701                	li	a4,0
   14c94:	093c                	addi	a5,sp,152
   14c96:	a019                	j	14c9c <_ldtoa_r+0x8fe>
   14c98:	000c5703          	lhu	a4,0(s8)
   14c9c:	0789                	addi	a5,a5,2
   14c9e:	fee79f23          	sh	a4,-2(a5)
   14ca2:	0c09                	addi	s8,s8,2
   14ca4:	ffa79ae3          	bne	a5,s10,14c98 <_ldtoa_r+0x8fa>
   14ca8:	028d8d13          	addi	s10,s11,40
   14cac:	6c05                	lui	s8,0x1
   14cae:	118d8d93          	addi	s11,s11,280
   14cb2:	a031                	j	14cbe <_ldtoa_r+0x920>
   14cb4:	001c5c13          	srli	s8,s8,0x1
   14cb8:	1bbd0463          	beq	s10,s11,14e60 <_ldtoa_r+0xac2>
   14cbc:	0d51                	addi	s10,s10,20
   14cbe:	85e6                	mv	a1,s9
   14cc0:	856e                	mv	a0,s11
   14cc2:	981fe0ef          	jal	ra,13642 <ecmp>
   14cc6:	18a04d63          	bgtz	a0,14e60 <_ldtoa_r+0xac2>
   14cca:	85e6                	mv	a1,s9
   14ccc:	856a                	mv	a0,s10
   14cce:	975fe0ef          	jal	ra,13642 <ecmp>
   14cd2:	fea041e3          	bgtz	a0,14cb4 <_ldtoa_r+0x916>
   14cd6:	86ce                	mv	a3,s3
   14cd8:	8666                	mv	a2,s9
   14cda:	85e6                	mv	a1,s9
   14cdc:	856a                	mv	a0,s10
   14cde:	992ff0ef          	jal	ra,13e70 <ediv>
   14ce2:	0930                	addi	a2,sp,152
   14ce4:	86ce                	mv	a3,s3
   14ce6:	85b2                	mv	a1,a2
   14ce8:	856a                	mv	a0,s10
   14cea:	e11fe0ef          	jal	ra,13afa <emul>
   14cee:	94e2                	add	s1,s1,s8
   14cf0:	b7d1                	j	14cb4 <_ldtoa_r+0x916>
   14cf2:	12710b13          	addi	s6,sp,295
   14cf6:	c00797e3          	bnez	a5,14904 <_ldtoa_r+0x566>
   14cfa:	b479                	j	14788 <_ldtoa_r+0x3ea>
   14cfc:	4601                	li	a2,0
   14cfe:	f50ff06f          	j	1444e <_ldtoa_r+0xb0>
   14d02:	47a2                	lw	a5,8(sp)
   14d04:	17fd                	addi	a5,a5,-1
   14d06:	bb75                	j	14ac2 <_ldtoa_r+0x724>
   14d08:	00fc                	addi	a5,sp,76
   14d0a:	8756                	mv	a4,s5
   14d0c:	a039                	j	14d1a <_ldtoa_r+0x97c>
   14d0e:	0789                	addi	a5,a5,2
   14d10:	05e10693          	addi	a3,sp,94
   14d14:	0709                	addi	a4,a4,2
   14d16:	f0f688e3          	beq	a3,a5,14c26 <_ldtoa_r+0x888>
   14d1a:	0007d603          	lhu	a2,0(a5)
   14d1e:	00075683          	lhu	a3,0(a4)
   14d22:	fed606e3          	beq	a2,a3,14d0e <_ldtoa_r+0x970>
   14d26:	0e215783          	lhu	a5,226(sp)
   14d2a:	4772                	lw	a4,28(sp)
   14d2c:	8ff9                	and	a5,a5,a4
   14d2e:	2ce78b63          	beq	a5,a4,15004 <_ldtoa_r+0xc66>
   14d32:	11ec                	addi	a1,sp,236
   14d34:	8562                	mv	a0,s8
   14d36:	87ffe0ef          	jal	ra,135b4 <emovi>
   14d3a:	022c                	addi	a1,sp,264
   14d3c:	8556                	mv	a0,s5
   14d3e:	877fe0ef          	jal	ra,135b4 <emovi>
   14d42:	0ec15703          	lhu	a4,236(sp)
   14d46:	10a15603          	lhu	a2,266(sp)
   14d4a:	0ee15883          	lhu	a7,238(sp)
   14d4e:	fff74713          	not	a4,a4
   14d52:	0742                	slli	a4,a4,0x10
   14d54:	8341                	srli	a4,a4,0x10
   14d56:	0ee11623          	sh	a4,236(sp)
   14d5a:	40c885b3          	sub	a1,a7,a2
   14d5e:	86b2                	mv	a3,a2
   14d60:	04b05e63          	blez	a1,14dbc <_ldtoa_r+0xa1e>
   14d64:	5592                	lw	a1,36(sp)
   14d66:	0234                	addi	a3,sp,264
   14d68:	121c                	addi	a5,sp,288
   14d6a:	0006d503          	lhu	a0,0(a3)
   14d6e:	0689                	addi	a3,a3,2
   14d70:	0589                	addi	a1,a1,2
   14d72:	fea59f23          	sh	a0,-2(a1)
   14d76:	fef69ae3          	bne	a3,a5,14d6a <_ldtoa_r+0x9cc>
   14d7a:	12011e23          	sh	zero,316(sp)
   14d7e:	0234                	addi	a3,sp,264
   14d80:	11ec                	addi	a1,sp,236
   14d82:	a019                	j	14d88 <_ldtoa_r+0x9ea>
   14d84:	0005d703          	lhu	a4,0(a1)
   14d88:	0689                	addi	a3,a3,2
   14d8a:	fee69f23          	sh	a4,-2(a3)
   14d8e:	0589                	addi	a1,a1,2
   14d90:	fef69ae3          	bne	a3,a5,14d84 <_ldtoa_r+0x9e6>
   14d94:	5792                	lw	a5,36(sp)
   14d96:	12011023          	sh	zero,288(sp)
   14d9a:	11f8                	addi	a4,sp,236
   14d9c:	1a68                	addi	a0,sp,316
   14d9e:	0007d683          	lhu	a3,0(a5)
   14da2:	0789                	addi	a5,a5,2
   14da4:	0709                	addi	a4,a4,2
   14da6:	fed71f23          	sh	a3,-2(a4)
   14daa:	fea79ae3          	bne	a5,a0,14d9e <_ldtoa_r+0xa00>
   14dae:	10a15683          	lhu	a3,266(sp)
   14db2:	411605b3          	sub	a1,a2,a7
   14db6:	10011223          	sh	zero,260(sp)
   14dba:	8636                	mv	a2,a3
   14dbc:	26058963          	beqz	a1,1502e <_ldtoa_r+0xc90>
   14dc0:	d636                	sw	a3,44(sp)
   14dc2:	f6f00793          	li	a5,-145
   14dc6:	04f5ca63          	blt	a1,a5,14e1a <_ldtoa_r+0xa7c>
   14dca:	11e8                	addi	a0,sp,236
   14dcc:	e6efe0ef          	jal	ra,1343a <eshift.part.0>
   14dd0:	56b2                	lw	a3,44(sp)
   14dd2:	85aa                	mv	a1,a0
   14dd4:	121c                	addi	a5,sp,288
   14dd6:	0258                	addi	a4,sp,260
   14dd8:	0ec15503          	lhu	a0,236(sp)
   14ddc:	10815603          	lhu	a2,264(sp)
   14de0:	2cc50863          	beq	a0,a2,150b0 <_ldtoa_r+0xd12>
   14de4:	4601                	li	a2,0
   14de6:	10a10893          	addi	a7,sp,266
   14dea:	8532                	mv	a0,a2
   14dec:	0007d603          	lhu	a2,0(a5)
   14df0:	00075803          	lhu	a6,0(a4)
   14df4:	17f9                	addi	a5,a5,-2
   14df6:	8e09                	sub	a2,a2,a0
   14df8:	41060633          	sub	a2,a2,a6
   14dfc:	01065513          	srli	a0,a2,0x10
   14e00:	00c79123          	sh	a2,2(a5)
   14e04:	8905                	andi	a0,a0,1
   14e06:	1779                	addi	a4,a4,-2
   14e08:	ff1792e3          	bne	a5,a7,14dec <_ldtoa_r+0xa4e>
   14e0c:	4605                	li	a2,1
   14e0e:	87ce                	mv	a5,s3
   14e10:	04000713          	li	a4,64
   14e14:	0228                	addi	a0,sp,264
   14e16:	90dfe0ef          	jal	ra,13722 <emdnorm>
   14e1a:	85d6                	mv	a1,s5
   14e1c:	0228                	addi	a0,sp,264
   14e1e:	c84fe0ef          	jal	ra,132a2 <emovo.constprop.0>
   14e22:	b511                	j	14c26 <_ldtoa_r+0x888>
   14e24:	47b2                	lw	a5,12(sp)
   14e26:	12010223          	sb	zero,292(sp)
   14e2a:	8456                	mv	s0,s5
   14e2c:	0007a023          	sw	zero,0(a5)
   14e30:	b9b5                	j	14aac <_ldtoa_r+0x70e>
   14e32:	87d6                	mv	a5,s5
   14e34:	11d8                	addi	a4,sp,228
   14e36:	0789                	addi	a5,a5,2
   14e38:	fe079f23          	sh	zero,-2(a5)
   14e3c:	fee79de3          	bne	a5,a4,14e36 <_ldtoa_r+0xa98>
   14e40:	bbf9                	j	14c1e <_ldtoa_r+0x880>
   14e42:	47e2                	lw	a5,24(sp)
   14e44:	12410a93          	addi	s5,sp,292
   14e48:	c7f1                	beqz	a5,14f14 <_ldtoa_r+0xb76>
   14e4a:	0001f5b7          	lui	a1,0x1f
   14e4e:	89058593          	addi	a1,a1,-1904 # 1e890 <zeroes.0+0x10>
   14e52:	8556                	mv	a0,s5
   14e54:	6489                	lui	s1,0x2
   14e56:	6c7010ef          	jal	ra,16d1c <sprintf>
   14e5a:	70f48493          	addi	s1,s1,1807 # 270f <register_fini-0xd965>
   14e5e:	bc5d                	j	14914 <_ldtoa_r+0x576>
   14e60:	0e810b13          	addi	s6,sp,232
   14e64:	f80ff06f          	j	145e4 <_ldtoa_r+0x246>
   14e68:	fff64783          	lbu	a5,-1(a2)
   14e6c:	03800713          	li	a4,56
   14e70:	0af77d63          	bgeu	a4,a5,14f2a <_ldtoa_r+0xb8c>
   14e74:	03100793          	li	a5,49
   14e78:	0485                	addi	s1,s1,1
   14e7a:	fef60fa3          	sb	a5,-1(a2)
   14e7e:	b459                	j	14904 <_ldtoa_r+0x566>
   14e80:	0705                	addi	a4,a4,1
   14e82:	00e60023          	sb	a4,0(a2)
   14e86:	bcbd                	j	14904 <_ldtoa_r+0x566>
   14e88:	07210713          	addi	a4,sp,114
   14e8c:	a019                	j	14e92 <_ldtoa_r+0xaf4>
   14e8e:	aae900e3          	beq	s2,a4,1492e <_ldtoa_r+0x590>
   14e92:	00095783          	lhu	a5,0(s2)
   14e96:	0909                	addi	s2,s2,2
   14e98:	dbfd                	beqz	a5,14e8e <_ldtoa_r+0xaf0>
   14e9a:	4732                	lw	a4,12(sp)
   14e9c:	6789                	lui	a5,0x2
   14e9e:	70f78793          	addi	a5,a5,1807 # 270f <register_fini-0xd965>
   14ea2:	c31c                	sw	a5,0(a4)
   14ea4:	b4d9                	j	1496a <_ldtoa_r+0x5cc>
   14ea6:	12410a93          	addi	s5,sp,292
   14eaa:	0001f5b7          	lui	a1,0x1f
   14eae:	8a858593          	addi	a1,a1,-1880 # 1e8a8 <zeroes.0+0x28>
   14eb2:	8556                	mv	a0,s5
   14eb4:	6489                	lui	s1,0x2
   14eb6:	667010ef          	jal	ra,16d1c <sprintf>
   14eba:	70f48493          	addi	s1,s1,1807 # 270f <register_fini-0xd965>
   14ebe:	bc99                	j	14914 <_ldtoa_r+0x576>
   14ec0:	1ac15603          	lhu	a2,428(sp)
   14ec4:	12610b13          	addi	s6,sp,294
   14ec8:	12710793          	addi	a5,sp,295
   14ecc:	b2f5                	j	148b8 <_ldtoa_r+0x51a>
   14ece:	092c                	addi	a1,sp,152
   14ed0:	18e8                	addi	a0,sp,124
   14ed2:	ce3e                	sw	a5,28(sp)
   14ed4:	bcefe0ef          	jal	ra,132a2 <emovo.constprop.0>
   14ed8:	92cb8593          	addi	a1,s7,-1748
   14edc:	0928                	addi	a0,sp,152
   14ede:	f64fe0ef          	jal	ra,13642 <ecmp>
   14ee2:	47f2                	lw	a5,28(sp)
   14ee4:	9e0510e3          	bnez	a0,148c4 <_ldtoa_r+0x526>
   14ee8:	4762                	lw	a4,24(sp)
   14eea:	a0074de3          	bltz	a4,14904 <_ldtoa_r+0x566>
   14eee:	ffe7c703          	lbu	a4,-2(a5)
   14ef2:	fd270613          	addi	a2,a4,-46
   14ef6:	00163613          	seqz	a2,a2
   14efa:	fff64613          	not	a2,a2
   14efe:	965a                	add	a2,a2,s6
   14f00:	00064603          	lbu	a2,0(a2)
   14f04:	8a05                	andi	a2,a2,1
   14f06:	9e060fe3          	beqz	a2,14904 <_ldtoa_r+0x566>
   14f0a:	ffe78613          	addi	a2,a5,-2
   14f0e:	07f77713          	andi	a4,a4,127
   14f12:	b2d1                	j	148d6 <_ldtoa_r+0x538>
   14f14:	0001f5b7          	lui	a1,0x1f
   14f18:	89c58593          	addi	a1,a1,-1892 # 1e89c <zeroes.0+0x1c>
   14f1c:	8556                	mv	a0,s5
   14f1e:	6489                	lui	s1,0x2
   14f20:	5fd010ef          	jal	ra,16d1c <sprintf>
   14f24:	70f48493          	addi	s1,s1,1807 # 270f <register_fini-0xd965>
   14f28:	b2f5                	j	14914 <_ldtoa_r+0x576>
   14f2a:	0785                	addi	a5,a5,1
   14f2c:	fef60fa3          	sb	a5,-1(a2)
   14f30:	bad1                	j	14904 <_ldtoa_r+0x566>
   14f32:	0980                	addi	s0,sp,208
   14f34:	85a2                	mv	a1,s0
   14f36:	18e8                	addi	a0,sp,124
   14f38:	6c91                	lui	s9,0x4
   14f3a:	e7afe0ef          	jal	ra,135b4 <emovi>
   14f3e:	4481                	li	s1,0
   14f40:	0e810b13          	addi	s6,sp,232
   14f44:	0cc10993          	addi	s3,sp,204
   14f48:	0d210a93          	addi	s5,sp,210
   14f4c:	1cf9                	addi	s9,s9,-2
   14f4e:	0e815783          	lhu	a5,232(sp)
   14f52:	8b9d                	andi	a5,a5,7
   14f54:	e3c5                	bnez	a5,14ff4 <_ldtoa_r+0xc56>
   14f56:	1958                	addi	a4,sp,180
   14f58:	87a2                	mv	a5,s0
   14f5a:	0007d683          	lhu	a3,0(a5)
   14f5e:	0789                	addi	a5,a5,2
   14f60:	0709                	addi	a4,a4,2
   14f62:	fed71f23          	sh	a3,-2(a4)
   14f66:	ff679ae3          	bne	a5,s6,14f5a <_ldtoa_r+0xbbc>
   14f6a:	1948                	addi	a0,sp,180
   14f6c:	0c011623          	sh	zero,204(sp)
   14f70:	a28fe0ef          	jal	ra,13198 <eshdn1>
   14f74:	1948                	addi	a0,sp,180
   14f76:	a22fe0ef          	jal	ra,13198 <eshdn1>
   14f7a:	4601                	li	a2,0
   14f7c:	86ce                	mv	a3,s3
   14f7e:	875a                	mv	a4,s6
   14f80:	0006d583          	lhu	a1,0(a3)
   14f84:	00075783          	lhu	a5,0(a4)
   14f88:	16f9                	addi	a3,a3,-2
   14f8a:	1779                	addi	a4,a4,-2
   14f8c:	97ae                	add	a5,a5,a1
   14f8e:	97b2                	add	a5,a5,a2
   14f90:	0107d613          	srli	a2,a5,0x10
   14f94:	00f69123          	sh	a5,2(a3)
   14f98:	8a05                	andi	a2,a2,1
   14f9a:	ff5713e3          	bne	a4,s5,14f80 <_ldtoa_r+0xbe2>
   14f9e:	0b615783          	lhu	a5,182(sp)
   14fa2:	0b815703          	lhu	a4,184(sp)
   14fa6:	078d                	addi	a5,a5,3
   14fa8:	0af11b23          	sh	a5,182(sp)
   14fac:	cf01                	beqz	a4,14fc4 <_ldtoa_r+0xc26>
   14fae:	1948                	addi	a0,sp,180
   14fb0:	9e8fe0ef          	jal	ra,13198 <eshdn1>
   14fb4:	0b615783          	lhu	a5,182(sp)
   14fb8:	0b815703          	lhu	a4,184(sp)
   14fbc:	0785                	addi	a5,a5,1
   14fbe:	0af11b23          	sh	a5,182(sp)
   14fc2:	f775                	bnez	a4,14fae <_ldtoa_r+0xc10>
   14fc4:	0cc15783          	lhu	a5,204(sp)
   14fc8:	e795                	bnez	a5,14ff4 <_ldtoa_r+0xc56>
   14fca:	0b615783          	lhu	a5,182(sp)
   14fce:	02fce363          	bltu	s9,a5,14ff4 <_ldtoa_r+0xc56>
   14fd2:	8722                	mv	a4,s0
   14fd4:	195c                	addi	a5,sp,180
   14fd6:	0007d683          	lhu	a3,0(a5)
   14fda:	0789                	addi	a5,a5,2
   14fdc:	0709                	addi	a4,a4,2
   14fde:	fed71f23          	sh	a3,-2(a4)
   14fe2:	ff379ae3          	bne	a5,s3,14fd6 <_ldtoa_r+0xc38>
   14fe6:	0e011423          	sh	zero,232(sp)
   14fea:	14fd                	addi	s1,s1,-1
   14fec:	fd500793          	li	a5,-43
   14ff0:	f4f49fe3          	bne	s1,a5,14f4e <_ldtoa_r+0xbb0>
   14ff4:	18ec                	addi	a1,sp,124
   14ff6:	8522                	mv	a0,s0
   14ff8:	aaafe0ef          	jal	ra,132a2 <emovo.constprop.0>
   14ffc:	16010993          	addi	s3,sp,352
   15000:	d30ff06f          	j	14530 <_ldtoa_r+0x192>
   15004:	87d6                	mv	a5,s5
   15006:	0007d703          	lhu	a4,0(a5)
   1500a:	0789                	addi	a5,a5,2
   1500c:	c0071de3          	bnez	a4,14c26 <_ldtoa_r+0x888>
   15010:	0e210713          	addi	a4,sp,226
   15014:	fee799e3          	bne	a5,a4,15006 <_ldtoa_r+0xc68>
   15018:	87d6                	mv	a5,s5
   1501a:	0007d703          	lhu	a4,0(a5)
   1501e:	0789                	addi	a5,a5,2
   15020:	d00719e3          	bnez	a4,14d32 <_ldtoa_r+0x994>
   15024:	0e210713          	addi	a4,sp,226
   15028:	fee799e3          	bne	a5,a4,1501a <_ldtoa_r+0xc7c>
   1502c:	beed                	j	14c26 <_ldtoa_r+0x888>
   1502e:	0278                	addi	a4,sp,268
   15030:	199c                	addi	a5,sp,240
   15032:	0007d883          	lhu	a7,0(a5)
   15036:	00075503          	lhu	a0,0(a4)
   1503a:	0789                	addi	a5,a5,2
   1503c:	0709                	addi	a4,a4,2
   1503e:	04a89263          	bne	a7,a0,15082 <_ldtoa_r+0xce4>
   15042:	10610513          	addi	a0,sp,262
   15046:	fea796e3          	bne	a5,a0,15032 <_ldtoa_r+0xc94>
   1504a:	0ec15703          	lhu	a4,236(sp)
   1504e:	10815783          	lhu	a5,264(sp)
   15052:	02f70d63          	beq	a4,a5,1508c <_ldtoa_r+0xcee>
   15056:	87d6                	mv	a5,s5
   15058:	11d8                	addi	a4,sp,228
   1505a:	0789                	addi	a5,a5,2
   1505c:	fe079f23          	sh	zero,-2(a5)
   15060:	fee79de3          	bne	a5,a4,1505a <_ldtoa_r+0xcbc>
   15064:	b6c9                	j	14c26 <_ldtoa_r+0x888>
   15066:	0001f6b7          	lui	a3,0x1f
   1506a:	6585                	lui	a1,0x1
   1506c:	0001f537          	lui	a0,0x1f
   15070:	8b068693          	addi	a3,a3,-1872 # 1e8b0 <zeroes.0+0x30>
   15074:	4601                	li	a2,0
   15076:	b6e58593          	addi	a1,a1,-1170 # b6e <register_fini-0xf506>
   1507a:	8c450513          	addi	a0,a0,-1852 # 1e8c4 <zeroes.0+0x44>
   1507e:	32b040ef          	jal	ra,19ba8 <__assert_func>
   15082:	05156c63          	bltu	a0,a7,150da <_ldtoa_r+0xd3c>
   15086:	121c                	addi	a5,sp,288
   15088:	0258                	addi	a4,sp,260
   1508a:	b3b9                	j	14dd8 <_ldtoa_r+0xa3a>
   1508c:	8736                	mv	a4,a3
   1508e:	e689                	bnez	a3,15098 <_ldtoa_r+0xcfa>
   15090:	10e11783          	lh	a5,270(sp)
   15094:	0807dc63          	bgez	a5,1512c <_ldtoa_r+0xd8e>
   15098:	10a10713          	addi	a4,sp,266
   1509c:	121c                	addi	a5,sp,288
   1509e:	00075583          	lhu	a1,0(a4)
   150a2:	e1f1                	bnez	a1,15166 <_ldtoa_r+0xdc8>
   150a4:	0709                	addi	a4,a4,2
   150a6:	fee79ce3          	bne	a5,a4,1509e <_ldtoa_r+0xd00>
   150aa:	10c11523          	sh	a2,266(sp)
   150ae:	b3b5                	j	14e1a <_ldtoa_r+0xa7c>
   150b0:	4601                	li	a2,0
   150b2:	0ee10893          	addi	a7,sp,238
   150b6:	0007d803          	lhu	a6,0(a5)
   150ba:	00075503          	lhu	a0,0(a4)
   150be:	17f9                	addi	a5,a5,-2
   150c0:	1779                	addi	a4,a4,-2
   150c2:	9542                	add	a0,a0,a6
   150c4:	962a                	add	a2,a2,a0
   150c6:	01065513          	srli	a0,a2,0x10
   150ca:	00c79123          	sh	a2,2(a5)
   150ce:	00157613          	andi	a2,a0,1
   150d2:	ff1712e3          	bne	a4,a7,150b6 <_ldtoa_r+0xd18>
   150d6:	4601                	li	a2,0
   150d8:	bb1d                	j	14e0e <_ldtoa_r+0xa70>
   150da:	5612                	lw	a2,36(sp)
   150dc:	0238                	addi	a4,sp,264
   150de:	121c                	addi	a5,sp,288
   150e0:	00075503          	lhu	a0,0(a4)
   150e4:	0709                	addi	a4,a4,2
   150e6:	0609                	addi	a2,a2,2
   150e8:	fea61f23          	sh	a0,-2(a2)
   150ec:	fef71ae3          	bne	a4,a5,150e0 <_ldtoa_r+0xd42>
   150f0:	12011e23          	sh	zero,316(sp)
   150f4:	0228                	addi	a0,sp,264
   150f6:	11f0                	addi	a2,sp,236
   150f8:	0258                	addi	a4,sp,260
   150fa:	00065803          	lhu	a6,0(a2)
   150fe:	0609                	addi	a2,a2,2
   15100:	0509                	addi	a0,a0,2
   15102:	ff051f23          	sh	a6,-2(a0)
   15106:	fee61ae3          	bne	a2,a4,150fa <_ldtoa_r+0xd5c>
   1510a:	5612                	lw	a2,36(sp)
   1510c:	12011023          	sh	zero,288(sp)
   15110:	0ec10893          	addi	a7,sp,236
   15114:	1a68                	addi	a0,sp,316
   15116:	00065803          	lhu	a6,0(a2)
   1511a:	0609                	addi	a2,a2,2
   1511c:	0889                	addi	a7,a7,2
   1511e:	ff089f23          	sh	a6,-2(a7)
   15122:	fea61ae3          	bne	a2,a0,15116 <_ldtoa_r+0xd78>
   15126:	10011223          	sh	zero,260(sp)
   1512a:	b17d                	j	14dd8 <_ldtoa_r+0xa3a>
   1512c:	1214                	addi	a3,sp,288
   1512e:	10a10893          	addi	a7,sp,266
   15132:	0006d783          	lhu	a5,0(a3)
   15136:	01079613          	slli	a2,a5,0x10
   1513a:	8641                	srai	a2,a2,0x10
   1513c:	00065463          	bgez	a2,15144 <_ldtoa_r+0xda6>
   15140:	00176713          	ori	a4,a4,1
   15144:	0786                	slli	a5,a5,0x1
   15146:	07c2                	slli	a5,a5,0x10
   15148:	00277613          	andi	a2,a4,2
   1514c:	83c1                	srli	a5,a5,0x10
   1514e:	c219                	beqz	a2,15154 <_ldtoa_r+0xdb6>
   15150:	0017e793          	ori	a5,a5,1
   15154:	0706                	slli	a4,a4,0x1
   15156:	00f69023          	sh	a5,0(a3)
   1515a:	0742                	slli	a4,a4,0x10
   1515c:	16f9                	addi	a3,a3,-2
   1515e:	8341                	srli	a4,a4,0x10
   15160:	fd1699e3          	bne	a3,a7,15132 <_ldtoa_r+0xd94>
   15164:	b95d                	j	14e1a <_ldtoa_r+0xa7c>
   15166:	00168613          	addi	a2,a3,1
   1516a:	10c11523          	sh	a2,266(sp)
   1516e:	b175                	j	14e1a <_ldtoa_r+0xa7c>

00015170 <_ldcheck>:
   15170:	4518                	lw	a4,8(a0)
   15172:	455c                	lw	a5,12(a0)
   15174:	4110                	lw	a2,0(a0)
   15176:	4154                	lw	a3,4(a0)
   15178:	7139                	addi	sp,sp,-64
   1517a:	850a                	mv	a0,sp
   1517c:	084c                	addi	a1,sp,20
   1517e:	c43a                	sw	a4,8(sp)
   15180:	c63e                	sw	a5,12(sp)
   15182:	de06                	sw	ra,60(sp)
   15184:	c032                	sw	a2,0(sp)
   15186:	c236                	sw	a3,4(sp)
   15188:	90aff0ef          	jal	ra,14292 <e113toe.isra.0>
   1518c:	02615783          	lhu	a5,38(sp)
   15190:	4501                	li	a0,0
   15192:	fff7c793          	not	a5,a5
   15196:	01179713          	slli	a4,a5,0x11
   1519a:	eb19                	bnez	a4,151b0 <_ldcheck+0x40>
   1519c:	085c                	addi	a5,sp,20
   1519e:	02610693          	addi	a3,sp,38
   151a2:	0007d703          	lhu	a4,0(a5)
   151a6:	0789                	addi	a5,a5,2
   151a8:	e719                	bnez	a4,151b6 <_ldcheck+0x46>
   151aa:	fed79ce3          	bne	a5,a3,151a2 <_ldcheck+0x32>
   151ae:	4509                	li	a0,2
   151b0:	50f2                	lw	ra,60(sp)
   151b2:	6121                	addi	sp,sp,64
   151b4:	8082                	ret
   151b6:	4505                	li	a0,1
   151b8:	bfe5                	j	151b0 <_ldcheck+0x40>

000151ba <__localeconv_l>:
   151ba:	0f050513          	addi	a0,a0,240
   151be:	8082                	ret

000151c0 <_localeconv_r>:
   151c0:	d1818513          	addi	a0,gp,-744 # 20a18 <__global_locale+0xf0>
   151c4:	8082                	ret

000151c6 <localeconv>:
   151c6:	d1818513          	addi	a0,gp,-744 # 20a18 <__global_locale+0xf0>
   151ca:	8082                	ret

000151cc <_setlocale_r>:
   151cc:	1141                	addi	sp,sp,-16
   151ce:	c606                	sw	ra,12(sp)
   151d0:	c422                	sw	s0,8(sp)
   151d2:	c226                	sw	s1,4(sp)
   151d4:	c21d                	beqz	a2,151fa <_setlocale_r+0x2e>
   151d6:	0001f5b7          	lui	a1,0x1f
   151da:	b8458593          	addi	a1,a1,-1148 # 1eb84 <bmask+0x28>
   151de:	8532                	mv	a0,a2
   151e0:	8432                	mv	s0,a2
   151e2:	45d010ef          	jal	ra,16e3e <strcmp>
   151e6:	0001f4b7          	lui	s1,0x1f
   151ea:	e919                	bnez	a0,15200 <_setlocale_r+0x34>
   151ec:	b8048513          	addi	a0,s1,-1152 # 1eb80 <bmask+0x24>
   151f0:	40b2                	lw	ra,12(sp)
   151f2:	4422                	lw	s0,8(sp)
   151f4:	4492                	lw	s1,4(sp)
   151f6:	0141                	addi	sp,sp,16
   151f8:	8082                	ret
   151fa:	0001f4b7          	lui	s1,0x1f
   151fe:	b7fd                	j	151ec <_setlocale_r+0x20>
   15200:	b8048593          	addi	a1,s1,-1152 # 1eb80 <bmask+0x24>
   15204:	8522                	mv	a0,s0
   15206:	439010ef          	jal	ra,16e3e <strcmp>
   1520a:	d16d                	beqz	a0,151ec <_setlocale_r+0x20>
   1520c:	0001f5b7          	lui	a1,0x1f
   15210:	03c58593          	addi	a1,a1,60 # 1f03c <zeroes.0+0x1c>
   15214:	8522                	mv	a0,s0
   15216:	429010ef          	jal	ra,16e3e <strcmp>
   1521a:	d969                	beqz	a0,151ec <_setlocale_r+0x20>
   1521c:	4501                	li	a0,0
   1521e:	bfc9                	j	151f0 <_setlocale_r+0x24>

00015220 <__locale_mb_cur_max>:
   15220:	d501c503          	lbu	a0,-688(gp) # 20a50 <__global_locale+0x128>
   15224:	8082                	ret

00015226 <setlocale>:
   15226:	1141                	addi	sp,sp,-16
   15228:	c606                	sw	ra,12(sp)
   1522a:	c422                	sw	s0,8(sp)
   1522c:	c226                	sw	s1,4(sp)
   1522e:	c19d                	beqz	a1,15254 <setlocale+0x2e>
   15230:	842e                	mv	s0,a1
   15232:	0001f5b7          	lui	a1,0x1f
   15236:	b8458593          	addi	a1,a1,-1148 # 1eb84 <bmask+0x28>
   1523a:	8522                	mv	a0,s0
   1523c:	403010ef          	jal	ra,16e3e <strcmp>
   15240:	0001f4b7          	lui	s1,0x1f
   15244:	e919                	bnez	a0,1525a <setlocale+0x34>
   15246:	b8048513          	addi	a0,s1,-1152 # 1eb80 <bmask+0x24>
   1524a:	40b2                	lw	ra,12(sp)
   1524c:	4422                	lw	s0,8(sp)
   1524e:	4492                	lw	s1,4(sp)
   15250:	0141                	addi	sp,sp,16
   15252:	8082                	ret
   15254:	0001f4b7          	lui	s1,0x1f
   15258:	b7fd                	j	15246 <setlocale+0x20>
   1525a:	b8048593          	addi	a1,s1,-1152 # 1eb80 <bmask+0x24>
   1525e:	8522                	mv	a0,s0
   15260:	3df010ef          	jal	ra,16e3e <strcmp>
   15264:	d16d                	beqz	a0,15246 <setlocale+0x20>
   15266:	0001f5b7          	lui	a1,0x1f
   1526a:	03c58593          	addi	a1,a1,60 # 1f03c <zeroes.0+0x1c>
   1526e:	8522                	mv	a0,s0
   15270:	3cf010ef          	jal	ra,16e3e <strcmp>
   15274:	d969                	beqz	a0,15246 <setlocale+0x20>
   15276:	4501                	li	a0,0
   15278:	bfc9                	j	1524a <setlocale+0x24>

0001527a <__smakebuf_r>:
   1527a:	00c5d783          	lhu	a5,12(a1)
   1527e:	7119                	addi	sp,sp,-128
   15280:	dca2                	sw	s0,120(sp)
   15282:	de86                	sw	ra,124(sp)
   15284:	daa6                	sw	s1,116(sp)
   15286:	d8ca                	sw	s2,112(sp)
   15288:	d6ce                	sw	s3,108(sp)
   1528a:	d4d2                	sw	s4,104(sp)
   1528c:	0027f713          	andi	a4,a5,2
   15290:	842e                	mv	s0,a1
   15292:	cf19                	beqz	a4,152b0 <__smakebuf_r+0x36>
   15294:	04358793          	addi	a5,a1,67
   15298:	c19c                	sw	a5,0(a1)
   1529a:	c99c                	sw	a5,16(a1)
   1529c:	4785                	li	a5,1
   1529e:	c9dc                	sw	a5,20(a1)
   152a0:	50f6                	lw	ra,124(sp)
   152a2:	5466                	lw	s0,120(sp)
   152a4:	54d6                	lw	s1,116(sp)
   152a6:	5946                	lw	s2,112(sp)
   152a8:	59b6                	lw	s3,108(sp)
   152aa:	5a26                	lw	s4,104(sp)
   152ac:	6109                	addi	sp,sp,128
   152ae:	8082                	ret
   152b0:	00e59583          	lh	a1,14(a1)
   152b4:	84aa                	mv	s1,a0
   152b6:	0605c663          	bltz	a1,15322 <__smakebuf_r+0xa8>
   152ba:	0030                	addi	a2,sp,8
   152bc:	49d040ef          	jal	ra,19f58 <_fstat_r>
   152c0:	04054f63          	bltz	a0,1531e <__smakebuf_r+0xa4>
   152c4:	47b2                	lw	a5,12(sp)
   152c6:	693d                	lui	s2,0xf
   152c8:	40000a13          	li	s4,1024
   152cc:	00f97933          	and	s2,s2,a5
   152d0:	77f9                	lui	a5,0xffffe
   152d2:	993e                	add	s2,s2,a5
   152d4:	6785                	lui	a5,0x1
   152d6:	00193913          	seqz	s2,s2
   152da:	80078993          	addi	s3,a5,-2048 # 800 <register_fini-0xf874>
   152de:	85d2                	mv	a1,s4
   152e0:	8526                	mv	a0,s1
   152e2:	2215                	jal	15406 <_malloc_r>
   152e4:	00c41783          	lh	a5,12(s0)
   152e8:	c931                	beqz	a0,1533c <__smakebuf_r+0xc2>
   152ea:	6749                	lui	a4,0x12
   152ec:	7ce70713          	addi	a4,a4,1998 # 127ce <_cleanup_r>
   152f0:	dcd8                	sw	a4,60(s1)
   152f2:	0807e793          	ori	a5,a5,128
   152f6:	00f41623          	sh	a5,12(s0)
   152fa:	c008                	sw	a0,0(s0)
   152fc:	c808                	sw	a0,16(s0)
   152fe:	01442a23          	sw	s4,20(s0)
   15302:	06091063          	bnez	s2,15362 <__smakebuf_r+0xe8>
   15306:	0137e7b3          	or	a5,a5,s3
   1530a:	50f6                	lw	ra,124(sp)
   1530c:	00f41623          	sh	a5,12(s0)
   15310:	5466                	lw	s0,120(sp)
   15312:	54d6                	lw	s1,116(sp)
   15314:	5946                	lw	s2,112(sp)
   15316:	59b6                	lw	s3,108(sp)
   15318:	5a26                	lw	s4,104(sp)
   1531a:	6109                	addi	sp,sp,128
   1531c:	8082                	ret
   1531e:	00c45783          	lhu	a5,12(s0)
   15322:	0807f793          	andi	a5,a5,128
   15326:	4901                	li	s2,0
   15328:	cb8d                	beqz	a5,1535a <__smakebuf_r+0xe0>
   1532a:	04000a13          	li	s4,64
   1532e:	85d2                	mv	a1,s4
   15330:	8526                	mv	a0,s1
   15332:	28d1                	jal	15406 <_malloc_r>
   15334:	00c41783          	lh	a5,12(s0)
   15338:	4981                	li	s3,0
   1533a:	f945                	bnez	a0,152ea <__smakebuf_r+0x70>
   1533c:	2007f713          	andi	a4,a5,512
   15340:	f325                	bnez	a4,152a0 <__smakebuf_r+0x26>
   15342:	9bf1                	andi	a5,a5,-4
   15344:	0027e793          	ori	a5,a5,2
   15348:	04340713          	addi	a4,s0,67
   1534c:	00f41623          	sh	a5,12(s0)
   15350:	4785                	li	a5,1
   15352:	c018                	sw	a4,0(s0)
   15354:	c818                	sw	a4,16(s0)
   15356:	c85c                	sw	a5,20(s0)
   15358:	b7a1                	j	152a0 <__smakebuf_r+0x26>
   1535a:	40000a13          	li	s4,1024
   1535e:	4981                	li	s3,0
   15360:	bfbd                	j	152de <__smakebuf_r+0x64>
   15362:	00e41583          	lh	a1,14(s0)
   15366:	8526                	mv	a0,s1
   15368:	42b040ef          	jal	ra,19f92 <_isatty_r>
   1536c:	e501                	bnez	a0,15374 <__smakebuf_r+0xfa>
   1536e:	00c41783          	lh	a5,12(s0)
   15372:	bf51                	j	15306 <__smakebuf_r+0x8c>
   15374:	00c45783          	lhu	a5,12(s0)
   15378:	9bf1                	andi	a5,a5,-4
   1537a:	0017e793          	ori	a5,a5,1
   1537e:	07c2                	slli	a5,a5,0x10
   15380:	87c1                	srai	a5,a5,0x10
   15382:	b751                	j	15306 <__smakebuf_r+0x8c>

00015384 <__swhatbuf_r>:
   15384:	7159                	addi	sp,sp,-112
   15386:	d4a2                	sw	s0,104(sp)
   15388:	842e                	mv	s0,a1
   1538a:	00e59583          	lh	a1,14(a1)
   1538e:	d2a6                	sw	s1,100(sp)
   15390:	d0ca                	sw	s2,96(sp)
   15392:	d686                	sw	ra,108(sp)
   15394:	84b2                	mv	s1,a2
   15396:	8936                	mv	s2,a3
   15398:	0205cc63          	bltz	a1,153d0 <__swhatbuf_r+0x4c>
   1539c:	0030                	addi	a2,sp,8
   1539e:	3bb040ef          	jal	ra,19f58 <_fstat_r>
   153a2:	02054763          	bltz	a0,153d0 <__swhatbuf_r+0x4c>
   153a6:	4732                	lw	a4,12(sp)
   153a8:	67bd                	lui	a5,0xf
   153aa:	50b6                	lw	ra,108(sp)
   153ac:	8ff9                	and	a5,a5,a4
   153ae:	7779                	lui	a4,0xffffe
   153b0:	97ba                	add	a5,a5,a4
   153b2:	5426                	lw	s0,104(sp)
   153b4:	0017b793          	seqz	a5,a5
   153b8:	00f92023          	sw	a5,0(s2) # f000 <register_fini-0x1074>
   153bc:	40000793          	li	a5,1024
   153c0:	c09c                	sw	a5,0(s1)
   153c2:	6505                	lui	a0,0x1
   153c4:	5496                	lw	s1,100(sp)
   153c6:	5906                	lw	s2,96(sp)
   153c8:	80050513          	addi	a0,a0,-2048 # 800 <register_fini-0xf874>
   153cc:	6165                	addi	sp,sp,112
   153ce:	8082                	ret
   153d0:	00c41783          	lh	a5,12(s0)
   153d4:	00092023          	sw	zero,0(s2)
   153d8:	0807f793          	andi	a5,a5,128
   153dc:	cb99                	beqz	a5,153f2 <__swhatbuf_r+0x6e>
   153de:	50b6                	lw	ra,108(sp)
   153e0:	5426                	lw	s0,104(sp)
   153e2:	04000793          	li	a5,64
   153e6:	c09c                	sw	a5,0(s1)
   153e8:	5906                	lw	s2,96(sp)
   153ea:	5496                	lw	s1,100(sp)
   153ec:	4501                	li	a0,0
   153ee:	6165                	addi	sp,sp,112
   153f0:	8082                	ret
   153f2:	50b6                	lw	ra,108(sp)
   153f4:	5426                	lw	s0,104(sp)
   153f6:	40000793          	li	a5,1024
   153fa:	c09c                	sw	a5,0(s1)
   153fc:	5906                	lw	s2,96(sp)
   153fe:	5496                	lw	s1,100(sp)
   15400:	4501                	li	a0,0
   15402:	6165                	addi	sp,sp,112
   15404:	8082                	ret

00015406 <_malloc_r>:
   15406:	7179                	addi	sp,sp,-48
   15408:	ce4e                	sw	s3,28(sp)
   1540a:	d606                	sw	ra,44(sp)
   1540c:	d422                	sw	s0,40(sp)
   1540e:	d226                	sw	s1,36(sp)
   15410:	d04a                	sw	s2,32(sp)
   15412:	cc52                	sw	s4,24(sp)
   15414:	ca56                	sw	s5,20(sp)
   15416:	c85a                	sw	s6,16(sp)
   15418:	c65e                	sw	s7,12(sp)
   1541a:	c462                	sw	s8,8(sp)
   1541c:	c266                	sw	s9,4(sp)
   1541e:	00b58793          	addi	a5,a1,11
   15422:	4759                	li	a4,22
   15424:	89aa                	mv	s3,a0
   15426:	04f76363          	bltu	a4,a5,1546c <_malloc_r+0x66>
   1542a:	47c1                	li	a5,16
   1542c:	16b7e063          	bltu	a5,a1,1558c <_malloc_r+0x186>
   15430:	013000ef          	jal	ra,15c42 <__malloc_lock>
   15434:	44c1                	li	s1,16
   15436:	47e1                	li	a5,24
   15438:	4609                	li	a2,2
   1543a:	d9418913          	addi	s2,gp,-620 # 20a94 <__malloc_av_>
   1543e:	97ca                	add	a5,a5,s2
   15440:	43c0                	lw	s0,4(a5)
   15442:	ff878713          	addi	a4,a5,-8 # eff8 <register_fini-0x107c>
   15446:	16e40b63          	beq	s0,a4,155bc <_malloc_r+0x1b6>
   1544a:	405c                	lw	a5,4(s0)
   1544c:	4454                	lw	a3,12(s0)
   1544e:	4410                	lw	a2,8(s0)
   15450:	9bf1                	andi	a5,a5,-4
   15452:	97a2                	add	a5,a5,s0
   15454:	43d8                	lw	a4,4(a5)
   15456:	c654                	sw	a3,12(a2)
   15458:	c690                	sw	a2,8(a3)
   1545a:	00176713          	ori	a4,a4,1
   1545e:	854e                	mv	a0,s3
   15460:	c3d8                	sw	a4,4(a5)
   15462:	7e2000ef          	jal	ra,15c44 <__malloc_unlock>
   15466:	00840513          	addi	a0,s0,8
   1546a:	a22d                	j	15594 <_malloc_r+0x18e>
   1546c:	ff87f493          	andi	s1,a5,-8
   15470:	1007ce63          	bltz	a5,1558c <_malloc_r+0x186>
   15474:	10b4ec63          	bltu	s1,a1,1558c <_malloc_r+0x186>
   15478:	7ca000ef          	jal	ra,15c42 <__malloc_lock>
   1547c:	1f700793          	li	a5,503
   15480:	3297f963          	bgeu	a5,s1,157b2 <_malloc_r+0x3ac>
   15484:	0094d793          	srli	a5,s1,0x9
   15488:	12078363          	beqz	a5,155ae <_malloc_r+0x1a8>
   1548c:	4711                	li	a4,4
   1548e:	2cf76263          	bltu	a4,a5,15752 <_malloc_r+0x34c>
   15492:	0064d793          	srli	a5,s1,0x6
   15496:	03978613          	addi	a2,a5,57
   1549a:	03878513          	addi	a0,a5,56
   1549e:	00361693          	slli	a3,a2,0x3
   154a2:	d9418913          	addi	s2,gp,-620 # 20a94 <__malloc_av_>
   154a6:	96ca                	add	a3,a3,s2
   154a8:	42c0                	lw	s0,4(a3)
   154aa:	16e1                	addi	a3,a3,-8
   154ac:	02868063          	beq	a3,s0,154cc <_malloc_r+0xc6>
   154b0:	45bd                	li	a1,15
   154b2:	a031                	j	154be <_malloc_r+0xb8>
   154b4:	24075b63          	bgez	a4,1570a <_malloc_r+0x304>
   154b8:	4440                	lw	s0,12(s0)
   154ba:	00868963          	beq	a3,s0,154cc <_malloc_r+0xc6>
   154be:	405c                	lw	a5,4(s0)
   154c0:	9bf1                	andi	a5,a5,-4
   154c2:	40978733          	sub	a4,a5,s1
   154c6:	fee5d7e3          	bge	a1,a4,154b4 <_malloc_r+0xae>
   154ca:	862a                	mv	a2,a0
   154cc:	01092403          	lw	s0,16(s2)
   154d0:	00890893          	addi	a7,s2,8
   154d4:	0f140e63          	beq	s0,a7,155d0 <_malloc_r+0x1ca>
   154d8:	4048                	lw	a0,4(s0)
   154da:	46bd                	li	a3,15
   154dc:	9971                	andi	a0,a0,-4
   154de:	409507b3          	sub	a5,a0,s1
   154e2:	2ef6c863          	blt	a3,a5,157d2 <_malloc_r+0x3cc>
   154e6:	01192a23          	sw	a7,20(s2)
   154ea:	01192823          	sw	a7,16(s2)
   154ee:	2c07d763          	bgez	a5,157bc <_malloc_r+0x3b6>
   154f2:	1ff00793          	li	a5,511
   154f6:	20a7ed63          	bltu	a5,a0,15710 <_malloc_r+0x30a>
   154fa:	ff857793          	andi	a5,a0,-8
   154fe:	07a1                	addi	a5,a5,8
   15500:	00492583          	lw	a1,4(s2)
   15504:	97ca                	add	a5,a5,s2
   15506:	4394                	lw	a3,0(a5)
   15508:	8115                	srli	a0,a0,0x5
   1550a:	4705                	li	a4,1
   1550c:	00a71733          	sll	a4,a4,a0
   15510:	8f4d                	or	a4,a4,a1
   15512:	ff878593          	addi	a1,a5,-8
   15516:	c44c                	sw	a1,12(s0)
   15518:	c414                	sw	a3,8(s0)
   1551a:	00e92223          	sw	a4,4(s2)
   1551e:	c380                	sw	s0,0(a5)
   15520:	c6c0                	sw	s0,12(a3)
   15522:	40265793          	srai	a5,a2,0x2
   15526:	4585                	li	a1,1
   15528:	00f595b3          	sll	a1,a1,a5
   1552c:	0ab76b63          	bltu	a4,a1,155e2 <_malloc_r+0x1dc>
   15530:	00e5f7b3          	and	a5,a1,a4
   15534:	ef81                	bnez	a5,1554c <_malloc_r+0x146>
   15536:	0586                	slli	a1,a1,0x1
   15538:	9a71                	andi	a2,a2,-4
   1553a:	00e5f7b3          	and	a5,a1,a4
   1553e:	0611                	addi	a2,a2,4
   15540:	e791                	bnez	a5,1554c <_malloc_r+0x146>
   15542:	0586                	slli	a1,a1,0x1
   15544:	00e5f7b3          	and	a5,a1,a4
   15548:	0611                	addi	a2,a2,4
   1554a:	dfe5                	beqz	a5,15542 <_malloc_r+0x13c>
   1554c:	483d                	li	a6,15
   1554e:	00361313          	slli	t1,a2,0x3
   15552:	934a                	add	t1,t1,s2
   15554:	851a                	mv	a0,t1
   15556:	455c                	lw	a5,12(a0)
   15558:	8e32                	mv	t3,a2
   1555a:	20f50c63          	beq	a0,a5,15772 <_malloc_r+0x36c>
   1555e:	43d8                	lw	a4,4(a5)
   15560:	843e                	mv	s0,a5
   15562:	47dc                	lw	a5,12(a5)
   15564:	9b71                	andi	a4,a4,-4
   15566:	409706b3          	sub	a3,a4,s1
   1556a:	20d84b63          	blt	a6,a3,15780 <_malloc_r+0x37a>
   1556e:	fe06c6e3          	bltz	a3,1555a <_malloc_r+0x154>
   15572:	9722                	add	a4,a4,s0
   15574:	4354                	lw	a3,4(a4)
   15576:	4410                	lw	a2,8(s0)
   15578:	854e                	mv	a0,s3
   1557a:	0016e693          	ori	a3,a3,1
   1557e:	c354                	sw	a3,4(a4)
   15580:	c65c                	sw	a5,12(a2)
   15582:	c790                	sw	a2,8(a5)
   15584:	25c1                	jal	15c44 <__malloc_unlock>
   15586:	00840513          	addi	a0,s0,8
   1558a:	a029                	j	15594 <_malloc_r+0x18e>
   1558c:	47b1                	li	a5,12
   1558e:	00f9a023          	sw	a5,0(s3)
   15592:	4501                	li	a0,0
   15594:	50b2                	lw	ra,44(sp)
   15596:	5422                	lw	s0,40(sp)
   15598:	5492                	lw	s1,36(sp)
   1559a:	5902                	lw	s2,32(sp)
   1559c:	49f2                	lw	s3,28(sp)
   1559e:	4a62                	lw	s4,24(sp)
   155a0:	4ad2                	lw	s5,20(sp)
   155a2:	4b42                	lw	s6,16(sp)
   155a4:	4bb2                	lw	s7,12(sp)
   155a6:	4c22                	lw	s8,8(sp)
   155a8:	4c92                	lw	s9,4(sp)
   155aa:	6145                	addi	sp,sp,48
   155ac:	8082                	ret
   155ae:	20000693          	li	a3,512
   155b2:	04000613          	li	a2,64
   155b6:	03f00513          	li	a0,63
   155ba:	b5e5                	j	154a2 <_malloc_r+0x9c>
   155bc:	47c0                	lw	s0,12(a5)
   155be:	0609                	addi	a2,a2,2
   155c0:	e88795e3          	bne	a5,s0,1544a <_malloc_r+0x44>
   155c4:	01092403          	lw	s0,16(s2)
   155c8:	00890893          	addi	a7,s2,8
   155cc:	f11416e3          	bne	s0,a7,154d8 <_malloc_r+0xd2>
   155d0:	00492703          	lw	a4,4(s2)
   155d4:	40265793          	srai	a5,a2,0x2
   155d8:	4585                	li	a1,1
   155da:	00f595b3          	sll	a1,a1,a5
   155de:	f4b779e3          	bgeu	a4,a1,15530 <_malloc_r+0x12a>
   155e2:	00892403          	lw	s0,8(s2)
   155e6:	00442a83          	lw	s5,4(s0)
   155ea:	ffcafb13          	andi	s6,s5,-4
   155ee:	009b6763          	bltu	s6,s1,155fc <_malloc_r+0x1f6>
   155f2:	409b07b3          	sub	a5,s6,s1
   155f6:	473d                	li	a4,15
   155f8:	0ef74b63          	blt	a4,a5,156ee <_malloc_r+0x2e8>
   155fc:	1d81aa83          	lw	s5,472(gp) # 20ed8 <__malloc_top_pad>
   15600:	1c41a703          	lw	a4,452(gp) # 20ec4 <__malloc_sbrk_base>
   15604:	57fd                	li	a5,-1
   15606:	01640a33          	add	s4,s0,s6
   1560a:	9aa6                	add	s5,s5,s1
   1560c:	26f70a63          	beq	a4,a5,15880 <_malloc_r+0x47a>
   15610:	6785                	lui	a5,0x1
   15612:	07bd                	addi	a5,a5,15
   15614:	9abe                	add	s5,s5,a5
   15616:	77fd                	lui	a5,0xfffff
   15618:	00fafab3          	and	s5,s5,a5
   1561c:	85d6                	mv	a1,s5
   1561e:	854e                	mv	a0,s3
   15620:	60e010ef          	jal	ra,16c2e <_sbrk_r>
   15624:	57fd                	li	a5,-1
   15626:	8baa                	mv	s7,a0
   15628:	1ef50563          	beq	a0,a5,15812 <_malloc_r+0x40c>
   1562c:	1f456163          	bltu	a0,s4,1580e <_malloc_r+0x408>
   15630:	20018c13          	addi	s8,gp,512 # 20f00 <__malloc_current_mallinfo>
   15634:	000c2583          	lw	a1,0(s8) # 1000 <register_fini-0xf074>
   15638:	95d6                	add	a1,a1,s5
   1563a:	00bc2023          	sw	a1,0(s8)
   1563e:	87ae                	mv	a5,a1
   15640:	2aaa0d63          	beq	s4,a0,158fa <_malloc_r+0x4f4>
   15644:	1c41a683          	lw	a3,452(gp) # 20ec4 <__malloc_sbrk_base>
   15648:	577d                	li	a4,-1
   1564a:	2ce68463          	beq	a3,a4,15912 <_malloc_r+0x50c>
   1564e:	414b8a33          	sub	s4,s7,s4
   15652:	97d2                	add	a5,a5,s4
   15654:	00fc2023          	sw	a5,0(s8)
   15658:	007bfc93          	andi	s9,s7,7
   1565c:	220c8e63          	beqz	s9,15898 <_malloc_r+0x492>
   15660:	6785                	lui	a5,0x1
   15662:	419b8bb3          	sub	s7,s7,s9
   15666:	00878593          	addi	a1,a5,8 # 1008 <register_fini-0xf06c>
   1566a:	0ba1                	addi	s7,s7,8
   1566c:	419585b3          	sub	a1,a1,s9
   15670:	9ade                	add	s5,s5,s7
   15672:	17fd                	addi	a5,a5,-1
   15674:	415585b3          	sub	a1,a1,s5
   15678:	00f5fa33          	and	s4,a1,a5
   1567c:	85d2                	mv	a1,s4
   1567e:	854e                	mv	a0,s3
   15680:	5ae010ef          	jal	ra,16c2e <_sbrk_r>
   15684:	57fd                	li	a5,-1
   15686:	2cf50863          	beq	a0,a5,15956 <_malloc_r+0x550>
   1568a:	41750533          	sub	a0,a0,s7
   1568e:	01450ab3          	add	s5,a0,s4
   15692:	000c2583          	lw	a1,0(s8)
   15696:	01792423          	sw	s7,8(s2)
   1569a:	001aea93          	ori	s5,s5,1
   1569e:	95d2                	add	a1,a1,s4
   156a0:	00bc2023          	sw	a1,0(s8)
   156a4:	015ba223          	sw	s5,4(s7)
   156a8:	27240863          	beq	s0,s2,15918 <_malloc_r+0x512>
   156ac:	46bd                	li	a3,15
   156ae:	2766f763          	bgeu	a3,s6,1591c <_malloc_r+0x516>
   156b2:	4058                	lw	a4,4(s0)
   156b4:	ff4b0793          	addi	a5,s6,-12
   156b8:	9be1                	andi	a5,a5,-8
   156ba:	8b05                	andi	a4,a4,1
   156bc:	8f5d                	or	a4,a4,a5
   156be:	c058                	sw	a4,4(s0)
   156c0:	4615                	li	a2,5
   156c2:	00f40733          	add	a4,s0,a5
   156c6:	c350                	sw	a2,4(a4)
   156c8:	c710                	sw	a2,8(a4)
   156ca:	28f6ec63          	bltu	a3,a5,15962 <_malloc_r+0x55c>
   156ce:	004baa83          	lw	s5,4(s7)
   156d2:	845e                	mv	s0,s7
   156d4:	1d41a703          	lw	a4,468(gp) # 20ed4 <__malloc_max_sbrked_mem>
   156d8:	00b77463          	bgeu	a4,a1,156e0 <_malloc_r+0x2da>
   156dc:	1cb1aa23          	sw	a1,468(gp) # 20ed4 <__malloc_max_sbrked_mem>
   156e0:	1d01a703          	lw	a4,464(gp) # 20ed0 <__malloc_max_total_mem>
   156e4:	12b77b63          	bgeu	a4,a1,1581a <_malloc_r+0x414>
   156e8:	1cb1a823          	sw	a1,464(gp) # 20ed0 <__malloc_max_total_mem>
   156ec:	a23d                	j	1581a <_malloc_r+0x414>
   156ee:	0014e713          	ori	a4,s1,1
   156f2:	c058                	sw	a4,4(s0)
   156f4:	94a2                	add	s1,s1,s0
   156f6:	00992423          	sw	s1,8(s2)
   156fa:	0017e793          	ori	a5,a5,1
   156fe:	854e                	mv	a0,s3
   15700:	c0dc                	sw	a5,4(s1)
   15702:	2389                	jal	15c44 <__malloc_unlock>
   15704:	00840513          	addi	a0,s0,8
   15708:	b571                	j	15594 <_malloc_r+0x18e>
   1570a:	4454                	lw	a3,12(s0)
   1570c:	4410                	lw	a2,8(s0)
   1570e:	b391                	j	15452 <_malloc_r+0x4c>
   15710:	00955793          	srli	a5,a0,0x9
   15714:	4711                	li	a4,4
   15716:	0ef77463          	bgeu	a4,a5,157fe <_malloc_r+0x3f8>
   1571a:	4751                	li	a4,20
   1571c:	18f76e63          	bltu	a4,a5,158b8 <_malloc_r+0x4b2>
   15720:	05c78693          	addi	a3,a5,92
   15724:	05b78593          	addi	a1,a5,91
   15728:	068e                	slli	a3,a3,0x3
   1572a:	96ca                	add	a3,a3,s2
   1572c:	429c                	lw	a5,0(a3)
   1572e:	16e1                	addi	a3,a3,-8
   15730:	14f68a63          	beq	a3,a5,15884 <_malloc_r+0x47e>
   15734:	43d8                	lw	a4,4(a5)
   15736:	9b71                	andi	a4,a4,-4
   15738:	00e57563          	bgeu	a0,a4,15742 <_malloc_r+0x33c>
   1573c:	479c                	lw	a5,8(a5)
   1573e:	fef69be3          	bne	a3,a5,15734 <_malloc_r+0x32e>
   15742:	47d4                	lw	a3,12(a5)
   15744:	00492703          	lw	a4,4(s2)
   15748:	c454                	sw	a3,12(s0)
   1574a:	c41c                	sw	a5,8(s0)
   1574c:	c680                	sw	s0,8(a3)
   1574e:	c7c0                	sw	s0,12(a5)
   15750:	bbc9                	j	15522 <_malloc_r+0x11c>
   15752:	4751                	li	a4,20
   15754:	0ef77063          	bgeu	a4,a5,15834 <_malloc_r+0x42e>
   15758:	05400713          	li	a4,84
   1575c:	16f76a63          	bltu	a4,a5,158d0 <_malloc_r+0x4ca>
   15760:	00c4d793          	srli	a5,s1,0xc
   15764:	06f78613          	addi	a2,a5,111
   15768:	06e78513          	addi	a0,a5,110
   1576c:	00361693          	slli	a3,a2,0x3
   15770:	bb0d                	j	154a2 <_malloc_r+0x9c>
   15772:	0e05                	addi	t3,t3,1
   15774:	003e7793          	andi	a5,t3,3
   15778:	0521                	addi	a0,a0,8
   1577a:	cbe9                	beqz	a5,1584c <_malloc_r+0x446>
   1577c:	455c                	lw	a5,12(a0)
   1577e:	bbf1                	j	1555a <_malloc_r+0x154>
   15780:	4410                	lw	a2,8(s0)
   15782:	0014e593          	ori	a1,s1,1
   15786:	c04c                	sw	a1,4(s0)
   15788:	c65c                	sw	a5,12(a2)
   1578a:	c790                	sw	a2,8(a5)
   1578c:	94a2                	add	s1,s1,s0
   1578e:	00992a23          	sw	s1,20(s2)
   15792:	00992823          	sw	s1,16(s2)
   15796:	0016e793          	ori	a5,a3,1
   1579a:	0114a623          	sw	a7,12(s1)
   1579e:	0114a423          	sw	a7,8(s1)
   157a2:	c0dc                	sw	a5,4(s1)
   157a4:	9722                	add	a4,a4,s0
   157a6:	854e                	mv	a0,s3
   157a8:	c314                	sw	a3,0(a4)
   157aa:	2969                	jal	15c44 <__malloc_unlock>
   157ac:	00840513          	addi	a0,s0,8
   157b0:	b3d5                	j	15594 <_malloc_r+0x18e>
   157b2:	0034d613          	srli	a2,s1,0x3
   157b6:	00848793          	addi	a5,s1,8
   157ba:	b141                	j	1543a <_malloc_r+0x34>
   157bc:	00a40733          	add	a4,s0,a0
   157c0:	435c                	lw	a5,4(a4)
   157c2:	854e                	mv	a0,s3
   157c4:	0017e793          	ori	a5,a5,1
   157c8:	c35c                	sw	a5,4(a4)
   157ca:	29ad                	jal	15c44 <__malloc_unlock>
   157cc:	00840513          	addi	a0,s0,8
   157d0:	b3d1                	j	15594 <_malloc_r+0x18e>
   157d2:	0014e713          	ori	a4,s1,1
   157d6:	c058                	sw	a4,4(s0)
   157d8:	94a2                	add	s1,s1,s0
   157da:	00992a23          	sw	s1,20(s2)
   157de:	00992823          	sw	s1,16(s2)
   157e2:	0017e713          	ori	a4,a5,1
   157e6:	0114a623          	sw	a7,12(s1)
   157ea:	0114a423          	sw	a7,8(s1)
   157ee:	c0d8                	sw	a4,4(s1)
   157f0:	9522                	add	a0,a0,s0
   157f2:	c11c                	sw	a5,0(a0)
   157f4:	854e                	mv	a0,s3
   157f6:	21b9                	jal	15c44 <__malloc_unlock>
   157f8:	00840513          	addi	a0,s0,8
   157fc:	bb61                	j	15594 <_malloc_r+0x18e>
   157fe:	00655793          	srli	a5,a0,0x6
   15802:	03978693          	addi	a3,a5,57
   15806:	03878593          	addi	a1,a5,56
   1580a:	068e                	slli	a3,a3,0x3
   1580c:	bf39                	j	1572a <_malloc_r+0x324>
   1580e:	0d240e63          	beq	s0,s2,158ea <_malloc_r+0x4e4>
   15812:	00892403          	lw	s0,8(s2)
   15816:	00442a83          	lw	s5,4(s0)
   1581a:	ffcafa93          	andi	s5,s5,-4
   1581e:	409a87b3          	sub	a5,s5,s1
   15822:	009ae563          	bltu	s5,s1,1582c <_malloc_r+0x426>
   15826:	473d                	li	a4,15
   15828:	ecf743e3          	blt	a4,a5,156ee <_malloc_r+0x2e8>
   1582c:	854e                	mv	a0,s3
   1582e:	2919                	jal	15c44 <__malloc_unlock>
   15830:	4501                	li	a0,0
   15832:	b38d                	j	15594 <_malloc_r+0x18e>
   15834:	05c78613          	addi	a2,a5,92
   15838:	05b78513          	addi	a0,a5,91
   1583c:	00361693          	slli	a3,a2,0x3
   15840:	b18d                	j	154a2 <_malloc_r+0x9c>
   15842:	00832783          	lw	a5,8(t1)
   15846:	167d                	addi	a2,a2,-1
   15848:	16679163          	bne	a5,t1,159aa <_malloc_r+0x5a4>
   1584c:	00367793          	andi	a5,a2,3
   15850:	1361                	addi	t1,t1,-8
   15852:	fbe5                	bnez	a5,15842 <_malloc_r+0x43c>
   15854:	00492703          	lw	a4,4(s2)
   15858:	fff5c793          	not	a5,a1
   1585c:	8ff9                	and	a5,a5,a4
   1585e:	00f92223          	sw	a5,4(s2)
   15862:	0586                	slli	a1,a1,0x1
   15864:	d6b7efe3          	bltu	a5,a1,155e2 <_malloc_r+0x1dc>
   15868:	d6058de3          	beqz	a1,155e2 <_malloc_r+0x1dc>
   1586c:	00f5f733          	and	a4,a1,a5
   15870:	e711                	bnez	a4,1587c <_malloc_r+0x476>
   15872:	0586                	slli	a1,a1,0x1
   15874:	00f5f733          	and	a4,a1,a5
   15878:	0e11                	addi	t3,t3,4
   1587a:	df65                	beqz	a4,15872 <_malloc_r+0x46c>
   1587c:	8672                	mv	a2,t3
   1587e:	b9c1                	j	1554e <_malloc_r+0x148>
   15880:	0ac1                	addi	s5,s5,16
   15882:	bb69                	j	1561c <_malloc_r+0x216>
   15884:	00492503          	lw	a0,4(s2)
   15888:	8589                	srai	a1,a1,0x2
   1588a:	4705                	li	a4,1
   1588c:	00b71733          	sll	a4,a4,a1
   15890:	8f49                	or	a4,a4,a0
   15892:	00e92223          	sw	a4,4(s2)
   15896:	bd4d                	j	15748 <_malloc_r+0x342>
   15898:	015b85b3          	add	a1,s7,s5
   1589c:	40b005b3          	neg	a1,a1
   158a0:	05d2                	slli	a1,a1,0x14
   158a2:	0145da13          	srli	s4,a1,0x14
   158a6:	85d2                	mv	a1,s4
   158a8:	854e                	mv	a0,s3
   158aa:	384010ef          	jal	ra,16c2e <_sbrk_r>
   158ae:	57fd                	li	a5,-1
   158b0:	dcf51de3          	bne	a0,a5,1568a <_malloc_r+0x284>
   158b4:	4a01                	li	s4,0
   158b6:	bbf1                	j	15692 <_malloc_r+0x28c>
   158b8:	05400713          	li	a4,84
   158bc:	06f76463          	bltu	a4,a5,15924 <_malloc_r+0x51e>
   158c0:	00c55793          	srli	a5,a0,0xc
   158c4:	06f78693          	addi	a3,a5,111
   158c8:	06e78593          	addi	a1,a5,110
   158cc:	068e                	slli	a3,a3,0x3
   158ce:	bdb1                	j	1572a <_malloc_r+0x324>
   158d0:	15400713          	li	a4,340
   158d4:	06f76463          	bltu	a4,a5,1593c <_malloc_r+0x536>
   158d8:	00f4d793          	srli	a5,s1,0xf
   158dc:	07878613          	addi	a2,a5,120
   158e0:	07778513          	addi	a0,a5,119
   158e4:	00361693          	slli	a3,a2,0x3
   158e8:	be6d                	j	154a2 <_malloc_r+0x9c>
   158ea:	20018c13          	addi	s8,gp,512 # 20f00 <__malloc_current_mallinfo>
   158ee:	000c2783          	lw	a5,0(s8)
   158f2:	97d6                	add	a5,a5,s5
   158f4:	00fc2023          	sw	a5,0(s8)
   158f8:	b3b1                	j	15644 <_malloc_r+0x23e>
   158fa:	014a1713          	slli	a4,s4,0x14
   158fe:	d40713e3          	bnez	a4,15644 <_malloc_r+0x23e>
   15902:	00892403          	lw	s0,8(s2)
   15906:	9ada                	add	s5,s5,s6
   15908:	001aea93          	ori	s5,s5,1
   1590c:	01542223          	sw	s5,4(s0)
   15910:	b3d1                	j	156d4 <_malloc_r+0x2ce>
   15912:	1d71a223          	sw	s7,452(gp) # 20ec4 <__malloc_sbrk_base>
   15916:	b389                	j	15658 <_malloc_r+0x252>
   15918:	845e                	mv	s0,s7
   1591a:	bb6d                	j	156d4 <_malloc_r+0x2ce>
   1591c:	4785                	li	a5,1
   1591e:	00fba223          	sw	a5,4(s7)
   15922:	b729                	j	1582c <_malloc_r+0x426>
   15924:	15400713          	li	a4,340
   15928:	04f76963          	bltu	a4,a5,1597a <_malloc_r+0x574>
   1592c:	00f55793          	srli	a5,a0,0xf
   15930:	07878693          	addi	a3,a5,120
   15934:	07778593          	addi	a1,a5,119
   15938:	068e                	slli	a3,a3,0x3
   1593a:	bbc5                	j	1572a <_malloc_r+0x324>
   1593c:	55400713          	li	a4,1364
   15940:	04f76963          	bltu	a4,a5,15992 <_malloc_r+0x58c>
   15944:	0124d793          	srli	a5,s1,0x12
   15948:	07d78613          	addi	a2,a5,125
   1594c:	07c78513          	addi	a0,a5,124
   15950:	00361693          	slli	a3,a2,0x3
   15954:	b6b9                	j	154a2 <_malloc_r+0x9c>
   15956:	1ce1                	addi	s9,s9,-8
   15958:	9ae6                	add	s5,s5,s9
   1595a:	417a8ab3          	sub	s5,s5,s7
   1595e:	4a01                	li	s4,0
   15960:	bb0d                	j	15692 <_malloc_r+0x28c>
   15962:	00840593          	addi	a1,s0,8
   15966:	854e                	mv	a0,s3
   15968:	9f6fd0ef          	jal	ra,12b5e <_free_r>
   1596c:	00892403          	lw	s0,8(s2)
   15970:	000c2583          	lw	a1,0(s8)
   15974:	00442a83          	lw	s5,4(s0)
   15978:	bbb1                	j	156d4 <_malloc_r+0x2ce>
   1597a:	55400713          	li	a4,1364
   1597e:	02f76163          	bltu	a4,a5,159a0 <_malloc_r+0x59a>
   15982:	01255793          	srli	a5,a0,0x12
   15986:	07d78693          	addi	a3,a5,125
   1598a:	07c78593          	addi	a1,a5,124
   1598e:	068e                	slli	a3,a3,0x3
   15990:	bb69                	j	1572a <_malloc_r+0x324>
   15992:	3f800693          	li	a3,1016
   15996:	07f00613          	li	a2,127
   1599a:	07e00513          	li	a0,126
   1599e:	b611                	j	154a2 <_malloc_r+0x9c>
   159a0:	3f800693          	li	a3,1016
   159a4:	07e00593          	li	a1,126
   159a8:	b349                	j	1572a <_malloc_r+0x324>
   159aa:	00492783          	lw	a5,4(s2)
   159ae:	bd55                	j	15862 <_malloc_r+0x45c>

000159b0 <_mbtowc_r>:
   159b0:	d0c1a783          	lw	a5,-756(gp) # 20a0c <__global_locale+0xe4>
   159b4:	8782                	jr	a5

000159b6 <__ascii_mbtowc>:
   159b6:	c999                	beqz	a1,159cc <__ascii_mbtowc+0x16>
   159b8:	c61d                	beqz	a2,159e6 <__ascii_mbtowc+0x30>
   159ba:	ca95                	beqz	a3,159ee <__ascii_mbtowc+0x38>
   159bc:	00064783          	lbu	a5,0(a2)
   159c0:	c19c                	sw	a5,0(a1)
   159c2:	00064503          	lbu	a0,0(a2)
   159c6:	00a03533          	snez	a0,a0
   159ca:	8082                	ret
   159cc:	1141                	addi	sp,sp,-16
   159ce:	006c                	addi	a1,sp,12
   159d0:	ce09                	beqz	a2,159ea <__ascii_mbtowc+0x34>
   159d2:	c285                	beqz	a3,159f2 <__ascii_mbtowc+0x3c>
   159d4:	00064783          	lbu	a5,0(a2)
   159d8:	c19c                	sw	a5,0(a1)
   159da:	00064503          	lbu	a0,0(a2)
   159de:	00a03533          	snez	a0,a0
   159e2:	0141                	addi	sp,sp,16
   159e4:	8082                	ret
   159e6:	4501                	li	a0,0
   159e8:	8082                	ret
   159ea:	4501                	li	a0,0
   159ec:	bfdd                	j	159e2 <__ascii_mbtowc+0x2c>
   159ee:	5579                	li	a0,-2
   159f0:	8082                	ret
   159f2:	5579                	li	a0,-2
   159f4:	b7fd                	j	159e2 <__ascii_mbtowc+0x2c>

000159f6 <memchr>:
   159f6:	00357793          	andi	a5,a0,3
   159fa:	0ff5f693          	andi	a3,a1,255
   159fe:	c395                	beqz	a5,15a22 <memchr+0x2c>
   15a00:	fff60793          	addi	a5,a2,-1
   15a04:	c605                	beqz	a2,15a2c <memchr+0x36>
   15a06:	567d                	li	a2,-1
   15a08:	a801                	j	15a18 <memchr+0x22>
   15a0a:	0505                	addi	a0,a0,1
   15a0c:	00357713          	andi	a4,a0,3
   15a10:	cb11                	beqz	a4,15a24 <memchr+0x2e>
   15a12:	17fd                	addi	a5,a5,-1
   15a14:	00c78c63          	beq	a5,a2,15a2c <memchr+0x36>
   15a18:	00054703          	lbu	a4,0(a0)
   15a1c:	fed717e3          	bne	a4,a3,15a0a <memchr+0x14>
   15a20:	8082                	ret
   15a22:	87b2                	mv	a5,a2
   15a24:	470d                	li	a4,3
   15a26:	00f76f63          	bltu	a4,a5,15a44 <memchr+0x4e>
   15a2a:	e399                	bnez	a5,15a30 <memchr+0x3a>
   15a2c:	4501                	li	a0,0
   15a2e:	8082                	ret
   15a30:	97aa                	add	a5,a5,a0
   15a32:	a021                	j	15a3a <memchr+0x44>
   15a34:	0505                	addi	a0,a0,1
   15a36:	fea78be3          	beq	a5,a0,15a2c <memchr+0x36>
   15a3a:	00054703          	lbu	a4,0(a0)
   15a3e:	fed71be3          	bne	a4,a3,15a34 <memchr+0x3e>
   15a42:	8082                	ret
   15a44:	0ff5f593          	andi	a1,a1,255
   15a48:	00859893          	slli	a7,a1,0x8
   15a4c:	00b8e5b3          	or	a1,a7,a1
   15a50:	01059893          	slli	a7,a1,0x10
   15a54:	00b8e8b3          	or	a7,a7,a1
   15a58:	feff0837          	lui	a6,0xfeff0
   15a5c:	808085b7          	lui	a1,0x80808
   15a60:	eff80813          	addi	a6,a6,-257 # fefefeff <__BSS_END__+0xfefcefd7>
   15a64:	08058593          	addi	a1,a1,128 # 80808080 <__BSS_END__+0x807e7158>
   15a68:	430d                	li	t1,3
   15a6a:	4118                	lw	a4,0(a0)
   15a6c:	00e8c733          	xor	a4,a7,a4
   15a70:	01070633          	add	a2,a4,a6
   15a74:	fff74713          	not	a4,a4
   15a78:	8f71                	and	a4,a4,a2
   15a7a:	8f6d                	and	a4,a4,a1
   15a7c:	fb55                	bnez	a4,15a30 <memchr+0x3a>
   15a7e:	17f1                	addi	a5,a5,-4
   15a80:	0511                	addi	a0,a0,4
   15a82:	fef364e3          	bltu	t1,a5,15a6a <memchr+0x74>
   15a86:	f7cd                	bnez	a5,15a30 <memchr+0x3a>
   15a88:	b755                	j	15a2c <memchr+0x36>

00015a8a <memcpy>:
   15a8a:	00a5c7b3          	xor	a5,a1,a0
   15a8e:	8b8d                	andi	a5,a5,3
   15a90:	00c508b3          	add	a7,a0,a2
   15a94:	eba1                	bnez	a5,15ae4 <memcpy+0x5a>
   15a96:	478d                	li	a5,3
   15a98:	04c7f663          	bgeu	a5,a2,15ae4 <memcpy+0x5a>
   15a9c:	00357793          	andi	a5,a0,3
   15aa0:	872a                	mv	a4,a0
   15aa2:	e7cd                	bnez	a5,15b4c <memcpy+0xc2>
   15aa4:	ffc8f613          	andi	a2,a7,-4
   15aa8:	40e606b3          	sub	a3,a2,a4
   15aac:	02000793          	li	a5,32
   15ab0:	02000293          	li	t0,32
   15ab4:	04d7c463          	blt	a5,a3,15afc <memcpy+0x72>
   15ab8:	86ae                	mv	a3,a1
   15aba:	87ba                	mv	a5,a4
   15abc:	02c77163          	bgeu	a4,a2,15ade <memcpy+0x54>
   15ac0:	0006a803          	lw	a6,0(a3)
   15ac4:	0791                	addi	a5,a5,4
   15ac6:	0691                	addi	a3,a3,4
   15ac8:	ff07ae23          	sw	a6,-4(a5)
   15acc:	fec7eae3          	bltu	a5,a2,15ac0 <memcpy+0x36>
   15ad0:	fff60793          	addi	a5,a2,-1
   15ad4:	8f99                	sub	a5,a5,a4
   15ad6:	9bf1                	andi	a5,a5,-4
   15ad8:	0791                	addi	a5,a5,4
   15ada:	973e                	add	a4,a4,a5
   15adc:	95be                	add	a1,a1,a5
   15ade:	01176663          	bltu	a4,a7,15aea <memcpy+0x60>
   15ae2:	8082                	ret
   15ae4:	872a                	mv	a4,a0
   15ae6:	ff157ee3          	bgeu	a0,a7,15ae2 <memcpy+0x58>
   15aea:	0005c783          	lbu	a5,0(a1)
   15aee:	0705                	addi	a4,a4,1
   15af0:	0585                	addi	a1,a1,1
   15af2:	fef70fa3          	sb	a5,-1(a4) # ffffdfff <__BSS_END__+0xfffdd0d7>
   15af6:	ff176ae3          	bltu	a4,a7,15aea <memcpy+0x60>
   15afa:	8082                	ret
   15afc:	41d4                	lw	a3,4(a1)
   15afe:	4ddc                	lw	a5,28(a1)
   15b00:	0005af83          	lw	t6,0(a1)
   15b04:	0085af03          	lw	t5,8(a1)
   15b08:	00c5ae83          	lw	t4,12(a1)
   15b0c:	0105ae03          	lw	t3,16(a1)
   15b10:	0145a303          	lw	t1,20(a1)
   15b14:	0185a803          	lw	a6,24(a1)
   15b18:	c354                	sw	a3,4(a4)
   15b1a:	5194                	lw	a3,32(a1)
   15b1c:	01f72023          	sw	t6,0(a4)
   15b20:	01e72423          	sw	t5,8(a4)
   15b24:	01d72623          	sw	t4,12(a4)
   15b28:	01c72823          	sw	t3,16(a4)
   15b2c:	00672a23          	sw	t1,20(a4)
   15b30:	01072c23          	sw	a6,24(a4)
   15b34:	cf5c                	sw	a5,28(a4)
   15b36:	02470713          	addi	a4,a4,36
   15b3a:	40e607b3          	sub	a5,a2,a4
   15b3e:	fed72e23          	sw	a3,-4(a4)
   15b42:	02458593          	addi	a1,a1,36
   15b46:	faf2cbe3          	blt	t0,a5,15afc <memcpy+0x72>
   15b4a:	b7bd                	j	15ab8 <memcpy+0x2e>
   15b4c:	0005c683          	lbu	a3,0(a1)
   15b50:	0705                	addi	a4,a4,1
   15b52:	00377793          	andi	a5,a4,3
   15b56:	fed70fa3          	sb	a3,-1(a4)
   15b5a:	0585                	addi	a1,a1,1
   15b5c:	d7a1                	beqz	a5,15aa4 <memcpy+0x1a>
   15b5e:	0005c683          	lbu	a3,0(a1)
   15b62:	0705                	addi	a4,a4,1
   15b64:	00377793          	andi	a5,a4,3
   15b68:	fed70fa3          	sb	a3,-1(a4)
   15b6c:	0585                	addi	a1,a1,1
   15b6e:	fff9                	bnez	a5,15b4c <memcpy+0xc2>
   15b70:	bf15                	j	15aa4 <memcpy+0x1a>

00015b72 <memmove>:
   15b72:	02a5f263          	bgeu	a1,a0,15b96 <memmove+0x24>
   15b76:	00c587b3          	add	a5,a1,a2
   15b7a:	00f57e63          	bgeu	a0,a5,15b96 <memmove+0x24>
   15b7e:	00c50733          	add	a4,a0,a2
   15b82:	ca45                	beqz	a2,15c32 <memmove+0xc0>
   15b84:	fff7c683          	lbu	a3,-1(a5)
   15b88:	17fd                	addi	a5,a5,-1
   15b8a:	177d                	addi	a4,a4,-1
   15b8c:	00d70023          	sb	a3,0(a4)
   15b90:	fef59ae3          	bne	a1,a5,15b84 <memmove+0x12>
   15b94:	8082                	ret
   15b96:	47bd                	li	a5,15
   15b98:	02c7e163          	bltu	a5,a2,15bba <memmove+0x48>
   15b9c:	87aa                	mv	a5,a0
   15b9e:	fff60693          	addi	a3,a2,-1
   15ba2:	ce49                	beqz	a2,15c3c <memmove+0xca>
   15ba4:	0685                	addi	a3,a3,1
   15ba6:	96be                	add	a3,a3,a5
   15ba8:	0005c703          	lbu	a4,0(a1)
   15bac:	0785                	addi	a5,a5,1
   15bae:	0585                	addi	a1,a1,1
   15bb0:	fee78fa3          	sb	a4,-1(a5)
   15bb4:	fed79ae3          	bne	a5,a3,15ba8 <memmove+0x36>
   15bb8:	8082                	ret
   15bba:	00a5e7b3          	or	a5,a1,a0
   15bbe:	8b8d                	andi	a5,a5,3
   15bc0:	ebb5                	bnez	a5,15c34 <memmove+0xc2>
   15bc2:	ff060893          	addi	a7,a2,-16
   15bc6:	ff08f893          	andi	a7,a7,-16
   15bca:	08c1                	addi	a7,a7,16
   15bcc:	01150833          	add	a6,a0,a7
   15bd0:	872e                	mv	a4,a1
   15bd2:	87aa                	mv	a5,a0
   15bd4:	4314                	lw	a3,0(a4)
   15bd6:	0741                	addi	a4,a4,16
   15bd8:	07c1                	addi	a5,a5,16
   15bda:	fed7a823          	sw	a3,-16(a5)
   15bde:	ff472683          	lw	a3,-12(a4)
   15be2:	fed7aa23          	sw	a3,-12(a5)
   15be6:	ff872683          	lw	a3,-8(a4)
   15bea:	fed7ac23          	sw	a3,-8(a5)
   15bee:	ffc72683          	lw	a3,-4(a4)
   15bf2:	fed7ae23          	sw	a3,-4(a5)
   15bf6:	fcf81fe3          	bne	a6,a5,15bd4 <memmove+0x62>
   15bfa:	00c67713          	andi	a4,a2,12
   15bfe:	95c6                	add	a1,a1,a7
   15c00:	00f67813          	andi	a6,a2,15
   15c04:	cf0d                	beqz	a4,15c3e <memmove+0xcc>
   15c06:	872e                	mv	a4,a1
   15c08:	88be                	mv	a7,a5
   15c0a:	4e0d                	li	t3,3
   15c0c:	00072303          	lw	t1,0(a4)
   15c10:	0711                	addi	a4,a4,4
   15c12:	40e806b3          	sub	a3,a6,a4
   15c16:	0068a023          	sw	t1,0(a7)
   15c1a:	96ae                	add	a3,a3,a1
   15c1c:	0891                	addi	a7,a7,4
   15c1e:	fede67e3          	bltu	t3,a3,15c0c <memmove+0x9a>
   15c22:	ffc80713          	addi	a4,a6,-4
   15c26:	9b71                	andi	a4,a4,-4
   15c28:	0711                	addi	a4,a4,4
   15c2a:	8a0d                	andi	a2,a2,3
   15c2c:	97ba                	add	a5,a5,a4
   15c2e:	95ba                	add	a1,a1,a4
   15c30:	b7bd                	j	15b9e <memmove+0x2c>
   15c32:	8082                	ret
   15c34:	fff60693          	addi	a3,a2,-1
   15c38:	87aa                	mv	a5,a0
   15c3a:	b7ad                	j	15ba4 <memmove+0x32>
   15c3c:	8082                	ret
   15c3e:	8642                	mv	a2,a6
   15c40:	bfb9                	j	15b9e <memmove+0x2c>

00015c42 <__malloc_lock>:
   15c42:	8082                	ret

00015c44 <__malloc_unlock>:
   15c44:	8082                	ret

00015c46 <_Balloc>:
   15c46:	457c                	lw	a5,76(a0)
   15c48:	1141                	addi	sp,sp,-16
   15c4a:	c422                	sw	s0,8(sp)
   15c4c:	c226                	sw	s1,4(sp)
   15c4e:	c606                	sw	ra,12(sp)
   15c50:	c04a                	sw	s2,0(sp)
   15c52:	842a                	mv	s0,a0
   15c54:	84ae                	mv	s1,a1
   15c56:	c395                	beqz	a5,15c7a <_Balloc+0x34>
   15c58:	00249513          	slli	a0,s1,0x2
   15c5c:	97aa                	add	a5,a5,a0
   15c5e:	4388                	lw	a0,0(a5)
   15c60:	c51d                	beqz	a0,15c8e <_Balloc+0x48>
   15c62:	4118                	lw	a4,0(a0)
   15c64:	c398                	sw	a4,0(a5)
   15c66:	00052823          	sw	zero,16(a0)
   15c6a:	00052623          	sw	zero,12(a0)
   15c6e:	40b2                	lw	ra,12(sp)
   15c70:	4422                	lw	s0,8(sp)
   15c72:	4492                	lw	s1,4(sp)
   15c74:	4902                	lw	s2,0(sp)
   15c76:	0141                	addi	sp,sp,16
   15c78:	8082                	ret
   15c7a:	02100613          	li	a2,33
   15c7e:	4591                	li	a1,4
   15c80:	77f030ef          	jal	ra,19bfe <_calloc_r>
   15c84:	c468                	sw	a0,76(s0)
   15c86:	87aa                	mv	a5,a0
   15c88:	f961                	bnez	a0,15c58 <_Balloc+0x12>
   15c8a:	4501                	li	a0,0
   15c8c:	b7cd                	j	15c6e <_Balloc+0x28>
   15c8e:	4905                	li	s2,1
   15c90:	00991933          	sll	s2,s2,s1
   15c94:	00590613          	addi	a2,s2,5
   15c98:	060a                	slli	a2,a2,0x2
   15c9a:	4585                	li	a1,1
   15c9c:	8522                	mv	a0,s0
   15c9e:	761030ef          	jal	ra,19bfe <_calloc_r>
   15ca2:	d565                	beqz	a0,15c8a <_Balloc+0x44>
   15ca4:	c144                	sw	s1,4(a0)
   15ca6:	01252423          	sw	s2,8(a0)
   15caa:	bf75                	j	15c66 <_Balloc+0x20>

00015cac <_Bfree>:
   15cac:	c981                	beqz	a1,15cbc <_Bfree+0x10>
   15cae:	41d8                	lw	a4,4(a1)
   15cb0:	457c                	lw	a5,76(a0)
   15cb2:	070a                	slli	a4,a4,0x2
   15cb4:	97ba                	add	a5,a5,a4
   15cb6:	4398                	lw	a4,0(a5)
   15cb8:	c198                	sw	a4,0(a1)
   15cba:	c38c                	sw	a1,0(a5)
   15cbc:	8082                	ret

00015cbe <__multadd>:
   15cbe:	1101                	addi	sp,sp,-32
   15cc0:	ca26                	sw	s1,20(sp)
   15cc2:	4984                	lw	s1,16(a1)
   15cc4:	6341                	lui	t1,0x10
   15cc6:	cc22                	sw	s0,24(sp)
   15cc8:	c84a                	sw	s2,16(sp)
   15cca:	c64e                	sw	s3,12(sp)
   15ccc:	ce06                	sw	ra,28(sp)
   15cce:	c452                	sw	s4,8(sp)
   15cd0:	892e                	mv	s2,a1
   15cd2:	89aa                	mv	s3,a0
   15cd4:	8436                	mv	s0,a3
   15cd6:	01458813          	addi	a6,a1,20
   15cda:	4881                	li	a7,0
   15cdc:	137d                	addi	t1,t1,-1
   15cde:	00082783          	lw	a5,0(a6)
   15ce2:	0811                	addi	a6,a6,4
   15ce4:	0885                	addi	a7,a7,1
   15ce6:	0067f6b3          	and	a3,a5,t1
   15cea:	02c686b3          	mul	a3,a3,a2
   15cee:	83c1                	srli	a5,a5,0x10
   15cf0:	02c787b3          	mul	a5,a5,a2
   15cf4:	96a2                	add	a3,a3,s0
   15cf6:	0106de13          	srli	t3,a3,0x10
   15cfa:	0066f733          	and	a4,a3,t1
   15cfe:	01c786b3          	add	a3,a5,t3
   15d02:	01069793          	slli	a5,a3,0x10
   15d06:	973e                	add	a4,a4,a5
   15d08:	fee82e23          	sw	a4,-4(a6)
   15d0c:	0106d413          	srli	s0,a3,0x10
   15d10:	fc98c7e3          	blt	a7,s1,15cde <__multadd+0x20>
   15d14:	cc09                	beqz	s0,15d2e <__multadd+0x70>
   15d16:	00892783          	lw	a5,8(s2)
   15d1a:	02f4d363          	bge	s1,a5,15d40 <__multadd+0x82>
   15d1e:	00448793          	addi	a5,s1,4
   15d22:	078a                	slli	a5,a5,0x2
   15d24:	97ca                	add	a5,a5,s2
   15d26:	c3c0                	sw	s0,4(a5)
   15d28:	0485                	addi	s1,s1,1
   15d2a:	00992823          	sw	s1,16(s2)
   15d2e:	40f2                	lw	ra,28(sp)
   15d30:	4462                	lw	s0,24(sp)
   15d32:	44d2                	lw	s1,20(sp)
   15d34:	49b2                	lw	s3,12(sp)
   15d36:	4a22                	lw	s4,8(sp)
   15d38:	854a                	mv	a0,s2
   15d3a:	4942                	lw	s2,16(sp)
   15d3c:	6105                	addi	sp,sp,32
   15d3e:	8082                	ret
   15d40:	00492583          	lw	a1,4(s2)
   15d44:	854e                	mv	a0,s3
   15d46:	0585                	addi	a1,a1,1
   15d48:	3dfd                	jal	15c46 <_Balloc>
   15d4a:	8a2a                	mv	s4,a0
   15d4c:	cd1d                	beqz	a0,15d8a <__multadd+0xcc>
   15d4e:	01092603          	lw	a2,16(s2)
   15d52:	00c90593          	addi	a1,s2,12
   15d56:	0531                	addi	a0,a0,12
   15d58:	0609                	addi	a2,a2,2
   15d5a:	060a                	slli	a2,a2,0x2
   15d5c:	d2fff0ef          	jal	ra,15a8a <memcpy>
   15d60:	00492703          	lw	a4,4(s2)
   15d64:	04c9a783          	lw	a5,76(s3)
   15d68:	070a                	slli	a4,a4,0x2
   15d6a:	97ba                	add	a5,a5,a4
   15d6c:	4398                	lw	a4,0(a5)
   15d6e:	00e92023          	sw	a4,0(s2)
   15d72:	0127a023          	sw	s2,0(a5)
   15d76:	00448793          	addi	a5,s1,4
   15d7a:	8952                	mv	s2,s4
   15d7c:	078a                	slli	a5,a5,0x2
   15d7e:	97ca                	add	a5,a5,s2
   15d80:	c3c0                	sw	s0,4(a5)
   15d82:	0485                	addi	s1,s1,1
   15d84:	00992823          	sw	s1,16(s2)
   15d88:	b75d                	j	15d2e <__multadd+0x70>
   15d8a:	0001f6b7          	lui	a3,0x1f
   15d8e:	0001f537          	lui	a0,0x1f
   15d92:	8b068693          	addi	a3,a3,-1872 # 1e8b0 <zeroes.0+0x30>
   15d96:	4601                	li	a2,0
   15d98:	0b500593          	li	a1,181
   15d9c:	b9050513          	addi	a0,a0,-1136 # 1eb90 <bmask+0x34>
   15da0:	609030ef          	jal	ra,19ba8 <__assert_func>

00015da4 <__s2b>:
   15da4:	1101                	addi	sp,sp,-32
   15da6:	cc22                	sw	s0,24(sp)
   15da8:	ca26                	sw	s1,20(sp)
   15daa:	c84a                	sw	s2,16(sp)
   15dac:	c64e                	sw	s3,12(sp)
   15dae:	c452                	sw	s4,8(sp)
   15db0:	89b6                	mv	s3,a3
   15db2:	47a5                	li	a5,9
   15db4:	06a1                	addi	a3,a3,8
   15db6:	ce06                	sw	ra,28(sp)
   15db8:	c256                	sw	s5,4(sp)
   15dba:	02f6c6b3          	div	a3,a3,a5
   15dbe:	892a                	mv	s2,a0
   15dc0:	842e                	mv	s0,a1
   15dc2:	8a32                	mv	s4,a2
   15dc4:	84ba                	mv	s1,a4
   15dc6:	0937d163          	bge	a5,s3,15e48 <__s2b+0xa4>
   15dca:	4785                	li	a5,1
   15dcc:	4581                	li	a1,0
   15dce:	0786                	slli	a5,a5,0x1
   15dd0:	0585                	addi	a1,a1,1
   15dd2:	fed7cee3          	blt	a5,a3,15dce <__s2b+0x2a>
   15dd6:	854a                	mv	a0,s2
   15dd8:	35bd                	jal	15c46 <_Balloc>
   15dda:	85aa                	mv	a1,a0
   15ddc:	c925                	beqz	a0,15e4c <__s2b+0xa8>
   15dde:	4785                	li	a5,1
   15de0:	c91c                	sw	a5,16(a0)
   15de2:	c944                	sw	s1,20(a0)
   15de4:	47a5                	li	a5,9
   15de6:	0547de63          	bge	a5,s4,15e42 <__s2b+0x9e>
   15dea:	00940a93          	addi	s5,s0,9
   15dee:	84d6                	mv	s1,s5
   15df0:	9452                	add	s0,s0,s4
   15df2:	0004c683          	lbu	a3,0(s1)
   15df6:	4629                	li	a2,10
   15df8:	854a                	mv	a0,s2
   15dfa:	fd068693          	addi	a3,a3,-48
   15dfe:	35c1                	jal	15cbe <__multadd>
   15e00:	0485                	addi	s1,s1,1
   15e02:	85aa                	mv	a1,a0
   15e04:	fe8497e3          	bne	s1,s0,15df2 <__s2b+0x4e>
   15e08:	ff8a0413          	addi	s0,s4,-8
   15e0c:	9456                	add	s0,s0,s5
   15e0e:	033a5063          	bge	s4,s3,15e2e <__s2b+0x8a>
   15e12:	414989b3          	sub	s3,s3,s4
   15e16:	99a2                	add	s3,s3,s0
   15e18:	00044683          	lbu	a3,0(s0)
   15e1c:	4629                	li	a2,10
   15e1e:	854a                	mv	a0,s2
   15e20:	fd068693          	addi	a3,a3,-48
   15e24:	3d69                	jal	15cbe <__multadd>
   15e26:	0405                	addi	s0,s0,1
   15e28:	85aa                	mv	a1,a0
   15e2a:	fe8997e3          	bne	s3,s0,15e18 <__s2b+0x74>
   15e2e:	40f2                	lw	ra,28(sp)
   15e30:	4462                	lw	s0,24(sp)
   15e32:	44d2                	lw	s1,20(sp)
   15e34:	4942                	lw	s2,16(sp)
   15e36:	49b2                	lw	s3,12(sp)
   15e38:	4a22                	lw	s4,8(sp)
   15e3a:	4a92                	lw	s5,4(sp)
   15e3c:	852e                	mv	a0,a1
   15e3e:	6105                	addi	sp,sp,32
   15e40:	8082                	ret
   15e42:	0429                	addi	s0,s0,10
   15e44:	4a25                	li	s4,9
   15e46:	b7e1                	j	15e0e <__s2b+0x6a>
   15e48:	4581                	li	a1,0
   15e4a:	b771                	j	15dd6 <__s2b+0x32>
   15e4c:	0001f6b7          	lui	a3,0x1f
   15e50:	0001f537          	lui	a0,0x1f
   15e54:	8b068693          	addi	a3,a3,-1872 # 1e8b0 <zeroes.0+0x30>
   15e58:	4601                	li	a2,0
   15e5a:	0ce00593          	li	a1,206
   15e5e:	b9050513          	addi	a0,a0,-1136 # 1eb90 <bmask+0x34>
   15e62:	547030ef          	jal	ra,19ba8 <__assert_func>

00015e66 <__hi0bits>:
   15e66:	7741                	lui	a4,0xffff0
   15e68:	8f69                	and	a4,a4,a0
   15e6a:	87aa                	mv	a5,a0
   15e6c:	4501                	li	a0,0
   15e6e:	e319                	bnez	a4,15e74 <__hi0bits+0xe>
   15e70:	07c2                	slli	a5,a5,0x10
   15e72:	4541                	li	a0,16
   15e74:	ff000737          	lui	a4,0xff000
   15e78:	8f7d                	and	a4,a4,a5
   15e7a:	e319                	bnez	a4,15e80 <__hi0bits+0x1a>
   15e7c:	0521                	addi	a0,a0,8
   15e7e:	07a2                	slli	a5,a5,0x8
   15e80:	f0000737          	lui	a4,0xf0000
   15e84:	8f7d                	and	a4,a4,a5
   15e86:	e319                	bnez	a4,15e8c <__hi0bits+0x26>
   15e88:	0511                	addi	a0,a0,4
   15e8a:	0792                	slli	a5,a5,0x4
   15e8c:	c0000737          	lui	a4,0xc0000
   15e90:	8f7d                	and	a4,a4,a5
   15e92:	e319                	bnez	a4,15e98 <__hi0bits+0x32>
   15e94:	0509                	addi	a0,a0,2
   15e96:	078a                	slli	a5,a5,0x2
   15e98:	0007c763          	bltz	a5,15ea6 <__hi0bits+0x40>
   15e9c:	40000737          	lui	a4,0x40000
   15ea0:	8ff9                	and	a5,a5,a4
   15ea2:	0505                	addi	a0,a0,1
   15ea4:	c391                	beqz	a5,15ea8 <__hi0bits+0x42>
   15ea6:	8082                	ret
   15ea8:	02000513          	li	a0,32
   15eac:	8082                	ret

00015eae <__lo0bits>:
   15eae:	411c                	lw	a5,0(a0)
   15eb0:	872a                	mv	a4,a0
   15eb2:	0077f693          	andi	a3,a5,7
   15eb6:	ce81                	beqz	a3,15ece <__lo0bits+0x20>
   15eb8:	0017f693          	andi	a3,a5,1
   15ebc:	4501                	li	a0,0
   15ebe:	ee95                	bnez	a3,15efa <__lo0bits+0x4c>
   15ec0:	0027f693          	andi	a3,a5,2
   15ec4:	c6b5                	beqz	a3,15f30 <__lo0bits+0x82>
   15ec6:	8385                	srli	a5,a5,0x1
   15ec8:	c31c                	sw	a5,0(a4)
   15eca:	4505                	li	a0,1
   15ecc:	8082                	ret
   15ece:	01079693          	slli	a3,a5,0x10
   15ed2:	82c1                	srli	a3,a3,0x10
   15ed4:	4501                	li	a0,0
   15ed6:	c6b9                	beqz	a3,15f24 <__lo0bits+0x76>
   15ed8:	0ff7f693          	andi	a3,a5,255
   15edc:	ce95                	beqz	a3,15f18 <__lo0bits+0x6a>
   15ede:	00f7f693          	andi	a3,a5,15
   15ee2:	c68d                	beqz	a3,15f0c <__lo0bits+0x5e>
   15ee4:	0037f693          	andi	a3,a5,3
   15ee8:	ce81                	beqz	a3,15f00 <__lo0bits+0x52>
   15eea:	0017f693          	andi	a3,a5,1
   15eee:	e699                	bnez	a3,15efc <__lo0bits+0x4e>
   15ef0:	8385                	srli	a5,a5,0x1
   15ef2:	0505                	addi	a0,a0,1
   15ef4:	e781                	bnez	a5,15efc <__lo0bits+0x4e>
   15ef6:	02000513          	li	a0,32
   15efa:	8082                	ret
   15efc:	c31c                	sw	a5,0(a4)
   15efe:	8082                	ret
   15f00:	8389                	srli	a5,a5,0x2
   15f02:	0017f693          	andi	a3,a5,1
   15f06:	0509                	addi	a0,a0,2
   15f08:	faf5                	bnez	a3,15efc <__lo0bits+0x4e>
   15f0a:	b7dd                	j	15ef0 <__lo0bits+0x42>
   15f0c:	8391                	srli	a5,a5,0x4
   15f0e:	0037f693          	andi	a3,a5,3
   15f12:	0511                	addi	a0,a0,4
   15f14:	faf9                	bnez	a3,15eea <__lo0bits+0x3c>
   15f16:	b7ed                	j	15f00 <__lo0bits+0x52>
   15f18:	83a1                	srli	a5,a5,0x8
   15f1a:	00f7f693          	andi	a3,a5,15
   15f1e:	0521                	addi	a0,a0,8
   15f20:	f2f1                	bnez	a3,15ee4 <__lo0bits+0x36>
   15f22:	b7ed                	j	15f0c <__lo0bits+0x5e>
   15f24:	83c1                	srli	a5,a5,0x10
   15f26:	0ff7f693          	andi	a3,a5,255
   15f2a:	4541                	li	a0,16
   15f2c:	facd                	bnez	a3,15ede <__lo0bits+0x30>
   15f2e:	b7ed                	j	15f18 <__lo0bits+0x6a>
   15f30:	8389                	srli	a5,a5,0x2
   15f32:	c31c                	sw	a5,0(a4)
   15f34:	4509                	li	a0,2
   15f36:	8082                	ret

00015f38 <__i2b>:
   15f38:	457c                	lw	a5,76(a0)
   15f3a:	1141                	addi	sp,sp,-16
   15f3c:	c422                	sw	s0,8(sp)
   15f3e:	c226                	sw	s1,4(sp)
   15f40:	c606                	sw	ra,12(sp)
   15f42:	842a                	mv	s0,a0
   15f44:	84ae                	mv	s1,a1
   15f46:	cf99                	beqz	a5,15f64 <__i2b+0x2c>
   15f48:	43c8                	lw	a0,4(a5)
   15f4a:	c131                	beqz	a0,15f8e <__i2b+0x56>
   15f4c:	4118                	lw	a4,0(a0)
   15f4e:	c3d8                	sw	a4,4(a5)
   15f50:	40b2                	lw	ra,12(sp)
   15f52:	4422                	lw	s0,8(sp)
   15f54:	4785                	li	a5,1
   15f56:	c944                	sw	s1,20(a0)
   15f58:	00052623          	sw	zero,12(a0)
   15f5c:	c91c                	sw	a5,16(a0)
   15f5e:	4492                	lw	s1,4(sp)
   15f60:	0141                	addi	sp,sp,16
   15f62:	8082                	ret
   15f64:	02100613          	li	a2,33
   15f68:	4591                	li	a1,4
   15f6a:	495030ef          	jal	ra,19bfe <_calloc_r>
   15f6e:	c468                	sw	a0,76(s0)
   15f70:	87aa                	mv	a5,a0
   15f72:	f979                	bnez	a0,15f48 <__i2b+0x10>
   15f74:	0001f6b7          	lui	a3,0x1f
   15f78:	0001f537          	lui	a0,0x1f
   15f7c:	8b068693          	addi	a3,a3,-1872 # 1e8b0 <zeroes.0+0x30>
   15f80:	4601                	li	a2,0
   15f82:	14000593          	li	a1,320
   15f86:	b9050513          	addi	a0,a0,-1136 # 1eb90 <bmask+0x34>
   15f8a:	41f030ef          	jal	ra,19ba8 <__assert_func>
   15f8e:	4671                	li	a2,28
   15f90:	4585                	li	a1,1
   15f92:	8522                	mv	a0,s0
   15f94:	46b030ef          	jal	ra,19bfe <_calloc_r>
   15f98:	dd71                	beqz	a0,15f74 <__i2b+0x3c>
   15f9a:	4785                	li	a5,1
   15f9c:	c15c                	sw	a5,4(a0)
   15f9e:	4789                	li	a5,2
   15fa0:	c51c                	sw	a5,8(a0)
   15fa2:	b77d                	j	15f50 <__i2b+0x18>

00015fa4 <__multiply>:
   15fa4:	1101                	addi	sp,sp,-32
   15fa6:	c84a                	sw	s2,16(sp)
   15fa8:	c64e                	sw	s3,12(sp)
   15faa:	0105a903          	lw	s2,16(a1)
   15fae:	01062983          	lw	s3,16(a2)
   15fb2:	ca26                	sw	s1,20(sp)
   15fb4:	c452                	sw	s4,8(sp)
   15fb6:	ce06                	sw	ra,28(sp)
   15fb8:	cc22                	sw	s0,24(sp)
   15fba:	8a2e                	mv	s4,a1
   15fbc:	84b2                	mv	s1,a2
   15fbe:	01394763          	blt	s2,s3,15fcc <__multiply+0x28>
   15fc2:	874e                	mv	a4,s3
   15fc4:	84ae                	mv	s1,a1
   15fc6:	89ca                	mv	s3,s2
   15fc8:	8a32                	mv	s4,a2
   15fca:	893a                	mv	s2,a4
   15fcc:	449c                	lw	a5,8(s1)
   15fce:	40cc                	lw	a1,4(s1)
   15fd0:	01298433          	add	s0,s3,s2
   15fd4:	0087a7b3          	slt	a5,a5,s0
   15fd8:	95be                	add	a1,a1,a5
   15fda:	31b5                	jal	15c46 <_Balloc>
   15fdc:	14050563          	beqz	a0,16126 <__multiply+0x182>
   15fe0:	01450313          	addi	t1,a0,20
   15fe4:	00241893          	slli	a7,s0,0x2
   15fe8:	989a                	add	a7,a7,t1
   15fea:	879a                	mv	a5,t1
   15fec:	01137763          	bgeu	t1,a7,15ffa <__multiply+0x56>
   15ff0:	0007a023          	sw	zero,0(a5)
   15ff4:	0791                	addi	a5,a5,4
   15ff6:	ff17ede3          	bltu	a5,a7,15ff0 <__multiply+0x4c>
   15ffa:	014a0813          	addi	a6,s4,20
   15ffe:	00291e13          	slli	t3,s2,0x2
   16002:	01448e93          	addi	t4,s1,20
   16006:	00299593          	slli	a1,s3,0x2
   1600a:	9e42                	add	t3,t3,a6
   1600c:	95f6                	add	a1,a1,t4
   1600e:	0fc87363          	bgeu	a6,t3,160f4 <__multiply+0x150>
   16012:	01548793          	addi	a5,s1,21
   16016:	4f11                	li	t5,4
   16018:	10f5f063          	bgeu	a1,a5,16118 <__multiply+0x174>
   1601c:	6641                	lui	a2,0x10
   1601e:	167d                	addi	a2,a2,-1
   16020:	a809                	j	16032 <__multiply+0x8e>
   16022:	010fdf93          	srli	t6,t6,0x10
   16026:	060f9a63          	bnez	t6,1609a <__multiply+0xf6>
   1602a:	0811                	addi	a6,a6,4
   1602c:	0311                	addi	t1,t1,4
   1602e:	0dc87363          	bgeu	a6,t3,160f4 <__multiply+0x150>
   16032:	00082f83          	lw	t6,0(a6)
   16036:	00cff4b3          	and	s1,t6,a2
   1603a:	d4e5                	beqz	s1,16022 <__multiply+0x7e>
   1603c:	839a                	mv	t2,t1
   1603e:	82f6                	mv	t0,t4
   16040:	4901                	li	s2,0
   16042:	0002a703          	lw	a4,0(t0) # 10378 <memset+0x8e>
   16046:	0003af83          	lw	t6,0(t2)
   1604a:	0391                	addi	t2,t2,4
   1604c:	00c776b3          	and	a3,a4,a2
   16050:	029686b3          	mul	a3,a3,s1
   16054:	01075793          	srli	a5,a4,0x10
   16058:	00cff733          	and	a4,t6,a2
   1605c:	010fdf93          	srli	t6,t6,0x10
   16060:	0291                	addi	t0,t0,4
   16062:	029787b3          	mul	a5,a5,s1
   16066:	96ba                	add	a3,a3,a4
   16068:	96ca                	add	a3,a3,s2
   1606a:	0106d713          	srli	a4,a3,0x10
   1606e:	8ef1                	and	a3,a3,a2
   16070:	97fe                	add	a5,a5,t6
   16072:	97ba                	add	a5,a5,a4
   16074:	01079713          	slli	a4,a5,0x10
   16078:	8ed9                	or	a3,a3,a4
   1607a:	fed3ae23          	sw	a3,-4(t2)
   1607e:	0107d913          	srli	s2,a5,0x10
   16082:	fcb2e0e3          	bltu	t0,a1,16042 <__multiply+0x9e>
   16086:	01e307b3          	add	a5,t1,t5
   1608a:	0127a023          	sw	s2,0(a5)
   1608e:	00082f83          	lw	t6,0(a6)
   16092:	010fdf93          	srli	t6,t6,0x10
   16096:	f80f8ae3          	beqz	t6,1602a <__multiply+0x86>
   1609a:	00032703          	lw	a4,0(t1) # 10000 <register_fini-0x74>
   1609e:	829a                	mv	t0,t1
   160a0:	86f6                	mv	a3,t4
   160a2:	84ba                	mv	s1,a4
   160a4:	4381                	li	t2,0
   160a6:	429c                	lw	a5,0(a3)
   160a8:	0104d993          	srli	s3,s1,0x10
   160ac:	8f71                	and	a4,a4,a2
   160ae:	8ff1                	and	a5,a5,a2
   160b0:	03f787b3          	mul	a5,a5,t6
   160b4:	0042a483          	lw	s1,4(t0)
   160b8:	0291                	addi	t0,t0,4
   160ba:	0691                	addi	a3,a3,4
   160bc:	00c4f933          	and	s2,s1,a2
   160c0:	97ce                	add	a5,a5,s3
   160c2:	979e                	add	a5,a5,t2
   160c4:	01079393          	slli	t2,a5,0x10
   160c8:	00e3e733          	or	a4,t2,a4
   160cc:	fee2ae23          	sw	a4,-4(t0)
   160d0:	ffe6d703          	lhu	a4,-2(a3)
   160d4:	83c1                	srli	a5,a5,0x10
   160d6:	03f70733          	mul	a4,a4,t6
   160da:	974a                	add	a4,a4,s2
   160dc:	973e                	add	a4,a4,a5
   160de:	01075393          	srli	t2,a4,0x10
   160e2:	fcb6e2e3          	bltu	a3,a1,160a6 <__multiply+0x102>
   160e6:	01e307b3          	add	a5,t1,t5
   160ea:	c398                	sw	a4,0(a5)
   160ec:	0811                	addi	a6,a6,4
   160ee:	0311                	addi	t1,t1,4
   160f0:	f5c861e3          	bltu	a6,t3,16032 <__multiply+0x8e>
   160f4:	00804563          	bgtz	s0,160fe <__multiply+0x15a>
   160f8:	a039                	j	16106 <__multiply+0x162>
   160fa:	147d                	addi	s0,s0,-1
   160fc:	c409                	beqz	s0,16106 <__multiply+0x162>
   160fe:	ffc8a783          	lw	a5,-4(a7)
   16102:	18f1                	addi	a7,a7,-4
   16104:	dbfd                	beqz	a5,160fa <__multiply+0x156>
   16106:	40f2                	lw	ra,28(sp)
   16108:	c900                	sw	s0,16(a0)
   1610a:	4462                	lw	s0,24(sp)
   1610c:	44d2                	lw	s1,20(sp)
   1610e:	4942                	lw	s2,16(sp)
   16110:	49b2                	lw	s3,12(sp)
   16112:	4a22                	lw	s4,8(sp)
   16114:	6105                	addi	sp,sp,32
   16116:	8082                	ret
   16118:	40958f33          	sub	t5,a1,s1
   1611c:	1f2d                	addi	t5,t5,-21
   1611e:	ffcf7f13          	andi	t5,t5,-4
   16122:	0f11                	addi	t5,t5,4
   16124:	bde5                	j	1601c <__multiply+0x78>
   16126:	0001f6b7          	lui	a3,0x1f
   1612a:	0001f537          	lui	a0,0x1f
   1612e:	8b068693          	addi	a3,a3,-1872 # 1e8b0 <zeroes.0+0x30>
   16132:	4601                	li	a2,0
   16134:	15d00593          	li	a1,349
   16138:	b9050513          	addi	a0,a0,-1136 # 1eb90 <bmask+0x34>
   1613c:	26d030ef          	jal	ra,19ba8 <__assert_func>

00016140 <__pow5mult>:
   16140:	1101                	addi	sp,sp,-32
   16142:	cc22                	sw	s0,24(sp)
   16144:	c84a                	sw	s2,16(sp)
   16146:	c64e                	sw	s3,12(sp)
   16148:	ce06                	sw	ra,28(sp)
   1614a:	ca26                	sw	s1,20(sp)
   1614c:	00367793          	andi	a5,a2,3
   16150:	8432                	mv	s0,a2
   16152:	89aa                	mv	s3,a0
   16154:	892e                	mv	s2,a1
   16156:	eba5                	bnez	a5,161c6 <__pow5mult+0x86>
   16158:	8409                	srai	s0,s0,0x2
   1615a:	c039                	beqz	s0,161a0 <__pow5mult+0x60>
   1615c:	0489a483          	lw	s1,72(s3)
   16160:	ccbd                	beqz	s1,161de <__pow5mult+0x9e>
   16162:	00147793          	andi	a5,s0,1
   16166:	eb89                	bnez	a5,16178 <__pow5mult+0x38>
   16168:	8405                	srai	s0,s0,0x1
   1616a:	c81d                	beqz	s0,161a0 <__pow5mult+0x60>
   1616c:	4088                	lw	a0,0(s1)
   1616e:	c129                	beqz	a0,161b0 <__pow5mult+0x70>
   16170:	84aa                	mv	s1,a0
   16172:	00147793          	andi	a5,s0,1
   16176:	dbed                	beqz	a5,16168 <__pow5mult+0x28>
   16178:	8626                	mv	a2,s1
   1617a:	85ca                	mv	a1,s2
   1617c:	854e                	mv	a0,s3
   1617e:	351d                	jal	15fa4 <__multiply>
   16180:	04090163          	beqz	s2,161c2 <__pow5mult+0x82>
   16184:	00492703          	lw	a4,4(s2)
   16188:	04c9a783          	lw	a5,76(s3)
   1618c:	8405                	srai	s0,s0,0x1
   1618e:	070a                	slli	a4,a4,0x2
   16190:	97ba                	add	a5,a5,a4
   16192:	4398                	lw	a4,0(a5)
   16194:	00e92023          	sw	a4,0(s2)
   16198:	0127a023          	sw	s2,0(a5)
   1619c:	892a                	mv	s2,a0
   1619e:	f479                	bnez	s0,1616c <__pow5mult+0x2c>
   161a0:	40f2                	lw	ra,28(sp)
   161a2:	4462                	lw	s0,24(sp)
   161a4:	44d2                	lw	s1,20(sp)
   161a6:	49b2                	lw	s3,12(sp)
   161a8:	854a                	mv	a0,s2
   161aa:	4942                	lw	s2,16(sp)
   161ac:	6105                	addi	sp,sp,32
   161ae:	8082                	ret
   161b0:	8626                	mv	a2,s1
   161b2:	85a6                	mv	a1,s1
   161b4:	854e                	mv	a0,s3
   161b6:	33fd                	jal	15fa4 <__multiply>
   161b8:	c088                	sw	a0,0(s1)
   161ba:	00052023          	sw	zero,0(a0)
   161be:	84aa                	mv	s1,a0
   161c0:	bf4d                	j	16172 <__pow5mult+0x32>
   161c2:	892a                	mv	s2,a0
   161c4:	b755                	j	16168 <__pow5mult+0x28>
   161c6:	17fd                	addi	a5,a5,-1
   161c8:	0001f737          	lui	a4,0x1f
   161cc:	bf070713          	addi	a4,a4,-1040 # 1ebf0 <p05.0>
   161d0:	078a                	slli	a5,a5,0x2
   161d2:	97ba                	add	a5,a5,a4
   161d4:	4390                	lw	a2,0(a5)
   161d6:	4681                	li	a3,0
   161d8:	34dd                	jal	15cbe <__multadd>
   161da:	892a                	mv	s2,a0
   161dc:	bfb5                	j	16158 <__pow5mult+0x18>
   161de:	4585                	li	a1,1
   161e0:	854e                	mv	a0,s3
   161e2:	3495                	jal	15c46 <_Balloc>
   161e4:	84aa                	mv	s1,a0
   161e6:	c919                	beqz	a0,161fc <__pow5mult+0xbc>
   161e8:	27100793          	li	a5,625
   161ec:	c95c                	sw	a5,20(a0)
   161ee:	4785                	li	a5,1
   161f0:	c91c                	sw	a5,16(a0)
   161f2:	04a9a423          	sw	a0,72(s3)
   161f6:	00052023          	sw	zero,0(a0)
   161fa:	b7a5                	j	16162 <__pow5mult+0x22>
   161fc:	0001f6b7          	lui	a3,0x1f
   16200:	0001f537          	lui	a0,0x1f
   16204:	8b068693          	addi	a3,a3,-1872 # 1e8b0 <zeroes.0+0x30>
   16208:	4601                	li	a2,0
   1620a:	14000593          	li	a1,320
   1620e:	b9050513          	addi	a0,a0,-1136 # 1eb90 <bmask+0x34>
   16212:	197030ef          	jal	ra,19ba8 <__assert_func>

00016216 <__lshift>:
   16216:	1101                	addi	sp,sp,-32
   16218:	c452                	sw	s4,8(sp)
   1621a:	0105aa03          	lw	s4,16(a1)
   1621e:	459c                	lw	a5,8(a1)
   16220:	c64e                	sw	s3,12(sp)
   16222:	40565993          	srai	s3,a2,0x5
   16226:	9a4e                	add	s4,s4,s3
   16228:	cc22                	sw	s0,24(sp)
   1622a:	ca26                	sw	s1,20(sp)
   1622c:	c84a                	sw	s2,16(sp)
   1622e:	c256                	sw	s5,4(sp)
   16230:	ce06                	sw	ra,28(sp)
   16232:	001a0913          	addi	s2,s4,1
   16236:	84ae                	mv	s1,a1
   16238:	8432                	mv	s0,a2
   1623a:	41cc                	lw	a1,4(a1)
   1623c:	8aaa                	mv	s5,a0
   1623e:	0127d663          	bge	a5,s2,1624a <__lshift+0x34>
   16242:	0786                	slli	a5,a5,0x1
   16244:	0585                	addi	a1,a1,1
   16246:	ff27cee3          	blt	a5,s2,16242 <__lshift+0x2c>
   1624a:	8556                	mv	a0,s5
   1624c:	3aed                	jal	15c46 <_Balloc>
   1624e:	cd5d                	beqz	a0,1630c <__lshift+0xf6>
   16250:	01450813          	addi	a6,a0,20
   16254:	01305e63          	blez	s3,16270 <__lshift+0x5a>
   16258:	0995                	addi	s3,s3,5
   1625a:	098a                	slli	s3,s3,0x2
   1625c:	01350733          	add	a4,a0,s3
   16260:	87c2                	mv	a5,a6
   16262:	0791                	addi	a5,a5,4
   16264:	fe07ae23          	sw	zero,-4(a5)
   16268:	fee79de3          	bne	a5,a4,16262 <__lshift+0x4c>
   1626c:	19b1                	addi	s3,s3,-20
   1626e:	984e                	add	a6,a6,s3
   16270:	4890                	lw	a2,16(s1)
   16272:	01448793          	addi	a5,s1,20
   16276:	01f47313          	andi	t1,s0,31
   1627a:	060a                	slli	a2,a2,0x2
   1627c:	963e                	add	a2,a2,a5
   1627e:	06030863          	beqz	t1,162ee <__lshift+0xd8>
   16282:	02000593          	li	a1,32
   16286:	406585b3          	sub	a1,a1,t1
   1628a:	88c2                	mv	a7,a6
   1628c:	4681                	li	a3,0
   1628e:	4398                	lw	a4,0(a5)
   16290:	0891                	addi	a7,a7,4
   16292:	0791                	addi	a5,a5,4
   16294:	00671733          	sll	a4,a4,t1
   16298:	8f55                	or	a4,a4,a3
   1629a:	fee8ae23          	sw	a4,-4(a7)
   1629e:	ffc7a703          	lw	a4,-4(a5)
   162a2:	00b756b3          	srl	a3,a4,a1
   162a6:	fec7e4e3          	bltu	a5,a2,1628e <__lshift+0x78>
   162aa:	01548713          	addi	a4,s1,21
   162ae:	4791                	li	a5,4
   162b0:	00e66763          	bltu	a2,a4,162be <__lshift+0xa8>
   162b4:	409607b3          	sub	a5,a2,s1
   162b8:	17ad                	addi	a5,a5,-21
   162ba:	9bf1                	andi	a5,a5,-4
   162bc:	0791                	addi	a5,a5,4
   162be:	983e                	add	a6,a6,a5
   162c0:	00d82023          	sw	a3,0(a6)
   162c4:	c291                	beqz	a3,162c8 <__lshift+0xb2>
   162c6:	8a4a                	mv	s4,s2
   162c8:	40d8                	lw	a4,4(s1)
   162ca:	04caa783          	lw	a5,76(s5) # fffff04c <__BSS_END__+0xfffde124>
   162ce:	40f2                	lw	ra,28(sp)
   162d0:	070a                	slli	a4,a4,0x2
   162d2:	97ba                	add	a5,a5,a4
   162d4:	4398                	lw	a4,0(a5)
   162d6:	01452823          	sw	s4,16(a0)
   162da:	4462                	lw	s0,24(sp)
   162dc:	c098                	sw	a4,0(s1)
   162de:	c384                	sw	s1,0(a5)
   162e0:	4942                	lw	s2,16(sp)
   162e2:	44d2                	lw	s1,20(sp)
   162e4:	49b2                	lw	s3,12(sp)
   162e6:	4a22                	lw	s4,8(sp)
   162e8:	4a92                	lw	s5,4(sp)
   162ea:	6105                	addi	sp,sp,32
   162ec:	8082                	ret
   162ee:	4398                	lw	a4,0(a5)
   162f0:	0791                	addi	a5,a5,4
   162f2:	0811                	addi	a6,a6,4
   162f4:	fee82e23          	sw	a4,-4(a6)
   162f8:	fcc7f8e3          	bgeu	a5,a2,162c8 <__lshift+0xb2>
   162fc:	4398                	lw	a4,0(a5)
   162fe:	0791                	addi	a5,a5,4
   16300:	0811                	addi	a6,a6,4
   16302:	fee82e23          	sw	a4,-4(a6)
   16306:	fec7e4e3          	bltu	a5,a2,162ee <__lshift+0xd8>
   1630a:	bf7d                	j	162c8 <__lshift+0xb2>
   1630c:	0001f6b7          	lui	a3,0x1f
   16310:	0001f537          	lui	a0,0x1f
   16314:	8b068693          	addi	a3,a3,-1872 # 1e8b0 <zeroes.0+0x30>
   16318:	4601                	li	a2,0
   1631a:	1d900593          	li	a1,473
   1631e:	b9050513          	addi	a0,a0,-1136 # 1eb90 <bmask+0x34>
   16322:	087030ef          	jal	ra,19ba8 <__assert_func>

00016326 <__mcmp>:
   16326:	4918                	lw	a4,16(a0)
   16328:	499c                	lw	a5,16(a1)
   1632a:	882a                	mv	a6,a0
   1632c:	40f70533          	sub	a0,a4,a5
   16330:	02f71a63          	bne	a4,a5,16364 <__mcmp+0x3e>
   16334:	078a                	slli	a5,a5,0x2
   16336:	0851                	addi	a6,a6,20
   16338:	05d1                	addi	a1,a1,20
   1633a:	00f80733          	add	a4,a6,a5
   1633e:	97ae                	add	a5,a5,a1
   16340:	a019                	j	16346 <__mcmp+0x20>
   16342:	02e87163          	bgeu	a6,a4,16364 <__mcmp+0x3e>
   16346:	ffc72683          	lw	a3,-4(a4)
   1634a:	ffc7a603          	lw	a2,-4(a5)
   1634e:	1771                	addi	a4,a4,-4
   16350:	17f1                	addi	a5,a5,-4
   16352:	fec688e3          	beq	a3,a2,16342 <__mcmp+0x1c>
   16356:	00c6b6b3          	sltu	a3,a3,a2
   1635a:	40d00533          	neg	a0,a3
   1635e:	00156513          	ori	a0,a0,1
   16362:	8082                	ret
   16364:	8082                	ret

00016366 <__mdiff>:
   16366:	499c                	lw	a5,16(a1)
   16368:	4a18                	lw	a4,16(a2)
   1636a:	1141                	addi	sp,sp,-16
   1636c:	c422                	sw	s0,8(sp)
   1636e:	c226                	sw	s1,4(sp)
   16370:	c04a                	sw	s2,0(sp)
   16372:	c606                	sw	ra,12(sp)
   16374:	84ae                	mv	s1,a1
   16376:	8432                	mv	s0,a2
   16378:	40e78933          	sub	s2,a5,a4
   1637c:	12e79463          	bne	a5,a4,164a4 <__mdiff+0x13e>
   16380:	00271693          	slli	a3,a4,0x2
   16384:	05d1                	addi	a1,a1,20
   16386:	01460713          	addi	a4,a2,20 # 10014 <register_fini-0x60>
   1638a:	00d587b3          	add	a5,a1,a3
   1638e:	9736                	add	a4,a4,a3
   16390:	a019                	j	16396 <__mdiff+0x30>
   16392:	10f5fd63          	bgeu	a1,a5,164ac <__mdiff+0x146>
   16396:	ffc7a603          	lw	a2,-4(a5)
   1639a:	ffc72683          	lw	a3,-4(a4)
   1639e:	17f1                	addi	a5,a5,-4
   163a0:	1771                	addi	a4,a4,-4
   163a2:	fed608e3          	beq	a2,a3,16392 <__mdiff+0x2c>
   163a6:	0ed66a63          	bltu	a2,a3,1649a <__mdiff+0x134>
   163aa:	40cc                	lw	a1,4(s1)
   163ac:	3869                	jal	15c46 <_Balloc>
   163ae:	10050d63          	beqz	a0,164c8 <__mdiff+0x162>
   163b2:	0104ae03          	lw	t3,16(s1)
   163b6:	01042283          	lw	t0,16(s0)
   163ba:	04d1                	addi	s1,s1,20
   163bc:	002e1e93          	slli	t4,t3,0x2
   163c0:	01440813          	addi	a6,s0,20
   163c4:	028a                	slli	t0,t0,0x2
   163c6:	01450f93          	addi	t6,a0,20
   163ca:	68c1                	lui	a7,0x10
   163cc:	01252623          	sw	s2,12(a0)
   163d0:	9ea6                	add	t4,t4,s1
   163d2:	92c2                	add	t0,t0,a6
   163d4:	8f7e                	mv	t5,t6
   163d6:	8326                	mv	t1,s1
   163d8:	4781                	li	a5,0
   163da:	18fd                	addi	a7,a7,-1
   163dc:	00032703          	lw	a4,0(t1)
   163e0:	00082583          	lw	a1,0(a6)
   163e4:	0f11                	addi	t5,t5,4
   163e6:	011776b3          	and	a3,a4,a7
   163ea:	96be                	add	a3,a3,a5
   163ec:	0115f7b3          	and	a5,a1,a7
   163f0:	8e9d                	sub	a3,a3,a5
   163f2:	81c1                	srli	a1,a1,0x10
   163f4:	01075793          	srli	a5,a4,0x10
   163f8:	8f8d                	sub	a5,a5,a1
   163fa:	4106d713          	srai	a4,a3,0x10
   163fe:	97ba                	add	a5,a5,a4
   16400:	01079713          	slli	a4,a5,0x10
   16404:	0116f6b3          	and	a3,a3,a7
   16408:	8ed9                	or	a3,a3,a4
   1640a:	0811                	addi	a6,a6,4
   1640c:	fedf2e23          	sw	a3,-4(t5)
   16410:	0311                	addi	t1,t1,4
   16412:	87c1                	srai	a5,a5,0x10
   16414:	fc5864e3          	bltu	a6,t0,163dc <__mdiff+0x76>
   16418:	408285b3          	sub	a1,t0,s0
   1641c:	15ad                	addi	a1,a1,-21
   1641e:	0455                	addi	s0,s0,21
   16420:	8189                	srli	a1,a1,0x2
   16422:	4701                	li	a4,0
   16424:	0082e463          	bltu	t0,s0,1642c <__mdiff+0xc6>
   16428:	00259713          	slli	a4,a1,0x2
   1642c:	977e                	add	a4,a4,t6
   1642e:	4811                	li	a6,4
   16430:	0082e563          	bltu	t0,s0,1643a <__mdiff+0xd4>
   16434:	0585                	addi	a1,a1,1
   16436:	00259813          	slli	a6,a1,0x2
   1643a:	94c2                	add	s1,s1,a6
   1643c:	9fc2                	add	t6,t6,a6
   1643e:	05d4f063          	bgeu	s1,t4,1647e <__mdiff+0x118>
   16442:	68c1                	lui	a7,0x10
   16444:	887e                	mv	a6,t6
   16446:	85a6                	mv	a1,s1
   16448:	18fd                	addi	a7,a7,-1
   1644a:	4198                	lw	a4,0(a1)
   1644c:	0811                	addi	a6,a6,4
   1644e:	0591                	addi	a1,a1,4
   16450:	01177633          	and	a2,a4,a7
   16454:	963e                	add	a2,a2,a5
   16456:	41065693          	srai	a3,a2,0x10
   1645a:	01075793          	srli	a5,a4,0x10
   1645e:	97b6                	add	a5,a5,a3
   16460:	01079693          	slli	a3,a5,0x10
   16464:	01167633          	and	a2,a2,a7
   16468:	8ed1                	or	a3,a3,a2
   1646a:	fed82e23          	sw	a3,-4(a6)
   1646e:	87c1                	srai	a5,a5,0x10
   16470:	fdd5ede3          	bltu	a1,t4,1644a <__mdiff+0xe4>
   16474:	fffe8713          	addi	a4,t4,-1
   16478:	8f05                	sub	a4,a4,s1
   1647a:	9b71                	andi	a4,a4,-4
   1647c:	977e                	add	a4,a4,t6
   1647e:	e691                	bnez	a3,1648a <__mdiff+0x124>
   16480:	ffc72783          	lw	a5,-4(a4)
   16484:	1e7d                	addi	t3,t3,-1
   16486:	1771                	addi	a4,a4,-4
   16488:	dfe5                	beqz	a5,16480 <__mdiff+0x11a>
   1648a:	40b2                	lw	ra,12(sp)
   1648c:	4422                	lw	s0,8(sp)
   1648e:	01c52823          	sw	t3,16(a0)
   16492:	4492                	lw	s1,4(sp)
   16494:	4902                	lw	s2,0(sp)
   16496:	0141                	addi	sp,sp,16
   16498:	8082                	ret
   1649a:	87a6                	mv	a5,s1
   1649c:	4905                	li	s2,1
   1649e:	84a2                	mv	s1,s0
   164a0:	843e                	mv	s0,a5
   164a2:	b721                	j	163aa <__mdiff+0x44>
   164a4:	fe094be3          	bltz	s2,1649a <__mdiff+0x134>
   164a8:	4901                	li	s2,0
   164aa:	b701                	j	163aa <__mdiff+0x44>
   164ac:	4581                	li	a1,0
   164ae:	f98ff0ef          	jal	ra,15c46 <_Balloc>
   164b2:	c905                	beqz	a0,164e2 <__mdiff+0x17c>
   164b4:	40b2                	lw	ra,12(sp)
   164b6:	4422                	lw	s0,8(sp)
   164b8:	4785                	li	a5,1
   164ba:	c91c                	sw	a5,16(a0)
   164bc:	00052a23          	sw	zero,20(a0)
   164c0:	4492                	lw	s1,4(sp)
   164c2:	4902                	lw	s2,0(sp)
   164c4:	0141                	addi	sp,sp,16
   164c6:	8082                	ret
   164c8:	0001f6b7          	lui	a3,0x1f
   164cc:	0001f537          	lui	a0,0x1f
   164d0:	8b068693          	addi	a3,a3,-1872 # 1e8b0 <zeroes.0+0x30>
   164d4:	4601                	li	a2,0
   164d6:	24000593          	li	a1,576
   164da:	b9050513          	addi	a0,a0,-1136 # 1eb90 <bmask+0x34>
   164de:	6ca030ef          	jal	ra,19ba8 <__assert_func>
   164e2:	0001f6b7          	lui	a3,0x1f
   164e6:	0001f537          	lui	a0,0x1f
   164ea:	8b068693          	addi	a3,a3,-1872 # 1e8b0 <zeroes.0+0x30>
   164ee:	4601                	li	a2,0
   164f0:	23200593          	li	a1,562
   164f4:	b9050513          	addi	a0,a0,-1136 # 1eb90 <bmask+0x34>
   164f8:	6b0030ef          	jal	ra,19ba8 <__assert_func>

000164fc <__ulp>:
   164fc:	7ff007b7          	lui	a5,0x7ff00
   16500:	8dfd                	and	a1,a1,a5
   16502:	fcc007b7          	lui	a5,0xfcc00
   16506:	95be                	add	a1,a1,a5
   16508:	00b05563          	blez	a1,16512 <__ulp+0x16>
   1650c:	4781                	li	a5,0
   1650e:	853e                	mv	a0,a5
   16510:	8082                	ret
   16512:	40b005b3          	neg	a1,a1
   16516:	85d1                	srai	a1,a1,0x14
   16518:	47cd                	li	a5,19
   1651a:	00b7c763          	blt	a5,a1,16528 <__ulp+0x2c>
   1651e:	000807b7          	lui	a5,0x80
   16522:	40b7d5b3          	sra	a1,a5,a1
   16526:	b7dd                	j	1650c <__ulp+0x10>
   16528:	fec58713          	addi	a4,a1,-20
   1652c:	46f9                	li	a3,30
   1652e:	4581                	li	a1,0
   16530:	4785                	li	a5,1
   16532:	fce6cee3          	blt	a3,a4,1650e <__ulp+0x12>
   16536:	800007b7          	lui	a5,0x80000
   1653a:	00e7d7b3          	srl	a5,a5,a4
   1653e:	853e                	mv	a0,a5
   16540:	8082                	ret

00016542 <__b2d>:
   16542:	1101                	addi	sp,sp,-32
   16544:	ca26                	sw	s1,20(sp)
   16546:	4904                	lw	s1,16(a0)
   16548:	cc22                	sw	s0,24(sp)
   1654a:	01450413          	addi	s0,a0,20
   1654e:	048a                	slli	s1,s1,0x2
   16550:	94a2                	add	s1,s1,s0
   16552:	c84a                	sw	s2,16(sp)
   16554:	ffc4a903          	lw	s2,-4(s1)
   16558:	c64e                	sw	s3,12(sp)
   1655a:	c452                	sw	s4,8(sp)
   1655c:	854a                	mv	a0,s2
   1655e:	89ae                	mv	s3,a1
   16560:	ce06                	sw	ra,28(sp)
   16562:	3211                	jal	15e66 <__hi0bits>
   16564:	02000713          	li	a4,32
   16568:	40a707b3          	sub	a5,a4,a0
   1656c:	00f9a023          	sw	a5,0(s3)
   16570:	47a9                	li	a5,10
   16572:	ffc48a13          	addi	s4,s1,-4
   16576:	06a7d063          	bge	a5,a0,165d6 <__b2d+0x94>
   1657a:	1555                	addi	a0,a0,-11
   1657c:	03447d63          	bgeu	s0,s4,165b6 <__b2d+0x74>
   16580:	ff84a783          	lw	a5,-8(s1)
   16584:	c91d                	beqz	a0,165ba <__b2d+0x78>
   16586:	40a706b3          	sub	a3,a4,a0
   1658a:	00d7d733          	srl	a4,a5,a3
   1658e:	00a91933          	sll	s2,s2,a0
   16592:	00e96933          	or	s2,s2,a4
   16596:	ff848613          	addi	a2,s1,-8
   1659a:	3ff00737          	lui	a4,0x3ff00
   1659e:	00e96733          	or	a4,s2,a4
   165a2:	00a797b3          	sll	a5,a5,a0
   165a6:	00c47e63          	bgeu	s0,a2,165c2 <__b2d+0x80>
   165aa:	ff44a603          	lw	a2,-12(s1)
   165ae:	00d656b3          	srl	a3,a2,a3
   165b2:	8fd5                	or	a5,a5,a3
   165b4:	a039                	j	165c2 <__b2d+0x80>
   165b6:	4781                	li	a5,0
   165b8:	e131                	bnez	a0,165fc <__b2d+0xba>
   165ba:	3ff00737          	lui	a4,0x3ff00
   165be:	00e96733          	or	a4,s2,a4
   165c2:	40f2                	lw	ra,28(sp)
   165c4:	4462                	lw	s0,24(sp)
   165c6:	44d2                	lw	s1,20(sp)
   165c8:	4942                	lw	s2,16(sp)
   165ca:	49b2                	lw	s3,12(sp)
   165cc:	4a22                	lw	s4,8(sp)
   165ce:	853e                	mv	a0,a5
   165d0:	85ba                	mv	a1,a4
   165d2:	6105                	addi	sp,sp,32
   165d4:	8082                	ret
   165d6:	46ad                	li	a3,11
   165d8:	8e89                	sub	a3,a3,a0
   165da:	3ff007b7          	lui	a5,0x3ff00
   165de:	00d95733          	srl	a4,s2,a3
   165e2:	8f5d                	or	a4,a4,a5
   165e4:	4781                	li	a5,0
   165e6:	01447663          	bgeu	s0,s4,165f2 <__b2d+0xb0>
   165ea:	ff84a783          	lw	a5,-8(s1)
   165ee:	00d7d7b3          	srl	a5,a5,a3
   165f2:	0555                	addi	a0,a0,21
   165f4:	00a91533          	sll	a0,s2,a0
   165f8:	8fc9                	or	a5,a5,a0
   165fa:	b7e1                	j	165c2 <__b2d+0x80>
   165fc:	00a91533          	sll	a0,s2,a0
   16600:	3ff00737          	lui	a4,0x3ff00
   16604:	8f49                	or	a4,a4,a0
   16606:	4781                	li	a5,0
   16608:	bf6d                	j	165c2 <__b2d+0x80>

0001660a <__d2b>:
   1660a:	7179                	addi	sp,sp,-48
   1660c:	ca56                	sw	s5,20(sp)
   1660e:	8aae                	mv	s5,a1
   16610:	4585                	li	a1,1
   16612:	d04a                	sw	s2,32(sp)
   16614:	ce4e                	sw	s3,28(sp)
   16616:	cc52                	sw	s4,24(sp)
   16618:	d606                	sw	ra,44(sp)
   1661a:	d422                	sw	s0,40(sp)
   1661c:	d226                	sw	s1,36(sp)
   1661e:	8932                	mv	s2,a2
   16620:	8a36                	mv	s4,a3
   16622:	89ba                	mv	s3,a4
   16624:	e22ff0ef          	jal	ra,15c46 <_Balloc>
   16628:	c95d                	beqz	a0,166de <__d2b+0xd4>
   1662a:	001007b7          	lui	a5,0x100
   1662e:	01495493          	srli	s1,s2,0x14
   16632:	fff78613          	addi	a2,a5,-1 # fffff <__BSS_END__+0xdf0d7>
   16636:	7ff4f493          	andi	s1,s1,2047
   1663a:	842a                	mv	s0,a0
   1663c:	01267633          	and	a2,a2,s2
   16640:	c091                	beqz	s1,16644 <__d2b+0x3a>
   16642:	8e5d                	or	a2,a2,a5
   16644:	c632                	sw	a2,12(sp)
   16646:	040a8f63          	beqz	s5,166a4 <__d2b+0x9a>
   1664a:	0028                	addi	a0,sp,8
   1664c:	c456                	sw	s5,8(sp)
   1664e:	3085                	jal	15eae <__lo0bits>
   16650:	4732                	lw	a4,12(sp)
   16652:	87aa                	mv	a5,a0
   16654:	c151                	beqz	a0,166d8 <__d2b+0xce>
   16656:	4622                	lw	a2,8(sp)
   16658:	02000693          	li	a3,32
   1665c:	8e89                	sub	a3,a3,a0
   1665e:	00d716b3          	sll	a3,a4,a3
   16662:	8ed1                	or	a3,a3,a2
   16664:	00a75733          	srl	a4,a4,a0
   16668:	c854                	sw	a3,20(s0)
   1666a:	c63a                	sw	a4,12(sp)
   1666c:	00e03933          	snez	s2,a4
   16670:	0905                	addi	s2,s2,1
   16672:	cc18                	sw	a4,24(s0)
   16674:	01242823          	sw	s2,16(s0)
   16678:	c0a1                	beqz	s1,166b8 <__d2b+0xae>
   1667a:	bcd48493          	addi	s1,s1,-1075
   1667e:	94be                	add	s1,s1,a5
   16680:	03500513          	li	a0,53
   16684:	009a2023          	sw	s1,0(s4)
   16688:	40f507b3          	sub	a5,a0,a5
   1668c:	00f9a023          	sw	a5,0(s3)
   16690:	50b2                	lw	ra,44(sp)
   16692:	8522                	mv	a0,s0
   16694:	5422                	lw	s0,40(sp)
   16696:	5492                	lw	s1,36(sp)
   16698:	5902                	lw	s2,32(sp)
   1669a:	49f2                	lw	s3,28(sp)
   1669c:	4a62                	lw	s4,24(sp)
   1669e:	4ad2                	lw	s5,20(sp)
   166a0:	6145                	addi	sp,sp,48
   166a2:	8082                	ret
   166a4:	0068                	addi	a0,sp,12
   166a6:	3021                	jal	15eae <__lo0bits>
   166a8:	4785                	li	a5,1
   166aa:	c81c                	sw	a5,16(s0)
   166ac:	47b2                	lw	a5,12(sp)
   166ae:	4905                	li	s2,1
   166b0:	c85c                	sw	a5,20(s0)
   166b2:	02050793          	addi	a5,a0,32
   166b6:	f0f1                	bnez	s1,1667a <__d2b+0x70>
   166b8:	00291713          	slli	a4,s2,0x2
   166bc:	9722                	add	a4,a4,s0
   166be:	4b08                	lw	a0,16(a4)
   166c0:	bce78793          	addi	a5,a5,-1074
   166c4:	00fa2023          	sw	a5,0(s4)
   166c8:	f9eff0ef          	jal	ra,15e66 <__hi0bits>
   166cc:	0916                	slli	s2,s2,0x5
   166ce:	40a90933          	sub	s2,s2,a0
   166d2:	0129a023          	sw	s2,0(s3)
   166d6:	bf6d                	j	16690 <__d2b+0x86>
   166d8:	46a2                	lw	a3,8(sp)
   166da:	c854                	sw	a3,20(s0)
   166dc:	bf41                	j	1666c <__d2b+0x62>
   166de:	0001f6b7          	lui	a3,0x1f
   166e2:	0001f537          	lui	a0,0x1f
   166e6:	8b068693          	addi	a3,a3,-1872 # 1e8b0 <zeroes.0+0x30>
   166ea:	4601                	li	a2,0
   166ec:	30a00593          	li	a1,778
   166f0:	b9050513          	addi	a0,a0,-1136 # 1eb90 <bmask+0x34>
   166f4:	4b4030ef          	jal	ra,19ba8 <__assert_func>

000166f8 <__ratio>:
   166f8:	7179                	addi	sp,sp,-48
   166fa:	d04a                	sw	s2,32(sp)
   166fc:	892e                	mv	s2,a1
   166fe:	002c                	addi	a1,sp,8
   16700:	d606                	sw	ra,44(sp)
   16702:	d422                	sw	s0,40(sp)
   16704:	d226                	sw	s1,36(sp)
   16706:	ce4e                	sw	s3,28(sp)
   16708:	89aa                	mv	s3,a0
   1670a:	3d25                	jal	16542 <__b2d>
   1670c:	84aa                	mv	s1,a0
   1670e:	842e                	mv	s0,a1
   16710:	854a                	mv	a0,s2
   16712:	006c                	addi	a1,sp,12
   16714:	353d                	jal	16542 <__b2d>
   16716:	01092703          	lw	a4,16(s2)
   1671a:	0109a783          	lw	a5,16(s3)
   1671e:	46b2                	lw	a3,12(sp)
   16720:	8f99                	sub	a5,a5,a4
   16722:	4722                	lw	a4,8(sp)
   16724:	0796                	slli	a5,a5,0x5
   16726:	8f15                	sub	a4,a4,a3
   16728:	97ba                	add	a5,a5,a4
   1672a:	872a                	mv	a4,a0
   1672c:	02f05163          	blez	a5,1674e <__ratio+0x56>
   16730:	07d2                	slli	a5,a5,0x14
   16732:	943e                	add	s0,s0,a5
   16734:	86ae                	mv	a3,a1
   16736:	8526                	mv	a0,s1
   16738:	85a2                	mv	a1,s0
   1673a:	863a                	mv	a2,a4
   1673c:	462050ef          	jal	ra,1bb9e <__divdf3>
   16740:	50b2                	lw	ra,44(sp)
   16742:	5422                	lw	s0,40(sp)
   16744:	5492                	lw	s1,36(sp)
   16746:	5902                	lw	s2,32(sp)
   16748:	49f2                	lw	s3,28(sp)
   1674a:	6145                	addi	sp,sp,48
   1674c:	8082                	ret
   1674e:	07d2                	slli	a5,a5,0x14
   16750:	8d9d                	sub	a1,a1,a5
   16752:	b7cd                	j	16734 <__ratio+0x3c>

00016754 <_mprec_log10>:
   16754:	1141                	addi	sp,sp,-16
   16756:	c04a                	sw	s2,0(sp)
   16758:	c606                	sw	ra,12(sp)
   1675a:	c422                	sw	s0,8(sp)
   1675c:	c226                	sw	s1,4(sp)
   1675e:	47dd                	li	a5,23
   16760:	892a                	mv	s2,a0
   16762:	02a7da63          	bge	a5,a0,16796 <_mprec_log10+0x42>
   16766:	1a01a783          	lw	a5,416(gp) # 20ea0 <__SDATA_BEGIN__>
   1676a:	1a41a583          	lw	a1,420(gp) # 20ea4 <__SDATA_BEGIN__+0x4>
   1676e:	1a81a403          	lw	s0,424(gp) # 20ea8 <__SDATA_BEGIN__+0x8>
   16772:	1ac1a483          	lw	s1,428(gp) # 20eac <__SDATA_BEGIN__+0xc>
   16776:	853e                	mv	a0,a5
   16778:	8622                	mv	a2,s0
   1677a:	86a6                	mv	a3,s1
   1677c:	161050ef          	jal	ra,1c0dc <__muldf3>
   16780:	197d                	addi	s2,s2,-1
   16782:	87aa                	mv	a5,a0
   16784:	fe0919e3          	bnez	s2,16776 <_mprec_log10+0x22>
   16788:	40b2                	lw	ra,12(sp)
   1678a:	4422                	lw	s0,8(sp)
   1678c:	4492                	lw	s1,4(sp)
   1678e:	4902                	lw	s2,0(sp)
   16790:	853e                	mv	a0,a5
   16792:	0141                	addi	sp,sp,16
   16794:	8082                	ret
   16796:	0001f7b7          	lui	a5,0x1f
   1679a:	00351913          	slli	s2,a0,0x3
   1679e:	bf078793          	addi	a5,a5,-1040 # 1ebf0 <p05.0>
   167a2:	993e                	add	s2,s2,a5
   167a4:	01092783          	lw	a5,16(s2)
   167a8:	40b2                	lw	ra,12(sp)
   167aa:	4422                	lw	s0,8(sp)
   167ac:	01492583          	lw	a1,20(s2)
   167b0:	4492                	lw	s1,4(sp)
   167b2:	4902                	lw	s2,0(sp)
   167b4:	853e                	mv	a0,a5
   167b6:	0141                	addi	sp,sp,16
   167b8:	8082                	ret

000167ba <__copybits>:
   167ba:	4a14                	lw	a3,16(a2)
   167bc:	15fd                	addi	a1,a1,-1
   167be:	8595                	srai	a1,a1,0x5
   167c0:	0585                	addi	a1,a1,1
   167c2:	01460793          	addi	a5,a2,20
   167c6:	068a                	slli	a3,a3,0x2
   167c8:	058a                	slli	a1,a1,0x2
   167ca:	96be                	add	a3,a3,a5
   167cc:	95aa                	add	a1,a1,a0
   167ce:	02d7f163          	bgeu	a5,a3,167f0 <__copybits+0x36>
   167d2:	872a                	mv	a4,a0
   167d4:	0007a803          	lw	a6,0(a5)
   167d8:	0791                	addi	a5,a5,4
   167da:	0711                	addi	a4,a4,4
   167dc:	ff072e23          	sw	a6,-4(a4) # 3feffffc <__BSS_END__+0x3fedf0d4>
   167e0:	fed7eae3          	bltu	a5,a3,167d4 <__copybits+0x1a>
   167e4:	40c687b3          	sub	a5,a3,a2
   167e8:	17ad                	addi	a5,a5,-21
   167ea:	9bf1                	andi	a5,a5,-4
   167ec:	0791                	addi	a5,a5,4
   167ee:	953e                	add	a0,a0,a5
   167f0:	00b57763          	bgeu	a0,a1,167fe <__copybits+0x44>
   167f4:	0511                	addi	a0,a0,4
   167f6:	fe052e23          	sw	zero,-4(a0)
   167fa:	feb56de3          	bltu	a0,a1,167f4 <__copybits+0x3a>
   167fe:	8082                	ret

00016800 <__any_on>:
   16800:	4918                	lw	a4,16(a0)
   16802:	4055d613          	srai	a2,a1,0x5
   16806:	01450693          	addi	a3,a0,20
   1680a:	00c75d63          	bge	a4,a2,16824 <__any_on+0x24>
   1680e:	00271793          	slli	a5,a4,0x2
   16812:	97b6                	add	a5,a5,a3
   16814:	02f6f863          	bgeu	a3,a5,16844 <__any_on+0x44>
   16818:	ffc7a703          	lw	a4,-4(a5)
   1681c:	17f1                	addi	a5,a5,-4
   1681e:	db7d                	beqz	a4,16814 <__any_on+0x14>
   16820:	4505                	li	a0,1
   16822:	8082                	ret
   16824:	00261793          	slli	a5,a2,0x2
   16828:	97b6                	add	a5,a5,a3
   1682a:	fee655e3          	bge	a2,a4,16814 <__any_on+0x14>
   1682e:	89fd                	andi	a1,a1,31
   16830:	d1f5                	beqz	a1,16814 <__any_on+0x14>
   16832:	4390                	lw	a2,0(a5)
   16834:	4505                	li	a0,1
   16836:	00b65733          	srl	a4,a2,a1
   1683a:	00b715b3          	sll	a1,a4,a1
   1683e:	fcb60be3          	beq	a2,a1,16814 <__any_on+0x14>
   16842:	8082                	ret
   16844:	4501                	li	a0,0
   16846:	8082                	ret

00016848 <_realloc_r>:
   16848:	7179                	addi	sp,sp,-48
   1684a:	d04a                	sw	s2,32(sp)
   1684c:	d606                	sw	ra,44(sp)
   1684e:	d422                	sw	s0,40(sp)
   16850:	d226                	sw	s1,36(sp)
   16852:	ce4e                	sw	s3,28(sp)
   16854:	cc52                	sw	s4,24(sp)
   16856:	ca56                	sw	s5,20(sp)
   16858:	c85a                	sw	s6,16(sp)
   1685a:	c65e                	sw	s7,12(sp)
   1685c:	c462                	sw	s8,8(sp)
   1685e:	8932                	mv	s2,a2
   16860:	14058663          	beqz	a1,169ac <_realloc_r+0x164>
   16864:	842e                	mv	s0,a1
   16866:	89aa                	mv	s3,a0
   16868:	bdaff0ef          	jal	ra,15c42 <__malloc_lock>
   1686c:	00b90493          	addi	s1,s2,11
   16870:	47d9                	li	a5,22
   16872:	0a97fe63          	bgeu	a5,s1,1692e <_realloc_r+0xe6>
   16876:	98e1                	andi	s1,s1,-8
   16878:	8726                	mv	a4,s1
   1687a:	0a04ce63          	bltz	s1,16936 <_realloc_r+0xee>
   1687e:	0b24ec63          	bltu	s1,s2,16936 <_realloc_r+0xee>
   16882:	ffc42783          	lw	a5,-4(s0)
   16886:	ff840a93          	addi	s5,s0,-8
   1688a:	ffc7fa13          	andi	s4,a5,-4
   1688e:	014a8b33          	add	s6,s5,s4
   16892:	0cea5c63          	bge	s4,a4,1696a <_realloc_r+0x122>
   16896:	d9418b93          	addi	s7,gp,-620 # 20a94 <__malloc_av_>
   1689a:	008ba603          	lw	a2,8(s7)
   1689e:	004b2683          	lw	a3,4(s6)
   168a2:	15660663          	beq	a2,s6,169ee <_realloc_r+0x1a6>
   168a6:	ffe6f613          	andi	a2,a3,-2
   168aa:	965a                	add	a2,a2,s6
   168ac:	4250                	lw	a2,4(a2)
   168ae:	8a05                	andi	a2,a2,1
   168b0:	e665                	bnez	a2,16998 <_realloc_r+0x150>
   168b2:	9af1                	andi	a3,a3,-4
   168b4:	00da0633          	add	a2,s4,a3
   168b8:	0ae65063          	bge	a2,a4,16958 <_realloc_r+0x110>
   168bc:	8b85                	andi	a5,a5,1
   168be:	e38d                	bnez	a5,168e0 <_realloc_r+0x98>
   168c0:	ff842c03          	lw	s8,-8(s0)
   168c4:	418a8c33          	sub	s8,s5,s8
   168c8:	004c2783          	lw	a5,4(s8)
   168cc:	9bf1                	andi	a5,a5,-4
   168ce:	96be                	add	a3,a3,a5
   168d0:	01468bb3          	add	s7,a3,s4
   168d4:	24ebdf63          	bge	s7,a4,16b32 <_realloc_r+0x2ea>
   168d8:	00fa0bb3          	add	s7,s4,a5
   168dc:	1eebdd63          	bge	s7,a4,16ad6 <_realloc_r+0x28e>
   168e0:	85ca                	mv	a1,s2
   168e2:	854e                	mv	a0,s3
   168e4:	b23fe0ef          	jal	ra,15406 <_malloc_r>
   168e8:	892a                	mv	s2,a0
   168ea:	cd15                	beqz	a0,16926 <_realloc_r+0xde>
   168ec:	ffc42783          	lw	a5,-4(s0)
   168f0:	ff850713          	addi	a4,a0,-8
   168f4:	9bf9                	andi	a5,a5,-2
   168f6:	97d6                	add	a5,a5,s5
   168f8:	1ce78863          	beq	a5,a4,16ac8 <_realloc_r+0x280>
   168fc:	ffca0613          	addi	a2,s4,-4
   16900:	02400793          	li	a5,36
   16904:	22c7e363          	bltu	a5,a2,16b2a <_realloc_r+0x2e2>
   16908:	474d                	li	a4,19
   1690a:	4014                	lw	a3,0(s0)
   1690c:	16c76e63          	bltu	a4,a2,16a88 <_realloc_r+0x240>
   16910:	87aa                	mv	a5,a0
   16912:	8722                	mv	a4,s0
   16914:	c394                	sw	a3,0(a5)
   16916:	4354                	lw	a3,4(a4)
   16918:	c3d4                	sw	a3,4(a5)
   1691a:	4718                	lw	a4,8(a4)
   1691c:	c798                	sw	a4,8(a5)
   1691e:	85a2                	mv	a1,s0
   16920:	854e                	mv	a0,s3
   16922:	a3cfc0ef          	jal	ra,12b5e <_free_r>
   16926:	854e                	mv	a0,s3
   16928:	b1cff0ef          	jal	ra,15c44 <__malloc_unlock>
   1692c:	a809                	j	1693e <_realloc_r+0xf6>
   1692e:	44c1                	li	s1,16
   16930:	4741                	li	a4,16
   16932:	f524f8e3          	bgeu	s1,s2,16882 <_realloc_r+0x3a>
   16936:	47b1                	li	a5,12
   16938:	00f9a023          	sw	a5,0(s3)
   1693c:	4901                	li	s2,0
   1693e:	50b2                	lw	ra,44(sp)
   16940:	5422                	lw	s0,40(sp)
   16942:	5492                	lw	s1,36(sp)
   16944:	49f2                	lw	s3,28(sp)
   16946:	4a62                	lw	s4,24(sp)
   16948:	4ad2                	lw	s5,20(sp)
   1694a:	4b42                	lw	s6,16(sp)
   1694c:	4bb2                	lw	s7,12(sp)
   1694e:	4c22                	lw	s8,8(sp)
   16950:	854a                	mv	a0,s2
   16952:	5902                	lw	s2,32(sp)
   16954:	6145                	addi	sp,sp,48
   16956:	8082                	ret
   16958:	00cb2783          	lw	a5,12(s6)
   1695c:	008b2703          	lw	a4,8(s6)
   16960:	8a32                	mv	s4,a2
   16962:	00ca8b33          	add	s6,s5,a2
   16966:	c75c                	sw	a5,12(a4)
   16968:	c798                	sw	a4,8(a5)
   1696a:	004aa783          	lw	a5,4(s5)
   1696e:	409a0733          	sub	a4,s4,s1
   16972:	46bd                	li	a3,15
   16974:	8b85                	andi	a5,a5,1
   16976:	04e6e963          	bltu	a3,a4,169c8 <_realloc_r+0x180>
   1697a:	00fa67b3          	or	a5,s4,a5
   1697e:	00faa223          	sw	a5,4(s5)
   16982:	004b2783          	lw	a5,4(s6)
   16986:	0017e793          	ori	a5,a5,1
   1698a:	00fb2223          	sw	a5,4(s6)
   1698e:	854e                	mv	a0,s3
   16990:	ab4ff0ef          	jal	ra,15c44 <__malloc_unlock>
   16994:	8922                	mv	s2,s0
   16996:	b765                	j	1693e <_realloc_r+0xf6>
   16998:	8b85                	andi	a5,a5,1
   1699a:	f3b9                	bnez	a5,168e0 <_realloc_r+0x98>
   1699c:	ff842c03          	lw	s8,-8(s0)
   169a0:	418a8c33          	sub	s8,s5,s8
   169a4:	004c2783          	lw	a5,4(s8)
   169a8:	9bf1                	andi	a5,a5,-4
   169aa:	b73d                	j	168d8 <_realloc_r+0x90>
   169ac:	5422                	lw	s0,40(sp)
   169ae:	50b2                	lw	ra,44(sp)
   169b0:	5492                	lw	s1,36(sp)
   169b2:	5902                	lw	s2,32(sp)
   169b4:	49f2                	lw	s3,28(sp)
   169b6:	4a62                	lw	s4,24(sp)
   169b8:	4ad2                	lw	s5,20(sp)
   169ba:	4b42                	lw	s6,16(sp)
   169bc:	4bb2                	lw	s7,12(sp)
   169be:	4c22                	lw	s8,8(sp)
   169c0:	85b2                	mv	a1,a2
   169c2:	6145                	addi	sp,sp,48
   169c4:	a43fe06f          	j	15406 <_malloc_r>
   169c8:	8fc5                	or	a5,a5,s1
   169ca:	00faa223          	sw	a5,4(s5)
   169ce:	009a85b3          	add	a1,s5,s1
   169d2:	00176713          	ori	a4,a4,1
   169d6:	c1d8                	sw	a4,4(a1)
   169d8:	004b2783          	lw	a5,4(s6)
   169dc:	05a1                	addi	a1,a1,8
   169de:	854e                	mv	a0,s3
   169e0:	0017e793          	ori	a5,a5,1
   169e4:	00fb2223          	sw	a5,4(s6)
   169e8:	976fc0ef          	jal	ra,12b5e <_free_r>
   169ec:	b74d                	j	1698e <_realloc_r+0x146>
   169ee:	9af1                	andi	a3,a3,-4
   169f0:	00da0633          	add	a2,s4,a3
   169f4:	01048593          	addi	a1,s1,16
   169f8:	0ab65463          	bge	a2,a1,16aa0 <_realloc_r+0x258>
   169fc:	8b85                	andi	a5,a5,1
   169fe:	ee0791e3          	bnez	a5,168e0 <_realloc_r+0x98>
   16a02:	ff842c03          	lw	s8,-8(s0)
   16a06:	418a8c33          	sub	s8,s5,s8
   16a0a:	004c2783          	lw	a5,4(s8)
   16a0e:	9bf1                	andi	a5,a5,-4
   16a10:	96be                	add	a3,a3,a5
   16a12:	01468b33          	add	s6,a3,s4
   16a16:	ecbb41e3          	blt	s6,a1,168d8 <_realloc_r+0x90>
   16a1a:	00cc2783          	lw	a5,12(s8)
   16a1e:	008c2703          	lw	a4,8(s8)
   16a22:	ffca0613          	addi	a2,s4,-4
   16a26:	02400693          	li	a3,36
   16a2a:	c75c                	sw	a5,12(a4)
   16a2c:	c798                	sw	a4,8(a5)
   16a2e:	008c0913          	addi	s2,s8,8
   16a32:	1cc6e263          	bltu	a3,a2,16bf6 <_realloc_r+0x3ae>
   16a36:	45cd                	li	a1,19
   16a38:	4018                	lw	a4,0(s0)
   16a3a:	87ca                	mv	a5,s2
   16a3c:	00c5fe63          	bgeu	a1,a2,16a58 <_realloc_r+0x210>
   16a40:	00ec2423          	sw	a4,8(s8)
   16a44:	4058                	lw	a4,4(s0)
   16a46:	47ed                	li	a5,27
   16a48:	00ec2623          	sw	a4,12(s8)
   16a4c:	1ac7ea63          	bltu	a5,a2,16c00 <_realloc_r+0x3b8>
   16a50:	4418                	lw	a4,8(s0)
   16a52:	010c0793          	addi	a5,s8,16
   16a56:	0421                	addi	s0,s0,8
   16a58:	c398                	sw	a4,0(a5)
   16a5a:	4058                	lw	a4,4(s0)
   16a5c:	c3d8                	sw	a4,4(a5)
   16a5e:	4418                	lw	a4,8(s0)
   16a60:	c798                	sw	a4,8(a5)
   16a62:	009c0733          	add	a4,s8,s1
   16a66:	409b07b3          	sub	a5,s6,s1
   16a6a:	00eba423          	sw	a4,8(s7)
   16a6e:	0017e793          	ori	a5,a5,1
   16a72:	c35c                	sw	a5,4(a4)
   16a74:	004c2783          	lw	a5,4(s8)
   16a78:	854e                	mv	a0,s3
   16a7a:	8b85                	andi	a5,a5,1
   16a7c:	8cdd                	or	s1,s1,a5
   16a7e:	009c2223          	sw	s1,4(s8)
   16a82:	9c2ff0ef          	jal	ra,15c44 <__malloc_unlock>
   16a86:	bd65                	j	1693e <_realloc_r+0xf6>
   16a88:	c114                	sw	a3,0(a0)
   16a8a:	4054                	lw	a3,4(s0)
   16a8c:	476d                	li	a4,27
   16a8e:	c154                	sw	a3,4(a0)
   16a90:	10c76b63          	bltu	a4,a2,16ba6 <_realloc_r+0x35e>
   16a94:	4414                	lw	a3,8(s0)
   16a96:	00840713          	addi	a4,s0,8
   16a9a:	00850793          	addi	a5,a0,8
   16a9e:	bd9d                	j	16914 <_realloc_r+0xcc>
   16aa0:	9aa6                	add	s5,s5,s1
   16aa2:	409607b3          	sub	a5,a2,s1
   16aa6:	015ba423          	sw	s5,8(s7)
   16aaa:	0017e793          	ori	a5,a5,1
   16aae:	00faa223          	sw	a5,4(s5)
   16ab2:	ffc42783          	lw	a5,-4(s0)
   16ab6:	854e                	mv	a0,s3
   16ab8:	8922                	mv	s2,s0
   16aba:	8b85                	andi	a5,a5,1
   16abc:	8cdd                	or	s1,s1,a5
   16abe:	fe942e23          	sw	s1,-4(s0)
   16ac2:	982ff0ef          	jal	ra,15c44 <__malloc_unlock>
   16ac6:	bda5                	j	1693e <_realloc_r+0xf6>
   16ac8:	ffc52783          	lw	a5,-4(a0)
   16acc:	9bf1                	andi	a5,a5,-4
   16ace:	9a3e                	add	s4,s4,a5
   16ad0:	014a8b33          	add	s6,s5,s4
   16ad4:	bd59                	j	1696a <_realloc_r+0x122>
   16ad6:	00cc2783          	lw	a5,12(s8)
   16ada:	008c2703          	lw	a4,8(s8)
   16ade:	ffca0613          	addi	a2,s4,-4
   16ae2:	02400693          	li	a3,36
   16ae6:	c75c                	sw	a5,12(a4)
   16ae8:	c798                	sw	a4,8(a5)
   16aea:	008c0913          	addi	s2,s8,8
   16aee:	017c0b33          	add	s6,s8,s7
   16af2:	0ac6e263          	bltu	a3,a2,16b96 <_realloc_r+0x34e>
   16af6:	45cd                	li	a1,19
   16af8:	4018                	lw	a4,0(s0)
   16afa:	87ca                	mv	a5,s2
   16afc:	00c5fe63          	bgeu	a1,a2,16b18 <_realloc_r+0x2d0>
   16b00:	00ec2423          	sw	a4,8(s8)
   16b04:	4058                	lw	a4,4(s0)
   16b06:	47ed                	li	a5,27
   16b08:	00ec2623          	sw	a4,12(s8)
   16b0c:	0ac7e963          	bltu	a5,a2,16bbe <_realloc_r+0x376>
   16b10:	4418                	lw	a4,8(s0)
   16b12:	010c0793          	addi	a5,s8,16
   16b16:	0421                	addi	s0,s0,8
   16b18:	c398                	sw	a4,0(a5)
   16b1a:	4058                	lw	a4,4(s0)
   16b1c:	8a5e                	mv	s4,s7
   16b1e:	8ae2                	mv	s5,s8
   16b20:	c3d8                	sw	a4,4(a5)
   16b22:	4418                	lw	a4,8(s0)
   16b24:	844a                	mv	s0,s2
   16b26:	c798                	sw	a4,8(a5)
   16b28:	b589                	j	1696a <_realloc_r+0x122>
   16b2a:	85a2                	mv	a1,s0
   16b2c:	846ff0ef          	jal	ra,15b72 <memmove>
   16b30:	b3fd                	j	1691e <_realloc_r+0xd6>
   16b32:	00cb2783          	lw	a5,12(s6)
   16b36:	008b2703          	lw	a4,8(s6)
   16b3a:	ffca0613          	addi	a2,s4,-4
   16b3e:	02400693          	li	a3,36
   16b42:	c75c                	sw	a5,12(a4)
   16b44:	c798                	sw	a4,8(a5)
   16b46:	008c2703          	lw	a4,8(s8)
   16b4a:	00cc2783          	lw	a5,12(s8)
   16b4e:	008c0913          	addi	s2,s8,8
   16b52:	017c0b33          	add	s6,s8,s7
   16b56:	c75c                	sw	a5,12(a4)
   16b58:	c798                	sw	a4,8(a5)
   16b5a:	02c6ee63          	bltu	a3,a2,16b96 <_realloc_r+0x34e>
   16b5e:	46cd                	li	a3,19
   16b60:	4018                	lw	a4,0(s0)
   16b62:	87ca                	mv	a5,s2
   16b64:	fac6fae3          	bgeu	a3,a2,16b18 <_realloc_r+0x2d0>
   16b68:	00ec2423          	sw	a4,8(s8)
   16b6c:	4058                	lw	a4,4(s0)
   16b6e:	47ed                	li	a5,27
   16b70:	00ec2623          	sw	a4,12(s8)
   16b74:	4418                	lw	a4,8(s0)
   16b76:	f8c7fee3          	bgeu	a5,a2,16b12 <_realloc_r+0x2ca>
   16b7a:	00ec2823          	sw	a4,16(s8)
   16b7e:	4458                	lw	a4,12(s0)
   16b80:	02400793          	li	a5,36
   16b84:	00ec2a23          	sw	a4,20(s8)
   16b88:	4818                	lw	a4,16(s0)
   16b8a:	04f60363          	beq	a2,a5,16bd0 <_realloc_r+0x388>
   16b8e:	018c0793          	addi	a5,s8,24
   16b92:	0441                	addi	s0,s0,16
   16b94:	b751                	j	16b18 <_realloc_r+0x2d0>
   16b96:	85a2                	mv	a1,s0
   16b98:	854a                	mv	a0,s2
   16b9a:	fd9fe0ef          	jal	ra,15b72 <memmove>
   16b9e:	844a                	mv	s0,s2
   16ba0:	8a5e                	mv	s4,s7
   16ba2:	8ae2                	mv	s5,s8
   16ba4:	b3d9                	j	1696a <_realloc_r+0x122>
   16ba6:	4418                	lw	a4,8(s0)
   16ba8:	c518                	sw	a4,8(a0)
   16baa:	4458                	lw	a4,12(s0)
   16bac:	c558                	sw	a4,12(a0)
   16bae:	4814                	lw	a3,16(s0)
   16bb0:	02f60a63          	beq	a2,a5,16be4 <_realloc_r+0x39c>
   16bb4:	01040713          	addi	a4,s0,16
   16bb8:	01050793          	addi	a5,a0,16
   16bbc:	bba1                	j	16914 <_realloc_r+0xcc>
   16bbe:	441c                	lw	a5,8(s0)
   16bc0:	00fc2823          	sw	a5,16(s8)
   16bc4:	445c                	lw	a5,12(s0)
   16bc6:	00fc2a23          	sw	a5,20(s8)
   16bca:	4818                	lw	a4,16(s0)
   16bcc:	fcd611e3          	bne	a2,a3,16b8e <_realloc_r+0x346>
   16bd0:	00ec2c23          	sw	a4,24(s8)
   16bd4:	4858                	lw	a4,20(s0)
   16bd6:	020c0793          	addi	a5,s8,32
   16bda:	0461                	addi	s0,s0,24
   16bdc:	00ec2e23          	sw	a4,28(s8)
   16be0:	4018                	lw	a4,0(s0)
   16be2:	bf1d                	j	16b18 <_realloc_r+0x2d0>
   16be4:	c914                	sw	a3,16(a0)
   16be6:	4854                	lw	a3,20(s0)
   16be8:	01840713          	addi	a4,s0,24
   16bec:	01850793          	addi	a5,a0,24
   16bf0:	c954                	sw	a3,20(a0)
   16bf2:	4c14                	lw	a3,24(s0)
   16bf4:	b305                	j	16914 <_realloc_r+0xcc>
   16bf6:	85a2                	mv	a1,s0
   16bf8:	854a                	mv	a0,s2
   16bfa:	f79fe0ef          	jal	ra,15b72 <memmove>
   16bfe:	b595                	j	16a62 <_realloc_r+0x21a>
   16c00:	441c                	lw	a5,8(s0)
   16c02:	00fc2823          	sw	a5,16(s8)
   16c06:	445c                	lw	a5,12(s0)
   16c08:	00fc2a23          	sw	a5,20(s8)
   16c0c:	4818                	lw	a4,16(s0)
   16c0e:	00d60663          	beq	a2,a3,16c1a <_realloc_r+0x3d2>
   16c12:	018c0793          	addi	a5,s8,24
   16c16:	0441                	addi	s0,s0,16
   16c18:	b581                	j	16a58 <_realloc_r+0x210>
   16c1a:	00ec2c23          	sw	a4,24(s8)
   16c1e:	4858                	lw	a4,20(s0)
   16c20:	020c0793          	addi	a5,s8,32
   16c24:	0461                	addi	s0,s0,24
   16c26:	00ec2e23          	sw	a4,28(s8)
   16c2a:	4018                	lw	a4,0(s0)
   16c2c:	b535                	j	16a58 <_realloc_r+0x210>

00016c2e <_sbrk_r>:
   16c2e:	1141                	addi	sp,sp,-16
   16c30:	c422                	sw	s0,8(sp)
   16c32:	c226                	sw	s1,4(sp)
   16c34:	842a                	mv	s0,a0
   16c36:	852e                	mv	a0,a1
   16c38:	c606                	sw	ra,12(sp)
   16c3a:	1c01ae23          	sw	zero,476(gp) # 20edc <errno>
   16c3e:	7c6040ef          	jal	ra,1b404 <_sbrk>
   16c42:	57fd                	li	a5,-1
   16c44:	00f50763          	beq	a0,a5,16c52 <_sbrk_r+0x24>
   16c48:	40b2                	lw	ra,12(sp)
   16c4a:	4422                	lw	s0,8(sp)
   16c4c:	4492                	lw	s1,4(sp)
   16c4e:	0141                	addi	sp,sp,16
   16c50:	8082                	ret
   16c52:	1dc1a783          	lw	a5,476(gp) # 20edc <errno>
   16c56:	dbed                	beqz	a5,16c48 <_sbrk_r+0x1a>
   16c58:	40b2                	lw	ra,12(sp)
   16c5a:	c01c                	sw	a5,0(s0)
   16c5c:	4422                	lw	s0,8(sp)
   16c5e:	4492                	lw	s1,4(sp)
   16c60:	0141                	addi	sp,sp,16
   16c62:	8082                	ret

00016c64 <frexp>:
   16c64:	1141                	addi	sp,sp,-16
   16c66:	c226                	sw	s1,4(sp)
   16c68:	800004b7          	lui	s1,0x80000
   16c6c:	c422                	sw	s0,8(sp)
   16c6e:	c606                	sw	ra,12(sp)
   16c70:	fff4c493          	not	s1,s1
   16c74:	8432                	mv	s0,a2
   16c76:	00062023          	sw	zero,0(a2)
   16c7a:	00b4f6b3          	and	a3,s1,a1
   16c7e:	7ff00637          	lui	a2,0x7ff00
   16c82:	87ae                	mv	a5,a1
   16c84:	872a                	mv	a4,a0
   16c86:	04c6d463          	bge	a3,a2,16cce <frexp+0x6a>
   16c8a:	00a6e8b3          	or	a7,a3,a0
   16c8e:	04088063          	beqz	a7,16cce <frexp+0x6a>
   16c92:	8e6d                	and	a2,a2,a1
   16c94:	882e                	mv	a6,a1
   16c96:	4881                	li	a7,0
   16c98:	ee09                	bnez	a2,16cb2 <frexp+0x4e>
   16c9a:	1b41a683          	lw	a3,436(gp) # 20eb4 <__SDATA_BEGIN__+0x14>
   16c9e:	1b01a603          	lw	a2,432(gp) # 20eb0 <__SDATA_BEGIN__+0x10>
   16ca2:	43a050ef          	jal	ra,1c0dc <__muldf3>
   16ca6:	872a                	mv	a4,a0
   16ca8:	882e                	mv	a6,a1
   16caa:	00b4f6b3          	and	a3,s1,a1
   16cae:	fca00893          	li	a7,-54
   16cb2:	86d1                	srai	a3,a3,0x14
   16cb4:	801007b7          	lui	a5,0x80100
   16cb8:	17fd                	addi	a5,a5,-1
   16cba:	c0268693          	addi	a3,a3,-1022
   16cbe:	00f87833          	and	a6,a6,a5
   16cc2:	96c6                	add	a3,a3,a7
   16cc4:	3fe007b7          	lui	a5,0x3fe00
   16cc8:	00f867b3          	or	a5,a6,a5
   16ccc:	c014                	sw	a3,0(s0)
   16cce:	40b2                	lw	ra,12(sp)
   16cd0:	4422                	lw	s0,8(sp)
   16cd2:	4492                	lw	s1,4(sp)
   16cd4:	853a                	mv	a0,a4
   16cd6:	85be                	mv	a1,a5
   16cd8:	0141                	addi	sp,sp,16
   16cda:	8082                	ret

00016cdc <_sprintf_r>:
   16cdc:	7135                	addi	sp,sp,-160
   16cde:	08c10e93          	addi	t4,sp,140
   16ce2:	cb3e                	sw	a5,148(sp)
   16ce4:	80000337          	lui	t1,0x80000
   16ce8:	77c1                	lui	a5,0xffff0
   16cea:	8e2e                	mv	t3,a1
   16cec:	fff34313          	not	t1,t1
   16cf0:	c736                	sw	a3,140(sp)
   16cf2:	20878793          	addi	a5,a5,520 # ffff0208 <__BSS_END__+0xfffcf2e0>
   16cf6:	002c                	addi	a1,sp,8
   16cf8:	86f6                	mv	a3,t4
   16cfa:	de86                	sw	ra,124(sp)
   16cfc:	ca3e                	sw	a5,20(sp)
   16cfe:	c93a                	sw	a4,144(sp)
   16d00:	cd42                	sw	a6,152(sp)
   16d02:	cf46                	sw	a7,156(sp)
   16d04:	c472                	sw	t3,8(sp)
   16d06:	cc72                	sw	t3,24(sp)
   16d08:	ce1a                	sw	t1,28(sp)
   16d0a:	c81a                	sw	t1,16(sp)
   16d0c:	c276                	sw	t4,4(sp)
   16d0e:	2681                	jal	1704e <_svfprintf_r>
   16d10:	47a2                	lw	a5,8(sp)
   16d12:	00078023          	sb	zero,0(a5)
   16d16:	50f6                	lw	ra,124(sp)
   16d18:	610d                	addi	sp,sp,160
   16d1a:	8082                	ret

00016d1c <sprintf>:
   16d1c:	8e2a                	mv	t3,a0
   16d1e:	7135                	addi	sp,sp,-160
   16d20:	1c01a503          	lw	a0,448(gp) # 20ec0 <_impure_ptr>
   16d24:	08810e93          	addi	t4,sp,136
   16d28:	cb3e                	sw	a5,148(sp)
   16d2a:	80000337          	lui	t1,0x80000
   16d2e:	77c1                	lui	a5,0xffff0
   16d30:	fff34313          	not	t1,t1
   16d34:	c532                	sw	a2,136(sp)
   16d36:	c736                	sw	a3,140(sp)
   16d38:	20878793          	addi	a5,a5,520 # ffff0208 <__BSS_END__+0xfffcf2e0>
   16d3c:	862e                	mv	a2,a1
   16d3e:	86f6                	mv	a3,t4
   16d40:	002c                	addi	a1,sp,8
   16d42:	de86                	sw	ra,124(sp)
   16d44:	ca3e                	sw	a5,20(sp)
   16d46:	c93a                	sw	a4,144(sp)
   16d48:	cd42                	sw	a6,152(sp)
   16d4a:	cf46                	sw	a7,156(sp)
   16d4c:	c472                	sw	t3,8(sp)
   16d4e:	cc72                	sw	t3,24(sp)
   16d50:	ce1a                	sw	t1,28(sp)
   16d52:	c81a                	sw	t1,16(sp)
   16d54:	c276                	sw	t4,4(sp)
   16d56:	2ce5                	jal	1704e <_svfprintf_r>
   16d58:	47a2                	lw	a5,8(sp)
   16d5a:	00078023          	sb	zero,0(a5)
   16d5e:	50f6                	lw	ra,124(sp)
   16d60:	610d                	addi	sp,sp,160
   16d62:	8082                	ret

00016d64 <__sread>:
   16d64:	1141                	addi	sp,sp,-16
   16d66:	c422                	sw	s0,8(sp)
   16d68:	842e                	mv	s0,a1
   16d6a:	00e59583          	lh	a1,14(a1)
   16d6e:	c606                	sw	ra,12(sp)
   16d70:	294030ef          	jal	ra,1a004 <_read_r>
   16d74:	00054963          	bltz	a0,16d86 <__sread+0x22>
   16d78:	483c                	lw	a5,80(s0)
   16d7a:	40b2                	lw	ra,12(sp)
   16d7c:	97aa                	add	a5,a5,a0
   16d7e:	c83c                	sw	a5,80(s0)
   16d80:	4422                	lw	s0,8(sp)
   16d82:	0141                	addi	sp,sp,16
   16d84:	8082                	ret
   16d86:	00c45783          	lhu	a5,12(s0)
   16d8a:	777d                	lui	a4,0xfffff
   16d8c:	177d                	addi	a4,a4,-1
   16d8e:	8ff9                	and	a5,a5,a4
   16d90:	40b2                	lw	ra,12(sp)
   16d92:	00f41623          	sh	a5,12(s0)
   16d96:	4422                	lw	s0,8(sp)
   16d98:	0141                	addi	sp,sp,16
   16d9a:	8082                	ret

00016d9c <__seofread>:
   16d9c:	4501                	li	a0,0
   16d9e:	8082                	ret

00016da0 <__swrite>:
   16da0:	00c59783          	lh	a5,12(a1)
   16da4:	1101                	addi	sp,sp,-32
   16da6:	cc22                	sw	s0,24(sp)
   16da8:	ca26                	sw	s1,20(sp)
   16daa:	c84a                	sw	s2,16(sp)
   16dac:	c64e                	sw	s3,12(sp)
   16dae:	ce06                	sw	ra,28(sp)
   16db0:	1007f713          	andi	a4,a5,256
   16db4:	842e                	mv	s0,a1
   16db6:	84aa                	mv	s1,a0
   16db8:	00e59583          	lh	a1,14(a1)
   16dbc:	8932                	mv	s2,a2
   16dbe:	89b6                	mv	s3,a3
   16dc0:	e30d                	bnez	a4,16de2 <__swrite+0x42>
   16dc2:	777d                	lui	a4,0xfffff
   16dc4:	177d                	addi	a4,a4,-1
   16dc6:	8ff9                	and	a5,a5,a4
   16dc8:	00f41623          	sh	a5,12(s0)
   16dcc:	4462                	lw	s0,24(sp)
   16dce:	40f2                	lw	ra,28(sp)
   16dd0:	86ce                	mv	a3,s3
   16dd2:	864a                	mv	a2,s2
   16dd4:	49b2                	lw	s3,12(sp)
   16dd6:	4942                	lw	s2,16(sp)
   16dd8:	8526                	mv	a0,s1
   16dda:	44d2                	lw	s1,20(sp)
   16ddc:	6105                	addi	sp,sp,32
   16dde:	58f0206f          	j	19b6c <_write_r>
   16de2:	4689                	li	a3,2
   16de4:	4601                	li	a2,0
   16de6:	1e2030ef          	jal	ra,19fc8 <_lseek_r>
   16dea:	00c41783          	lh	a5,12(s0)
   16dee:	00e41583          	lh	a1,14(s0)
   16df2:	bfc1                	j	16dc2 <__swrite+0x22>

00016df4 <__sseek>:
   16df4:	1141                	addi	sp,sp,-16
   16df6:	c422                	sw	s0,8(sp)
   16df8:	842e                	mv	s0,a1
   16dfa:	00e59583          	lh	a1,14(a1)
   16dfe:	c606                	sw	ra,12(sp)
   16e00:	1c8030ef          	jal	ra,19fc8 <_lseek_r>
   16e04:	57fd                	li	a5,-1
   16e06:	00f50d63          	beq	a0,a5,16e20 <__sseek+0x2c>
   16e0a:	00c45783          	lhu	a5,12(s0)
   16e0e:	6705                	lui	a4,0x1
   16e10:	40b2                	lw	ra,12(sp)
   16e12:	8fd9                	or	a5,a5,a4
   16e14:	c828                	sw	a0,80(s0)
   16e16:	00f41623          	sh	a5,12(s0)
   16e1a:	4422                	lw	s0,8(sp)
   16e1c:	0141                	addi	sp,sp,16
   16e1e:	8082                	ret
   16e20:	00c45783          	lhu	a5,12(s0)
   16e24:	777d                	lui	a4,0xfffff
   16e26:	177d                	addi	a4,a4,-1
   16e28:	8ff9                	and	a5,a5,a4
   16e2a:	40b2                	lw	ra,12(sp)
   16e2c:	00f41623          	sh	a5,12(s0)
   16e30:	4422                	lw	s0,8(sp)
   16e32:	0141                	addi	sp,sp,16
   16e34:	8082                	ret

00016e36 <__sclose>:
   16e36:	00e59583          	lh	a1,14(a1)
   16e3a:	66b0206f          	j	19ca4 <_close_r>

00016e3e <strcmp>:
   16e3e:	00b56733          	or	a4,a0,a1
   16e42:	53fd                	li	t2,-1
   16e44:	8b0d                	andi	a4,a4,3
   16e46:	e779                	bnez	a4,16f14 <strcmp+0xd6>
   16e48:	7f7f87b7          	lui	a5,0x7f7f8
   16e4c:	f7f78793          	addi	a5,a5,-129 # 7f7f7f7f <__BSS_END__+0x7f7d7057>
   16e50:	4110                	lw	a2,0(a0)
   16e52:	4194                	lw	a3,0(a1)
   16e54:	00f672b3          	and	t0,a2,a5
   16e58:	00f66333          	or	t1,a2,a5
   16e5c:	92be                	add	t0,t0,a5
   16e5e:	0062e2b3          	or	t0,t0,t1
   16e62:	0c729763          	bne	t0,t2,16f30 <strcmp+0xf2>
   16e66:	06d61863          	bne	a2,a3,16ed6 <strcmp+0x98>
   16e6a:	4150                	lw	a2,4(a0)
   16e6c:	41d4                	lw	a3,4(a1)
   16e6e:	00f672b3          	and	t0,a2,a5
   16e72:	00f66333          	or	t1,a2,a5
   16e76:	92be                	add	t0,t0,a5
   16e78:	0062e2b3          	or	t0,t0,t1
   16e7c:	0a729863          	bne	t0,t2,16f2c <strcmp+0xee>
   16e80:	04d61b63          	bne	a2,a3,16ed6 <strcmp+0x98>
   16e84:	4510                	lw	a2,8(a0)
   16e86:	4594                	lw	a3,8(a1)
   16e88:	00f672b3          	and	t0,a2,a5
   16e8c:	00f66333          	or	t1,a2,a5
   16e90:	92be                	add	t0,t0,a5
   16e92:	0062e2b3          	or	t0,t0,t1
   16e96:	0a729163          	bne	t0,t2,16f38 <strcmp+0xfa>
   16e9a:	02d61e63          	bne	a2,a3,16ed6 <strcmp+0x98>
   16e9e:	4550                	lw	a2,12(a0)
   16ea0:	45d4                	lw	a3,12(a1)
   16ea2:	00f672b3          	and	t0,a2,a5
   16ea6:	00f66333          	or	t1,a2,a5
   16eaa:	92be                	add	t0,t0,a5
   16eac:	0062e2b3          	or	t0,t0,t1
   16eb0:	08729a63          	bne	t0,t2,16f44 <strcmp+0x106>
   16eb4:	02d61163          	bne	a2,a3,16ed6 <strcmp+0x98>
   16eb8:	4910                	lw	a2,16(a0)
   16eba:	4994                	lw	a3,16(a1)
   16ebc:	00f672b3          	and	t0,a2,a5
   16ec0:	00f66333          	or	t1,a2,a5
   16ec4:	92be                	add	t0,t0,a5
   16ec6:	0062e2b3          	or	t0,t0,t1
   16eca:	08729363          	bne	t0,t2,16f50 <strcmp+0x112>
   16ece:	0551                	addi	a0,a0,20
   16ed0:	05d1                	addi	a1,a1,20
   16ed2:	f6d60fe3          	beq	a2,a3,16e50 <strcmp+0x12>
   16ed6:	01061713          	slli	a4,a2,0x10
   16eda:	01069793          	slli	a5,a3,0x10
   16ede:	00f71c63          	bne	a4,a5,16ef6 <strcmp+0xb8>
   16ee2:	01065713          	srli	a4,a2,0x10
   16ee6:	0106d793          	srli	a5,a3,0x10
   16eea:	40f70533          	sub	a0,a4,a5
   16eee:	0ff57593          	andi	a1,a0,255
   16ef2:	e991                	bnez	a1,16f06 <strcmp+0xc8>
   16ef4:	8082                	ret
   16ef6:	8341                	srli	a4,a4,0x10
   16ef8:	83c1                	srli	a5,a5,0x10
   16efa:	40f70533          	sub	a0,a4,a5
   16efe:	0ff57593          	andi	a1,a0,255
   16f02:	e191                	bnez	a1,16f06 <strcmp+0xc8>
   16f04:	8082                	ret
   16f06:	0ff77713          	andi	a4,a4,255
   16f0a:	0ff7f793          	andi	a5,a5,255
   16f0e:	40f70533          	sub	a0,a4,a5
   16f12:	8082                	ret
   16f14:	00054603          	lbu	a2,0(a0)
   16f18:	0005c683          	lbu	a3,0(a1)
   16f1c:	0505                	addi	a0,a0,1
   16f1e:	0585                	addi	a1,a1,1
   16f20:	00d61363          	bne	a2,a3,16f26 <strcmp+0xe8>
   16f24:	fa65                	bnez	a2,16f14 <strcmp+0xd6>
   16f26:	40d60533          	sub	a0,a2,a3
   16f2a:	8082                	ret
   16f2c:	0511                	addi	a0,a0,4
   16f2e:	0591                	addi	a1,a1,4
   16f30:	fed612e3          	bne	a2,a3,16f14 <strcmp+0xd6>
   16f34:	4501                	li	a0,0
   16f36:	8082                	ret
   16f38:	0521                	addi	a0,a0,8
   16f3a:	05a1                	addi	a1,a1,8
   16f3c:	fcd61ce3          	bne	a2,a3,16f14 <strcmp+0xd6>
   16f40:	4501                	li	a0,0
   16f42:	8082                	ret
   16f44:	0531                	addi	a0,a0,12
   16f46:	05b1                	addi	a1,a1,12
   16f48:	fcd616e3          	bne	a2,a3,16f14 <strcmp+0xd6>
   16f4c:	4501                	li	a0,0
   16f4e:	8082                	ret
   16f50:	0541                	addi	a0,a0,16
   16f52:	05c1                	addi	a1,a1,16
   16f54:	fcd610e3          	bne	a2,a3,16f14 <strcmp+0xd6>
   16f58:	4501                	li	a0,0
   16f5a:	8082                	ret

00016f5c <strcpy>:
   16f5c:	00b567b3          	or	a5,a0,a1
   16f60:	8b8d                	andi	a5,a5,3
   16f62:	efb1                	bnez	a5,16fbe <strcpy+0x62>
   16f64:	4198                	lw	a4,0(a1)
   16f66:	7f7f86b7          	lui	a3,0x7f7f8
   16f6a:	f7f68693          	addi	a3,a3,-129 # 7f7f7f7f <__BSS_END__+0x7f7d7057>
   16f6e:	00d777b3          	and	a5,a4,a3
   16f72:	97b6                	add	a5,a5,a3
   16f74:	8fd9                	or	a5,a5,a4
   16f76:	8fd5                	or	a5,a5,a3
   16f78:	567d                	li	a2,-1
   16f7a:	04c79b63          	bne	a5,a2,16fd0 <strcpy+0x74>
   16f7e:	862a                	mv	a2,a0
   16f80:	587d                	li	a6,-1
   16f82:	c218                	sw	a4,0(a2)
   16f84:	41d8                	lw	a4,4(a1)
   16f86:	0591                	addi	a1,a1,4
   16f88:	0611                	addi	a2,a2,4
   16f8a:	00d777b3          	and	a5,a4,a3
   16f8e:	97b6                	add	a5,a5,a3
   16f90:	8fd9                	or	a5,a5,a4
   16f92:	8fd5                	or	a5,a5,a3
   16f94:	ff0787e3          	beq	a5,a6,16f82 <strcpy+0x26>
   16f98:	0005c783          	lbu	a5,0(a1)
   16f9c:	0015c703          	lbu	a4,1(a1)
   16fa0:	0025c683          	lbu	a3,2(a1)
   16fa4:	00f60023          	sb	a5,0(a2) # 7ff00000 <__BSS_END__+0x7fedf0d8>
   16fa8:	c799                	beqz	a5,16fb6 <strcpy+0x5a>
   16faa:	00e600a3          	sb	a4,1(a2)
   16fae:	c701                	beqz	a4,16fb6 <strcpy+0x5a>
   16fb0:	00d60123          	sb	a3,2(a2)
   16fb4:	e291                	bnez	a3,16fb8 <strcpy+0x5c>
   16fb6:	8082                	ret
   16fb8:	000601a3          	sb	zero,3(a2)
   16fbc:	8082                	ret
   16fbe:	87aa                	mv	a5,a0
   16fc0:	0005c703          	lbu	a4,0(a1)
   16fc4:	0785                	addi	a5,a5,1
   16fc6:	0585                	addi	a1,a1,1
   16fc8:	fee78fa3          	sb	a4,-1(a5)
   16fcc:	fb75                	bnez	a4,16fc0 <strcpy+0x64>
   16fce:	8082                	ret
   16fd0:	862a                	mv	a2,a0
   16fd2:	b7d9                	j	16f98 <strcpy+0x3c>

00016fd4 <strncpy>:
   16fd4:	00a5e7b3          	or	a5,a1,a0
   16fd8:	8b8d                	andi	a5,a5,3
   16fda:	872a                	mv	a4,a0
   16fdc:	ebb1                	bnez	a5,17030 <strncpy+0x5c>
   16fde:	478d                	li	a5,3
   16fe0:	04c7f863          	bgeu	a5,a2,17030 <strncpy+0x5c>
   16fe4:	feff0337          	lui	t1,0xfeff0
   16fe8:	808088b7          	lui	a7,0x80808
   16fec:	eff30313          	addi	t1,t1,-257 # fefefeff <__BSS_END__+0xfefcefd7>
   16ff0:	08088893          	addi	a7,a7,128 # 80808080 <__BSS_END__+0x807e7158>
   16ff4:	4e0d                	li	t3,3
   16ff6:	4194                	lw	a3,0(a1)
   16ff8:	006687b3          	add	a5,a3,t1
   16ffc:	fff6c813          	not	a6,a3
   17000:	0107f7b3          	and	a5,a5,a6
   17004:	0117f7b3          	and	a5,a5,a7
   17008:	e785                	bnez	a5,17030 <strncpy+0x5c>
   1700a:	c314                	sw	a3,0(a4)
   1700c:	1671                	addi	a2,a2,-4
   1700e:	0711                	addi	a4,a4,4
   17010:	0591                	addi	a1,a1,4
   17012:	fece62e3          	bltu	t3,a2,16ff6 <strncpy+0x22>
   17016:	0585                	addi	a1,a1,1
   17018:	00170793          	addi	a5,a4,1 # fffff001 <__BSS_END__+0xfffde0d9>
   1701c:	ce11                	beqz	a2,17038 <strncpy+0x64>
   1701e:	fff5c683          	lbu	a3,-1(a1)
   17022:	fff60813          	addi	a6,a2,-1
   17026:	fed78fa3          	sb	a3,-1(a5)
   1702a:	ca81                	beqz	a3,1703a <strncpy+0x66>
   1702c:	873e                	mv	a4,a5
   1702e:	8642                	mv	a2,a6
   17030:	0585                	addi	a1,a1,1
   17032:	00170793          	addi	a5,a4,1
   17036:	f665                	bnez	a2,1701e <strncpy+0x4a>
   17038:	8082                	ret
   1703a:	963a                	add	a2,a2,a4
   1703c:	00080863          	beqz	a6,1704c <strncpy+0x78>
   17040:	0785                	addi	a5,a5,1
   17042:	fe078fa3          	sb	zero,-1(a5)
   17046:	fec79de3          	bne	a5,a2,17040 <strncpy+0x6c>
   1704a:	8082                	ret
   1704c:	8082                	ret

0001704e <_svfprintf_r>:
   1704e:	7141                	addi	sp,sp,-496
   17050:	1e112623          	sw	ra,492(sp)
   17054:	1f212023          	sw	s2,480(sp)
   17058:	1d812423          	sw	s8,456(sp)
   1705c:	1da12023          	sw	s10,448(sp)
   17060:	8c2e                	mv	s8,a1
   17062:	8932                	mv	s2,a2
   17064:	ca36                	sw	a3,20(sp)
   17066:	1e812423          	sw	s0,488(sp)
   1706a:	1e912223          	sw	s1,484(sp)
   1706e:	1d312e23          	sw	s3,476(sp)
   17072:	1d412c23          	sw	s4,472(sp)
   17076:	1d512a23          	sw	s5,468(sp)
   1707a:	1d612823          	sw	s6,464(sp)
   1707e:	1d712623          	sw	s7,460(sp)
   17082:	1d912223          	sw	s9,452(sp)
   17086:	1bb12e23          	sw	s11,444(sp)
   1708a:	8d2a                	mv	s10,a0
   1708c:	934fe0ef          	jal	ra,151c0 <_localeconv_r>
   17090:	411c                	lw	a5,0(a0)
   17092:	853e                	mv	a0,a5
   17094:	d83e                	sw	a5,48(sp)
   17096:	ca2f90ef          	jal	ra,10538 <strlen>
   1709a:	00cc5783          	lhu	a5,12(s8)
   1709e:	d982                	sw	zero,240(sp)
   170a0:	db82                	sw	zero,244(sp)
   170a2:	dd82                	sw	zero,248(sp)
   170a4:	df82                	sw	zero,252(sp)
   170a6:	0807f793          	andi	a5,a5,128
   170aa:	d62a                	sw	a0,44(sp)
   170ac:	c789                	beqz	a5,170b6 <_svfprintf_r+0x68>
   170ae:	010c2783          	lw	a5,16(s8)
   170b2:	700788e3          	beqz	a5,17fc2 <_svfprintf_r+0xf74>
   170b6:	027c                	addi	a5,sp,268
   170b8:	d3be                	sw	a5,228(sp)
   170ba:	88be                	mv	a7,a5
   170bc:	0001f7b7          	lui	a5,0x1f
   170c0:	d1878793          	addi	a5,a5,-744 # 1ed18 <__mprec_bigtens+0x28>
   170c4:	cc3e                	sw	a5,24(sp)
   170c6:	0001f7b7          	lui	a5,0x1f
   170ca:	e9478793          	addi	a5,a5,-364 # 1ee94 <zeroes.0>
   170ce:	8b4a                	mv	s6,s2
   170d0:	c43e                	sw	a5,8(sp)
   170d2:	000b4783          	lbu	a5,0(s6)
   170d6:	d782                	sw	zero,236(sp)
   170d8:	d582                	sw	zero,232(sp)
   170da:	d002                	sw	zero,32(sp)
   170dc:	da02                	sw	zero,52(sp)
   170de:	dc02                	sw	zero,56(sp)
   170e0:	de02                	sw	zero,60(sp)
   170e2:	c482                	sw	zero,72(sp)
   170e4:	c682                	sw	zero,76(sp)
   170e6:	c602                	sw	zero,12(sp)
   170e8:	18078863          	beqz	a5,17278 <_svfprintf_r+0x22a>
   170ec:	845a                	mv	s0,s6
   170ee:	02500713          	li	a4,37
   170f2:	20e78563          	beq	a5,a4,172fc <_svfprintf_r+0x2ae>
   170f6:	00144783          	lbu	a5,1(s0)
   170fa:	0405                	addi	s0,s0,1
   170fc:	fbfd                	bnez	a5,170f2 <_svfprintf_r+0xa4>
   170fe:	416404b3          	sub	s1,s0,s6
   17102:	17640b63          	beq	s0,s6,17278 <_svfprintf_r+0x22a>
   17106:	573e                	lw	a4,236(sp)
   17108:	57ae                	lw	a5,232(sp)
   1710a:	0168a023          	sw	s6,0(a7)
   1710e:	9726                	add	a4,a4,s1
   17110:	0785                	addi	a5,a5,1
   17112:	0098a223          	sw	s1,4(a7)
   17116:	d7ba                	sw	a4,236(sp)
   17118:	d5be                	sw	a5,232(sp)
   1711a:	471d                	li	a4,7
   1711c:	08a1                	addi	a7,a7,8
   1711e:	1ef74663          	blt	a4,a5,1730a <_svfprintf_r+0x2bc>
   17122:	4732                	lw	a4,12(sp)
   17124:	00044783          	lbu	a5,0(s0)
   17128:	9726                	add	a4,a4,s1
   1712a:	c63a                	sw	a4,12(sp)
   1712c:	14078663          	beqz	a5,17278 <_svfprintf_r+0x22a>
   17130:	00144483          	lbu	s1,1(s0)
   17134:	0c0103a3          	sb	zero,199(sp)
   17138:	0405                	addi	s0,s0,1
   1713a:	5dfd                	li	s11,-1
   1713c:	4981                	li	s3,0
   1713e:	4a01                	li	s4,0
   17140:	05a00913          	li	s2,90
   17144:	4aa5                	li	s5,9
   17146:	02a00b93          	li	s7,42
   1714a:	8cc6                	mv	s9,a7
   1714c:	0405                	addi	s0,s0,1
   1714e:	fe048793          	addi	a5,s1,-32 # 7fffffe0 <__BSS_END__+0x7ffdf0b8>
   17152:	02f96b63          	bltu	s2,a5,17188 <_svfprintf_r+0x13a>
   17156:	4762                	lw	a4,24(sp)
   17158:	078a                	slli	a5,a5,0x2
   1715a:	97ba                	add	a5,a5,a4
   1715c:	439c                	lw	a5,0(a5)
   1715e:	8782                	jr	a5
   17160:	4981                	li	s3,0
   17162:	fd048693          	addi	a3,s1,-48
   17166:	00044483          	lbu	s1,0(s0)
   1716a:	00299793          	slli	a5,s3,0x2
   1716e:	97ce                	add	a5,a5,s3
   17170:	0786                	slli	a5,a5,0x1
   17172:	00f689b3          	add	s3,a3,a5
   17176:	fd048693          	addi	a3,s1,-48
   1717a:	0405                	addi	s0,s0,1
   1717c:	fedaf5e3          	bgeu	s5,a3,17166 <_svfprintf_r+0x118>
   17180:	fe048793          	addi	a5,s1,-32
   17184:	fcf979e3          	bgeu	s2,a5,17156 <_svfprintf_r+0x108>
   17188:	88e6                	mv	a7,s9
   1718a:	c4fd                	beqz	s1,17278 <_svfprintf_r+0x22a>
   1718c:	14910623          	sb	s1,332(sp)
   17190:	0c0103a3          	sb	zero,199(sp)
   17194:	4a85                	li	s5,1
   17196:	4c85                	li	s9,1
   17198:	14c10b13          	addi	s6,sp,332
   1719c:	c802                	sw	zero,16(sp)
   1719e:	4d81                	li	s11,0
   171a0:	d402                	sw	zero,40(sp)
   171a2:	d202                	sw	zero,36(sp)
   171a4:	ce02                	sw	zero,28(sp)
   171a6:	002a7b93          	andi	s7,s4,2
   171aa:	000b8363          	beqz	s7,171b0 <_svfprintf_r+0x162>
   171ae:	0a89                	addi	s5,s5,2
   171b0:	084a7913          	andi	s2,s4,132
   171b4:	57be                	lw	a5,236(sp)
   171b6:	00091663          	bnez	s2,171c2 <_svfprintf_r+0x174>
   171ba:	415986b3          	sub	a3,s3,s5
   171be:	1ed04ce3          	bgtz	a3,17bb6 <_svfprintf_r+0xb68>
   171c2:	0c714703          	lbu	a4,199(sp)
   171c6:	c30d                	beqz	a4,171e8 <_svfprintf_r+0x19a>
   171c8:	572e                	lw	a4,232(sp)
   171ca:	0c710693          	addi	a3,sp,199
   171ce:	00d8a023          	sw	a3,0(a7)
   171d2:	0785                	addi	a5,a5,1
   171d4:	4685                	li	a3,1
   171d6:	0705                	addi	a4,a4,1
   171d8:	00d8a223          	sw	a3,4(a7)
   171dc:	d7be                	sw	a5,236(sp)
   171de:	d5ba                	sw	a4,232(sp)
   171e0:	469d                	li	a3,7
   171e2:	08a1                	addi	a7,a7,8
   171e4:	34e6cb63          	blt	a3,a4,1753a <_svfprintf_r+0x4ec>
   171e8:	020b8163          	beqz	s7,1720a <_svfprintf_r+0x1bc>
   171ec:	572e                	lw	a4,232(sp)
   171ee:	01b4                	addi	a3,sp,200
   171f0:	00d8a023          	sw	a3,0(a7)
   171f4:	0789                	addi	a5,a5,2
   171f6:	4689                	li	a3,2
   171f8:	0705                	addi	a4,a4,1
   171fa:	00d8a223          	sw	a3,4(a7)
   171fe:	d7be                	sw	a5,236(sp)
   17200:	d5ba                	sw	a4,232(sp)
   17202:	469d                	li	a3,7
   17204:	08a1                	addi	a7,a7,8
   17206:	24e6c4e3          	blt	a3,a4,17c4e <_svfprintf_r+0xc00>
   1720a:	08000713          	li	a4,128
   1720e:	08e907e3          	beq	s2,a4,17a9c <_svfprintf_r+0xa4e>
   17212:	419d8db3          	sub	s11,s11,s9
   17216:	11b045e3          	bgtz	s11,17b20 <_svfprintf_r+0xad2>
   1721a:	100a7713          	andi	a4,s4,256
   1721e:	7a071a63          	bnez	a4,179d2 <_svfprintf_r+0x984>
   17222:	572e                	lw	a4,232(sp)
   17224:	97e6                	add	a5,a5,s9
   17226:	0168a023          	sw	s6,0(a7)
   1722a:	0705                	addi	a4,a4,1
   1722c:	0198a223          	sw	s9,4(a7)
   17230:	d7be                	sw	a5,236(sp)
   17232:	d5ba                	sw	a4,232(sp)
   17234:	469d                	li	a3,7
   17236:	3ce6cb63          	blt	a3,a4,1760c <_svfprintf_r+0x5be>
   1723a:	08a1                	addi	a7,a7,8
   1723c:	004a7a13          	andi	s4,s4,4
   17240:	000a0663          	beqz	s4,1724c <_svfprintf_r+0x1fe>
   17244:	415984b3          	sub	s1,s3,s5
   17248:	3c904d63          	bgtz	s1,17622 <_svfprintf_r+0x5d4>
   1724c:	0159d363          	bge	s3,s5,17252 <_svfprintf_r+0x204>
   17250:	89d6                	mv	s3,s5
   17252:	4732                	lw	a4,12(sp)
   17254:	974e                	add	a4,a4,s3
   17256:	c63a                	sw	a4,12(sp)
   17258:	12079fe3          	bnez	a5,17b96 <_svfprintf_r+0xb48>
   1725c:	47c2                	lw	a5,16(sp)
   1725e:	d582                	sw	zero,232(sp)
   17260:	c789                	beqz	a5,1726a <_svfprintf_r+0x21c>
   17262:	45c2                	lw	a1,16(sp)
   17264:	856a                	mv	a0,s10
   17266:	8f9fb0ef          	jal	ra,12b5e <_free_r>
   1726a:	10c10893          	addi	a7,sp,268
   1726e:	8b22                	mv	s6,s0
   17270:	000b4783          	lbu	a5,0(s6)
   17274:	e6079ce3          	bnez	a5,170ec <_svfprintf_r+0x9e>
   17278:	57be                	lw	a5,236(sp)
   1727a:	c399                	beqz	a5,17280 <_svfprintf_r+0x232>
   1727c:	3120106f          	j	1858e <_svfprintf_r+0x1540>
   17280:	00cc5783          	lhu	a5,12(s8)
   17284:	0407f793          	andi	a5,a5,64
   17288:	c399                	beqz	a5,1728e <_svfprintf_r+0x240>
   1728a:	0a30106f          	j	18b2c <_svfprintf_r+0x1ade>
   1728e:	1ec12083          	lw	ra,492(sp)
   17292:	1e812403          	lw	s0,488(sp)
   17296:	4532                	lw	a0,12(sp)
   17298:	1e412483          	lw	s1,484(sp)
   1729c:	1e012903          	lw	s2,480(sp)
   172a0:	1dc12983          	lw	s3,476(sp)
   172a4:	1d812a03          	lw	s4,472(sp)
   172a8:	1d412a83          	lw	s5,468(sp)
   172ac:	1d012b03          	lw	s6,464(sp)
   172b0:	1cc12b83          	lw	s7,460(sp)
   172b4:	1c812c03          	lw	s8,456(sp)
   172b8:	1c412c83          	lw	s9,452(sp)
   172bc:	1c012d03          	lw	s10,448(sp)
   172c0:	1bc12d83          	lw	s11,444(sp)
   172c4:	617d                	addi	sp,sp,496
   172c6:	8082                	ret
   172c8:	856a                	mv	a0,s10
   172ca:	ef7fd0ef          	jal	ra,151c0 <_localeconv_r>
   172ce:	415c                	lw	a5,4(a0)
   172d0:	853e                	mv	a0,a5
   172d2:	c6be                	sw	a5,76(sp)
   172d4:	a64f90ef          	jal	ra,10538 <strlen>
   172d8:	87aa                	mv	a5,a0
   172da:	856a                	mv	a0,s10
   172dc:	84be                	mv	s1,a5
   172de:	c4be                	sw	a5,72(sp)
   172e0:	ee1fd0ef          	jal	ra,151c0 <_localeconv_r>
   172e4:	451c                	lw	a5,8(a0)
   172e6:	de3e                	sw	a5,60(sp)
   172e8:	3c0498e3          	bnez	s1,17eb8 <_svfprintf_r+0xe6a>
   172ec:	00044483          	lbu	s1,0(s0)
   172f0:	bdb1                	j	1714c <_svfprintf_r+0xfe>
   172f2:	00044483          	lbu	s1,0(s0)
   172f6:	020a6a13          	ori	s4,s4,32
   172fa:	bd89                	j	1714c <_svfprintf_r+0xfe>
   172fc:	416404b3          	sub	s1,s0,s6
   17300:	e16413e3          	bne	s0,s6,17106 <_svfprintf_r+0xb8>
   17304:	00044783          	lbu	a5,0(s0)
   17308:	b515                	j	1712c <_svfprintf_r+0xde>
   1730a:	11d0                	addi	a2,sp,228
   1730c:	85e2                	mv	a1,s8
   1730e:	856a                	mv	a0,s10
   17310:	63f020ef          	jal	ra,1a14e <__ssprint_r>
   17314:	f535                	bnez	a0,17280 <_svfprintf_r+0x232>
   17316:	10c10893          	addi	a7,sp,268
   1731a:	b521                	j	17122 <_svfprintf_r+0xd4>
   1731c:	008a7793          	andi	a5,s4,8
   17320:	88e6                	mv	a7,s9
   17322:	3c0790e3          	bnez	a5,17ee2 <_svfprintf_r+0xe94>
   17326:	47d2                	lw	a5,20(sp)
   17328:	1908                	addi	a0,sp,176
   1732a:	c866                	sw	s9,16(sp)
   1732c:	079d                	addi	a5,a5,7
   1732e:	9be1                	andi	a5,a5,-8
   17330:	438c                	lw	a1,0(a5)
   17332:	43d0                	lw	a2,4(a5)
   17334:	07a1                	addi	a5,a5,8
   17336:	ca3e                	sw	a5,20(sp)
   17338:	76b060ef          	jal	ra,1e2a2 <__extenddftf2>
   1733c:	57ca                	lw	a5,176(sp)
   1733e:	48c2                	lw	a7,16(sp)
   17340:	d9be                	sw	a5,240(sp)
   17342:	57da                	lw	a5,180(sp)
   17344:	dbbe                	sw	a5,244(sp)
   17346:	57ea                	lw	a5,184(sp)
   17348:	ddbe                	sw	a5,248(sp)
   1734a:	57fa                	lw	a5,188(sp)
   1734c:	dfbe                	sw	a5,252(sp)
   1734e:	1988                	addi	a0,sp,240
   17350:	c846                	sw	a7,16(sp)
   17352:	e1ffd0ef          	jal	ra,15170 <_ldcheck>
   17356:	c7aa                	sw	a0,204(sp)
   17358:	4789                	li	a5,2
   1735a:	48c2                	lw	a7,16(sp)
   1735c:	00f51463          	bne	a0,a5,17364 <_svfprintf_r+0x316>
   17360:	7bb0006f          	j	1831a <_svfprintf_r+0x12cc>
   17364:	4785                	li	a5,1
   17366:	00f51463          	bne	a0,a5,1736e <_svfprintf_r+0x320>
   1736a:	1100106f          	j	1847a <_svfprintf_r+0x142c>
   1736e:	06100793          	li	a5,97
   17372:	00f49463          	bne	s1,a5,1737a <_svfprintf_r+0x32c>
   17376:	7940106f          	j	18b0a <_svfprintf_r+0x1abc>
   1737a:	04100793          	li	a5,65
   1737e:	00f49463          	bne	s1,a5,17386 <_svfprintf_r+0x338>
   17382:	45c0106f          	j	187de <_svfprintf_r+0x1790>
   17386:	fdf4f713          	andi	a4,s1,-33
   1738a:	57fd                	li	a5,-1
   1738c:	d43a                	sw	a4,40(sp)
   1738e:	00fd9463          	bne	s11,a5,17396 <_svfprintf_r+0x348>
   17392:	22c0106f          	j	185be <_svfprintf_r+0x1570>
   17396:	04700793          	li	a5,71
   1739a:	00f71463          	bne	a4,a5,173a2 <_svfprintf_r+0x354>
   1739e:	7800106f          	j	18b1e <_svfprintf_r+0x1ad0>
   173a2:	5bfe                	lw	s7,252(sp)
   173a4:	c8d2                	sw	s4,80(sp)
   173a6:	5e4e                	lw	t3,240(sp)
   173a8:	5ede                	lw	t4,244(sp)
   173aa:	5f6e                	lw	t5,248(sp)
   173ac:	100a6793          	ori	a5,s4,256
   173b0:	000bd463          	bgez	s7,173b8 <_svfprintf_r+0x36a>
   173b4:	6560106f          	j	18a0a <_svfprintf_r+0x19bc>
   173b8:	cc82                	sw	zero,88(sp)
   173ba:	8a3e                	mv	s4,a5
   173bc:	c802                	sw	zero,16(sp)
   173be:	5722                	lw	a4,40(sp)
   173c0:	04600793          	li	a5,70
   173c4:	00f71463          	bne	a4,a5,173cc <_svfprintf_r+0x37e>
   173c8:	2ba0106f          	j	18682 <_svfprintf_r+0x1634>
   173cc:	04500793          	li	a5,69
   173d0:	c0c6                	sw	a7,64(sp)
   173d2:	00f71463          	bne	a4,a5,173da <_svfprintf_r+0x38c>
   173d6:	6540106f          	j	18a2a <_svfprintf_r+0x19dc>
   173da:	0b010a93          	addi	s5,sp,176
   173de:	099c                	addi	a5,sp,208
   173e0:	01f8                	addi	a4,sp,204
   173e2:	0dc10813          	addi	a6,sp,220
   173e6:	86ee                	mv	a3,s11
   173e8:	4609                	li	a2,2
   173ea:	85d6                	mv	a1,s5
   173ec:	856a                	mv	a0,s10
   173ee:	d972                	sw	t3,176(sp)
   173f0:	d272                	sw	t3,36(sp)
   173f2:	db76                	sw	t4,180(sp)
   173f4:	d076                	sw	t4,32(sp)
   173f6:	dd7a                	sw	t5,184(sp)
   173f8:	ce7a                	sw	t5,28(sp)
   173fa:	df5e                	sw	s7,188(sp)
   173fc:	fa3fc0ef          	jal	ra,1439e <_ldtoa_r>
   17400:	5722                	lw	a4,40(sp)
   17402:	04700793          	li	a5,71
   17406:	4f72                	lw	t5,28(sp)
   17408:	5e82                	lw	t4,32(sp)
   1740a:	5e12                	lw	t3,36(sp)
   1740c:	4886                	lw	a7,64(sp)
   1740e:	8b2a                	mv	s6,a0
   17410:	00f70463          	beq	a4,a5,17418 <_svfprintf_r+0x3ca>
   17414:	0df0106f          	j	18cf2 <_svfprintf_r+0x1ca4>
   17418:	47c6                	lw	a5,80(sp)
   1741a:	8b85                	andi	a5,a5,1
   1741c:	c399                	beqz	a5,17422 <_svfprintf_r+0x3d4>
   1741e:	6480106f          	j	18a66 <_svfprintf_r+0x1a18>
   17422:	46fe                	lw	a3,220(sp)
   17424:	416687b3          	sub	a5,a3,s6
   17428:	d03e                	sw	a5,32(sp)
   1742a:	473e                	lw	a4,204(sp)
   1742c:	04700793          	li	a5,71
   17430:	ce3a                	sw	a4,28(sp)
   17432:	5722                	lw	a4,40(sp)
   17434:	00f71463          	bne	a4,a5,1743c <_svfprintf_r+0x3ee>
   17438:	1a80106f          	j	185e0 <_svfprintf_r+0x1592>
   1743c:	5722                	lw	a4,40(sp)
   1743e:	04600793          	li	a5,70
   17442:	00f71463          	bne	a4,a5,1744a <_svfprintf_r+0x3fc>
   17446:	37e0106f          	j	187c4 <_svfprintf_r+0x1776>
   1744a:	47f2                	lw	a5,28(sp)
   1744c:	55a2                	lw	a1,40(sp)
   1744e:	04100613          	li	a2,65
   17452:	17fd                	addi	a5,a5,-1
   17454:	c7be                	sw	a5,204(sp)
   17456:	0ff4f713          	andi	a4,s1,255
   1745a:	4681                	li	a3,0
   1745c:	00c59663          	bne	a1,a2,17468 <_svfprintf_r+0x41a>
   17460:	073d                	addi	a4,a4,15
   17462:	0ff77713          	andi	a4,a4,255
   17466:	4685                	li	a3,1
   17468:	0ce10a23          	sb	a4,212(sp)
   1746c:	02b00713          	li	a4,43
   17470:	0007d763          	bgez	a5,1747e <_svfprintf_r+0x430>
   17474:	4772                	lw	a4,28(sp)
   17476:	4785                	li	a5,1
   17478:	8f99                	sub	a5,a5,a4
   1747a:	02d00713          	li	a4,45
   1747e:	0ce10aa3          	sb	a4,213(sp)
   17482:	4725                	li	a4,9
   17484:	00f74463          	blt	a4,a5,1748c <_svfprintf_r+0x43e>
   17488:	6ba0106f          	j	18b42 <_svfprintf_r+0x1af4>
   1748c:	0e310513          	addi	a0,sp,227
   17490:	85aa                	mv	a1,a0
   17492:	46a9                	li	a3,10
   17494:	06300e13          	li	t3,99
   17498:	02d7e733          	rem	a4,a5,a3
   1749c:	862e                	mv	a2,a1
   1749e:	883e                	mv	a6,a5
   174a0:	15fd                	addi	a1,a1,-1
   174a2:	03070713          	addi	a4,a4,48
   174a6:	fee60fa3          	sb	a4,-1(a2)
   174aa:	02d7c7b3          	div	a5,a5,a3
   174ae:	ff0e45e3          	blt	t3,a6,17498 <_svfprintf_r+0x44a>
   174b2:	03078793          	addi	a5,a5,48
   174b6:	0ff7f693          	andi	a3,a5,255
   174ba:	fed58fa3          	sb	a3,-1(a1)
   174be:	ffe60793          	addi	a5,a2,-2
   174c2:	00a7e463          	bltu	a5,a0,174ca <_svfprintf_r+0x47c>
   174c6:	01f0106f          	j	18ce4 <_svfprintf_r+0x1c96>
   174ca:	0d610713          	addi	a4,sp,214
   174ce:	a019                	j	174d4 <_svfprintf_r+0x486>
   174d0:	0007c683          	lbu	a3,0(a5)
   174d4:	00d70023          	sb	a3,0(a4)
   174d8:	0785                	addi	a5,a5,1
   174da:	0705                	addi	a4,a4,1
   174dc:	fea79ae3          	bne	a5,a0,174d0 <_svfprintf_r+0x482>
   174e0:	0e510793          	addi	a5,sp,229
   174e4:	0d610713          	addi	a4,sp,214
   174e8:	8f91                	sub	a5,a5,a2
   174ea:	97ba                	add	a5,a5,a4
   174ec:	09d8                	addi	a4,sp,212
   174ee:	8f99                	sub	a5,a5,a4
   174f0:	dc3e                	sw	a5,56(sp)
   174f2:	56e2                	lw	a3,56(sp)
   174f4:	5702                	lw	a4,32(sp)
   174f6:	4785                	li	a5,1
   174f8:	00e68cb3          	add	s9,a3,a4
   174fc:	00e7c463          	blt	a5,a4,17504 <_svfprintf_r+0x4b6>
   17500:	7700106f          	j	18c70 <_svfprintf_r+0x1c22>
   17504:	57b2                	lw	a5,44(sp)
   17506:	9cbe                	add	s9,s9,a5
   17508:	47c6                	lw	a5,80(sp)
   1750a:	fffcca93          	not	s5,s9
   1750e:	41fada93          	srai	s5,s5,0x1f
   17512:	bff7fa13          	andi	s4,a5,-1025
   17516:	100a6a13          	ori	s4,s4,256
   1751a:	015cfab3          	and	s5,s9,s5
   1751e:	d402                	sw	zero,40(sp)
   17520:	d202                	sw	zero,36(sp)
   17522:	ce02                	sw	zero,28(sp)
   17524:	47e6                	lw	a5,88(sp)
   17526:	e399                	bnez	a5,1752c <_svfprintf_r+0x4de>
   17528:	10c0106f          	j	18634 <_svfprintf_r+0x15e6>
   1752c:	02d00793          	li	a5,45
   17530:	0cf103a3          	sb	a5,199(sp)
   17534:	4d81                	li	s11,0
   17536:	0a85                	addi	s5,s5,1
   17538:	b1bd                	j	171a6 <_svfprintf_r+0x158>
   1753a:	11d0                	addi	a2,sp,228
   1753c:	85e2                	mv	a1,s8
   1753e:	856a                	mv	a0,s10
   17540:	40f020ef          	jal	ra,1a14e <__ssprint_r>
   17544:	66051063          	bnez	a0,17ba4 <_svfprintf_r+0xb56>
   17548:	57be                	lw	a5,236(sp)
   1754a:	10c10893          	addi	a7,sp,268
   1754e:	b969                	j	171e8 <_svfprintf_r+0x19a>
   17550:	572e                	lw	a4,232(sp)
   17552:	00178c93          	addi	s9,a5,1
   17556:	5782                	lw	a5,32(sp)
   17558:	4685                	li	a3,1
   1755a:	0168a023          	sw	s6,0(a7)
   1755e:	00170493          	addi	s1,a4,1
   17562:	00888913          	addi	s2,a7,8
   17566:	00f6d9e3          	bge	a3,a5,17d78 <_svfprintf_r+0xd2a>
   1756a:	4785                	li	a5,1
   1756c:	00f8a223          	sw	a5,4(a7)
   17570:	d7e6                	sw	s9,236(sp)
   17572:	d5a6                	sw	s1,232(sp)
   17574:	479d                	li	a5,7
   17576:	0e97c9e3          	blt	a5,s1,17e68 <_svfprintf_r+0xe1a>
   1757a:	57b2                	lw	a5,44(sp)
   1757c:	5742                	lw	a4,48(sp)
   1757e:	0485                	addi	s1,s1,1
   17580:	9cbe                	add	s9,s9,a5
   17582:	00f92223          	sw	a5,4(s2)
   17586:	00e92023          	sw	a4,0(s2)
   1758a:	d7e6                	sw	s9,236(sp)
   1758c:	d5a6                	sw	s1,232(sp)
   1758e:	479d                	li	a5,7
   17590:	0921                	addi	s2,s2,8
   17592:	0e97c8e3          	blt	a5,s1,17e82 <_svfprintf_r+0xe34>
   17596:	57ce                	lw	a5,240(sp)
   17598:	00148693          	addi	a3,s1,1
   1759c:	110c                	addi	a1,sp,160
   1759e:	d93e                	sw	a5,176(sp)
   175a0:	57de                	lw	a5,244(sp)
   175a2:	1908                	addi	a0,sp,176
   175a4:	ce36                	sw	a3,28(sp)
   175a6:	db3e                	sw	a5,180(sp)
   175a8:	57ee                	lw	a5,248(sp)
   175aa:	d102                	sw	zero,160(sp)
   175ac:	d302                	sw	zero,164(sp)
   175ae:	dd3e                	sw	a5,184(sp)
   175b0:	57fe                	lw	a5,252(sp)
   175b2:	d502                	sw	zero,168(sp)
   175b4:	d702                	sw	zero,172(sp)
   175b6:	df3e                	sw	a5,188(sp)
   175b8:	765040ef          	jal	ra,1c51c <__eqtf2>
   175bc:	46f2                	lw	a3,28(sp)
   175be:	5782                	lw	a5,32(sp)
   175c0:	00890893          	addi	a7,s2,8
   175c4:	8736                	mv	a4,a3
   175c6:	fff78d93          	addi	s11,a5,-1
   175ca:	7c050563          	beqz	a0,17d94 <_svfprintf_r+0xd46>
   175ce:	001b0813          	addi	a6,s6,1
   175d2:	9cee                	add	s9,s9,s11
   175d4:	01092023          	sw	a6,0(s2)
   175d8:	01b92223          	sw	s11,4(s2)
   175dc:	d7e6                	sw	s9,236(sp)
   175de:	d5b6                	sw	a3,232(sp)
   175e0:	479d                	li	a5,7
   175e2:	38d7cde3          	blt	a5,a3,1817c <_svfprintf_r+0x112e>
   175e6:	01090793          	addi	a5,s2,16
   175ea:	00248713          	addi	a4,s1,2
   175ee:	8946                	mv	s2,a7
   175f0:	88be                	mv	a7,a5
   175f2:	5662                	lw	a2,56(sp)
   175f4:	09d4                	addi	a3,sp,212
   175f6:	00d92023          	sw	a3,0(s2)
   175fa:	00cc87b3          	add	a5,s9,a2
   175fe:	00c92223          	sw	a2,4(s2)
   17602:	d7be                	sw	a5,236(sp)
   17604:	d5ba                	sw	a4,232(sp)
   17606:	469d                	li	a3,7
   17608:	c2e6dae3          	bge	a3,a4,1723c <_svfprintf_r+0x1ee>
   1760c:	11d0                	addi	a2,sp,228
   1760e:	85e2                	mv	a1,s8
   17610:	856a                	mv	a0,s10
   17612:	33d020ef          	jal	ra,1a14e <__ssprint_r>
   17616:	58051763          	bnez	a0,17ba4 <_svfprintf_r+0xb56>
   1761a:	57be                	lw	a5,236(sp)
   1761c:	10c10893          	addi	a7,sp,268
   17620:	b931                	j	1723c <_svfprintf_r+0x1ee>
   17622:	46c1                	li	a3,16
   17624:	572e                	lw	a4,232(sp)
   17626:	0096c463          	blt	a3,s1,1762e <_svfprintf_r+0x5e0>
   1762a:	3f40106f          	j	18a1e <_svfprintf_r+0x19d0>
   1762e:	0001f6b7          	lui	a3,0x1f
   17632:	e8468e93          	addi	t4,a3,-380 # 1ee84 <blanks.1>
   17636:	4941                	li	s2,16
   17638:	4a1d                	li	s4,7
   1763a:	8b76                	mv	s6,t4
   1763c:	a021                	j	17644 <_svfprintf_r+0x5f6>
   1763e:	14c1                	addi	s1,s1,-16
   17640:	02995b63          	bge	s2,s1,17676 <_svfprintf_r+0x628>
   17644:	07c1                	addi	a5,a5,16
   17646:	0705                	addi	a4,a4,1
   17648:	0168a023          	sw	s6,0(a7)
   1764c:	0128a223          	sw	s2,4(a7)
   17650:	d7be                	sw	a5,236(sp)
   17652:	d5ba                	sw	a4,232(sp)
   17654:	08a1                	addi	a7,a7,8
   17656:	feea54e3          	bge	s4,a4,1763e <_svfprintf_r+0x5f0>
   1765a:	11d0                	addi	a2,sp,228
   1765c:	85e2                	mv	a1,s8
   1765e:	856a                	mv	a0,s10
   17660:	2ef020ef          	jal	ra,1a14e <__ssprint_r>
   17664:	54051063          	bnez	a0,17ba4 <_svfprintf_r+0xb56>
   17668:	14c1                	addi	s1,s1,-16
   1766a:	57be                	lw	a5,236(sp)
   1766c:	572e                	lw	a4,232(sp)
   1766e:	10c10893          	addi	a7,sp,268
   17672:	fc9949e3          	blt	s2,s1,17644 <_svfprintf_r+0x5f6>
   17676:	8eda                	mv	t4,s6
   17678:	97a6                	add	a5,a5,s1
   1767a:	0705                	addi	a4,a4,1
   1767c:	01d8a023          	sw	t4,0(a7)
   17680:	0098a223          	sw	s1,4(a7)
   17684:	d7be                	sw	a5,236(sp)
   17686:	d5ba                	sw	a4,232(sp)
   17688:	469d                	li	a3,7
   1768a:	bce6d1e3          	bge	a3,a4,1724c <_svfprintf_r+0x1fe>
   1768e:	11d0                	addi	a2,sp,228
   17690:	85e2                	mv	a1,s8
   17692:	856a                	mv	a0,s10
   17694:	2bb020ef          	jal	ra,1a14e <__ssprint_r>
   17698:	50051663          	bnez	a0,17ba4 <_svfprintf_r+0xb56>
   1769c:	57be                	lw	a5,236(sp)
   1769e:	b67d                	j	1724c <_svfprintf_r+0x1fe>
   176a0:	47d2                	lw	a5,20(sp)
   176a2:	0c0103a3          	sb	zero,199(sp)
   176a6:	88e6                	mv	a7,s9
   176a8:	0007ab03          	lw	s6,0(a5)
   176ac:	00478913          	addi	s2,a5,4
   176b0:	4c0b03e3          	beqz	s6,18376 <_svfprintf_r+0x1328>
   176b4:	57fd                	li	a5,-1
   176b6:	12fd87e3          	beq	s11,a5,17fe4 <_svfprintf_r+0xf96>
   176ba:	866e                	mv	a2,s11
   176bc:	4581                	li	a1,0
   176be:	855a                	mv	a0,s6
   176c0:	ca66                	sw	s9,20(sp)
   176c2:	b34fe0ef          	jal	ra,159f6 <memchr>
   176c6:	c82a                	sw	a0,16(sp)
   176c8:	48d2                	lw	a7,20(sp)
   176ca:	e119                	bnez	a0,176d0 <_svfprintf_r+0x682>
   176cc:	08a0106f          	j	18756 <_svfprintf_r+0x1708>
   176d0:	47c2                	lw	a5,16(sp)
   176d2:	ca4a                	sw	s2,20(sp)
   176d4:	c802                	sw	zero,16(sp)
   176d6:	41678cb3          	sub	s9,a5,s6
   176da:	0c714783          	lbu	a5,199(sp)
   176de:	fffcca93          	not	s5,s9
   176e2:	41fada93          	srai	s5,s5,0x1f
   176e6:	d402                	sw	zero,40(sp)
   176e8:	d202                	sw	zero,36(sp)
   176ea:	ce02                	sw	zero,28(sp)
   176ec:	015cfab3          	and	s5,s9,s5
   176f0:	4d81                	li	s11,0
   176f2:	aa078ae3          	beqz	a5,171a6 <_svfprintf_r+0x158>
   176f6:	0a85                	addi	s5,s5,1
   176f8:	b47d                	j	171a6 <_svfprintf_r+0x158>
   176fa:	4752                	lw	a4,20(sp)
   176fc:	88e6                	mv	a7,s9
   176fe:	0c0103a3          	sb	zero,199(sp)
   17702:	431c                	lw	a5,0(a4)
   17704:	0711                	addi	a4,a4,4
   17706:	ca3a                	sw	a4,20(sp)
   17708:	14f10623          	sb	a5,332(sp)
   1770c:	4a85                	li	s5,1
   1770e:	4c85                	li	s9,1
   17710:	14c10b13          	addi	s6,sp,332
   17714:	b461                	j	1719c <_svfprintf_r+0x14e>
   17716:	00044483          	lbu	s1,0(s0)
   1771a:	06800793          	li	a5,104
   1771e:	08f48be3          	beq	s1,a5,17fb4 <_svfprintf_r+0xf66>
   17722:	040a6a13          	ori	s4,s4,64
   17726:	b41d                	j	1714c <_svfprintf_r+0xfe>
   17728:	46d2                	lw	a3,20(sp)
   1772a:	020a7793          	andi	a5,s4,32
   1772e:	88e6                	mv	a7,s9
   17730:	4298                	lw	a4,0(a3)
   17732:	0691                	addi	a3,a3,4
   17734:	ca36                	sw	a3,20(sp)
   17736:	78079e63          	bnez	a5,17ed2 <_svfprintf_r+0xe84>
   1773a:	010a7793          	andi	a5,s4,16
   1773e:	420797e3          	bnez	a5,1836c <_svfprintf_r+0x131e>
   17742:	040a7793          	andi	a5,s4,64
   17746:	5e079be3          	bnez	a5,1853c <_svfprintf_r+0x14ee>
   1774a:	200a7a13          	andi	s4,s4,512
   1774e:	400a0fe3          	beqz	s4,1836c <_svfprintf_r+0x131e>
   17752:	47b2                	lw	a5,12(sp)
   17754:	8b22                	mv	s6,s0
   17756:	00f70023          	sb	a5,0(a4)
   1775a:	be19                	j	17270 <_svfprintf_r+0x222>
   1775c:	00044483          	lbu	s1,0(s0)
   17760:	06c00793          	li	a5,108
   17764:	02f486e3          	beq	s1,a5,17f90 <_svfprintf_r+0xf42>
   17768:	010a6a13          	ori	s4,s4,16
   1776c:	b2c5                	j	1714c <_svfprintf_r+0xfe>
   1776e:	4752                	lw	a4,20(sp)
   17770:	77e1                	lui	a5,0xffff8
   17772:	8307c793          	xori	a5,a5,-2000
   17776:	0cf11423          	sh	a5,200(sp)
   1777a:	00470793          	addi	a5,a4,4
   1777e:	88e6                	mv	a7,s9
   17780:	ca3e                	sw	a5,20(sp)
   17782:	00072c83          	lw	s9,0(a4)
   17786:	67f9                	lui	a5,0x1e
   17788:	6d078793          	addi	a5,a5,1744 # 1e6d0 <__clzsi2+0xa2>
   1778c:	da3e                	sw	a5,52(sp)
   1778e:	4901                	li	s2,0
   17790:	002a6b93          	ori	s7,s4,2
   17794:	4789                	li	a5,2
   17796:	07800493          	li	s1,120
   1779a:	0c0103a3          	sb	zero,199(sp)
   1779e:	56fd                	li	a3,-1
   177a0:	18dd8a63          	beq	s11,a3,17934 <_svfprintf_r+0x8e6>
   177a4:	012ce6b3          	or	a3,s9,s2
   177a8:	f7fbfa13          	andi	s4,s7,-129
   177ac:	18069363          	bnez	a3,17932 <_svfprintf_r+0x8e4>
   177b0:	1c0d9d63          	bnez	s11,1798a <_svfprintf_r+0x93c>
   177b4:	5a079d63          	bnez	a5,17d6e <_svfprintf_r+0xd20>
   177b8:	001bfc93          	andi	s9,s7,1
   177bc:	1b010b13          	addi	s6,sp,432
   177c0:	6e0c9563          	bnez	s9,17eaa <_svfprintf_r+0xe5c>
   177c4:	0c714783          	lbu	a5,199(sp)
   177c8:	8aee                	mv	s5,s11
   177ca:	019dd363          	bge	s11,s9,177d0 <_svfprintf_r+0x782>
   177ce:	8ae6                	mv	s5,s9
   177d0:	c802                	sw	zero,16(sp)
   177d2:	d402                	sw	zero,40(sp)
   177d4:	d202                	sw	zero,36(sp)
   177d6:	ce02                	sw	zero,28(sp)
   177d8:	ff99                	bnez	a5,176f6 <_svfprintf_r+0x6a8>
   177da:	b2f1                	j	171a6 <_svfprintf_r+0x158>
   177dc:	88e6                	mv	a7,s9
   177de:	010a6a13          	ori	s4,s4,16
   177e2:	020a7793          	andi	a5,s4,32
   177e6:	5e078c63          	beqz	a5,17dde <_svfprintf_r+0xd90>
   177ea:	47d2                	lw	a5,20(sp)
   177ec:	00778b13          	addi	s6,a5,7
   177f0:	ff8b7b13          	andi	s6,s6,-8
   177f4:	000b2c83          	lw	s9,0(s6)
   177f8:	004b2903          	lw	s2,4(s6)
   177fc:	008b0793          	addi	a5,s6,8
   17800:	ca3e                	sw	a5,20(sp)
   17802:	bffa7b93          	andi	s7,s4,-1025
   17806:	4781                	li	a5,0
   17808:	bf49                	j	1779a <_svfprintf_r+0x74c>
   1780a:	88e6                	mv	a7,s9
   1780c:	010a6b93          	ori	s7,s4,16
   17810:	020bf793          	andi	a5,s7,32
   17814:	62078963          	beqz	a5,17e46 <_svfprintf_r+0xdf8>
   17818:	47d2                	lw	a5,20(sp)
   1781a:	00778b13          	addi	s6,a5,7
   1781e:	ff8b7b13          	andi	s6,s6,-8
   17822:	008b0793          	addi	a5,s6,8
   17826:	ca3e                	sw	a5,20(sp)
   17828:	000b2c83          	lw	s9,0(s6)
   1782c:	004b2903          	lw	s2,4(s6)
   17830:	4785                	li	a5,1
   17832:	b7a5                	j	1779a <_svfprintf_r+0x74c>
   17834:	00044483          	lbu	s1,0(s0)
   17838:	080a6a13          	ori	s4,s4,128
   1783c:	ba01                	j	1714c <_svfprintf_r+0xfe>
   1783e:	00044483          	lbu	s1,0(s0)
   17842:	008a6a13          	ori	s4,s4,8
   17846:	b219                	j	1714c <_svfprintf_r+0xfe>
   17848:	88e6                	mv	a7,s9
   1784a:	010a6a13          	ori	s4,s4,16
   1784e:	020a7793          	andi	a5,s4,32
   17852:	5a078763          	beqz	a5,17e00 <_svfprintf_r+0xdb2>
   17856:	47d2                	lw	a5,20(sp)
   17858:	00778b13          	addi	s6,a5,7
   1785c:	ff8b7b13          	andi	s6,s6,-8
   17860:	004b2783          	lw	a5,4(s6)
   17864:	000b2c83          	lw	s9,0(s6)
   17868:	008b0713          	addi	a4,s6,8
   1786c:	ca3a                	sw	a4,20(sp)
   1786e:	893e                	mv	s2,a5
   17870:	5a07cc63          	bltz	a5,17e28 <_svfprintf_r+0xdda>
   17874:	57fd                	li	a5,-1
   17876:	8bd2                	mv	s7,s4
   17878:	00fd8863          	beq	s11,a5,17888 <_svfprintf_r+0x83a>
   1787c:	012ce7b3          	or	a5,s9,s2
   17880:	f7fa7b93          	andi	s7,s4,-129
   17884:	4e078263          	beqz	a5,17d68 <_svfprintf_r+0xd1a>
   17888:	10091ae3          	bnez	s2,1819c <_svfprintf_r+0x114e>
   1788c:	47a5                	li	a5,9
   1788e:	1197e7e3          	bltu	a5,s9,1819c <_svfprintf_r+0x114e>
   17892:	030c8c93          	addi	s9,s9,48 # 4030 <register_fini-0xc044>
   17896:	1b9107a3          	sb	s9,431(sp)
   1789a:	8a5e                	mv	s4,s7
   1789c:	4c85                	li	s9,1
   1789e:	1af10b13          	addi	s6,sp,431
   178a2:	b70d                	j	177c4 <_svfprintf_r+0x776>
   178a4:	47d2                	lw	a5,20(sp)
   178a6:	00044483          	lbu	s1,0(s0)
   178aa:	0007a983          	lw	s3,0(a5)
   178ae:	0791                	addi	a5,a5,4
   178b0:	ca3e                	sw	a5,20(sp)
   178b2:	8809dde3          	bgez	s3,1714c <_svfprintf_r+0xfe>
   178b6:	413009b3          	neg	s3,s3
   178ba:	004a6a13          	ori	s4,s4,4
   178be:	b079                	j	1714c <_svfprintf_r+0xfe>
   178c0:	00044483          	lbu	s1,0(s0)
   178c4:	001a6a13          	ori	s4,s4,1
   178c8:	b051                	j	1714c <_svfprintf_r+0xfe>
   178ca:	0c714783          	lbu	a5,199(sp)
   178ce:	00044483          	lbu	s1,0(s0)
   178d2:	86079de3          	bnez	a5,1714c <_svfprintf_r+0xfe>
   178d6:	02000793          	li	a5,32
   178da:	0cf103a3          	sb	a5,199(sp)
   178de:	b0bd                	j	1714c <_svfprintf_r+0xfe>
   178e0:	00044483          	lbu	s1,0(s0)
   178e4:	004a6a13          	ori	s4,s4,4
   178e8:	b095                	j	1714c <_svfprintf_r+0xfe>
   178ea:	02b00793          	li	a5,43
   178ee:	00044483          	lbu	s1,0(s0)
   178f2:	0cf103a3          	sb	a5,199(sp)
   178f6:	b899                	j	1714c <_svfprintf_r+0xfe>
   178f8:	00044483          	lbu	s1,0(s0)
   178fc:	00140713          	addi	a4,s0,1
   17900:	01749463          	bne	s1,s7,17908 <_svfprintf_r+0x8ba>
   17904:	3a60106f          	j	18caa <_svfprintf_r+0x1c5c>
   17908:	fd048693          	addi	a3,s1,-48
   1790c:	843a                	mv	s0,a4
   1790e:	4d81                	li	s11,0
   17910:	82daefe3          	bltu	s5,a3,1714e <_svfprintf_r+0x100>
   17914:	00044483          	lbu	s1,0(s0)
   17918:	002d9793          	slli	a5,s11,0x2
   1791c:	97ee                	add	a5,a5,s11
   1791e:	0786                	slli	a5,a5,0x1
   17920:	00d78db3          	add	s11,a5,a3
   17924:	fd048693          	addi	a3,s1,-48
   17928:	0405                	addi	s0,s0,1
   1792a:	fedaf5e3          	bgeu	s5,a3,17914 <_svfprintf_r+0x8c6>
   1792e:	821ff06f          	j	1714e <_svfprintf_r+0x100>
   17932:	8bd2                	mv	s7,s4
   17934:	4685                	li	a3,1
   17936:	f4d789e3          	beq	a5,a3,17888 <_svfprintf_r+0x83a>
   1793a:	4689                	li	a3,2
   1793c:	06d78063          	beq	a5,a3,1799c <_svfprintf_r+0x94e>
   17940:	1b010b13          	addi	s6,sp,432
   17944:	01d91713          	slli	a4,s2,0x1d
   17948:	007cf793          	andi	a5,s9,7
   1794c:	003cdc93          	srli	s9,s9,0x3
   17950:	03078793          	addi	a5,a5,48
   17954:	01976cb3          	or	s9,a4,s9
   17958:	00395913          	srli	s2,s2,0x3
   1795c:	fefb0fa3          	sb	a5,-1(s6)
   17960:	012ce733          	or	a4,s9,s2
   17964:	865a                	mv	a2,s6
   17966:	1b7d                	addi	s6,s6,-1
   17968:	ff71                	bnez	a4,17944 <_svfprintf_r+0x8f6>
   1796a:	001bf693          	andi	a3,s7,1
   1796e:	cea9                	beqz	a3,179c8 <_svfprintf_r+0x97a>
   17970:	03000693          	li	a3,48
   17974:	04d78a63          	beq	a5,a3,179c8 <_svfprintf_r+0x97a>
   17978:	1679                	addi	a2,a2,-2
   1797a:	1b1c                	addi	a5,sp,432
   1797c:	fedb0fa3          	sb	a3,-1(s6)
   17980:	40c78cb3          	sub	s9,a5,a2
   17984:	8a5e                	mv	s4,s7
   17986:	8b32                	mv	s6,a2
   17988:	bd35                	j	177c4 <_svfprintf_r+0x776>
   1798a:	4705                	li	a4,1
   1798c:	00e79463          	bne	a5,a4,17994 <_svfprintf_r+0x946>
   17990:	1880106f          	j	18b18 <_svfprintf_r+0x1aca>
   17994:	4709                	li	a4,2
   17996:	8bd2                	mv	s7,s4
   17998:	fae794e3          	bne	a5,a4,17940 <_svfprintf_r+0x8f2>
   1799c:	56d2                	lw	a3,52(sp)
   1799e:	1b010b13          	addi	s6,sp,432
   179a2:	00fcf793          	andi	a5,s9,15
   179a6:	97b6                	add	a5,a5,a3
   179a8:	0007c703          	lbu	a4,0(a5)
   179ac:	004cdc93          	srli	s9,s9,0x4
   179b0:	01c91793          	slli	a5,s2,0x1c
   179b4:	0197ecb3          	or	s9,a5,s9
   179b8:	00495913          	srli	s2,s2,0x4
   179bc:	feeb0fa3          	sb	a4,-1(s6)
   179c0:	012ce7b3          	or	a5,s9,s2
   179c4:	1b7d                	addi	s6,s6,-1
   179c6:	fff1                	bnez	a5,179a2 <_svfprintf_r+0x954>
   179c8:	1b1c                	addi	a5,sp,432
   179ca:	41678cb3          	sub	s9,a5,s6
   179ce:	8a5e                	mv	s4,s7
   179d0:	bbd5                	j	177c4 <_svfprintf_r+0x776>
   179d2:	06500713          	li	a4,101
   179d6:	b6975de3          	bge	a4,s1,17550 <_svfprintf_r+0x502>
   179da:	574e                	lw	a4,240(sp)
   179dc:	110c                	addi	a1,sp,160
   179de:	1908                	addi	a0,sp,176
   179e0:	d93a                	sw	a4,176(sp)
   179e2:	575e                	lw	a4,244(sp)
   179e4:	c2c6                	sw	a7,68(sp)
   179e6:	c0be                	sw	a5,64(sp)
   179e8:	db3a                	sw	a4,180(sp)
   179ea:	576e                	lw	a4,248(sp)
   179ec:	d102                	sw	zero,160(sp)
   179ee:	d302                	sw	zero,164(sp)
   179f0:	dd3a                	sw	a4,184(sp)
   179f2:	577e                	lw	a4,252(sp)
   179f4:	d502                	sw	zero,168(sp)
   179f6:	d702                	sw	zero,172(sp)
   179f8:	df3a                	sw	a4,188(sp)
   179fa:	323040ef          	jal	ra,1c51c <__eqtf2>
   179fe:	4786                	lw	a5,64(sp)
   17a00:	4896                	lw	a7,68(sp)
   17a02:	26051163          	bnez	a0,17c64 <_svfprintf_r+0xc16>
   17a06:	572e                	lw	a4,232(sp)
   17a08:	66f9                	lui	a3,0x1e
   17a0a:	70068693          	addi	a3,a3,1792 # 1e700 <__clzsi2+0xd2>
   17a0e:	00d8a023          	sw	a3,0(a7)
   17a12:	0785                	addi	a5,a5,1
   17a14:	4685                	li	a3,1
   17a16:	0705                	addi	a4,a4,1
   17a18:	00d8a223          	sw	a3,4(a7)
   17a1c:	d7be                	sw	a5,236(sp)
   17a1e:	d5ba                	sw	a4,232(sp)
   17a20:	469d                	li	a3,7
   17a22:	08a1                	addi	a7,a7,8
   17a24:	0ae6c2e3          	blt	a3,a4,182c8 <_svfprintf_r+0x127a>
   17a28:	473e                	lw	a4,204(sp)
   17a2a:	5682                	lw	a3,32(sp)
   17a2c:	46d75863          	bge	a4,a3,17e9c <_svfprintf_r+0xe4e>
   17a30:	5742                	lw	a4,48(sp)
   17a32:	56b2                	lw	a3,44(sp)
   17a34:	08a1                	addi	a7,a7,8
   17a36:	fee8ac23          	sw	a4,-8(a7)
   17a3a:	572e                	lw	a4,232(sp)
   17a3c:	97b6                	add	a5,a5,a3
   17a3e:	fed8ae23          	sw	a3,-4(a7)
   17a42:	0705                	addi	a4,a4,1
   17a44:	d7be                	sw	a5,236(sp)
   17a46:	d5ba                	sw	a4,232(sp)
   17a48:	469d                	li	a3,7
   17a4a:	54e6ca63          	blt	a3,a4,17f9e <_svfprintf_r+0xf50>
   17a4e:	5702                	lw	a4,32(sp)
   17a50:	fff70493          	addi	s1,a4,-1
   17a54:	fe905463          	blez	s1,1723c <_svfprintf_r+0x1ee>
   17a58:	46c1                	li	a3,16
   17a5a:	572e                	lw	a4,232(sp)
   17a5c:	0896d2e3          	bge	a3,s1,182e0 <_svfprintf_r+0x1292>
   17a60:	4941                	li	s2,16
   17a62:	4c9d                	li	s9,7
   17a64:	a021                	j	17a6c <_svfprintf_r+0xa1e>
   17a66:	14c1                	addi	s1,s1,-16
   17a68:	06995ce3          	bge	s2,s1,182e0 <_svfprintf_r+0x1292>
   17a6c:	46a2                	lw	a3,8(sp)
   17a6e:	07c1                	addi	a5,a5,16
   17a70:	0705                	addi	a4,a4,1
   17a72:	00d8a023          	sw	a3,0(a7)
   17a76:	0128a223          	sw	s2,4(a7)
   17a7a:	d7be                	sw	a5,236(sp)
   17a7c:	d5ba                	sw	a4,232(sp)
   17a7e:	08a1                	addi	a7,a7,8
   17a80:	feecd3e3          	bge	s9,a4,17a66 <_svfprintf_r+0xa18>
   17a84:	11d0                	addi	a2,sp,228
   17a86:	85e2                	mv	a1,s8
   17a88:	856a                	mv	a0,s10
   17a8a:	6c4020ef          	jal	ra,1a14e <__ssprint_r>
   17a8e:	10051b63          	bnez	a0,17ba4 <_svfprintf_r+0xb56>
   17a92:	57be                	lw	a5,236(sp)
   17a94:	572e                	lw	a4,232(sp)
   17a96:	10c10893          	addi	a7,sp,268
   17a9a:	b7f1                	j	17a66 <_svfprintf_r+0xa18>
   17a9c:	41598933          	sub	s2,s3,s5
   17aa0:	f7205963          	blez	s2,17212 <_svfprintf_r+0x1c4>
   17aa4:	4641                	li	a2,16
   17aa6:	572e                	lw	a4,232(sp)
   17aa8:	05265263          	bge	a2,s2,17aec <_svfprintf_r+0xa9e>
   17aac:	4e41                	li	t3,16
   17aae:	4b9d                	li	s7,7
   17ab0:	a021                	j	17ab8 <_svfprintf_r+0xa6a>
   17ab2:	1941                	addi	s2,s2,-16
   17ab4:	032e5c63          	bge	t3,s2,17aec <_svfprintf_r+0xa9e>
   17ab8:	46a2                	lw	a3,8(sp)
   17aba:	07c1                	addi	a5,a5,16
   17abc:	0705                	addi	a4,a4,1
   17abe:	00d8a023          	sw	a3,0(a7)
   17ac2:	01c8a223          	sw	t3,4(a7)
   17ac6:	d7be                	sw	a5,236(sp)
   17ac8:	d5ba                	sw	a4,232(sp)
   17aca:	08a1                	addi	a7,a7,8
   17acc:	feebd3e3          	bge	s7,a4,17ab2 <_svfprintf_r+0xa64>
   17ad0:	11d0                	addi	a2,sp,228
   17ad2:	85e2                	mv	a1,s8
   17ad4:	856a                	mv	a0,s10
   17ad6:	678020ef          	jal	ra,1a14e <__ssprint_r>
   17ada:	e569                	bnez	a0,17ba4 <_svfprintf_r+0xb56>
   17adc:	4e41                	li	t3,16
   17ade:	1941                	addi	s2,s2,-16
   17ae0:	57be                	lw	a5,236(sp)
   17ae2:	572e                	lw	a4,232(sp)
   17ae4:	10c10893          	addi	a7,sp,268
   17ae8:	fd2e48e3          	blt	t3,s2,17ab8 <_svfprintf_r+0xa6a>
   17aec:	46a2                	lw	a3,8(sp)
   17aee:	97ca                	add	a5,a5,s2
   17af0:	0705                	addi	a4,a4,1
   17af2:	00d8a023          	sw	a3,0(a7)
   17af6:	0128a223          	sw	s2,4(a7)
   17afa:	d7be                	sw	a5,236(sp)
   17afc:	d5ba                	sw	a4,232(sp)
   17afe:	469d                	li	a3,7
   17b00:	08a1                	addi	a7,a7,8
   17b02:	f0e6d863          	bge	a3,a4,17212 <_svfprintf_r+0x1c4>
   17b06:	11d0                	addi	a2,sp,228
   17b08:	85e2                	mv	a1,s8
   17b0a:	856a                	mv	a0,s10
   17b0c:	642020ef          	jal	ra,1a14e <__ssprint_r>
   17b10:	e951                	bnez	a0,17ba4 <_svfprintf_r+0xb56>
   17b12:	419d8db3          	sub	s11,s11,s9
   17b16:	57be                	lw	a5,236(sp)
   17b18:	10c10893          	addi	a7,sp,268
   17b1c:	efb05f63          	blez	s11,1721a <_svfprintf_r+0x1cc>
   17b20:	4641                	li	a2,16
   17b22:	572e                	lw	a4,232(sp)
   17b24:	05b65163          	bge	a2,s11,17b66 <_svfprintf_r+0xb18>
   17b28:	4bc1                	li	s7,16
   17b2a:	491d                	li	s2,7
   17b2c:	a021                	j	17b34 <_svfprintf_r+0xae6>
   17b2e:	1dc1                	addi	s11,s11,-16
   17b30:	03bbdb63          	bge	s7,s11,17b66 <_svfprintf_r+0xb18>
   17b34:	46a2                	lw	a3,8(sp)
   17b36:	07c1                	addi	a5,a5,16
   17b38:	0705                	addi	a4,a4,1
   17b3a:	00d8a023          	sw	a3,0(a7)
   17b3e:	0178a223          	sw	s7,4(a7)
   17b42:	d7be                	sw	a5,236(sp)
   17b44:	d5ba                	sw	a4,232(sp)
   17b46:	08a1                	addi	a7,a7,8
   17b48:	fee953e3          	bge	s2,a4,17b2e <_svfprintf_r+0xae0>
   17b4c:	11d0                	addi	a2,sp,228
   17b4e:	85e2                	mv	a1,s8
   17b50:	856a                	mv	a0,s10
   17b52:	5fc020ef          	jal	ra,1a14e <__ssprint_r>
   17b56:	e539                	bnez	a0,17ba4 <_svfprintf_r+0xb56>
   17b58:	1dc1                	addi	s11,s11,-16
   17b5a:	57be                	lw	a5,236(sp)
   17b5c:	572e                	lw	a4,232(sp)
   17b5e:	10c10893          	addi	a7,sp,268
   17b62:	fdbbc9e3          	blt	s7,s11,17b34 <_svfprintf_r+0xae6>
   17b66:	46a2                	lw	a3,8(sp)
   17b68:	97ee                	add	a5,a5,s11
   17b6a:	0705                	addi	a4,a4,1
   17b6c:	00d8a023          	sw	a3,0(a7)
   17b70:	01b8a223          	sw	s11,4(a7)
   17b74:	d7be                	sw	a5,236(sp)
   17b76:	d5ba                	sw	a4,232(sp)
   17b78:	469d                	li	a3,7
   17b7a:	08a1                	addi	a7,a7,8
   17b7c:	e8e6df63          	bge	a3,a4,1721a <_svfprintf_r+0x1cc>
   17b80:	11d0                	addi	a2,sp,228
   17b82:	85e2                	mv	a1,s8
   17b84:	856a                	mv	a0,s10
   17b86:	5c8020ef          	jal	ra,1a14e <__ssprint_r>
   17b8a:	ed09                	bnez	a0,17ba4 <_svfprintf_r+0xb56>
   17b8c:	57be                	lw	a5,236(sp)
   17b8e:	10c10893          	addi	a7,sp,268
   17b92:	e88ff06f          	j	1721a <_svfprintf_r+0x1cc>
   17b96:	11d0                	addi	a2,sp,228
   17b98:	85e2                	mv	a1,s8
   17b9a:	856a                	mv	a0,s10
   17b9c:	5b2020ef          	jal	ra,1a14e <__ssprint_r>
   17ba0:	ea050e63          	beqz	a0,1725c <_svfprintf_r+0x20e>
   17ba4:	4bc2                	lw	s7,16(sp)
   17ba6:	ec0b8d63          	beqz	s7,17280 <_svfprintf_r+0x232>
   17baa:	85de                	mv	a1,s7
   17bac:	856a                	mv	a0,s10
   17bae:	fb1fa0ef          	jal	ra,12b5e <_free_r>
   17bb2:	eceff06f          	j	17280 <_svfprintf_r+0x232>
   17bb6:	4641                	li	a2,16
   17bb8:	572e                	lw	a4,232(sp)
   17bba:	38d658e3          	bge	a2,a3,1874a <_svfprintf_r+0x16fc>
   17bbe:	0001f637          	lui	a2,0x1f
   17bc2:	e8460e93          	addi	t4,a2,-380 # 1ee84 <blanks.1>
   17bc6:	c0a2                	sw	s0,64(sp)
   17bc8:	c2a6                	sw	s1,68(sp)
   17bca:	846a                	mv	s0,s10
   17bcc:	84e2                	mv	s1,s8
   17bce:	4e41                	li	t3,16
   17bd0:	429d                	li	t0,7
   17bd2:	8c36                	mv	s8,a3
   17bd4:	8d76                	mv	s10,t4
   17bd6:	a021                	j	17bde <_svfprintf_r+0xb90>
   17bd8:	1c41                	addi	s8,s8,-16
   17bda:	038e5d63          	bge	t3,s8,17c14 <_svfprintf_r+0xbc6>
   17bde:	07c1                	addi	a5,a5,16
   17be0:	0705                	addi	a4,a4,1
   17be2:	01a8a023          	sw	s10,0(a7)
   17be6:	01c8a223          	sw	t3,4(a7)
   17bea:	d7be                	sw	a5,236(sp)
   17bec:	d5ba                	sw	a4,232(sp)
   17bee:	08a1                	addi	a7,a7,8
   17bf0:	fee2d4e3          	bge	t0,a4,17bd8 <_svfprintf_r+0xb8a>
   17bf4:	11d0                	addi	a2,sp,228
   17bf6:	85a6                	mv	a1,s1
   17bf8:	8522                	mv	a0,s0
   17bfa:	554020ef          	jal	ra,1a14e <__ssprint_r>
   17bfe:	6a051763          	bnez	a0,182ac <_svfprintf_r+0x125e>
   17c02:	4e41                	li	t3,16
   17c04:	1c41                	addi	s8,s8,-16
   17c06:	57be                	lw	a5,236(sp)
   17c08:	572e                	lw	a4,232(sp)
   17c0a:	10c10893          	addi	a7,sp,268
   17c0e:	429d                	li	t0,7
   17c10:	fd8e47e3          	blt	t3,s8,17bde <_svfprintf_r+0xb90>
   17c14:	86e2                	mv	a3,s8
   17c16:	8eea                	mv	t4,s10
   17c18:	8c26                	mv	s8,s1
   17c1a:	8d22                	mv	s10,s0
   17c1c:	4496                	lw	s1,68(sp)
   17c1e:	4406                	lw	s0,64(sp)
   17c20:	97b6                	add	a5,a5,a3
   17c22:	0705                	addi	a4,a4,1
   17c24:	00d8a223          	sw	a3,4(a7)
   17c28:	01d8a023          	sw	t4,0(a7)
   17c2c:	d7be                	sw	a5,236(sp)
   17c2e:	d5ba                	sw	a4,232(sp)
   17c30:	469d                	li	a3,7
   17c32:	08a1                	addi	a7,a7,8
   17c34:	d8e6d763          	bge	a3,a4,171c2 <_svfprintf_r+0x174>
   17c38:	11d0                	addi	a2,sp,228
   17c3a:	85e2                	mv	a1,s8
   17c3c:	856a                	mv	a0,s10
   17c3e:	510020ef          	jal	ra,1a14e <__ssprint_r>
   17c42:	f12d                	bnez	a0,17ba4 <_svfprintf_r+0xb56>
   17c44:	57be                	lw	a5,236(sp)
   17c46:	10c10893          	addi	a7,sp,268
   17c4a:	d78ff06f          	j	171c2 <_svfprintf_r+0x174>
   17c4e:	11d0                	addi	a2,sp,228
   17c50:	85e2                	mv	a1,s8
   17c52:	856a                	mv	a0,s10
   17c54:	4fa020ef          	jal	ra,1a14e <__ssprint_r>
   17c58:	f531                	bnez	a0,17ba4 <_svfprintf_r+0xb56>
   17c5a:	57be                	lw	a5,236(sp)
   17c5c:	10c10893          	addi	a7,sp,268
   17c60:	daaff06f          	j	1720a <_svfprintf_r+0x1bc>
   17c64:	463e                	lw	a2,204(sp)
   17c66:	5ac05e63          	blez	a2,18222 <_svfprintf_r+0x11d4>
   17c6a:	4772                	lw	a4,28(sp)
   17c6c:	5682                	lw	a3,32(sp)
   17c6e:	84ba                	mv	s1,a4
   17c70:	2ae6c963          	blt	a3,a4,17f22 <_svfprintf_r+0xed4>
   17c74:	00905f63          	blez	s1,17c92 <_svfprintf_r+0xc44>
   17c78:	572e                	lw	a4,232(sp)
   17c7a:	97a6                	add	a5,a5,s1
   17c7c:	0168a023          	sw	s6,0(a7)
   17c80:	0705                	addi	a4,a4,1
   17c82:	0098a223          	sw	s1,4(a7)
   17c86:	d7be                	sw	a5,236(sp)
   17c88:	d5ba                	sw	a4,232(sp)
   17c8a:	469d                	li	a3,7
   17c8c:	08a1                	addi	a7,a7,8
   17c8e:	06e6cce3          	blt	a3,a4,18506 <_svfprintf_r+0x14b8>
   17c92:	fff4c713          	not	a4,s1
   17c96:	877d                	srai	a4,a4,0x1f
   17c98:	8cf9                	and	s1,s1,a4
   17c9a:	4772                	lw	a4,28(sp)
   17c9c:	409704b3          	sub	s1,a4,s1
   17ca0:	36904a63          	bgtz	s1,18014 <_svfprintf_r+0xfc6>
   17ca4:	46f2                	lw	a3,28(sp)
   17ca6:	400a7713          	andi	a4,s4,1024
   17caa:	00db0db3          	add	s11,s6,a3
   17cae:	3a071563          	bnez	a4,18058 <_svfprintf_r+0x100a>
   17cb2:	44be                	lw	s1,204(sp)
   17cb4:	5702                	lw	a4,32(sp)
   17cb6:	00e4c663          	blt	s1,a4,17cc2 <_svfprintf_r+0xc74>
   17cba:	001a7713          	andi	a4,s4,1
   17cbe:	060702e3          	beqz	a4,18522 <_svfprintf_r+0x14d4>
   17cc2:	5742                	lw	a4,48(sp)
   17cc4:	56b2                	lw	a3,44(sp)
   17cc6:	461d                	li	a2,7
   17cc8:	00e8a023          	sw	a4,0(a7)
   17ccc:	572e                	lw	a4,232(sp)
   17cce:	97b6                	add	a5,a5,a3
   17cd0:	00d8a223          	sw	a3,4(a7)
   17cd4:	0705                	addi	a4,a4,1
   17cd6:	d7be                	sw	a5,236(sp)
   17cd8:	d5ba                	sw	a4,232(sp)
   17cda:	08a1                	addi	a7,a7,8
   17cdc:	18e646e3          	blt	a2,a4,18668 <_svfprintf_r+0x161a>
   17ce0:	5682                	lw	a3,32(sp)
   17ce2:	00db0733          	add	a4,s6,a3
   17ce6:	409684b3          	sub	s1,a3,s1
   17cea:	41b70733          	sub	a4,a4,s11
   17cee:	8926                	mv	s2,s1
   17cf0:	00975363          	bge	a4,s1,17cf6 <_svfprintf_r+0xca8>
   17cf4:	893a                	mv	s2,a4
   17cf6:	01205f63          	blez	s2,17d14 <_svfprintf_r+0xcc6>
   17cfa:	572e                	lw	a4,232(sp)
   17cfc:	97ca                	add	a5,a5,s2
   17cfe:	01b8a023          	sw	s11,0(a7)
   17d02:	0705                	addi	a4,a4,1
   17d04:	0128a223          	sw	s2,4(a7)
   17d08:	d7be                	sw	a5,236(sp)
   17d0a:	d5ba                	sw	a4,232(sp)
   17d0c:	469d                	li	a3,7
   17d0e:	08a1                	addi	a7,a7,8
   17d10:	26e6c5e3          	blt	a3,a4,1877a <_svfprintf_r+0x172c>
   17d14:	fff94713          	not	a4,s2
   17d18:	877d                	srai	a4,a4,0x1f
   17d1a:	00e97733          	and	a4,s2,a4
   17d1e:	8c99                	sub	s1,s1,a4
   17d20:	d0905e63          	blez	s1,1723c <_svfprintf_r+0x1ee>
   17d24:	46c1                	li	a3,16
   17d26:	572e                	lw	a4,232(sp)
   17d28:	5a96dc63          	bge	a3,s1,182e0 <_svfprintf_r+0x1292>
   17d2c:	4941                	li	s2,16
   17d2e:	4c9d                	li	s9,7
   17d30:	a021                	j	17d38 <_svfprintf_r+0xcea>
   17d32:	14c1                	addi	s1,s1,-16
   17d34:	5a995663          	bge	s2,s1,182e0 <_svfprintf_r+0x1292>
   17d38:	46a2                	lw	a3,8(sp)
   17d3a:	07c1                	addi	a5,a5,16
   17d3c:	0705                	addi	a4,a4,1
   17d3e:	00d8a023          	sw	a3,0(a7)
   17d42:	0128a223          	sw	s2,4(a7)
   17d46:	d7be                	sw	a5,236(sp)
   17d48:	d5ba                	sw	a4,232(sp)
   17d4a:	08a1                	addi	a7,a7,8
   17d4c:	feecd3e3          	bge	s9,a4,17d32 <_svfprintf_r+0xce4>
   17d50:	11d0                	addi	a2,sp,228
   17d52:	85e2                	mv	a1,s8
   17d54:	856a                	mv	a0,s10
   17d56:	3f8020ef          	jal	ra,1a14e <__ssprint_r>
   17d5a:	e40515e3          	bnez	a0,17ba4 <_svfprintf_r+0xb56>
   17d5e:	57be                	lw	a5,236(sp)
   17d60:	572e                	lw	a4,232(sp)
   17d62:	10c10893          	addi	a7,sp,268
   17d66:	b7f1                	j	17d32 <_svfprintf_r+0xce4>
   17d68:	b20d95e3          	bnez	s11,17892 <_svfprintf_r+0x844>
   17d6c:	8a5e                	mv	s4,s7
   17d6e:	4d81                	li	s11,0
   17d70:	4c81                	li	s9,0
   17d72:	1b010b13          	addi	s6,sp,432
   17d76:	b4b9                	j	177c4 <_svfprintf_r+0x776>
   17d78:	001a7793          	andi	a5,s4,1
   17d7c:	fe079763          	bnez	a5,1756a <_svfprintf_r+0x51c>
   17d80:	00d8a223          	sw	a3,4(a7)
   17d84:	d7e6                	sw	s9,236(sp)
   17d86:	d5a6                	sw	s1,232(sp)
   17d88:	479d                	li	a5,7
   17d8a:	3e97c963          	blt	a5,s1,1817c <_svfprintf_r+0x112e>
   17d8e:	0709                	addi	a4,a4,2
   17d90:	08c1                	addi	a7,a7,16
   17d92:	b085                	j	175f2 <_svfprintf_r+0x5a4>
   17d94:	85b05fe3          	blez	s11,175f2 <_svfprintf_r+0x5a4>
   17d98:	4641                	li	a2,16
   17d9a:	71b655e3          	bge	a2,s11,18ca4 <_svfprintf_r+0x1c56>
   17d9e:	4741                	li	a4,16
   17da0:	4b1d                	li	s6,7
   17da2:	84b6                	mv	s1,a3
   17da4:	a029                	j	17dae <_svfprintf_r+0xd60>
   17da6:	1dc1                	addi	s11,s11,-16
   17da8:	65b75663          	bge	a4,s11,183f4 <_svfprintf_r+0x13a6>
   17dac:	0485                	addi	s1,s1,1
   17dae:	47a2                	lw	a5,8(sp)
   17db0:	0cc1                	addi	s9,s9,16
   17db2:	00e92223          	sw	a4,4(s2)
   17db6:	00f92023          	sw	a5,0(s2)
   17dba:	d7e6                	sw	s9,236(sp)
   17dbc:	d5a6                	sw	s1,232(sp)
   17dbe:	0921                	addi	s2,s2,8
   17dc0:	fe9b53e3          	bge	s6,s1,17da6 <_svfprintf_r+0xd58>
   17dc4:	11d0                	addi	a2,sp,228
   17dc6:	85e2                	mv	a1,s8
   17dc8:	856a                	mv	a0,s10
   17dca:	384020ef          	jal	ra,1a14e <__ssprint_r>
   17dce:	dc051be3          	bnez	a0,17ba4 <_svfprintf_r+0xb56>
   17dd2:	5cbe                	lw	s9,236(sp)
   17dd4:	54ae                	lw	s1,232(sp)
   17dd6:	10c10913          	addi	s2,sp,268
   17dda:	4741                	li	a4,16
   17ddc:	b7e9                	j	17da6 <_svfprintf_r+0xd58>
   17dde:	46d2                	lw	a3,20(sp)
   17de0:	010a7793          	andi	a5,s4,16
   17de4:	00468713          	addi	a4,a3,4
   17de8:	12079863          	bnez	a5,17f18 <_svfprintf_r+0xeca>
   17dec:	040a7793          	andi	a5,s4,64
   17df0:	62078763          	beqz	a5,1841e <_svfprintf_r+0x13d0>
   17df4:	47d2                	lw	a5,20(sp)
   17df6:	4901                	li	s2,0
   17df8:	ca3a                	sw	a4,20(sp)
   17dfa:	0007dc83          	lhu	s9,0(a5)
   17dfe:	b411                	j	17802 <_svfprintf_r+0x7b4>
   17e00:	46d2                	lw	a3,20(sp)
   17e02:	010a7793          	andi	a5,s4,16
   17e06:	00468713          	addi	a4,a3,4
   17e0a:	10079063          	bnez	a5,17f0a <_svfprintf_r+0xebc>
   17e0e:	040a7793          	andi	a5,s4,64
   17e12:	62078d63          	beqz	a5,1844c <_svfprintf_r+0x13fe>
   17e16:	47d2                	lw	a5,20(sp)
   17e18:	ca3a                	sw	a4,20(sp)
   17e1a:	00079c83          	lh	s9,0(a5)
   17e1e:	41fcd913          	srai	s2,s9,0x1f
   17e22:	87ca                	mv	a5,s2
   17e24:	a407d8e3          	bgez	a5,17874 <_svfprintf_r+0x826>
   17e28:	019037b3          	snez	a5,s9
   17e2c:	41200933          	neg	s2,s2
   17e30:	40f90933          	sub	s2,s2,a5
   17e34:	02d00793          	li	a5,45
   17e38:	0cf103a3          	sb	a5,199(sp)
   17e3c:	41900cb3          	neg	s9,s9
   17e40:	8bd2                	mv	s7,s4
   17e42:	4785                	li	a5,1
   17e44:	baa9                	j	1779e <_svfprintf_r+0x750>
   17e46:	4752                	lw	a4,20(sp)
   17e48:	010bf793          	andi	a5,s7,16
   17e4c:	00470693          	addi	a3,a4,4
   17e50:	e7dd                	bnez	a5,17efe <_svfprintf_r+0xeb0>
   17e52:	040bf793          	andi	a5,s7,64
   17e56:	5c078f63          	beqz	a5,18434 <_svfprintf_r+0x13e6>
   17e5a:	47d2                	lw	a5,20(sp)
   17e5c:	4901                	li	s2,0
   17e5e:	ca36                	sw	a3,20(sp)
   17e60:	0007dc83          	lhu	s9,0(a5)
   17e64:	4785                	li	a5,1
   17e66:	ba15                	j	1779a <_svfprintf_r+0x74c>
   17e68:	11d0                	addi	a2,sp,228
   17e6a:	85e2                	mv	a1,s8
   17e6c:	856a                	mv	a0,s10
   17e6e:	2e0020ef          	jal	ra,1a14e <__ssprint_r>
   17e72:	d20519e3          	bnez	a0,17ba4 <_svfprintf_r+0xb56>
   17e76:	5cbe                	lw	s9,236(sp)
   17e78:	54ae                	lw	s1,232(sp)
   17e7a:	10c10913          	addi	s2,sp,268
   17e7e:	efcff06f          	j	1757a <_svfprintf_r+0x52c>
   17e82:	11d0                	addi	a2,sp,228
   17e84:	85e2                	mv	a1,s8
   17e86:	856a                	mv	a0,s10
   17e88:	2c6020ef          	jal	ra,1a14e <__ssprint_r>
   17e8c:	d0051ce3          	bnez	a0,17ba4 <_svfprintf_r+0xb56>
   17e90:	5cbe                	lw	s9,236(sp)
   17e92:	54ae                	lw	s1,232(sp)
   17e94:	10c10913          	addi	s2,sp,268
   17e98:	efeff06f          	j	17596 <_svfprintf_r+0x548>
   17e9c:	001a7713          	andi	a4,s4,1
   17ea0:	b8070e63          	beqz	a4,1723c <_svfprintf_r+0x1ee>
   17ea4:	b671                	j	17a30 <_svfprintf_r+0x9e2>
   17ea6:	88e6                	mv	a7,s9
   17ea8:	b25d                	j	1784e <_svfprintf_r+0x800>
   17eaa:	03000793          	li	a5,48
   17eae:	1af107a3          	sb	a5,431(sp)
   17eb2:	1af10b13          	addi	s6,sp,431
   17eb6:	b239                	j	177c4 <_svfprintf_r+0x776>
   17eb8:	57f2                	lw	a5,60(sp)
   17eba:	00044483          	lbu	s1,0(s0)
   17ebe:	a8078763          	beqz	a5,1714c <_svfprintf_r+0xfe>
   17ec2:	0007c783          	lbu	a5,0(a5)
   17ec6:	a8078363          	beqz	a5,1714c <_svfprintf_r+0xfe>
   17eca:	400a6a13          	ori	s4,s4,1024
   17ece:	a7eff06f          	j	1714c <_svfprintf_r+0xfe>
   17ed2:	46b2                	lw	a3,12(sp)
   17ed4:	8b22                	mv	s6,s0
   17ed6:	41f6d793          	srai	a5,a3,0x1f
   17eda:	c314                	sw	a3,0(a4)
   17edc:	c35c                	sw	a5,4(a4)
   17ede:	b92ff06f          	j	17270 <_svfprintf_r+0x222>
   17ee2:	4752                	lw	a4,20(sp)
   17ee4:	431c                	lw	a5,0(a4)
   17ee6:	0711                	addi	a4,a4,4
   17ee8:	ca3a                	sw	a4,20(sp)
   17eea:	4390                	lw	a2,0(a5)
   17eec:	43d4                	lw	a3,4(a5)
   17eee:	4798                	lw	a4,8(a5)
   17ef0:	47dc                	lw	a5,12(a5)
   17ef2:	d9b2                	sw	a2,240(sp)
   17ef4:	dbb6                	sw	a3,244(sp)
   17ef6:	ddba                	sw	a4,248(sp)
   17ef8:	dfbe                	sw	a5,252(sp)
   17efa:	c54ff06f          	j	1734e <_svfprintf_r+0x300>
   17efe:	00072c83          	lw	s9,0(a4)
   17f02:	4901                	li	s2,0
   17f04:	ca36                	sw	a3,20(sp)
   17f06:	4785                	li	a5,1
   17f08:	b849                	j	1779a <_svfprintf_r+0x74c>
   17f0a:	0006ac83          	lw	s9,0(a3)
   17f0e:	ca3a                	sw	a4,20(sp)
   17f10:	41fcd913          	srai	s2,s9,0x1f
   17f14:	87ca                	mv	a5,s2
   17f16:	baa9                	j	17870 <_svfprintf_r+0x822>
   17f18:	0006ac83          	lw	s9,0(a3)
   17f1c:	4901                	li	s2,0
   17f1e:	ca3a                	sw	a4,20(sp)
   17f20:	b0cd                	j	17802 <_svfprintf_r+0x7b4>
   17f22:	84b6                	mv	s1,a3
   17f24:	d4904ae3          	bgtz	s1,17c78 <_svfprintf_r+0xc2a>
   17f28:	b3ad                	j	17c92 <_svfprintf_r+0xc44>
   17f2a:	88e6                	mv	a7,s9
   17f2c:	8bd2                	mv	s7,s4
   17f2e:	b0cd                	j	17810 <_svfprintf_r+0x7c2>
   17f30:	67f9                	lui	a5,0x1e
   17f32:	6d078793          	addi	a5,a5,1744 # 1e6d0 <__clzsi2+0xa2>
   17f36:	88e6                	mv	a7,s9
   17f38:	da3e                	sw	a5,52(sp)
   17f3a:	020a7793          	andi	a5,s4,32
   17f3e:	20078863          	beqz	a5,1814e <_svfprintf_r+0x1100>
   17f42:	47d2                	lw	a5,20(sp)
   17f44:	00778b13          	addi	s6,a5,7
   17f48:	ff8b7b13          	andi	s6,s6,-8
   17f4c:	000b2c83          	lw	s9,0(s6)
   17f50:	004b2903          	lw	s2,4(s6)
   17f54:	008b0793          	addi	a5,s6,8
   17f58:	ca3e                	sw	a5,20(sp)
   17f5a:	001a7793          	andi	a5,s4,1
   17f5e:	cf81                	beqz	a5,17f76 <_svfprintf_r+0xf28>
   17f60:	012ce7b3          	or	a5,s9,s2
   17f64:	cb89                	beqz	a5,17f76 <_svfprintf_r+0xf28>
   17f66:	03000793          	li	a5,48
   17f6a:	0cf10423          	sb	a5,200(sp)
   17f6e:	0c9104a3          	sb	s1,201(sp)
   17f72:	002a6a13          	ori	s4,s4,2
   17f76:	bffa7b93          	andi	s7,s4,-1025
   17f7a:	4789                	li	a5,2
   17f7c:	81fff06f          	j	1779a <_svfprintf_r+0x74c>
   17f80:	88e6                	mv	a7,s9
   17f82:	b085                	j	177e2 <_svfprintf_r+0x794>
   17f84:	67f9                	lui	a5,0x1e
   17f86:	6e478793          	addi	a5,a5,1764 # 1e6e4 <__clzsi2+0xb6>
   17f8a:	88e6                	mv	a7,s9
   17f8c:	da3e                	sw	a5,52(sp)
   17f8e:	b775                	j	17f3a <_svfprintf_r+0xeec>
   17f90:	00144483          	lbu	s1,1(s0)
   17f94:	020a6a13          	ori	s4,s4,32
   17f98:	0405                	addi	s0,s0,1
   17f9a:	9b2ff06f          	j	1714c <_svfprintf_r+0xfe>
   17f9e:	11d0                	addi	a2,sp,228
   17fa0:	85e2                	mv	a1,s8
   17fa2:	856a                	mv	a0,s10
   17fa4:	1aa020ef          	jal	ra,1a14e <__ssprint_r>
   17fa8:	be051ee3          	bnez	a0,17ba4 <_svfprintf_r+0xb56>
   17fac:	57be                	lw	a5,236(sp)
   17fae:	10c10893          	addi	a7,sp,268
   17fb2:	bc71                	j	17a4e <_svfprintf_r+0xa00>
   17fb4:	00144483          	lbu	s1,1(s0)
   17fb8:	200a6a13          	ori	s4,s4,512
   17fbc:	0405                	addi	s0,s0,1
   17fbe:	98eff06f          	j	1714c <_svfprintf_r+0xfe>
   17fc2:	04000593          	li	a1,64
   17fc6:	856a                	mv	a0,s10
   17fc8:	c3efd0ef          	jal	ra,15406 <_malloc_r>
   17fcc:	00ac2023          	sw	a0,0(s8)
   17fd0:	00ac2823          	sw	a0,16(s8)
   17fd4:	4e0508e3          	beqz	a0,18cc4 <_svfprintf_r+0x1c76>
   17fd8:	04000793          	li	a5,64
   17fdc:	00fc2a23          	sw	a5,20(s8)
   17fe0:	8d6ff06f          	j	170b6 <_svfprintf_r+0x68>
   17fe4:	855a                	mv	a0,s6
   17fe6:	c0e6                	sw	s9,64(sp)
   17fe8:	d50f80ef          	jal	ra,10538 <strlen>
   17fec:	0c714783          	lbu	a5,199(sp)
   17ff0:	fff54a93          	not	s5,a0
   17ff4:	41fada93          	srai	s5,s5,0x1f
   17ff8:	ca4a                	sw	s2,20(sp)
   17ffa:	c802                	sw	zero,16(sp)
   17ffc:	d402                	sw	zero,40(sp)
   17ffe:	d202                	sw	zero,36(sp)
   18000:	ce02                	sw	zero,28(sp)
   18002:	4886                	lw	a7,64(sp)
   18004:	8caa                	mv	s9,a0
   18006:	01557ab3          	and	s5,a0,s5
   1800a:	4d81                	li	s11,0
   1800c:	ee079563          	bnez	a5,176f6 <_svfprintf_r+0x6a8>
   18010:	996ff06f          	j	171a6 <_svfprintf_r+0x158>
   18014:	46c1                	li	a3,16
   18016:	572e                	lw	a4,232(sp)
   18018:	4696de63          	bge	a3,s1,18494 <_svfprintf_r+0x1446>
   1801c:	4cc1                	li	s9,16
   1801e:	4d9d                	li	s11,7
   18020:	a021                	j	18028 <_svfprintf_r+0xfda>
   18022:	14c1                	addi	s1,s1,-16
   18024:	469cd863          	bge	s9,s1,18494 <_svfprintf_r+0x1446>
   18028:	46a2                	lw	a3,8(sp)
   1802a:	07c1                	addi	a5,a5,16
   1802c:	0705                	addi	a4,a4,1
   1802e:	00d8a023          	sw	a3,0(a7)
   18032:	0198a223          	sw	s9,4(a7)
   18036:	d7be                	sw	a5,236(sp)
   18038:	d5ba                	sw	a4,232(sp)
   1803a:	08a1                	addi	a7,a7,8
   1803c:	feedd3e3          	bge	s11,a4,18022 <_svfprintf_r+0xfd4>
   18040:	11d0                	addi	a2,sp,228
   18042:	85e2                	mv	a1,s8
   18044:	856a                	mv	a0,s10
   18046:	108020ef          	jal	ra,1a14e <__ssprint_r>
   1804a:	b4051de3          	bnez	a0,17ba4 <_svfprintf_r+0xb56>
   1804e:	57be                	lw	a5,236(sp)
   18050:	572e                	lw	a4,232(sp)
   18052:	10c10893          	addi	a7,sp,268
   18056:	b7f1                	j	18022 <_svfprintf_r+0xfd4>
   18058:	5702                	lw	a4,32(sp)
   1805a:	5c92                	lw	s9,36(sp)
   1805c:	ce52                	sw	s4,28(sp)
   1805e:	c0a2                	sw	s0,64(sp)
   18060:	c2ce                	sw	s3,68(sp)
   18062:	d256                	sw	s5,36(sp)
   18064:	59a2                	lw	s3,40(sp)
   18066:	d45a                	sw	s6,40(sp)
   18068:	00eb0bb3          	add	s7,s6,a4
   1806c:	5472                	lw	s0,60(sp)
   1806e:	4a26                	lw	s4,72(sp)
   18070:	4ab6                	lw	s5,76(sp)
   18072:	449d                	li	s1,7
   18074:	4941                	li	s2,16
   18076:	8b62                	mv	s6,s8
   18078:	060c8663          	beqz	s9,180e4 <_svfprintf_r+0x1096>
   1807c:	06099663          	bnez	s3,180e8 <_svfprintf_r+0x109a>
   18080:	147d                	addi	s0,s0,-1
   18082:	1cfd                	addi	s9,s9,-1
   18084:	572e                	lw	a4,232(sp)
   18086:	97d2                	add	a5,a5,s4
   18088:	0158a023          	sw	s5,0(a7)
   1808c:	0705                	addi	a4,a4,1
   1808e:	0148a223          	sw	s4,4(a7)
   18092:	d7be                	sw	a5,236(sp)
   18094:	d5ba                	sw	a4,232(sp)
   18096:	08a1                	addi	a7,a7,8
   18098:	0ce4c763          	blt	s1,a4,18166 <_svfprintf_r+0x1118>
   1809c:	00044683          	lbu	a3,0(s0)
   180a0:	41bb8633          	sub	a2,s7,s11
   180a4:	8c36                	mv	s8,a3
   180a6:	00d65363          	bge	a2,a3,180ac <_svfprintf_r+0x105e>
   180aa:	8c32                	mv	s8,a2
   180ac:	03805063          	blez	s8,180cc <_svfprintf_r+0x107e>
   180b0:	56ae                	lw	a3,232(sp)
   180b2:	97e2                	add	a5,a5,s8
   180b4:	01b8a023          	sw	s11,0(a7)
   180b8:	0685                	addi	a3,a3,1
   180ba:	0188a223          	sw	s8,4(a7)
   180be:	d7be                	sw	a5,236(sp)
   180c0:	d5b6                	sw	a3,232(sp)
   180c2:	22d4cf63          	blt	s1,a3,18300 <_svfprintf_r+0x12b2>
   180c6:	00044683          	lbu	a3,0(s0)
   180ca:	08a1                	addi	a7,a7,8
   180cc:	fffc4613          	not	a2,s8
   180d0:	867d                	srai	a2,a2,0x1f
   180d2:	00cc7733          	and	a4,s8,a2
   180d6:	40e68c33          	sub	s8,a3,a4
   180da:	01804963          	bgtz	s8,180ec <_svfprintf_r+0x109e>
   180de:	9db6                	add	s11,s11,a3
   180e0:	f80c9ee3          	bnez	s9,1807c <_svfprintf_r+0x102e>
   180e4:	4e098063          	beqz	s3,185c4 <_svfprintf_r+0x1576>
   180e8:	19fd                	addi	s3,s3,-1
   180ea:	bf69                	j	18084 <_svfprintf_r+0x1036>
   180ec:	56ae                	lw	a3,232(sp)
   180ee:	01894663          	blt	s2,s8,180fa <_svfprintf_r+0x10ac>
   180f2:	a835                	j	1812e <_svfprintf_r+0x10e0>
   180f4:	1c41                	addi	s8,s8,-16
   180f6:	03895c63          	bge	s2,s8,1812e <_svfprintf_r+0x10e0>
   180fa:	4722                	lw	a4,8(sp)
   180fc:	07c1                	addi	a5,a5,16
   180fe:	0685                	addi	a3,a3,1
   18100:	00e8a023          	sw	a4,0(a7)
   18104:	0128a223          	sw	s2,4(a7)
   18108:	d7be                	sw	a5,236(sp)
   1810a:	d5b6                	sw	a3,232(sp)
   1810c:	08a1                	addi	a7,a7,8
   1810e:	fed4d3e3          	bge	s1,a3,180f4 <_svfprintf_r+0x10a6>
   18112:	11d0                	addi	a2,sp,228
   18114:	85da                	mv	a1,s6
   18116:	856a                	mv	a0,s10
   18118:	036020ef          	jal	ra,1a14e <__ssprint_r>
   1811c:	3c051963          	bnez	a0,184ee <_svfprintf_r+0x14a0>
   18120:	1c41                	addi	s8,s8,-16
   18122:	57be                	lw	a5,236(sp)
   18124:	56ae                	lw	a3,232(sp)
   18126:	10c10893          	addi	a7,sp,268
   1812a:	fd8948e3          	blt	s2,s8,180fa <_svfprintf_r+0x10ac>
   1812e:	4722                	lw	a4,8(sp)
   18130:	97e2                	add	a5,a5,s8
   18132:	0685                	addi	a3,a3,1
   18134:	00e8a023          	sw	a4,0(a7)
   18138:	0188a223          	sw	s8,4(a7)
   1813c:	d7be                	sw	a5,236(sp)
   1813e:	d5b6                	sw	a3,232(sp)
   18140:	50d4c163          	blt	s1,a3,18642 <_svfprintf_r+0x15f4>
   18144:	00044683          	lbu	a3,0(s0)
   18148:	08a1                	addi	a7,a7,8
   1814a:	9db6                	add	s11,s11,a3
   1814c:	bf51                	j	180e0 <_svfprintf_r+0x1092>
   1814e:	46d2                	lw	a3,20(sp)
   18150:	010a7793          	andi	a5,s4,16
   18154:	00468713          	addi	a4,a3,4
   18158:	14078e63          	beqz	a5,182b4 <_svfprintf_r+0x1266>
   1815c:	0006ac83          	lw	s9,0(a3)
   18160:	4901                	li	s2,0
   18162:	ca3a                	sw	a4,20(sp)
   18164:	bbdd                	j	17f5a <_svfprintf_r+0xf0c>
   18166:	11d0                	addi	a2,sp,228
   18168:	85da                	mv	a1,s6
   1816a:	856a                	mv	a0,s10
   1816c:	7e3010ef          	jal	ra,1a14e <__ssprint_r>
   18170:	36051f63          	bnez	a0,184ee <_svfprintf_r+0x14a0>
   18174:	57be                	lw	a5,236(sp)
   18176:	10c10893          	addi	a7,sp,268
   1817a:	b70d                	j	1809c <_svfprintf_r+0x104e>
   1817c:	11d0                	addi	a2,sp,228
   1817e:	85e2                	mv	a1,s8
   18180:	856a                	mv	a0,s10
   18182:	7cd010ef          	jal	ra,1a14e <__ssprint_r>
   18186:	a0051fe3          	bnez	a0,17ba4 <_svfprintf_r+0xb56>
   1818a:	572e                	lw	a4,232(sp)
   1818c:	5cbe                	lw	s9,236(sp)
   1818e:	11410893          	addi	a7,sp,276
   18192:	0705                	addi	a4,a4,1
   18194:	10c10913          	addi	s2,sp,268
   18198:	c5aff06f          	j	175f2 <_svfprintf_r+0x5a4>
   1819c:	1b010b13          	addi	s6,sp,432
   181a0:	4781                	li	a5,0
   181a2:	c822                	sw	s0,16(sp)
   181a4:	ce26                	sw	s1,28(sp)
   181a6:	845a                	mv	s0,s6
   181a8:	d24e                	sw	s3,36(sp)
   181aa:	8b62                	mv	s6,s8
   181ac:	84e6                	mv	s1,s9
   181ae:	89ca                	mv	s3,s2
   181b0:	5cf2                	lw	s9,60(sp)
   181b2:	400bfa13          	andi	s4,s7,1024
   181b6:	0ff00a93          	li	s5,255
   181ba:	8c46                	mv	s8,a7
   181bc:	893e                	mv	s2,a5
   181be:	a819                	j	181d4 <_svfprintf_r+0x1186>
   181c0:	4629                	li	a2,10
   181c2:	4681                	li	a3,0
   181c4:	8526                	mv	a0,s1
   181c6:	85ce                	mv	a1,s3
   181c8:	338030ef          	jal	ra,1b500 <__udivdi3>
   181cc:	32098563          	beqz	s3,184f6 <_svfprintf_r+0x14a8>
   181d0:	84aa                	mv	s1,a0
   181d2:	89ae                	mv	s3,a1
   181d4:	4629                	li	a2,10
   181d6:	4681                	li	a3,0
   181d8:	8526                	mv	a0,s1
   181da:	85ce                	mv	a1,s3
   181dc:	684030ef          	jal	ra,1b860 <__umoddi3>
   181e0:	03050513          	addi	a0,a0,48
   181e4:	fea40fa3          	sb	a0,-1(s0)
   181e8:	0905                	addi	s2,s2,1
   181ea:	147d                	addi	s0,s0,-1
   181ec:	fc0a0ae3          	beqz	s4,181c0 <_svfprintf_r+0x1172>
   181f0:	000cc683          	lbu	a3,0(s9)
   181f4:	fcd916e3          	bne	s2,a3,181c0 <_svfprintf_r+0x1172>
   181f8:	fd5904e3          	beq	s2,s5,181c0 <_svfprintf_r+0x1172>
   181fc:	2c099563          	bnez	s3,184c6 <_svfprintf_r+0x1478>
   18200:	47a5                	li	a5,9
   18202:	2c97e263          	bltu	a5,s1,184c6 <_svfprintf_r+0x1478>
   18206:	88e2                	mv	a7,s8
   18208:	1b1c                	addi	a5,sp,432
   1820a:	8c5a                	mv	s8,s6
   1820c:	8b22                	mv	s6,s0
   1820e:	de66                	sw	s9,60(sp)
   18210:	44f2                	lw	s1,28(sp)
   18212:	5992                	lw	s3,36(sp)
   18214:	4442                	lw	s0,16(sp)
   18216:	d04a                	sw	s2,32(sp)
   18218:	41678cb3          	sub	s9,a5,s6
   1821c:	8a5e                	mv	s4,s7
   1821e:	da6ff06f          	j	177c4 <_svfprintf_r+0x776>
   18222:	572e                	lw	a4,232(sp)
   18224:	66f9                	lui	a3,0x1e
   18226:	70068693          	addi	a3,a3,1792 # 1e700 <__clzsi2+0xd2>
   1822a:	00d8a023          	sw	a3,0(a7)
   1822e:	0785                	addi	a5,a5,1
   18230:	4685                	li	a3,1
   18232:	0705                	addi	a4,a4,1
   18234:	00d8a223          	sw	a3,4(a7)
   18238:	d7be                	sw	a5,236(sp)
   1823a:	d5ba                	sw	a4,232(sp)
   1823c:	469d                	li	a3,7
   1823e:	08a1                	addi	a7,a7,8
   18240:	04e6ca63          	blt	a3,a4,18294 <_svfprintf_r+0x1246>
   18244:	14061463          	bnez	a2,1838c <_svfprintf_r+0x133e>
   18248:	5682                	lw	a3,32(sp)
   1824a:	001a7713          	andi	a4,s4,1
   1824e:	8f55                	or	a4,a4,a3
   18250:	e319                	bnez	a4,18256 <_svfprintf_r+0x1208>
   18252:	febfe06f          	j	1723c <_svfprintf_r+0x1ee>
   18256:	5742                	lw	a4,48(sp)
   18258:	56b2                	lw	a3,44(sp)
   1825a:	00e8a023          	sw	a4,0(a7)
   1825e:	572e                	lw	a4,232(sp)
   18260:	97b6                	add	a5,a5,a3
   18262:	00d8a223          	sw	a3,4(a7)
   18266:	0705                	addi	a4,a4,1
   18268:	d7be                	sw	a5,236(sp)
   1826a:	d5ba                	sw	a4,232(sp)
   1826c:	469d                	li	a3,7
   1826e:	32e6c963          	blt	a3,a4,185a0 <_svfprintf_r+0x1552>
   18272:	08a1                	addi	a7,a7,8
   18274:	5682                	lw	a3,32(sp)
   18276:	0705                	addi	a4,a4,1
   18278:	0168a023          	sw	s6,0(a7)
   1827c:	97b6                	add	a5,a5,a3
   1827e:	00d8a223          	sw	a3,4(a7)
   18282:	d7be                	sw	a5,236(sp)
   18284:	d5ba                	sw	a4,232(sp)
   18286:	469d                	li	a3,7
   18288:	00e6c463          	blt	a3,a4,18290 <_svfprintf_r+0x1242>
   1828c:	faffe06f          	j	1723a <_svfprintf_r+0x1ec>
   18290:	b7cff06f          	j	1760c <_svfprintf_r+0x5be>
   18294:	11d0                	addi	a2,sp,228
   18296:	85e2                	mv	a1,s8
   18298:	856a                	mv	a0,s10
   1829a:	6b5010ef          	jal	ra,1a14e <__ssprint_r>
   1829e:	900513e3          	bnez	a0,17ba4 <_svfprintf_r+0xb56>
   182a2:	463e                	lw	a2,204(sp)
   182a4:	57be                	lw	a5,236(sp)
   182a6:	10c10893          	addi	a7,sp,268
   182aa:	bf69                	j	18244 <_svfprintf_r+0x11f6>
   182ac:	4bc2                	lw	s7,16(sp)
   182ae:	8d22                	mv	s10,s0
   182b0:	8c26                	mv	s8,s1
   182b2:	b8d5                	j	17ba6 <_svfprintf_r+0xb58>
   182b4:	040a7793          	andi	a5,s4,64
   182b8:	1a078763          	beqz	a5,18466 <_svfprintf_r+0x1418>
   182bc:	47d2                	lw	a5,20(sp)
   182be:	4901                	li	s2,0
   182c0:	ca3a                	sw	a4,20(sp)
   182c2:	0007dc83          	lhu	s9,0(a5)
   182c6:	b951                	j	17f5a <_svfprintf_r+0xf0c>
   182c8:	11d0                	addi	a2,sp,228
   182ca:	85e2                	mv	a1,s8
   182cc:	856a                	mv	a0,s10
   182ce:	681010ef          	jal	ra,1a14e <__ssprint_r>
   182d2:	8c0519e3          	bnez	a0,17ba4 <_svfprintf_r+0xb56>
   182d6:	57be                	lw	a5,236(sp)
   182d8:	10c10893          	addi	a7,sp,268
   182dc:	f4cff06f          	j	17a28 <_svfprintf_r+0x9da>
   182e0:	46a2                	lw	a3,8(sp)
   182e2:	97a6                	add	a5,a5,s1
   182e4:	0098a223          	sw	s1,4(a7)
   182e8:	00d8a023          	sw	a3,0(a7)
   182ec:	0705                	addi	a4,a4,1
   182ee:	d7be                	sw	a5,236(sp)
   182f0:	d5ba                	sw	a4,232(sp)
   182f2:	469d                	li	a3,7
   182f4:	00e6c463          	blt	a3,a4,182fc <_svfprintf_r+0x12ae>
   182f8:	f43fe06f          	j	1723a <_svfprintf_r+0x1ec>
   182fc:	b10ff06f          	j	1760c <_svfprintf_r+0x5be>
   18300:	11d0                	addi	a2,sp,228
   18302:	85da                	mv	a1,s6
   18304:	856a                	mv	a0,s10
   18306:	649010ef          	jal	ra,1a14e <__ssprint_r>
   1830a:	1e051263          	bnez	a0,184ee <_svfprintf_r+0x14a0>
   1830e:	00044683          	lbu	a3,0(s0)
   18312:	57be                	lw	a5,236(sp)
   18314:	10c10893          	addi	a7,sp,268
   18318:	bb55                	j	180cc <_svfprintf_r+0x107e>
   1831a:	57ce                	lw	a5,240(sp)
   1831c:	110c                	addi	a1,sp,160
   1831e:	1908                	addi	a0,sp,176
   18320:	d93e                	sw	a5,176(sp)
   18322:	57de                	lw	a5,244(sp)
   18324:	d102                	sw	zero,160(sp)
   18326:	d302                	sw	zero,164(sp)
   18328:	db3e                	sw	a5,180(sp)
   1832a:	57ee                	lw	a5,248(sp)
   1832c:	d502                	sw	zero,168(sp)
   1832e:	d702                	sw	zero,172(sp)
   18330:	dd3e                	sw	a5,184(sp)
   18332:	57fe                	lw	a5,252(sp)
   18334:	df3e                	sw	a5,188(sp)
   18336:	380040ef          	jal	ra,1c6b6 <__letf2>
   1833a:	48c2                	lw	a7,16(sp)
   1833c:	32054163          	bltz	a0,1865e <_svfprintf_r+0x1610>
   18340:	0c714783          	lbu	a5,199(sp)
   18344:	04700713          	li	a4,71
   18348:	1a975b63          	bge	a4,s1,184fe <_svfprintf_r+0x14b0>
   1834c:	6879                	lui	a6,0x1e
   1834e:	6c480b13          	addi	s6,a6,1732 # 1e6c4 <__clzsi2+0x96>
   18352:	c802                	sw	zero,16(sp)
   18354:	d402                	sw	zero,40(sp)
   18356:	d202                	sw	zero,36(sp)
   18358:	ce02                	sw	zero,28(sp)
   1835a:	f7fa7a13          	andi	s4,s4,-129
   1835e:	4a8d                	li	s5,3
   18360:	4c8d                	li	s9,3
   18362:	4d81                	li	s11,0
   18364:	b8079963          	bnez	a5,176f6 <_svfprintf_r+0x6a8>
   18368:	e3ffe06f          	j	171a6 <_svfprintf_r+0x158>
   1836c:	47b2                	lw	a5,12(sp)
   1836e:	8b22                	mv	s6,s0
   18370:	c31c                	sw	a5,0(a4)
   18372:	efffe06f          	j	17270 <_svfprintf_r+0x222>
   18376:	4799                	li	a5,6
   18378:	8cee                	mv	s9,s11
   1837a:	1bb7e263          	bltu	a5,s11,1851e <_svfprintf_r+0x14d0>
   1837e:	6879                	lui	a6,0x1e
   18380:	8ae6                	mv	s5,s9
   18382:	ca4a                	sw	s2,20(sp)
   18384:	6f880b13          	addi	s6,a6,1784 # 1e6f8 <__clzsi2+0xca>
   18388:	e15fe06f          	j	1719c <_svfprintf_r+0x14e>
   1838c:	5742                	lw	a4,48(sp)
   1838e:	56b2                	lw	a3,44(sp)
   18390:	08a1                	addi	a7,a7,8
   18392:	fee8ac23          	sw	a4,-8(a7)
   18396:	572e                	lw	a4,232(sp)
   18398:	97b6                	add	a5,a5,a3
   1839a:	fed8ae23          	sw	a3,-4(a7)
   1839e:	0705                	addi	a4,a4,1
   183a0:	d7be                	sw	a5,236(sp)
   183a2:	d5ba                	sw	a4,232(sp)
   183a4:	469d                	li	a3,7
   183a6:	1ee6cd63          	blt	a3,a4,185a0 <_svfprintf_r+0x1552>
   183aa:	ec0655e3          	bgez	a2,18274 <_svfprintf_r+0x1226>
   183ae:	56c1                	li	a3,-16
   183b0:	40c004b3          	neg	s1,a2
   183b4:	72d65163          	bge	a2,a3,18ad6 <_svfprintf_r+0x1a88>
   183b8:	4941                	li	s2,16
   183ba:	4c9d                	li	s9,7
   183bc:	a021                	j	183c4 <_svfprintf_r+0x1376>
   183be:	14c1                	addi	s1,s1,-16
   183c0:	70995b63          	bge	s2,s1,18ad6 <_svfprintf_r+0x1a88>
   183c4:	46a2                	lw	a3,8(sp)
   183c6:	07c1                	addi	a5,a5,16
   183c8:	0705                	addi	a4,a4,1
   183ca:	00d8a023          	sw	a3,0(a7)
   183ce:	0128a223          	sw	s2,4(a7)
   183d2:	d7be                	sw	a5,236(sp)
   183d4:	d5ba                	sw	a4,232(sp)
   183d6:	08a1                	addi	a7,a7,8
   183d8:	feecd3e3          	bge	s9,a4,183be <_svfprintf_r+0x1370>
   183dc:	11d0                	addi	a2,sp,228
   183de:	85e2                	mv	a1,s8
   183e0:	856a                	mv	a0,s10
   183e2:	56d010ef          	jal	ra,1a14e <__ssprint_r>
   183e6:	fa051f63          	bnez	a0,17ba4 <_svfprintf_r+0xb56>
   183ea:	57be                	lw	a5,236(sp)
   183ec:	572e                	lw	a4,232(sp)
   183ee:	10c10893          	addi	a7,sp,268
   183f2:	b7f1                	j	183be <_svfprintf_r+0x1370>
   183f4:	00148713          	addi	a4,s1,1
   183f8:	00890693          	addi	a3,s2,8
   183fc:	47a2                	lw	a5,8(sp)
   183fe:	9cee                	add	s9,s9,s11
   18400:	01b92223          	sw	s11,4(s2)
   18404:	00f92023          	sw	a5,0(s2)
   18408:	d7e6                	sw	s9,236(sp)
   1840a:	d5ba                	sw	a4,232(sp)
   1840c:	479d                	li	a5,7
   1840e:	d6e7c7e3          	blt	a5,a4,1817c <_svfprintf_r+0x112e>
   18412:	0705                	addi	a4,a4,1
   18414:	00868893          	addi	a7,a3,8
   18418:	8936                	mv	s2,a3
   1841a:	9d8ff06f          	j	175f2 <_svfprintf_r+0x5a4>
   1841e:	200a7793          	andi	a5,s4,512
   18422:	12078b63          	beqz	a5,18558 <_svfprintf_r+0x150a>
   18426:	47d2                	lw	a5,20(sp)
   18428:	4901                	li	s2,0
   1842a:	ca3a                	sw	a4,20(sp)
   1842c:	0007cc83          	lbu	s9,0(a5)
   18430:	bd2ff06f          	j	17802 <_svfprintf_r+0x7b4>
   18434:	200bf793          	andi	a5,s7,512
   18438:	10078863          	beqz	a5,18548 <_svfprintf_r+0x14fa>
   1843c:	47d2                	lw	a5,20(sp)
   1843e:	4901                	li	s2,0
   18440:	ca36                	sw	a3,20(sp)
   18442:	0007cc83          	lbu	s9,0(a5)
   18446:	4785                	li	a5,1
   18448:	b52ff06f          	j	1779a <_svfprintf_r+0x74c>
   1844c:	200a7793          	andi	a5,s4,512
   18450:	12078163          	beqz	a5,18572 <_svfprintf_r+0x1524>
   18454:	47d2                	lw	a5,20(sp)
   18456:	ca3a                	sw	a4,20(sp)
   18458:	00078c83          	lb	s9,0(a5)
   1845c:	41fcd913          	srai	s2,s9,0x1f
   18460:	87ca                	mv	a5,s2
   18462:	c0eff06f          	j	17870 <_svfprintf_r+0x822>
   18466:	200a7793          	andi	a5,s4,512
   1846a:	0e078e63          	beqz	a5,18566 <_svfprintf_r+0x1518>
   1846e:	47d2                	lw	a5,20(sp)
   18470:	4901                	li	s2,0
   18472:	ca3a                	sw	a4,20(sp)
   18474:	0007cc83          	lbu	s9,0(a5)
   18478:	b4cd                	j	17f5a <_svfprintf_r+0xf0c>
   1847a:	57fe                	lw	a5,252(sp)
   1847c:	1007c463          	bltz	a5,18584 <_svfprintf_r+0x1536>
   18480:	0c714783          	lbu	a5,199(sp)
   18484:	04700713          	li	a4,71
   18488:	2e975563          	bge	a4,s1,18772 <_svfprintf_r+0x1724>
   1848c:	6879                	lui	a6,0x1e
   1848e:	6cc80b13          	addi	s6,a6,1740 # 1e6cc <__clzsi2+0x9e>
   18492:	b5c1                	j	18352 <_svfprintf_r+0x1304>
   18494:	46a2                	lw	a3,8(sp)
   18496:	97a6                	add	a5,a5,s1
   18498:	0705                	addi	a4,a4,1
   1849a:	00d8a023          	sw	a3,0(a7)
   1849e:	0098a223          	sw	s1,4(a7)
   184a2:	d7be                	sw	a5,236(sp)
   184a4:	d5ba                	sw	a4,232(sp)
   184a6:	469d                	li	a3,7
   184a8:	08a1                	addi	a7,a7,8
   184aa:	fee6dd63          	bge	a3,a4,17ca4 <_svfprintf_r+0xc56>
   184ae:	11d0                	addi	a2,sp,228
   184b0:	85e2                	mv	a1,s8
   184b2:	856a                	mv	a0,s10
   184b4:	49b010ef          	jal	ra,1a14e <__ssprint_r>
   184b8:	ee051663          	bnez	a0,17ba4 <_svfprintf_r+0xb56>
   184bc:	57be                	lw	a5,236(sp)
   184be:	10c10893          	addi	a7,sp,268
   184c2:	fe2ff06f          	j	17ca4 <_svfprintf_r+0xc56>
   184c6:	47a6                	lw	a5,72(sp)
   184c8:	45b6                	lw	a1,76(sp)
   184ca:	4901                	li	s2,0
   184cc:	8c1d                	sub	s0,s0,a5
   184ce:	863e                	mv	a2,a5
   184d0:	8522                	mv	a0,s0
   184d2:	b03fe0ef          	jal	ra,16fd4 <strncpy>
   184d6:	001cc583          	lbu	a1,1(s9)
   184da:	4629                	li	a2,10
   184dc:	4681                	li	a3,0
   184de:	00b03833          	snez	a6,a1
   184e2:	8526                	mv	a0,s1
   184e4:	85ce                	mv	a1,s3
   184e6:	9cc2                	add	s9,s9,a6
   184e8:	018030ef          	jal	ra,1b500 <__udivdi3>
   184ec:	b1d5                	j	181d0 <_svfprintf_r+0x1182>
   184ee:	4bc2                	lw	s7,16(sp)
   184f0:	8c5a                	mv	s8,s6
   184f2:	eb4ff06f          	j	17ba6 <_svfprintf_r+0xb58>
   184f6:	47a5                	li	a5,9
   184f8:	cc97ece3          	bltu	a5,s1,181d0 <_svfprintf_r+0x1182>
   184fc:	b329                	j	18206 <_svfprintf_r+0x11b8>
   184fe:	6879                	lui	a6,0x1e
   18500:	6c080b13          	addi	s6,a6,1728 # 1e6c0 <__clzsi2+0x92>
   18504:	b5b9                	j	18352 <_svfprintf_r+0x1304>
   18506:	11d0                	addi	a2,sp,228
   18508:	85e2                	mv	a1,s8
   1850a:	856a                	mv	a0,s10
   1850c:	443010ef          	jal	ra,1a14e <__ssprint_r>
   18510:	e8051a63          	bnez	a0,17ba4 <_svfprintf_r+0xb56>
   18514:	57be                	lw	a5,236(sp)
   18516:	10c10893          	addi	a7,sp,268
   1851a:	f78ff06f          	j	17c92 <_svfprintf_r+0xc44>
   1851e:	4c99                	li	s9,6
   18520:	bdb9                	j	1837e <_svfprintf_r+0x1330>
   18522:	5702                	lw	a4,32(sp)
   18524:	00eb0833          	add	a6,s6,a4
   18528:	409704b3          	sub	s1,a4,s1
   1852c:	41b806b3          	sub	a3,a6,s11
   18530:	8926                	mv	s2,s1
   18532:	fe96d163          	bge	a3,s1,17d14 <_svfprintf_r+0xcc6>
   18536:	8936                	mv	s2,a3
   18538:	fdcff06f          	j	17d14 <_svfprintf_r+0xcc6>
   1853c:	47b2                	lw	a5,12(sp)
   1853e:	8b22                	mv	s6,s0
   18540:	00f71023          	sh	a5,0(a4)
   18544:	d2dfe06f          	j	17270 <_svfprintf_r+0x222>
   18548:	47d2                	lw	a5,20(sp)
   1854a:	4901                	li	s2,0
   1854c:	ca36                	sw	a3,20(sp)
   1854e:	0007ac83          	lw	s9,0(a5)
   18552:	4785                	li	a5,1
   18554:	a46ff06f          	j	1779a <_svfprintf_r+0x74c>
   18558:	47d2                	lw	a5,20(sp)
   1855a:	4901                	li	s2,0
   1855c:	ca3a                	sw	a4,20(sp)
   1855e:	0007ac83          	lw	s9,0(a5)
   18562:	aa0ff06f          	j	17802 <_svfprintf_r+0x7b4>
   18566:	47d2                	lw	a5,20(sp)
   18568:	4901                	li	s2,0
   1856a:	ca3a                	sw	a4,20(sp)
   1856c:	0007ac83          	lw	s9,0(a5)
   18570:	b2ed                	j	17f5a <_svfprintf_r+0xf0c>
   18572:	47d2                	lw	a5,20(sp)
   18574:	ca3a                	sw	a4,20(sp)
   18576:	0007ac83          	lw	s9,0(a5)
   1857a:	41fcd913          	srai	s2,s9,0x1f
   1857e:	87ca                	mv	a5,s2
   18580:	af0ff06f          	j	17870 <_svfprintf_r+0x822>
   18584:	02d00793          	li	a5,45
   18588:	0cf103a3          	sb	a5,199(sp)
   1858c:	bde5                	j	18484 <_svfprintf_r+0x1436>
   1858e:	11d0                	addi	a2,sp,228
   18590:	85e2                	mv	a1,s8
   18592:	856a                	mv	a0,s10
   18594:	3bb010ef          	jal	ra,1a14e <__ssprint_r>
   18598:	00cc5783          	lhu	a5,12(s8)
   1859c:	ce9fe06f          	j	17284 <_svfprintf_r+0x236>
   185a0:	11d0                	addi	a2,sp,228
   185a2:	85e2                	mv	a1,s8
   185a4:	856a                	mv	a0,s10
   185a6:	3a9010ef          	jal	ra,1a14e <__ssprint_r>
   185aa:	de051d63          	bnez	a0,17ba4 <_svfprintf_r+0xb56>
   185ae:	463e                	lw	a2,204(sp)
   185b0:	57be                	lw	a5,236(sp)
   185b2:	572e                	lw	a4,232(sp)
   185b4:	10c10893          	addi	a7,sp,268
   185b8:	ca065ee3          	bgez	a2,18274 <_svfprintf_r+0x1226>
   185bc:	bbcd                	j	183ae <_svfprintf_r+0x1360>
   185be:	4d99                	li	s11,6
   185c0:	de3fe06f          	j	173a2 <_svfprintf_r+0x354>
   185c4:	5702                	lw	a4,32(sp)
   185c6:	8c5a                	mv	s8,s6
   185c8:	5b22                	lw	s6,40(sp)
   185ca:	de22                	sw	s0,60(sp)
   185cc:	4a72                	lw	s4,28(sp)
   185ce:	975a                	add	a4,a4,s6
   185d0:	4406                	lw	s0,64(sp)
   185d2:	4996                	lw	s3,68(sp)
   185d4:	5a92                	lw	s5,36(sp)
   185d6:	edb77e63          	bgeu	a4,s11,17cb2 <_svfprintf_r+0xc64>
   185da:	8dba                	mv	s11,a4
   185dc:	ed6ff06f          	j	17cb2 <_svfprintf_r+0xc64>
   185e0:	4772                	lw	a4,28(sp)
   185e2:	57f5                	li	a5,-3
   185e4:	00f74463          	blt	a4,a5,185ec <_svfprintf_r+0x159e>
   185e8:	00edd863          	bge	s11,a4,185f8 <_svfprintf_r+0x15aa>
   185ec:	14f9                	addi	s1,s1,-2
   185ee:	fdf4f793          	andi	a5,s1,-33
   185f2:	d43e                	sw	a5,40(sp)
   185f4:	e57fe06f          	j	1744a <_svfprintf_r+0x3fc>
   185f8:	5782                	lw	a5,32(sp)
   185fa:	4772                	lw	a4,28(sp)
   185fc:	18f74f63          	blt	a4,a5,1879a <_svfprintf_r+0x174c>
   18600:	47c6                	lw	a5,80(sp)
   18602:	8cba                	mv	s9,a4
   18604:	8b85                	andi	a5,a5,1
   18606:	c781                	beqz	a5,1860e <_svfprintf_r+0x15c0>
   18608:	57b2                	lw	a5,44(sp)
   1860a:	00f70cb3          	add	s9,a4,a5
   1860e:	47c6                	lw	a5,80(sp)
   18610:	4007f793          	andi	a5,a5,1024
   18614:	c781                	beqz	a5,1861c <_svfprintf_r+0x15ce>
   18616:	47f2                	lw	a5,28(sp)
   18618:	5ef04563          	bgtz	a5,18c02 <_svfprintf_r+0x1bb4>
   1861c:	fffcca93          	not	s5,s9
   18620:	41fada93          	srai	s5,s5,0x1f
   18624:	015cfab3          	and	s5,s9,s5
   18628:	06700493          	li	s1,103
   1862c:	d402                	sw	zero,40(sp)
   1862e:	d202                	sw	zero,36(sp)
   18630:	ef5fe06f          	j	17524 <_svfprintf_r+0x4d6>
   18634:	0c714783          	lbu	a5,199(sp)
   18638:	4d81                	li	s11,0
   1863a:	8a079e63          	bnez	a5,176f6 <_svfprintf_r+0x6a8>
   1863e:	b69fe06f          	j	171a6 <_svfprintf_r+0x158>
   18642:	11d0                	addi	a2,sp,228
   18644:	85da                	mv	a1,s6
   18646:	856a                	mv	a0,s10
   18648:	307010ef          	jal	ra,1a14e <__ssprint_r>
   1864c:	ea0511e3          	bnez	a0,184ee <_svfprintf_r+0x14a0>
   18650:	00044683          	lbu	a3,0(s0)
   18654:	57be                	lw	a5,236(sp)
   18656:	10c10893          	addi	a7,sp,268
   1865a:	9db6                	add	s11,s11,a3
   1865c:	b451                	j	180e0 <_svfprintf_r+0x1092>
   1865e:	02d00793          	li	a5,45
   18662:	0cf103a3          	sb	a5,199(sp)
   18666:	b9f9                	j	18344 <_svfprintf_r+0x12f6>
   18668:	11d0                	addi	a2,sp,228
   1866a:	85e2                	mv	a1,s8
   1866c:	856a                	mv	a0,s10
   1866e:	2e1010ef          	jal	ra,1a14e <__ssprint_r>
   18672:	d2051963          	bnez	a0,17ba4 <_svfprintf_r+0xb56>
   18676:	44be                	lw	s1,204(sp)
   18678:	57be                	lw	a5,236(sp)
   1867a:	10c10893          	addi	a7,sp,268
   1867e:	e62ff06f          	j	17ce0 <_svfprintf_r+0xc92>
   18682:	0b010a93          	addi	s5,sp,176
   18686:	099c                	addi	a5,sp,208
   18688:	01f8                	addi	a4,sp,204
   1868a:	0dc10813          	addi	a6,sp,220
   1868e:	86ee                	mv	a3,s11
   18690:	460d                	li	a2,3
   18692:	85d6                	mv	a1,s5
   18694:	856a                	mv	a0,s10
   18696:	c0c6                	sw	a7,64(sp)
   18698:	d972                	sw	t3,176(sp)
   1869a:	d272                	sw	t3,36(sp)
   1869c:	db76                	sw	t4,180(sp)
   1869e:	d076                	sw	t4,32(sp)
   186a0:	dd7a                	sw	t5,184(sp)
   186a2:	ce7a                	sw	t5,28(sp)
   186a4:	df5e                	sw	s7,188(sp)
   186a6:	cf9fb0ef          	jal	ra,1439e <_ldtoa_r>
   186aa:	00054703          	lbu	a4,0(a0)
   186ae:	03000793          	li	a5,48
   186b2:	4f72                	lw	t5,28(sp)
   186b4:	5e82                	lw	t4,32(sp)
   186b6:	5e12                	lw	t3,36(sp)
   186b8:	4886                	lw	a7,64(sp)
   186ba:	8b2a                	mv	s6,a0
   186bc:	0a010c93          	addi	s9,sp,160
   186c0:	04f70963          	beq	a4,a5,18712 <_svfprintf_r+0x16c4>
   186c4:	47be                	lw	a5,204(sp)
   186c6:	97ee                	add	a5,a5,s11
   186c8:	00fb0933          	add	s2,s6,a5
   186cc:	85e6                	mv	a1,s9
   186ce:	8556                	mv	a0,s5
   186d0:	ce46                	sw	a7,28(sp)
   186d2:	d972                	sw	t3,176(sp)
   186d4:	db76                	sw	t4,180(sp)
   186d6:	dd7a                	sw	t5,184(sp)
   186d8:	df5e                	sw	s7,188(sp)
   186da:	d102                	sw	zero,160(sp)
   186dc:	d302                	sw	zero,164(sp)
   186de:	d502                	sw	zero,168(sp)
   186e0:	d702                	sw	zero,172(sp)
   186e2:	63b030ef          	jal	ra,1c51c <__eqtf2>
   186e6:	48f2                	lw	a7,28(sp)
   186e8:	86ca                	mv	a3,s2
   186ea:	e119                	bnez	a0,186f0 <_svfprintf_r+0x16a2>
   186ec:	d39fe06f          	j	17424 <_svfprintf_r+0x3d6>
   186f0:	46fe                	lw	a3,220(sp)
   186f2:	0126e463          	bltu	a3,s2,186fa <_svfprintf_r+0x16ac>
   186f6:	d2ffe06f          	j	17424 <_svfprintf_r+0x3d6>
   186fa:	03000713          	li	a4,48
   186fe:	00168793          	addi	a5,a3,1
   18702:	cfbe                	sw	a5,220(sp)
   18704:	00e68023          	sb	a4,0(a3)
   18708:	46fe                	lw	a3,220(sp)
   1870a:	ff26eae3          	bltu	a3,s2,186fe <_svfprintf_r+0x16b0>
   1870e:	d17fe06f          	j	17424 <_svfprintf_r+0x3d6>
   18712:	0a010c93          	addi	s9,sp,160
   18716:	85e6                	mv	a1,s9
   18718:	8556                	mv	a0,s5
   1871a:	c0c6                	sw	a7,64(sp)
   1871c:	d972                	sw	t3,176(sp)
   1871e:	d272                	sw	t3,36(sp)
   18720:	db76                	sw	t4,180(sp)
   18722:	d076                	sw	t4,32(sp)
   18724:	dd7a                	sw	t5,184(sp)
   18726:	ce7a                	sw	t5,28(sp)
   18728:	df5e                	sw	s7,188(sp)
   1872a:	d102                	sw	zero,160(sp)
   1872c:	d302                	sw	zero,164(sp)
   1872e:	d502                	sw	zero,168(sp)
   18730:	d702                	sw	zero,172(sp)
   18732:	5eb030ef          	jal	ra,1c51c <__eqtf2>
   18736:	4f72                	lw	t5,28(sp)
   18738:	5e82                	lw	t4,32(sp)
   1873a:	5e12                	lw	t3,36(sp)
   1873c:	4886                	lw	a7,64(sp)
   1873e:	d159                	beqz	a0,186c4 <_svfprintf_r+0x1676>
   18740:	4785                	li	a5,1
   18742:	41b787b3          	sub	a5,a5,s11
   18746:	c7be                	sw	a5,204(sp)
   18748:	bfbd                	j	186c6 <_svfprintf_r+0x1678>
   1874a:	0001f637          	lui	a2,0x1f
   1874e:	e8460e93          	addi	t4,a2,-380 # 1ee84 <blanks.1>
   18752:	cceff06f          	j	17c20 <_svfprintf_r+0xbd2>
   18756:	0c714783          	lbu	a5,199(sp)
   1875a:	ca4a                	sw	s2,20(sp)
   1875c:	d402                	sw	zero,40(sp)
   1875e:	d202                	sw	zero,36(sp)
   18760:	ce02                	sw	zero,28(sp)
   18762:	8aee                	mv	s5,s11
   18764:	8cee                	mv	s9,s11
   18766:	4d81                	li	s11,0
   18768:	c399                	beqz	a5,1876e <_svfprintf_r+0x1720>
   1876a:	f8dfe06f          	j	176f6 <_svfprintf_r+0x6a8>
   1876e:	a39fe06f          	j	171a6 <_svfprintf_r+0x158>
   18772:	6879                	lui	a6,0x1e
   18774:	6c880b13          	addi	s6,a6,1736 # 1e6c8 <__clzsi2+0x9a>
   18778:	bee9                	j	18352 <_svfprintf_r+0x1304>
   1877a:	11d0                	addi	a2,sp,228
   1877c:	85e2                	mv	a1,s8
   1877e:	856a                	mv	a0,s10
   18780:	1cf010ef          	jal	ra,1a14e <__ssprint_r>
   18784:	c2051063          	bnez	a0,17ba4 <_svfprintf_r+0xb56>
   18788:	44be                	lw	s1,204(sp)
   1878a:	5702                	lw	a4,32(sp)
   1878c:	57be                	lw	a5,236(sp)
   1878e:	10c10893          	addi	a7,sp,268
   18792:	409704b3          	sub	s1,a4,s1
   18796:	d7eff06f          	j	17d14 <_svfprintf_r+0xcc6>
   1879a:	5782                	lw	a5,32(sp)
   1879c:	5732                	lw	a4,44(sp)
   1879e:	06700493          	li	s1,103
   187a2:	00e78cb3          	add	s9,a5,a4
   187a6:	47f2                	lw	a5,28(sp)
   187a8:	4af05a63          	blez	a5,18c5c <_svfprintf_r+0x1c0e>
   187ac:	47c6                	lw	a5,80(sp)
   187ae:	4007f793          	andi	a5,a5,1024
   187b2:	44079a63          	bnez	a5,18c06 <_svfprintf_r+0x1bb8>
   187b6:	fffcca93          	not	s5,s9
   187ba:	41fada93          	srai	s5,s5,0x1f
   187be:	015cfab3          	and	s5,s9,s5
   187c2:	b5ad                	j	1862c <_svfprintf_r+0x15de>
   187c4:	47c6                	lw	a5,80(sp)
   187c6:	4772                	lw	a4,28(sp)
   187c8:	8b85                	andi	a5,a5,1
   187ca:	01b7e7b3          	or	a5,a5,s11
   187ce:	4ae05863          	blez	a4,18c7e <_svfprintf_r+0x1c30>
   187d2:	36079163          	bnez	a5,18b34 <_svfprintf_r+0x1ae6>
   187d6:	4cf2                	lw	s9,28(sp)
   187d8:	06600493          	li	s1,102
   187dc:	bfc1                	j	187ac <_svfprintf_r+0x175e>
   187de:	03000793          	li	a5,48
   187e2:	0cf10423          	sb	a5,200(sp)
   187e6:	05800793          	li	a5,88
   187ea:	002a6713          	ori	a4,s4,2
   187ee:	0cf104a3          	sb	a5,201(sp)
   187f2:	c8ba                	sw	a4,80(sp)
   187f4:	06300793          	li	a5,99
   187f8:	c802                	sw	zero,16(sp)
   187fa:	14c10b13          	addi	s6,sp,332
   187fe:	2db7c063          	blt	a5,s11,18abe <_svfprintf_r+0x1a70>
   18802:	5bfe                	lw	s7,252(sp)
   18804:	fdf4f793          	andi	a5,s1,-33
   18808:	d43e                	sw	a5,40(sp)
   1880a:	cc82                	sw	zero,88(sp)
   1880c:	5e4e                	lw	t3,240(sp)
   1880e:	5ede                	lw	t4,244(sp)
   18810:	5f6e                	lw	t5,248(sp)
   18812:	102a6a13          	ori	s4,s4,258
   18816:	1e0bcc63          	bltz	s7,18a0e <_svfprintf_r+0x19c0>
   1881a:	06100793          	li	a5,97
   1881e:	34f48763          	beq	s1,a5,18b6c <_svfprintf_r+0x1b1e>
   18822:	04100793          	li	a5,65
   18826:	00f48463          	beq	s1,a5,1882e <_svfprintf_r+0x17e0>
   1882a:	b95fe06f          	j	173be <_svfprintf_r+0x370>
   1882e:	0b010a93          	addi	s5,sp,176
   18832:	8556                	mv	a0,s5
   18834:	cac6                	sw	a7,84(sp)
   18836:	d972                	sw	t3,176(sp)
   18838:	db76                	sw	t4,180(sp)
   1883a:	dd7a                	sw	t5,184(sp)
   1883c:	df5e                	sw	s7,188(sp)
   1883e:	3b5050ef          	jal	ra,1e3f2 <__trunctfdf2>
   18842:	01f0                	addi	a2,sp,204
   18844:	c20fe0ef          	jal	ra,16c64 <frexp>
   18848:	862e                	mv	a2,a1
   1884a:	85aa                	mv	a1,a0
   1884c:	8556                	mv	a0,s5
   1884e:	255050ef          	jal	ra,1e2a2 <__extenddftf2>
   18852:	57ca                	lw	a5,176(sp)
   18854:	0a010c93          	addi	s9,sp,160
   18858:	09010913          	addi	s2,sp,144
   1885c:	c93e                	sw	a5,144(sp)
   1885e:	57da                	lw	a5,180(sp)
   18860:	0110                	addi	a2,sp,128
   18862:	85ca                	mv	a1,s2
   18864:	cb3e                	sw	a5,148(sp)
   18866:	57ea                	lw	a5,184(sp)
   18868:	8566                	mv	a0,s9
   1886a:	c0b2                	sw	a2,64(sp)
   1886c:	cd3e                	sw	a5,152(sp)
   1886e:	57fa                	lw	a5,188(sp)
   18870:	c102                	sw	zero,128(sp)
   18872:	c302                	sw	zero,132(sp)
   18874:	cf3e                	sw	a5,156(sp)
   18876:	3ffc07b7          	lui	a5,0x3ffc0
   1887a:	c73e                	sw	a5,140(sp)
   1887c:	c502                	sw	zero,136(sp)
   1887e:	72d030ef          	jal	ra,1c7aa <__multf3>
   18882:	568a                	lw	a3,160(sp)
   18884:	5e1a                	lw	t3,164(sp)
   18886:	5eaa                	lw	t4,168(sp)
   18888:	5f3a                	lw	t5,172(sp)
   1888a:	85e6                	mv	a1,s9
   1888c:	8556                	mv	a0,s5
   1888e:	d936                	sw	a3,176(sp)
   18890:	c2b6                	sw	a3,68(sp)
   18892:	db72                	sw	t3,180(sp)
   18894:	d272                	sw	t3,36(sp)
   18896:	dd76                	sw	t4,184(sp)
   18898:	d076                	sw	t4,32(sp)
   1889a:	df7a                	sw	t5,188(sp)
   1889c:	ce7a                	sw	t5,28(sp)
   1889e:	d102                	sw	zero,160(sp)
   188a0:	d302                	sw	zero,164(sp)
   188a2:	d502                	sw	zero,168(sp)
   188a4:	d702                	sw	zero,172(sp)
   188a6:	477030ef          	jal	ra,1c51c <__eqtf2>
   188aa:	4f72                	lw	t5,28(sp)
   188ac:	5e82                	lw	t4,32(sp)
   188ae:	5e12                	lw	t3,36(sp)
   188b0:	4696                	lw	a3,68(sp)
   188b2:	48d6                	lw	a7,84(sp)
   188b4:	e119                	bnez	a0,188ba <_svfprintf_r+0x186c>
   188b6:	4785                	li	a5,1
   188b8:	c7be                	sw	a5,204(sp)
   188ba:	67f9                	lui	a5,0x1e
   188bc:	6e478793          	addi	a5,a5,1764 # 1e6e4 <__clzsi2+0xb6>
   188c0:	d23e                	sw	a5,36(sp)
   188c2:	fffd8713          	addi	a4,s11,-1
   188c6:	ced2                	sw	s4,92(sp)
   188c8:	d2a6                	sw	s1,100(sp)
   188ca:	d6ee                	sw	s11,108(sp)
   188cc:	daea                	sw	s10,116(sp)
   188ce:	dce2                	sw	s8,120(sp)
   188d0:	8bda                	mv	s7,s6
   188d2:	d0a2                	sw	s0,96(sp)
   188d4:	d4ce                	sw	s3,104(sp)
   188d6:	d8c6                	sw	a7,112(sp)
   188d8:	8c3a                	mv	s8,a4
   188da:	deda                	sw	s6,124(sp)
   188dc:	8d36                	mv	s10,a3
   188de:	8df2                	mv	s11,t3
   188e0:	84f6                	mv	s1,t4
   188e2:	8a7a                	mv	s4,t5
   188e4:	a01d                	j	1890a <_svfprintf_r+0x18bc>
   188e6:	85e6                	mv	a1,s9
   188e8:	8556                	mv	a0,s5
   188ea:	d032                	sw	a2,32(sp)
   188ec:	ce7e                	sw	t6,28(sp)
   188ee:	dd7e                	sw	t6,184(sp)
   188f0:	df32                	sw	a2,188(sp)
   188f2:	d95a                	sw	s6,176(sp)
   188f4:	db4e                	sw	s3,180(sp)
   188f6:	d102                	sw	zero,160(sp)
   188f8:	d302                	sw	zero,164(sp)
   188fa:	d502                	sw	zero,168(sp)
   188fc:	d702                	sw	zero,172(sp)
   188fe:	41f030ef          	jal	ra,1c51c <__eqtf2>
   18902:	1c7d                	addi	s8,s8,-1
   18904:	8fa6                	mv	t6,s1
   18906:	8652                	mv	a2,s4
   18908:	c151                	beqz	a0,1898c <_svfprintf_r+0x193e>
   1890a:	400307b7          	lui	a5,0x40030
   1890e:	864a                	mv	a2,s2
   18910:	85e6                	mv	a1,s9
   18912:	8556                	mv	a0,s5
   18914:	cf3e                	sw	a5,156(sp)
   18916:	d16a                	sw	s10,160(sp)
   18918:	d36e                	sw	s11,164(sp)
   1891a:	d526                	sw	s1,168(sp)
   1891c:	d752                	sw	s4,172(sp)
   1891e:	c902                	sw	zero,144(sp)
   18920:	cb02                	sw	zero,148(sp)
   18922:	cd02                	sw	zero,152(sp)
   18924:	687030ef          	jal	ra,1c7aa <__multf3>
   18928:	8556                	mv	a0,s5
   1892a:	7ec050ef          	jal	ra,1e116 <__fixtfsi>
   1892e:	85aa                	mv	a1,a0
   18930:	842a                	mv	s0,a0
   18932:	8556                	mv	a0,s5
   18934:	59ca                	lw	s3,176(sp)
   18936:	54da                	lw	s1,180(sp)
   18938:	5b6a                	lw	s6,184(sp)
   1893a:	5a7a                	lw	s4,188(sp)
   1893c:	097050ef          	jal	ra,1e1d2 <__floatsitf>
   18940:	56ca                	lw	a3,176(sp)
   18942:	4606                	lw	a2,64(sp)
   18944:	85ca                	mv	a1,s2
   18946:	c136                	sw	a3,128(sp)
   18948:	56da                	lw	a3,180(sp)
   1894a:	8566                	mv	a0,s9
   1894c:	c94e                	sw	s3,144(sp)
   1894e:	c336                	sw	a3,132(sp)
   18950:	56ea                	lw	a3,184(sp)
   18952:	cb26                	sw	s1,148(sp)
   18954:	cd5a                	sw	s6,152(sp)
   18956:	c536                	sw	a3,136(sp)
   18958:	56fa                	lw	a3,188(sp)
   1895a:	cf52                	sw	s4,156(sp)
   1895c:	c736                	sw	a3,140(sp)
   1895e:	15b040ef          	jal	ra,1d2b8 <__subtf3>
   18962:	5792                	lw	a5,36(sp)
   18964:	5b0a                	lw	s6,160(sp)
   18966:	599a                	lw	s3,164(sp)
   18968:	008786b3          	add	a3,a5,s0
   1896c:	0006c683          	lbu	a3,0(a3)
   18970:	5faa                	lw	t6,168(sp)
   18972:	563a                	lw	a2,172(sp)
   18974:	cade                	sw	s7,84(sp)
   18976:	00db8023          	sb	a3,0(s7)
   1897a:	c2e2                	sw	s8,68(sp)
   1897c:	57fd                	li	a5,-1
   1897e:	0b85                	addi	s7,s7,1
   18980:	8d5a                	mv	s10,s6
   18982:	8dce                	mv	s11,s3
   18984:	84fe                	mv	s1,t6
   18986:	8a32                	mv	s4,a2
   18988:	f4fc1fe3          	bne	s8,a5,188e6 <_svfprintf_r+0x1898>
   1898c:	58c6                	lw	a7,112(sp)
   1898e:	83da                	mv	t2,s6
   18990:	82ce                	mv	t0,s3
   18992:	3ffe0937          	lui	s2,0x3ffe0
   18996:	85e6                	mv	a1,s9
   18998:	8556                	mv	a0,s5
   1899a:	d046                	sw	a7,32(sp)
   1899c:	ce22                	sw	s0,28(sp)
   1899e:	4a76                	lw	s4,92(sp)
   189a0:	5496                	lw	s1,100(sp)
   189a2:	5406                	lw	s0,96(sp)
   189a4:	d91e                	sw	t2,176(sp)
   189a6:	d29e                	sw	t2,100(sp)
   189a8:	db16                	sw	t0,180(sp)
   189aa:	d096                	sw	t0,96(sp)
   189ac:	dd7e                	sw	t6,184(sp)
   189ae:	cefe                	sw	t6,92(sp)
   189b0:	df32                	sw	a2,188(sp)
   189b2:	c0b2                	sw	a2,64(sp)
   189b4:	d102                	sw	zero,160(sp)
   189b6:	d302                	sw	zero,164(sp)
   189b8:	d502                	sw	zero,168(sp)
   189ba:	d74a                	sw	s2,172(sp)
   189bc:	407030ef          	jal	ra,1c5c2 <__getf2>
   189c0:	5db6                	lw	s11,108(sp)
   189c2:	5d56                	lw	s10,116(sp)
   189c4:	5c66                	lw	s8,120(sp)
   189c6:	5b76                	lw	s6,124(sp)
   189c8:	59a6                	lw	s3,104(sp)
   189ca:	5882                	lw	a7,32(sp)
   189cc:	0aa04263          	bgtz	a0,18a70 <_svfprintf_r+0x1a22>
   189d0:	85e6                	mv	a1,s9
   189d2:	8556                	mv	a0,s5
   189d4:	349030ef          	jal	ra,1c51c <__eqtf2>
   189d8:	5882                	lw	a7,32(sp)
   189da:	e511                	bnez	a0,189e6 <_svfprintf_r+0x1998>
   189dc:	47f2                	lw	a5,28(sp)
   189de:	0017fc93          	andi	s9,a5,1
   189e2:	080c9763          	bnez	s9,18a70 <_svfprintf_r+0x1a22>
   189e6:	4796                	lw	a5,68(sp)
   189e8:	03000693          	li	a3,48
   189ec:	00178713          	addi	a4,a5,1 # 40030001 <__BSS_END__+0x4000f0d9>
   189f0:	975e                	add	a4,a4,s7
   189f2:	0007c763          	bltz	a5,18a00 <_svfprintf_r+0x19b2>
   189f6:	0b85                	addi	s7,s7,1
   189f8:	fedb8fa3          	sb	a3,-1(s7)
   189fc:	feeb9de3          	bne	s7,a4,189f6 <_svfprintf_r+0x19a8>
   18a00:	416b87b3          	sub	a5,s7,s6
   18a04:	d03e                	sw	a5,32(sp)
   18a06:	a25fe06f          	j	1742a <_svfprintf_r+0x3dc>
   18a0a:	c802                	sw	zero,16(sp)
   18a0c:	8a3e                	mv	s4,a5
   18a0e:	800007b7          	lui	a5,0x80000
   18a12:	0177cbb3          	xor	s7,a5,s7
   18a16:	02d00793          	li	a5,45
   18a1a:	ccbe                	sw	a5,88(sp)
   18a1c:	bbfd                	j	1881a <_svfprintf_r+0x17cc>
   18a1e:	0001f6b7          	lui	a3,0x1f
   18a22:	e8468e93          	addi	t4,a3,-380 # 1ee84 <blanks.1>
   18a26:	c53fe06f          	j	17678 <_svfprintf_r+0x62a>
   18a2a:	001d8913          	addi	s2,s11,1
   18a2e:	0b010a93          	addi	s5,sp,176
   18a32:	0dc10813          	addi	a6,sp,220
   18a36:	099c                	addi	a5,sp,208
   18a38:	01f8                	addi	a4,sp,204
   18a3a:	86ca                	mv	a3,s2
   18a3c:	4609                	li	a2,2
   18a3e:	85d6                	mv	a1,s5
   18a40:	856a                	mv	a0,s10
   18a42:	d972                	sw	t3,176(sp)
   18a44:	d272                	sw	t3,36(sp)
   18a46:	db76                	sw	t4,180(sp)
   18a48:	d076                	sw	t4,32(sp)
   18a4a:	dd7a                	sw	t5,184(sp)
   18a4c:	ce7a                	sw	t5,28(sp)
   18a4e:	df5e                	sw	s7,188(sp)
   18a50:	94ffb0ef          	jal	ra,1439e <_ldtoa_r>
   18a54:	4f72                	lw	t5,28(sp)
   18a56:	5e82                	lw	t4,32(sp)
   18a58:	5e12                	lw	t3,36(sp)
   18a5a:	4886                	lw	a7,64(sp)
   18a5c:	8b2a                	mv	s6,a0
   18a5e:	995a                	add	s2,s2,s6
   18a60:	0a010c93          	addi	s9,sp,160
   18a64:	b1a5                	j	186cc <_svfprintf_r+0x167e>
   18a66:	01bb0933          	add	s2,s6,s11
   18a6a:	0a010c93          	addi	s9,sp,160
   18a6e:	b9b9                	j	186cc <_svfprintf_r+0x167e>
   18a70:	47d6                	lw	a5,84(sp)
   18a72:	875e                	mv	a4,s7
   18a74:	cfbe                	sw	a5,220(sp)
   18a76:	5792                	lw	a5,36(sp)
   18a78:	fffbc683          	lbu	a3,-1(s7)
   18a7c:	00f7c603          	lbu	a2,15(a5) # 8000000f <__BSS_END__+0x7ffdf0e7>
   18a80:	00c69e63          	bne	a3,a2,18a9c <_svfprintf_r+0x1a4e>
   18a84:	03000593          	li	a1,48
   18a88:	feb70fa3          	sb	a1,-1(a4)
   18a8c:	477e                	lw	a4,220(sp)
   18a8e:	fff70793          	addi	a5,a4,-1
   18a92:	cfbe                	sw	a5,220(sp)
   18a94:	fff74683          	lbu	a3,-1(a4)
   18a98:	fed608e3          	beq	a2,a3,18a88 <_svfprintf_r+0x1a3a>
   18a9c:	00168613          	addi	a2,a3,1
   18aa0:	03900593          	li	a1,57
   18aa4:	0ff67613          	andi	a2,a2,255
   18aa8:	00b68563          	beq	a3,a1,18ab2 <_svfprintf_r+0x1a64>
   18aac:	fec70fa3          	sb	a2,-1(a4)
   18ab0:	bf81                	j	18a00 <_svfprintf_r+0x19b2>
   18ab2:	5792                	lw	a5,36(sp)
   18ab4:	00a7c603          	lbu	a2,10(a5)
   18ab8:	fec70fa3          	sb	a2,-1(a4)
   18abc:	b791                	j	18a00 <_svfprintf_r+0x19b2>
   18abe:	001d8593          	addi	a1,s11,1
   18ac2:	856a                	mv	a0,s10
   18ac4:	c846                	sw	a7,16(sp)
   18ac6:	941fc0ef          	jal	ra,15406 <_malloc_r>
   18aca:	48c2                	lw	a7,16(sp)
   18acc:	8b2a                	mv	s6,a0
   18ace:	20050263          	beqz	a0,18cd2 <_svfprintf_r+0x1c84>
   18ad2:	c82a                	sw	a0,16(sp)
   18ad4:	b33d                	j	18802 <_svfprintf_r+0x17b4>
   18ad6:	46a2                	lw	a3,8(sp)
   18ad8:	97a6                	add	a5,a5,s1
   18ada:	0705                	addi	a4,a4,1
   18adc:	00d8a023          	sw	a3,0(a7)
   18ae0:	0098a223          	sw	s1,4(a7)
   18ae4:	d7be                	sw	a5,236(sp)
   18ae6:	d5ba                	sw	a4,232(sp)
   18ae8:	469d                	li	a3,7
   18aea:	f8e6d463          	bge	a3,a4,18272 <_svfprintf_r+0x1224>
   18aee:	11d0                	addi	a2,sp,228
   18af0:	85e2                	mv	a1,s8
   18af2:	856a                	mv	a0,s10
   18af4:	65a010ef          	jal	ra,1a14e <__ssprint_r>
   18af8:	c119                	beqz	a0,18afe <_svfprintf_r+0x1ab0>
   18afa:	8aaff06f          	j	17ba4 <_svfprintf_r+0xb56>
   18afe:	57be                	lw	a5,236(sp)
   18b00:	572e                	lw	a4,232(sp)
   18b02:	10c10893          	addi	a7,sp,268
   18b06:	f6eff06f          	j	18274 <_svfprintf_r+0x1226>
   18b0a:	03000793          	li	a5,48
   18b0e:	0cf10423          	sb	a5,200(sp)
   18b12:	07800793          	li	a5,120
   18b16:	b9d1                	j	187ea <_svfprintf_r+0x179c>
   18b18:	8bd2                	mv	s7,s4
   18b1a:	d79fe06f          	j	17892 <_svfprintf_r+0x844>
   18b1e:	000d8463          	beqz	s11,18b26 <_svfprintf_r+0x1ad8>
   18b22:	881fe06f          	j	173a2 <_svfprintf_r+0x354>
   18b26:	4d85                	li	s11,1
   18b28:	87bfe06f          	j	173a2 <_svfprintf_r+0x354>
   18b2c:	57fd                	li	a5,-1
   18b2e:	c63e                	sw	a5,12(sp)
   18b30:	f5efe06f          	j	1728e <_svfprintf_r+0x240>
   18b34:	57b2                	lw	a5,44(sp)
   18b36:	06600493          	li	s1,102
   18b3a:	00f70cb3          	add	s9,a4,a5
   18b3e:	9cee                	add	s9,s9,s11
   18b40:	b1b5                	j	187ac <_svfprintf_r+0x175e>
   18b42:	0d610713          	addi	a4,sp,214
   18b46:	e699                	bnez	a3,18b54 <_svfprintf_r+0x1b06>
   18b48:	03000713          	li	a4,48
   18b4c:	0ce10b23          	sb	a4,214(sp)
   18b50:	0d710713          	addi	a4,sp,215
   18b54:	1b14                	addi	a3,sp,432
   18b56:	03078793          	addi	a5,a5,48
   18b5a:	40d706b3          	sub	a3,a4,a3
   18b5e:	00f70023          	sb	a5,0(a4)
   18b62:	0dd68793          	addi	a5,a3,221
   18b66:	dc3e                	sw	a5,56(sp)
   18b68:	98bfe06f          	j	174f2 <_svfprintf_r+0x4a4>
   18b6c:	0b010a93          	addi	s5,sp,176
   18b70:	8556                	mv	a0,s5
   18b72:	cac6                	sw	a7,84(sp)
   18b74:	d972                	sw	t3,176(sp)
   18b76:	db76                	sw	t4,180(sp)
   18b78:	dd7a                	sw	t5,184(sp)
   18b7a:	df5e                	sw	s7,188(sp)
   18b7c:	077050ef          	jal	ra,1e3f2 <__trunctfdf2>
   18b80:	01f0                	addi	a2,sp,204
   18b82:	8e2fe0ef          	jal	ra,16c64 <frexp>
   18b86:	862e                	mv	a2,a1
   18b88:	85aa                	mv	a1,a0
   18b8a:	8556                	mv	a0,s5
   18b8c:	716050ef          	jal	ra,1e2a2 <__extenddftf2>
   18b90:	57ca                	lw	a5,176(sp)
   18b92:	0a010c93          	addi	s9,sp,160
   18b96:	09010913          	addi	s2,sp,144
   18b9a:	c93e                	sw	a5,144(sp)
   18b9c:	57da                	lw	a5,180(sp)
   18b9e:	0110                	addi	a2,sp,128
   18ba0:	85ca                	mv	a1,s2
   18ba2:	cb3e                	sw	a5,148(sp)
   18ba4:	57ea                	lw	a5,184(sp)
   18ba6:	8566                	mv	a0,s9
   18ba8:	c0b2                	sw	a2,64(sp)
   18baa:	cd3e                	sw	a5,152(sp)
   18bac:	57fa                	lw	a5,188(sp)
   18bae:	c102                	sw	zero,128(sp)
   18bb0:	c302                	sw	zero,132(sp)
   18bb2:	cf3e                	sw	a5,156(sp)
   18bb4:	3ffc07b7          	lui	a5,0x3ffc0
   18bb8:	c73e                	sw	a5,140(sp)
   18bba:	c502                	sw	zero,136(sp)
   18bbc:	3ef030ef          	jal	ra,1c7aa <__multf3>
   18bc0:	568a                	lw	a3,160(sp)
   18bc2:	5e1a                	lw	t3,164(sp)
   18bc4:	5eaa                	lw	t4,168(sp)
   18bc6:	5f3a                	lw	t5,172(sp)
   18bc8:	85e6                	mv	a1,s9
   18bca:	8556                	mv	a0,s5
   18bcc:	d936                	sw	a3,176(sp)
   18bce:	c2b6                	sw	a3,68(sp)
   18bd0:	db72                	sw	t3,180(sp)
   18bd2:	d272                	sw	t3,36(sp)
   18bd4:	dd76                	sw	t4,184(sp)
   18bd6:	d076                	sw	t4,32(sp)
   18bd8:	df7a                	sw	t5,188(sp)
   18bda:	ce7a                	sw	t5,28(sp)
   18bdc:	d102                	sw	zero,160(sp)
   18bde:	d302                	sw	zero,164(sp)
   18be0:	d502                	sw	zero,168(sp)
   18be2:	d702                	sw	zero,172(sp)
   18be4:	139030ef          	jal	ra,1c51c <__eqtf2>
   18be8:	4f72                	lw	t5,28(sp)
   18bea:	5e82                	lw	t4,32(sp)
   18bec:	5e12                	lw	t3,36(sp)
   18bee:	4696                	lw	a3,68(sp)
   18bf0:	48d6                	lw	a7,84(sp)
   18bf2:	e119                	bnez	a0,18bf8 <_svfprintf_r+0x1baa>
   18bf4:	4785                	li	a5,1
   18bf6:	c7be                	sw	a5,204(sp)
   18bf8:	67f9                	lui	a5,0x1e
   18bfa:	6d078793          	addi	a5,a5,1744 # 1e6d0 <__clzsi2+0xa2>
   18bfe:	d23e                	sw	a5,36(sp)
   18c00:	b1c9                	j	188c2 <_svfprintf_r+0x1874>
   18c02:	06700493          	li	s1,103
   18c06:	5672                	lw	a2,60(sp)
   18c08:	0ff00713          	li	a4,255
   18c0c:	00064783          	lbu	a5,0(a2)
   18c10:	0ce78e63          	beq	a5,a4,18cec <_svfprintf_r+0x1c9e>
   18c14:	46f2                	lw	a3,28(sp)
   18c16:	4501                	li	a0,0
   18c18:	4581                	li	a1,0
   18c1a:	00d7da63          	bge	a5,a3,18c2e <_svfprintf_r+0x1be0>
   18c1e:	8e9d                	sub	a3,a3,a5
   18c20:	00164783          	lbu	a5,1(a2)
   18c24:	cb85                	beqz	a5,18c54 <_svfprintf_r+0x1c06>
   18c26:	0585                	addi	a1,a1,1
   18c28:	0605                	addi	a2,a2,1
   18c2a:	fee798e3          	bne	a5,a4,18c1a <_svfprintf_r+0x1bcc>
   18c2e:	ce36                	sw	a3,28(sp)
   18c30:	de32                	sw	a2,60(sp)
   18c32:	d22e                	sw	a1,36(sp)
   18c34:	d42a                	sw	a0,40(sp)
   18c36:	5722                	lw	a4,40(sp)
   18c38:	5792                	lw	a5,36(sp)
   18c3a:	97ba                	add	a5,a5,a4
   18c3c:	4726                	lw	a4,72(sp)
   18c3e:	02e787b3          	mul	a5,a5,a4
   18c42:	9cbe                	add	s9,s9,a5
   18c44:	fffcca93          	not	s5,s9
   18c48:	41fada93          	srai	s5,s5,0x1f
   18c4c:	015cfab3          	and	s5,s9,s5
   18c50:	8d5fe06f          	j	17524 <_svfprintf_r+0x4d6>
   18c54:	00064783          	lbu	a5,0(a2)
   18c58:	0505                	addi	a0,a0,1
   18c5a:	bfc1                	j	18c2a <_svfprintf_r+0x1bdc>
   18c5c:	40fc8cb3          	sub	s9,s9,a5
   18c60:	0c85                	addi	s9,s9,1
   18c62:	fffcca93          	not	s5,s9
   18c66:	41fada93          	srai	s5,s5,0x1f
   18c6a:	015cfab3          	and	s5,s9,s5
   18c6e:	ba7d                	j	1862c <_svfprintf_r+0x15de>
   18c70:	47c6                	lw	a5,80(sp)
   18c72:	8b85                	andi	a5,a5,1
   18c74:	e399                	bnez	a5,18c7a <_svfprintf_r+0x1c2c>
   18c76:	893fe06f          	j	17508 <_svfprintf_r+0x4ba>
   18c7a:	88bfe06f          	j	17504 <_svfprintf_r+0x4b6>
   18c7e:	e791                	bnez	a5,18c8a <_svfprintf_r+0x1c3c>
   18c80:	4a85                	li	s5,1
   18c82:	06600493          	li	s1,102
   18c86:	4c85                	li	s9,1
   18c88:	b255                	j	1862c <_svfprintf_r+0x15de>
   18c8a:	57b2                	lw	a5,44(sp)
   18c8c:	06600493          	li	s1,102
   18c90:	00178c93          	addi	s9,a5,1
   18c94:	9cee                	add	s9,s9,s11
   18c96:	fffcca93          	not	s5,s9
   18c9a:	41fada93          	srai	s5,s5,0x1f
   18c9e:	015cfab3          	and	s5,s9,s5
   18ca2:	b269                	j	1862c <_svfprintf_r+0x15de>
   18ca4:	86c6                	mv	a3,a7
   18ca6:	f56ff06f          	j	183fc <_svfprintf_r+0x13ae>
   18caa:	47d2                	lw	a5,20(sp)
   18cac:	0007ad83          	lw	s11,0(a5)
   18cb0:	0791                	addi	a5,a5,4
   18cb2:	000dd363          	bgez	s11,18cb8 <_svfprintf_r+0x1c6a>
   18cb6:	5dfd                	li	s11,-1
   18cb8:	00144483          	lbu	s1,1(s0)
   18cbc:	ca3e                	sw	a5,20(sp)
   18cbe:	843a                	mv	s0,a4
   18cc0:	c8cfe06f          	j	1714c <_svfprintf_r+0xfe>
   18cc4:	47b1                	li	a5,12
   18cc6:	00fd2023          	sw	a5,0(s10)
   18cca:	57fd                	li	a5,-1
   18ccc:	c63e                	sw	a5,12(sp)
   18cce:	dc0fe06f          	j	1728e <_svfprintf_r+0x240>
   18cd2:	00cc5783          	lhu	a5,12(s8)
   18cd6:	0407e713          	ori	a4,a5,64
   18cda:	87ba                	mv	a5,a4
   18cdc:	00ec1623          	sh	a4,12(s8)
   18ce0:	da4fe06f          	j	17284 <_svfprintf_r+0x236>
   18ce4:	4789                	li	a5,2
   18ce6:	dc3e                	sw	a5,56(sp)
   18ce8:	80bfe06f          	j	174f2 <_svfprintf_r+0x4a4>
   18cec:	d402                	sw	zero,40(sp)
   18cee:	d202                	sw	zero,36(sp)
   18cf0:	b799                	j	18c36 <_svfprintf_r+0x1be8>
   18cf2:	896e                	mv	s2,s11
   18cf4:	b3ad                	j	18a5e <_svfprintf_r+0x1a10>

00018cf6 <__sprint_r.part.0>:
   18cf6:	51f8                	lw	a4,100(a1)
   18cf8:	7179                	addi	sp,sp,-48
   18cfa:	6789                	lui	a5,0x2
   18cfc:	c85a                	sw	s6,16(sp)
   18cfe:	d606                	sw	ra,44(sp)
   18d00:	d422                	sw	s0,40(sp)
   18d02:	d226                	sw	s1,36(sp)
   18d04:	d04a                	sw	s2,32(sp)
   18d06:	ce4e                	sw	s3,28(sp)
   18d08:	cc52                	sw	s4,24(sp)
   18d0a:	ca56                	sw	s5,20(sp)
   18d0c:	c65e                	sw	s7,12(sp)
   18d0e:	c462                	sw	s8,8(sp)
   18d10:	8ff9                	and	a5,a5,a4
   18d12:	8b32                	mv	s6,a2
   18d14:	cbb5                	beqz	a5,18d88 <__sprint_r.part.0+0x92>
   18d16:	461c                	lw	a5,8(a2)
   18d18:	00062b83          	lw	s7,0(a2)
   18d1c:	892e                	mv	s2,a1
   18d1e:	89aa                	mv	s3,a0
   18d20:	5afd                	li	s5,-1
   18d22:	c3ad                	beqz	a5,18d84 <__sprint_r.part.0+0x8e>
   18d24:	004bac03          	lw	s8,4(s7)
   18d28:	000ba403          	lw	s0,0(s7)
   18d2c:	002c5a13          	srli	s4,s8,0x2
   18d30:	040a0263          	beqz	s4,18d74 <__sprint_r.part.0+0x7e>
   18d34:	4481                	li	s1,0
   18d36:	a021                	j	18d3e <__sprint_r.part.0+0x48>
   18d38:	0411                	addi	s0,s0,4
   18d3a:	029a0b63          	beq	s4,s1,18d70 <__sprint_r.part.0+0x7a>
   18d3e:	400c                	lw	a1,0(s0)
   18d40:	864a                	mv	a2,s2
   18d42:	854e                	mv	a0,s3
   18d44:	1ac010ef          	jal	ra,19ef0 <_fputwc_r>
   18d48:	0485                	addi	s1,s1,1
   18d4a:	ff5517e3          	bne	a0,s5,18d38 <__sprint_r.part.0+0x42>
   18d4e:	557d                	li	a0,-1
   18d50:	50b2                	lw	ra,44(sp)
   18d52:	5422                	lw	s0,40(sp)
   18d54:	000b2423          	sw	zero,8(s6)
   18d58:	000b2223          	sw	zero,4(s6)
   18d5c:	5492                	lw	s1,36(sp)
   18d5e:	5902                	lw	s2,32(sp)
   18d60:	49f2                	lw	s3,28(sp)
   18d62:	4a62                	lw	s4,24(sp)
   18d64:	4ad2                	lw	s5,20(sp)
   18d66:	4b42                	lw	s6,16(sp)
   18d68:	4bb2                	lw	s7,12(sp)
   18d6a:	4c22                	lw	s8,8(sp)
   18d6c:	6145                	addi	sp,sp,48
   18d6e:	8082                	ret
   18d70:	008b2783          	lw	a5,8(s6)
   18d74:	ffcc7c13          	andi	s8,s8,-4
   18d78:	418787b3          	sub	a5,a5,s8
   18d7c:	00fb2423          	sw	a5,8(s6)
   18d80:	0ba1                	addi	s7,s7,8
   18d82:	f3cd                	bnez	a5,18d24 <__sprint_r.part.0+0x2e>
   18d84:	4501                	li	a0,0
   18d86:	b7e9                	j	18d50 <__sprint_r.part.0+0x5a>
   18d88:	802fa0ef          	jal	ra,12d8a <__sfvwrite_r>
   18d8c:	b7d1                	j	18d50 <__sprint_r.part.0+0x5a>

00018d8e <__sprint_r>:
   18d8e:	4618                	lw	a4,8(a2)
   18d90:	c311                	beqz	a4,18d94 <__sprint_r+0x6>
   18d92:	b795                	j	18cf6 <__sprint_r.part.0>
   18d94:	00062223          	sw	zero,4(a2)
   18d98:	4501                	li	a0,0
   18d9a:	8082                	ret

00018d9c <_vfiprintf_r>:
   18d9c:	7169                	addi	sp,sp,-304
   18d9e:	11312e23          	sw	s3,284(sp)
   18da2:	11412c23          	sw	s4,280(sp)
   18da6:	11712623          	sw	s7,268(sp)
   18daa:	12112623          	sw	ra,300(sp)
   18dae:	12812423          	sw	s0,296(sp)
   18db2:	12912223          	sw	s1,292(sp)
   18db6:	13212023          	sw	s2,288(sp)
   18dba:	11512a23          	sw	s5,276(sp)
   18dbe:	11612823          	sw	s6,272(sp)
   18dc2:	11812423          	sw	s8,264(sp)
   18dc6:	11912223          	sw	s9,260(sp)
   18dca:	11a12023          	sw	s10,256(sp)
   18dce:	dfee                	sw	s11,252(sp)
   18dd0:	c836                	sw	a3,16(sp)
   18dd2:	8a2a                	mv	s4,a0
   18dd4:	89ae                	mv	s3,a1
   18dd6:	8bb2                	mv	s7,a2
   18dd8:	c501                	beqz	a0,18de0 <_vfiprintf_r+0x44>
   18dda:	5d1c                	lw	a5,56(a0)
   18ddc:	4a078563          	beqz	a5,19286 <_vfiprintf_r+0x4ea>
   18de0:	00c99703          	lh	a4,12(s3)
   18de4:	6689                	lui	a3,0x2
   18de6:	01071793          	slli	a5,a4,0x10
   18dea:	83c1                	srli	a5,a5,0x10
   18dec:	00d7f633          	and	a2,a5,a3
   18df0:	e205                	bnez	a2,18e10 <_vfiprintf_r+0x74>
   18df2:	0649a603          	lw	a2,100(s3)
   18df6:	00d767b3          	or	a5,a4,a3
   18dfa:	07c2                	slli	a5,a5,0x10
   18dfc:	7779                	lui	a4,0xffffe
   18dfe:	87c1                	srai	a5,a5,0x10
   18e00:	177d                	addi	a4,a4,-1
   18e02:	8f71                	and	a4,a4,a2
   18e04:	00f99623          	sh	a5,12(s3)
   18e08:	07c2                	slli	a5,a5,0x10
   18e0a:	06e9a223          	sw	a4,100(s3)
   18e0e:	83c1                	srli	a5,a5,0x10
   18e10:	0087f713          	andi	a4,a5,8
   18e14:	2e070563          	beqz	a4,190fe <_vfiprintf_r+0x362>
   18e18:	0109a703          	lw	a4,16(s3)
   18e1c:	2e070163          	beqz	a4,190fe <_vfiprintf_r+0x362>
   18e20:	8be9                	andi	a5,a5,26
   18e22:	4729                	li	a4,10
   18e24:	2ee78963          	beq	a5,a4,19116 <_vfiprintf_r+0x37a>
   18e28:	0001f7b7          	lui	a5,0x1f
   18e2c:	ea478793          	addi	a5,a5,-348 # 1eea4 <zeroes.0+0x10>
   18e30:	0001fb37          	lui	s6,0x1f
   18e34:	00e4                	addi	s1,sp,76
   18e36:	ca3e                	sw	a5,20(sp)
   18e38:	0001f937          	lui	s2,0x1f
   18e3c:	010b0793          	addi	a5,s6,16 # 1f010 <blanks.1>
   18e40:	8c5e                	mv	s8,s7
   18e42:	c0a6                	sw	s1,64(sp)
   18e44:	c482                	sw	zero,72(sp)
   18e46:	c282                	sw	zero,68(sp)
   18e48:	cc02                	sw	zero,24(sp)
   18e4a:	ce02                	sw	zero,28(sp)
   18e4c:	d202                	sw	zero,36(sp)
   18e4e:	d002                	sw	zero,32(sp)
   18e50:	c602                	sw	zero,12(sp)
   18e52:	c43e                	sw	a5,8(sp)
   18e54:	02090913          	addi	s2,s2,32 # 1f020 <zeroes.0>
   18e58:	8ba6                	mv	s7,s1
   18e5a:	000c4783          	lbu	a5,0(s8)
   18e5e:	1a078d63          	beqz	a5,19018 <_vfiprintf_r+0x27c>
   18e62:	8462                	mv	s0,s8
   18e64:	02500713          	li	a4,37
   18e68:	34e78763          	beq	a5,a4,191b6 <_vfiprintf_r+0x41a>
   18e6c:	00144783          	lbu	a5,1(s0)
   18e70:	0405                	addi	s0,s0,1
   18e72:	fbfd                	bnez	a5,18e68 <_vfiprintf_r+0xcc>
   18e74:	41840cb3          	sub	s9,s0,s8
   18e78:	1b840063          	beq	s0,s8,19018 <_vfiprintf_r+0x27c>
   18e7c:	4726                	lw	a4,72(sp)
   18e7e:	4796                	lw	a5,68(sp)
   18e80:	018ba023          	sw	s8,0(s7)
   18e84:	9766                	add	a4,a4,s9
   18e86:	0785                	addi	a5,a5,1
   18e88:	019ba223          	sw	s9,4(s7)
   18e8c:	c4ba                	sw	a4,72(sp)
   18e8e:	c2be                	sw	a5,68(sp)
   18e90:	469d                	li	a3,7
   18e92:	0ba1                	addi	s7,s7,8
   18e94:	00f6db63          	bge	a3,a5,18eaa <_vfiprintf_r+0x10e>
   18e98:	08070be3          	beqz	a4,1972e <_vfiprintf_r+0x992>
   18e9c:	0090                	addi	a2,sp,64
   18e9e:	85ce                	mv	a1,s3
   18ea0:	8552                	mv	a0,s4
   18ea2:	3d91                	jal	18cf6 <__sprint_r.part.0>
   18ea4:	16051d63          	bnez	a0,1901e <_vfiprintf_r+0x282>
   18ea8:	8ba6                	mv	s7,s1
   18eaa:	4732                	lw	a4,12(sp)
   18eac:	00044783          	lbu	a5,0(s0)
   18eb0:	9766                	add	a4,a4,s9
   18eb2:	c63a                	sw	a4,12(sp)
   18eb4:	16078263          	beqz	a5,19018 <_vfiprintf_r+0x27c>
   18eb8:	00144703          	lbu	a4,1(s0)
   18ebc:	00140c13          	addi	s8,s0,1
   18ec0:	02010da3          	sb	zero,59(sp)
   18ec4:	5afd                	li	s5,-1
   18ec6:	c202                	sw	zero,4(sp)
   18ec8:	4b01                	li	s6,0
   18eca:	05a00c93          	li	s9,90
   18ece:	4d25                	li	s10,9
   18ed0:	02a00613          	li	a2,42
   18ed4:	0c05                	addi	s8,s8,1
   18ed6:	fe070793          	addi	a5,a4,-32 # ffffdfe0 <__BSS_END__+0xfffdd0b8>
   18eda:	02fcec63          	bltu	s9,a5,18f12 <_vfiprintf_r+0x176>
   18ede:	46d2                	lw	a3,20(sp)
   18ee0:	078a                	slli	a5,a5,0x2
   18ee2:	97b6                	add	a5,a5,a3
   18ee4:	439c                	lw	a5,0(a5)
   18ee6:	8782                	jr	a5
   18ee8:	c202                	sw	zero,4(sp)
   18eea:	fd070793          	addi	a5,a4,-48
   18eee:	4592                	lw	a1,4(sp)
   18ef0:	000c4703          	lbu	a4,0(s8)
   18ef4:	0c05                	addi	s8,s8,1
   18ef6:	00259693          	slli	a3,a1,0x2
   18efa:	96ae                	add	a3,a3,a1
   18efc:	0686                	slli	a3,a3,0x1
   18efe:	97b6                	add	a5,a5,a3
   18f00:	c23e                	sw	a5,4(sp)
   18f02:	fd070793          	addi	a5,a4,-48
   18f06:	fefd74e3          	bgeu	s10,a5,18eee <_vfiprintf_r+0x152>
   18f0a:	fe070793          	addi	a5,a4,-32
   18f0e:	fcfcf8e3          	bgeu	s9,a5,18ede <_vfiprintf_r+0x142>
   18f12:	10070363          	beqz	a4,19018 <_vfiprintf_r+0x27c>
   18f16:	08e10623          	sb	a4,140(sp)
   18f1a:	02010da3          	sb	zero,59(sp)
   18f1e:	4c85                	li	s9,1
   18f20:	4d05                	li	s10,1
   18f22:	0160                	addi	s0,sp,140
   18f24:	4a81                	li	s5,0
   18f26:	002b7f93          	andi	t6,s6,2
   18f2a:	000f8363          	beqz	t6,18f30 <_vfiprintf_r+0x194>
   18f2e:	0c89                	addi	s9,s9,2
   18f30:	4716                	lw	a4,68(sp)
   18f32:	084b7f13          	andi	t5,s6,132
   18f36:	47a6                	lw	a5,72(sp)
   18f38:	00170693          	addi	a3,a4,1
   18f3c:	8636                	mv	a2,a3
   18f3e:	000f1763          	bnez	t5,18f4c <_vfiprintf_r+0x1b0>
   18f42:	4592                	lw	a1,4(sp)
   18f44:	41958db3          	sub	s11,a1,s9
   18f48:	69b04063          	bgtz	s11,195c8 <_vfiprintf_r+0x82c>
   18f4c:	03b14583          	lbu	a1,59(sp)
   18f50:	008b8693          	addi	a3,s7,8
   18f54:	c195                	beqz	a1,18f78 <_vfiprintf_r+0x1dc>
   18f56:	03b10713          	addi	a4,sp,59
   18f5a:	0785                	addi	a5,a5,1
   18f5c:	00eba023          	sw	a4,0(s7)
   18f60:	4705                	li	a4,1
   18f62:	00eba223          	sw	a4,4(s7)
   18f66:	c4be                	sw	a5,72(sp)
   18f68:	c2b2                	sw	a2,68(sp)
   18f6a:	471d                	li	a4,7
   18f6c:	60c74363          	blt	a4,a2,19572 <_vfiprintf_r+0x7d6>
   18f70:	8732                	mv	a4,a2
   18f72:	8bb6                	mv	s7,a3
   18f74:	0605                	addi	a2,a2,1
   18f76:	06a1                	addi	a3,a3,8
   18f78:	020f8d63          	beqz	t6,18fb2 <_vfiprintf_r+0x216>
   18f7c:	1878                	addi	a4,sp,60
   18f7e:	0789                	addi	a5,a5,2
   18f80:	00eba023          	sw	a4,0(s7)
   18f84:	4709                	li	a4,2
   18f86:	00eba223          	sw	a4,4(s7)
   18f8a:	c4be                	sw	a5,72(sp)
   18f8c:	c2b2                	sw	a2,68(sp)
   18f8e:	471d                	li	a4,7
   18f90:	62c75363          	bge	a4,a2,195b6 <_vfiprintf_r+0x81a>
   18f94:	7c078963          	beqz	a5,19766 <_vfiprintf_r+0x9ca>
   18f98:	0090                	addi	a2,sp,64
   18f9a:	85ce                	mv	a1,s3
   18f9c:	8552                	mv	a0,s4
   18f9e:	d47a                	sw	t5,40(sp)
   18fa0:	3b99                	jal	18cf6 <__sprint_r.part.0>
   18fa2:	ed35                	bnez	a0,1901e <_vfiprintf_r+0x282>
   18fa4:	4716                	lw	a4,68(sp)
   18fa6:	47a6                	lw	a5,72(sp)
   18fa8:	5f22                	lw	t5,40(sp)
   18faa:	08d4                	addi	a3,sp,84
   18fac:	00170613          	addi	a2,a4,1
   18fb0:	8ba6                	mv	s7,s1
   18fb2:	08000593          	li	a1,128
   18fb6:	48bf0663          	beq	t5,a1,19442 <_vfiprintf_r+0x6a6>
   18fba:	41aa8ab3          	sub	s5,s5,s10
   18fbe:	53504063          	bgtz	s5,194de <_vfiprintf_r+0x742>
   18fc2:	97ea                	add	a5,a5,s10
   18fc4:	008ba023          	sw	s0,0(s7)
   18fc8:	01aba223          	sw	s10,4(s7)
   18fcc:	c4be                	sw	a5,72(sp)
   18fce:	c2b2                	sw	a2,68(sp)
   18fd0:	471d                	li	a4,7
   18fd2:	00c75b63          	bge	a4,a2,18fe8 <_vfiprintf_r+0x24c>
   18fd6:	68078863          	beqz	a5,19666 <_vfiprintf_r+0x8ca>
   18fda:	0090                	addi	a2,sp,64
   18fdc:	85ce                	mv	a1,s3
   18fde:	8552                	mv	a0,s4
   18fe0:	3b19                	jal	18cf6 <__sprint_r.part.0>
   18fe2:	ed15                	bnez	a0,1901e <_vfiprintf_r+0x282>
   18fe4:	47a6                	lw	a5,72(sp)
   18fe6:	86a6                	mv	a3,s1
   18fe8:	004b7313          	andi	t1,s6,4
   18fec:	00030763          	beqz	t1,18ffa <_vfiprintf_r+0x25e>
   18ff0:	4712                	lw	a4,4(sp)
   18ff2:	41970bb3          	sub	s7,a4,s9
   18ff6:	69704363          	bgtz	s7,1967c <_vfiprintf_r+0x8e0>
   18ffa:	4412                	lw	s0,4(sp)
   18ffc:	01945363          	bge	s0,s9,19002 <_vfiprintf_r+0x266>
   19000:	8466                	mv	s0,s9
   19002:	4732                	lw	a4,12(sp)
   19004:	9722                	add	a4,a4,s0
   19006:	c63a                	sw	a4,12(sp)
   19008:	54079963          	bnez	a5,1955a <_vfiprintf_r+0x7be>
   1900c:	000c4783          	lbu	a5,0(s8)
   19010:	c282                	sw	zero,68(sp)
   19012:	8ba6                	mv	s7,s1
   19014:	e40797e3          	bnez	a5,18e62 <_vfiprintf_r+0xc6>
   19018:	47a6                	lw	a5,72(sp)
   1901a:	22079ce3          	bnez	a5,19a52 <_vfiprintf_r+0xcb6>
   1901e:	00c9d783          	lhu	a5,12(s3)
   19022:	0407f793          	andi	a5,a5,64
   19026:	24079ae3          	bnez	a5,19a7a <_vfiprintf_r+0xcde>
   1902a:	12c12083          	lw	ra,300(sp)
   1902e:	12812403          	lw	s0,296(sp)
   19032:	4532                	lw	a0,12(sp)
   19034:	12412483          	lw	s1,292(sp)
   19038:	12012903          	lw	s2,288(sp)
   1903c:	11c12983          	lw	s3,284(sp)
   19040:	11812a03          	lw	s4,280(sp)
   19044:	11412a83          	lw	s5,276(sp)
   19048:	11012b03          	lw	s6,272(sp)
   1904c:	10c12b83          	lw	s7,268(sp)
   19050:	10812c03          	lw	s8,264(sp)
   19054:	10412c83          	lw	s9,260(sp)
   19058:	10012d03          	lw	s10,256(sp)
   1905c:	5dfe                	lw	s11,252(sp)
   1905e:	6155                	addi	sp,sp,304
   19060:	8082                	ret
   19062:	8552                	mv	a0,s4
   19064:	95cfc0ef          	jal	ra,151c0 <_localeconv_r>
   19068:	415c                	lw	a5,4(a0)
   1906a:	853e                	mv	a0,a5
   1906c:	d03e                	sw	a5,32(sp)
   1906e:	ccaf70ef          	jal	ra,10538 <strlen>
   19072:	87aa                	mv	a5,a0
   19074:	8552                	mv	a0,s4
   19076:	843e                	mv	s0,a5
   19078:	d23e                	sw	a5,36(sp)
   1907a:	946fc0ef          	jal	ra,151c0 <_localeconv_r>
   1907e:	451c                	lw	a5,8(a0)
   19080:	02a00613          	li	a2,42
   19084:	ce3e                	sw	a5,28(sp)
   19086:	7a041d63          	bnez	s0,19840 <_vfiprintf_r+0xaa4>
   1908a:	000c4703          	lbu	a4,0(s8)
   1908e:	b599                	j	18ed4 <_vfiprintf_r+0x138>
   19090:	000c4703          	lbu	a4,0(s8)
   19094:	020b6b13          	ori	s6,s6,32
   19098:	bd35                	j	18ed4 <_vfiprintf_r+0x138>
   1909a:	010b6b13          	ori	s6,s6,16
   1909e:	020b7793          	andi	a5,s6,32
   190a2:	14078263          	beqz	a5,191e6 <_vfiprintf_r+0x44a>
   190a6:	47c2                	lw	a5,16(sp)
   190a8:	079d                	addi	a5,a5,7
   190aa:	9be1                	andi	a5,a5,-8
   190ac:	43d8                	lw	a4,4(a5)
   190ae:	0007ad03          	lw	s10,0(a5)
   190b2:	07a1                	addi	a5,a5,8
   190b4:	c83e                	sw	a5,16(sp)
   190b6:	8cba                	mv	s9,a4
   190b8:	14074b63          	bltz	a4,1920e <_vfiprintf_r+0x472>
   190bc:	577d                	li	a4,-1
   190be:	8dda                	mv	s11,s6
   190c0:	00ea8863          	beq	s5,a4,190d0 <_vfiprintf_r+0x334>
   190c4:	019d6733          	or	a4,s10,s9
   190c8:	f7fb7d93          	andi	s11,s6,-129
   190cc:	66070563          	beqz	a4,19736 <_vfiprintf_r+0x99a>
   190d0:	6a0c9963          	bnez	s9,19782 <_vfiprintf_r+0x9e6>
   190d4:	4725                	li	a4,9
   190d6:	6ba76663          	bltu	a4,s10,19782 <_vfiprintf_r+0x9e6>
   190da:	030d0793          	addi	a5,s10,48
   190de:	0ef107a3          	sb	a5,239(sp)
   190e2:	8b6e                	mv	s6,s11
   190e4:	4d05                	li	s10,1
   190e6:	0ef10413          	addi	s0,sp,239
   190ea:	8cd6                	mv	s9,s5
   190ec:	01aad363          	bge	s5,s10,190f2 <_vfiprintf_r+0x356>
   190f0:	8cea                	mv	s9,s10
   190f2:	03b14783          	lbu	a5,59(sp)
   190f6:	00f037b3          	snez	a5,a5
   190fa:	9cbe                	add	s9,s9,a5
   190fc:	b52d                	j	18f26 <_vfiprintf_r+0x18a>
   190fe:	85ce                	mv	a1,s3
   19100:	8552                	mv	a0,s4
   19102:	b04f90ef          	jal	ra,12406 <__swsetup_r>
   19106:	16051ae3          	bnez	a0,19a7a <_vfiprintf_r+0xcde>
   1910a:	00c9d783          	lhu	a5,12(s3)
   1910e:	4729                	li	a4,10
   19110:	8be9                	andi	a5,a5,26
   19112:	d0e79be3          	bne	a5,a4,18e28 <_vfiprintf_r+0x8c>
   19116:	00e99783          	lh	a5,14(s3)
   1911a:	d007c7e3          	bltz	a5,18e28 <_vfiprintf_r+0x8c>
   1911e:	12812403          	lw	s0,296(sp)
   19122:	46c2                	lw	a3,16(sp)
   19124:	12c12083          	lw	ra,300(sp)
   19128:	12412483          	lw	s1,292(sp)
   1912c:	12012903          	lw	s2,288(sp)
   19130:	11412a83          	lw	s5,276(sp)
   19134:	11012b03          	lw	s6,272(sp)
   19138:	10812c03          	lw	s8,264(sp)
   1913c:	10412c83          	lw	s9,260(sp)
   19140:	10012d03          	lw	s10,256(sp)
   19144:	5dfe                	lw	s11,252(sp)
   19146:	865e                	mv	a2,s7
   19148:	85ce                	mv	a1,s3
   1914a:	10c12b83          	lw	s7,268(sp)
   1914e:	11c12983          	lw	s3,284(sp)
   19152:	8552                	mv	a0,s4
   19154:	11812a03          	lw	s4,280(sp)
   19158:	6155                	addi	sp,sp,304
   1915a:	1590006f          	j	19ab2 <__sbprintf>
   1915e:	010b6b13          	ori	s6,s6,16
   19162:	020b7793          	andi	a5,s6,32
   19166:	cfb9                	beqz	a5,191c4 <_vfiprintf_r+0x428>
   19168:	47c2                	lw	a5,16(sp)
   1916a:	079d                	addi	a5,a5,7
   1916c:	9be1                	andi	a5,a5,-8
   1916e:	0007ad03          	lw	s10,0(a5)
   19172:	0047ac83          	lw	s9,4(a5)
   19176:	07a1                	addi	a5,a5,8
   19178:	c83e                	sw	a5,16(sp)
   1917a:	bffb7d93          	andi	s11,s6,-1025
   1917e:	4701                	li	a4,0
   19180:	02010da3          	sb	zero,59(sp)
   19184:	56fd                	li	a3,-1
   19186:	0ada8563          	beq	s5,a3,19230 <_vfiprintf_r+0x494>
   1918a:	019d66b3          	or	a3,s10,s9
   1918e:	f7fdfb13          	andi	s6,s11,-129
   19192:	42069963          	bnez	a3,195c4 <_vfiprintf_r+0x828>
   19196:	260a9563          	bnez	s5,19400 <_vfiprintf_r+0x664>
   1919a:	5a071163          	bnez	a4,1973c <_vfiprintf_r+0x9a0>
   1919e:	001dfd13          	andi	s10,s11,1
   191a2:	1980                	addi	s0,sp,240
   191a4:	f40d03e3          	beqz	s10,190ea <_vfiprintf_r+0x34e>
   191a8:	03000793          	li	a5,48
   191ac:	0ef107a3          	sb	a5,239(sp)
   191b0:	0ef10413          	addi	s0,sp,239
   191b4:	bf1d                	j	190ea <_vfiprintf_r+0x34e>
   191b6:	41840cb3          	sub	s9,s0,s8
   191ba:	cd8411e3          	bne	s0,s8,18e7c <_vfiprintf_r+0xe0>
   191be:	00044783          	lbu	a5,0(s0)
   191c2:	b9cd                	j	18eb4 <_vfiprintf_r+0x118>
   191c4:	46c2                	lw	a3,16(sp)
   191c6:	010b7793          	andi	a5,s6,16
   191ca:	00468713          	addi	a4,a3,4 # 2004 <register_fini-0xe070>
   191ce:	68079d63          	bnez	a5,19868 <_vfiprintf_r+0xacc>
   191d2:	040b7793          	andi	a5,s6,64
   191d6:	7e078a63          	beqz	a5,199ca <_vfiprintf_r+0xc2e>
   191da:	47c2                	lw	a5,16(sp)
   191dc:	4c81                	li	s9,0
   191de:	c83a                	sw	a4,16(sp)
   191e0:	0007dd03          	lhu	s10,0(a5)
   191e4:	bf59                	j	1917a <_vfiprintf_r+0x3de>
   191e6:	46c2                	lw	a3,16(sp)
   191e8:	010b7793          	andi	a5,s6,16
   191ec:	00468713          	addi	a4,a3,4
   191f0:	64079163          	bnez	a5,19832 <_vfiprintf_r+0xa96>
   191f4:	040b7793          	andi	a5,s6,64
   191f8:	7a078263          	beqz	a5,1999c <_vfiprintf_r+0xc00>
   191fc:	47c2                	lw	a5,16(sp)
   191fe:	c83a                	sw	a4,16(sp)
   19200:	00079d03          	lh	s10,0(a5)
   19204:	41fd5c93          	srai	s9,s10,0x1f
   19208:	8766                	mv	a4,s9
   1920a:	ea0759e3          	bgez	a4,190bc <_vfiprintf_r+0x320>
   1920e:	01a03733          	snez	a4,s10
   19212:	41900eb3          	neg	t4,s9
   19216:	40ee8cb3          	sub	s9,t4,a4
   1921a:	02d00713          	li	a4,45
   1921e:	02e10da3          	sb	a4,59(sp)
   19222:	56fd                	li	a3,-1
   19224:	41a00d33          	neg	s10,s10
   19228:	8dda                	mv	s11,s6
   1922a:	4705                	li	a4,1
   1922c:	f4da9fe3          	bne	s5,a3,1918a <_vfiprintf_r+0x3ee>
   19230:	4685                	li	a3,1
   19232:	e8d70fe3          	beq	a4,a3,190d0 <_vfiprintf_r+0x334>
   19236:	4689                	li	a3,2
   19238:	1cd70b63          	beq	a4,a3,1940e <_vfiprintf_r+0x672>
   1923c:	1980                	addi	s0,sp,240
   1923e:	01dc9793          	slli	a5,s9,0x1d
   19242:	007d7713          	andi	a4,s10,7
   19246:	003d5d13          	srli	s10,s10,0x3
   1924a:	03070713          	addi	a4,a4,48
   1924e:	01a7ed33          	or	s10,a5,s10
   19252:	003cdc93          	srli	s9,s9,0x3
   19256:	fee40fa3          	sb	a4,-1(s0)
   1925a:	019d67b3          	or	a5,s10,s9
   1925e:	8622                	mv	a2,s0
   19260:	147d                	addi	s0,s0,-1
   19262:	fff1                	bnez	a5,1923e <_vfiprintf_r+0x4a2>
   19264:	001df793          	andi	a5,s11,1
   19268:	1c078863          	beqz	a5,19438 <_vfiprintf_r+0x69c>
   1926c:	03000793          	li	a5,48
   19270:	1cf70463          	beq	a4,a5,19438 <_vfiprintf_r+0x69c>
   19274:	1679                	addi	a2,a2,-2
   19276:	fef40fa3          	sb	a5,-1(s0)
   1927a:	199c                	addi	a5,sp,240
   1927c:	40c78d33          	sub	s10,a5,a2
   19280:	8b6e                	mv	s6,s11
   19282:	8432                	mv	s0,a2
   19284:	b59d                	j	190ea <_vfiprintf_r+0x34e>
   19286:	faef90ef          	jal	ra,12a34 <__sinit>
   1928a:	be99                	j	18de0 <_vfiprintf_r+0x44>
   1928c:	47c2                	lw	a5,16(sp)
   1928e:	02010da3          	sb	zero,59(sp)
   19292:	4380                	lw	s0,0(a5)
   19294:	00478d93          	addi	s11,a5,4
   19298:	6c040e63          	beqz	s0,19974 <_vfiprintf_r+0xbd8>
   1929c:	57fd                	li	a5,-1
   1929e:	64fa8863          	beq	s5,a5,198ee <_vfiprintf_r+0xb52>
   192a2:	8656                	mv	a2,s5
   192a4:	4581                	li	a1,0
   192a6:	8522                	mv	a0,s0
   192a8:	f4efc0ef          	jal	ra,159f6 <memchr>
   192ac:	7a050a63          	beqz	a0,19a60 <_vfiprintf_r+0xcc4>
   192b0:	40850d33          	sub	s10,a0,s0
   192b4:	c86e                	sw	s11,16(sp)
   192b6:	4a81                	li	s5,0
   192b8:	bd0d                	j	190ea <_vfiprintf_r+0x34e>
   192ba:	4742                	lw	a4,16(sp)
   192bc:	02010da3          	sb	zero,59(sp)
   192c0:	4c85                	li	s9,1
   192c2:	431c                	lw	a5,0(a4)
   192c4:	0711                	addi	a4,a4,4
   192c6:	c83a                	sw	a4,16(sp)
   192c8:	08f10623          	sb	a5,140(sp)
   192cc:	4d05                	li	s10,1
   192ce:	0160                	addi	s0,sp,140
   192d0:	b991                	j	18f24 <_vfiprintf_r+0x188>
   192d2:	47c2                	lw	a5,16(sp)
   192d4:	7761                	lui	a4,0xffff8
   192d6:	83074713          	xori	a4,a4,-2000
   192da:	0007ad03          	lw	s10,0(a5)
   192de:	0791                	addi	a5,a5,4
   192e0:	c83e                	sw	a5,16(sp)
   192e2:	67f9                	lui	a5,0x1e
   192e4:	6d078793          	addi	a5,a5,1744 # 1e6d0 <__clzsi2+0xa2>
   192e8:	02e11e23          	sh	a4,60(sp)
   192ec:	4c81                	li	s9,0
   192ee:	002b6d93          	ori	s11,s6,2
   192f2:	cc3e                	sw	a5,24(sp)
   192f4:	4709                	li	a4,2
   192f6:	b569                	j	19180 <_vfiprintf_r+0x3e4>
   192f8:	000c4703          	lbu	a4,0(s8)
   192fc:	06c00793          	li	a5,108
   19300:	64f70f63          	beq	a4,a5,1995e <_vfiprintf_r+0xbc2>
   19304:	010b6b13          	ori	s6,s6,16
   19308:	b6f1                	j	18ed4 <_vfiprintf_r+0x138>
   1930a:	000c4703          	lbu	a4,0(s8)
   1930e:	06800793          	li	a5,104
   19312:	62f70f63          	beq	a4,a5,19950 <_vfiprintf_r+0xbb4>
   19316:	040b6b13          	ori	s6,s6,64
   1931a:	be6d                	j	18ed4 <_vfiprintf_r+0x138>
   1931c:	010b6d93          	ori	s11,s6,16
   19320:	020df793          	andi	a5,s11,32
   19324:	42078063          	beqz	a5,19744 <_vfiprintf_r+0x9a8>
   19328:	47c2                	lw	a5,16(sp)
   1932a:	4705                	li	a4,1
   1932c:	079d                	addi	a5,a5,7
   1932e:	9be1                	andi	a5,a5,-8
   19330:	0007ad03          	lw	s10,0(a5)
   19334:	0047ac83          	lw	s9,4(a5)
   19338:	07a1                	addi	a5,a5,8
   1933a:	c83e                	sw	a5,16(sp)
   1933c:	b591                	j	19180 <_vfiprintf_r+0x3e4>
   1933e:	000c4703          	lbu	a4,0(s8)
   19342:	080b6b13          	ori	s6,s6,128
   19346:	b679                	j	18ed4 <_vfiprintf_r+0x138>
   19348:	46c2                	lw	a3,16(sp)
   1934a:	000c4703          	lbu	a4,0(s8)
   1934e:	429c                	lw	a5,0(a3)
   19350:	0691                	addi	a3,a3,4
   19352:	c836                	sw	a3,16(sp)
   19354:	c23e                	sw	a5,4(sp)
   19356:	b607dfe3          	bgez	a5,18ed4 <_vfiprintf_r+0x138>
   1935a:	40f007b3          	neg	a5,a5
   1935e:	c23e                	sw	a5,4(sp)
   19360:	004b6b13          	ori	s6,s6,4
   19364:	be85                	j	18ed4 <_vfiprintf_r+0x138>
   19366:	000c4703          	lbu	a4,0(s8)
   1936a:	001b6b13          	ori	s6,s6,1
   1936e:	b69d                	j	18ed4 <_vfiprintf_r+0x138>
   19370:	03b14783          	lbu	a5,59(sp)
   19374:	000c4703          	lbu	a4,0(s8)
   19378:	b4079ee3          	bnez	a5,18ed4 <_vfiprintf_r+0x138>
   1937c:	02000793          	li	a5,32
   19380:	02f10da3          	sb	a5,59(sp)
   19384:	be81                	j	18ed4 <_vfiprintf_r+0x138>
   19386:	000c4703          	lbu	a4,0(s8)
   1938a:	004b6b13          	ori	s6,s6,4
   1938e:	b699                	j	18ed4 <_vfiprintf_r+0x138>
   19390:	02b00793          	li	a5,43
   19394:	000c4703          	lbu	a4,0(s8)
   19398:	02f10da3          	sb	a5,59(sp)
   1939c:	be25                	j	18ed4 <_vfiprintf_r+0x138>
   1939e:	000c4703          	lbu	a4,0(s8)
   193a2:	001c0693          	addi	a3,s8,1
   193a6:	6ec70163          	beq	a4,a2,19a88 <_vfiprintf_r+0xcec>
   193aa:	fd070793          	addi	a5,a4,-48 # ffff7fd0 <__BSS_END__+0xfffd70a8>
   193ae:	8c36                	mv	s8,a3
   193b0:	4a81                	li	s5,0
   193b2:	b2fd62e3          	bltu	s10,a5,18ed6 <_vfiprintf_r+0x13a>
   193b6:	000c4703          	lbu	a4,0(s8)
   193ba:	002a9693          	slli	a3,s5,0x2
   193be:	9ab6                	add	s5,s5,a3
   193c0:	0a86                	slli	s5,s5,0x1
   193c2:	9abe                	add	s5,s5,a5
   193c4:	fd070793          	addi	a5,a4,-48
   193c8:	0c05                	addi	s8,s8,1
   193ca:	fefd76e3          	bgeu	s10,a5,193b6 <_vfiprintf_r+0x61a>
   193ce:	b621                	j	18ed6 <_vfiprintf_r+0x13a>
   193d0:	46c2                	lw	a3,16(sp)
   193d2:	020b7793          	andi	a5,s6,32
   193d6:	4298                	lw	a4,0(a3)
   193d8:	0691                	addi	a3,a3,4
   193da:	c836                	sw	a3,16(sp)
   193dc:	46079f63          	bnez	a5,1985a <_vfiprintf_r+0xabe>
   193e0:	010b7793          	andi	a5,s6,16
   193e4:	58079463          	bnez	a5,1996c <_vfiprintf_r+0xbd0>
   193e8:	040b7793          	andi	a5,s6,64
   193ec:	62079063          	bnez	a5,19a0c <_vfiprintf_r+0xc70>
   193f0:	200b7313          	andi	t1,s6,512
   193f4:	56030c63          	beqz	t1,1996c <_vfiprintf_r+0xbd0>
   193f8:	47b2                	lw	a5,12(sp)
   193fa:	00f70023          	sb	a5,0(a4)
   193fe:	bcb1                	j	18e5a <_vfiprintf_r+0xbe>
   19400:	4685                	li	a3,1
   19402:	66d70963          	beq	a4,a3,19a74 <_vfiprintf_r+0xcd8>
   19406:	4689                	li	a3,2
   19408:	8dda                	mv	s11,s6
   1940a:	e2d719e3          	bne	a4,a3,1923c <_vfiprintf_r+0x4a0>
   1940e:	46e2                	lw	a3,24(sp)
   19410:	1980                	addi	s0,sp,240
   19412:	00fd7793          	andi	a5,s10,15
   19416:	97b6                	add	a5,a5,a3
   19418:	0007c703          	lbu	a4,0(a5)
   1941c:	004d5d13          	srli	s10,s10,0x4
   19420:	01cc9793          	slli	a5,s9,0x1c
   19424:	01a7ed33          	or	s10,a5,s10
   19428:	004cdc93          	srli	s9,s9,0x4
   1942c:	fee40fa3          	sb	a4,-1(s0)
   19430:	019d67b3          	or	a5,s10,s9
   19434:	147d                	addi	s0,s0,-1
   19436:	fff1                	bnez	a5,19412 <_vfiprintf_r+0x676>
   19438:	199c                	addi	a5,sp,240
   1943a:	40878d33          	sub	s10,a5,s0
   1943e:	8b6e                	mv	s6,s11
   19440:	b16d                	j	190ea <_vfiprintf_r+0x34e>
   19442:	4592                	lw	a1,4(sp)
   19444:	41958db3          	sub	s11,a1,s9
   19448:	b7b059e3          	blez	s11,18fba <_vfiprintf_r+0x21e>
   1944c:	45c1                	li	a1,16
   1944e:	63b5da63          	bge	a1,s11,19a82 <_vfiprintf_r+0xce6>
   19452:	4ec1                	li	t4,16
   19454:	4f1d                	li	t5,7
   19456:	a801                	j	19466 <_vfiprintf_r+0x6ca>
   19458:	00270613          	addi	a2,a4,2
   1945c:	0ba1                	addi	s7,s7,8
   1945e:	8736                	mv	a4,a3
   19460:	1dc1                	addi	s11,s11,-16
   19462:	03bedf63          	bge	t4,s11,194a0 <_vfiprintf_r+0x704>
   19466:	07c1                	addi	a5,a5,16
   19468:	00170693          	addi	a3,a4,1
   1946c:	012ba023          	sw	s2,0(s7)
   19470:	01dba223          	sw	t4,4(s7)
   19474:	c4be                	sw	a5,72(sp)
   19476:	c2b6                	sw	a3,68(sp)
   19478:	fedf50e3          	bge	t5,a3,19458 <_vfiprintf_r+0x6bc>
   1947c:	0e078763          	beqz	a5,1956a <_vfiprintf_r+0x7ce>
   19480:	0090                	addi	a2,sp,64
   19482:	85ce                	mv	a1,s3
   19484:	8552                	mv	a0,s4
   19486:	3885                	jal	18cf6 <__sprint_r.part.0>
   19488:	b8051be3          	bnez	a0,1901e <_vfiprintf_r+0x282>
   1948c:	4716                	lw	a4,68(sp)
   1948e:	4ec1                	li	t4,16
   19490:	1dc1                	addi	s11,s11,-16
   19492:	47a6                	lw	a5,72(sp)
   19494:	8ba6                	mv	s7,s1
   19496:	00170613          	addi	a2,a4,1
   1949a:	4f1d                	li	t5,7
   1949c:	fdbec5e3          	blt	t4,s11,19466 <_vfiprintf_r+0x6ca>
   194a0:	85b2                	mv	a1,a2
   194a2:	008b8513          	addi	a0,s7,8
   194a6:	97ee                	add	a5,a5,s11
   194a8:	012ba023          	sw	s2,0(s7)
   194ac:	01bba223          	sw	s11,4(s7)
   194b0:	c4be                	sw	a5,72(sp)
   194b2:	c2ae                	sw	a1,68(sp)
   194b4:	471d                	li	a4,7
   194b6:	36b75063          	bge	a4,a1,19816 <_vfiprintf_r+0xa7a>
   194ba:	52078863          	beqz	a5,199ea <_vfiprintf_r+0xc4e>
   194be:	0090                	addi	a2,sp,64
   194c0:	85ce                	mv	a1,s3
   194c2:	8552                	mv	a0,s4
   194c4:	380d                	jal	18cf6 <__sprint_r.part.0>
   194c6:	b4051ce3          	bnez	a0,1901e <_vfiprintf_r+0x282>
   194ca:	4716                	lw	a4,68(sp)
   194cc:	41aa8ab3          	sub	s5,s5,s10
   194d0:	47a6                	lw	a5,72(sp)
   194d2:	08d4                	addi	a3,sp,84
   194d4:	00170613          	addi	a2,a4,1
   194d8:	8ba6                	mv	s7,s1
   194da:	af5054e3          	blez	s5,18fc2 <_vfiprintf_r+0x226>
   194de:	45c1                	li	a1,16
   194e0:	4f55df63          	bge	a1,s5,199de <_vfiprintf_r+0xc42>
   194e4:	48c1                	li	a7,16
   194e6:	4d9d                	li	s11,7
   194e8:	a801                	j	194f8 <_vfiprintf_r+0x75c>
   194ea:	00270613          	addi	a2,a4,2
   194ee:	0ba1                	addi	s7,s7,8
   194f0:	8736                	mv	a4,a3
   194f2:	1ac1                	addi	s5,s5,-16
   194f4:	0358de63          	bge	a7,s5,19530 <_vfiprintf_r+0x794>
   194f8:	07c1                	addi	a5,a5,16
   194fa:	00170693          	addi	a3,a4,1
   194fe:	012ba023          	sw	s2,0(s7)
   19502:	011ba223          	sw	a7,4(s7)
   19506:	c4be                	sw	a5,72(sp)
   19508:	c2b6                	sw	a3,68(sp)
   1950a:	feddd0e3          	bge	s11,a3,194ea <_vfiprintf_r+0x74e>
   1950e:	c3b1                	beqz	a5,19552 <_vfiprintf_r+0x7b6>
   19510:	0090                	addi	a2,sp,64
   19512:	85ce                	mv	a1,s3
   19514:	8552                	mv	a0,s4
   19516:	fe0ff0ef          	jal	ra,18cf6 <__sprint_r.part.0>
   1951a:	b00512e3          	bnez	a0,1901e <_vfiprintf_r+0x282>
   1951e:	4716                	lw	a4,68(sp)
   19520:	48c1                	li	a7,16
   19522:	1ac1                	addi	s5,s5,-16
   19524:	47a6                	lw	a5,72(sp)
   19526:	8ba6                	mv	s7,s1
   19528:	00170613          	addi	a2,a4,1
   1952c:	fd58c6e3          	blt	a7,s5,194f8 <_vfiprintf_r+0x75c>
   19530:	008b8593          	addi	a1,s7,8
   19534:	97d6                	add	a5,a5,s5
   19536:	012ba023          	sw	s2,0(s7)
   1953a:	015ba223          	sw	s5,4(s7)
   1953e:	c4be                	sw	a5,72(sp)
   19540:	c2b2                	sw	a2,68(sp)
   19542:	471d                	li	a4,7
   19544:	1cc74663          	blt	a4,a2,19710 <_vfiprintf_r+0x974>
   19548:	0605                	addi	a2,a2,1
   1954a:	00858693          	addi	a3,a1,8
   1954e:	8bae                	mv	s7,a1
   19550:	bc8d                	j	18fc2 <_vfiprintf_r+0x226>
   19552:	4605                	li	a2,1
   19554:	4701                	li	a4,0
   19556:	8ba6                	mv	s7,s1
   19558:	bf69                	j	194f2 <_vfiprintf_r+0x756>
   1955a:	0090                	addi	a2,sp,64
   1955c:	85ce                	mv	a1,s3
   1955e:	8552                	mv	a0,s4
   19560:	f96ff0ef          	jal	ra,18cf6 <__sprint_r.part.0>
   19564:	aa0504e3          	beqz	a0,1900c <_vfiprintf_r+0x270>
   19568:	bc5d                	j	1901e <_vfiprintf_r+0x282>
   1956a:	4605                	li	a2,1
   1956c:	4701                	li	a4,0
   1956e:	8ba6                	mv	s7,s1
   19570:	bdc5                	j	19460 <_vfiprintf_r+0x6c4>
   19572:	20078063          	beqz	a5,19772 <_vfiprintf_r+0x9d6>
   19576:	0090                	addi	a2,sp,64
   19578:	85ce                	mv	a1,s3
   1957a:	8552                	mv	a0,s4
   1957c:	d67a                	sw	t5,44(sp)
   1957e:	d47e                	sw	t6,40(sp)
   19580:	f76ff0ef          	jal	ra,18cf6 <__sprint_r.part.0>
   19584:	a8051de3          	bnez	a0,1901e <_vfiprintf_r+0x282>
   19588:	4716                	lw	a4,68(sp)
   1958a:	47a6                	lw	a5,72(sp)
   1958c:	5f32                	lw	t5,44(sp)
   1958e:	5fa2                	lw	t6,40(sp)
   19590:	08d4                	addi	a3,sp,84
   19592:	00170613          	addi	a2,a4,1
   19596:	8ba6                	mv	s7,s1
   19598:	b2c5                	j	18f78 <_vfiprintf_r+0x1dc>
   1959a:	24079c63          	bnez	a5,197f2 <_vfiprintf_r+0xa56>
   1959e:	03b14703          	lbu	a4,59(sp)
   195a2:	44071c63          	bnez	a4,199fa <_vfiprintf_r+0xc5e>
   195a6:	1c0f8863          	beqz	t6,19776 <_vfiprintf_r+0x9da>
   195aa:	187c                	addi	a5,sp,60
   195ac:	c6be                	sw	a5,76(sp)
   195ae:	4789                	li	a5,2
   195b0:	c8be                	sw	a5,80(sp)
   195b2:	08d4                	addi	a3,sp,84
   195b4:	4605                	li	a2,1
   195b6:	8bb6                	mv	s7,a3
   195b8:	8732                	mv	a4,a2
   195ba:	00170613          	addi	a2,a4,1
   195be:	008b8693          	addi	a3,s7,8
   195c2:	bac5                	j	18fb2 <_vfiprintf_r+0x216>
   195c4:	8dda                	mv	s11,s6
   195c6:	b1ad                	j	19230 <_vfiprintf_r+0x494>
   195c8:	4641                	li	a2,16
   195ca:	4bb65063          	bge	a2,s11,19a6a <_vfiprintf_r+0xcce>
   195ce:	865e                	mv	a2,s7
   195d0:	4ec1                	li	t4,16
   195d2:	8ba2                	mv	s7,s0
   195d4:	429d                	li	t0,7
   195d6:	844e                	mv	s0,s3
   195d8:	d47e                	sw	t6,40(sp)
   195da:	89ee                	mv	s3,s11
   195dc:	8de2                	mv	s11,s8
   195de:	8c56                	mv	s8,s5
   195e0:	8afa                	mv	s5,t5
   195e2:	a811                	j	195f6 <_vfiprintf_r+0x85a>
   195e4:	00270513          	addi	a0,a4,2
   195e8:	0621                	addi	a2,a2,8
   195ea:	8736                	mv	a4,a3
   195ec:	19c1                	addi	s3,s3,-16
   195ee:	033edf63          	bge	t4,s3,1962c <_vfiprintf_r+0x890>
   195f2:	00170693          	addi	a3,a4,1
   195f6:	45a2                	lw	a1,8(sp)
   195f8:	07c1                	addi	a5,a5,16
   195fa:	01d62223          	sw	t4,4(a2)
   195fe:	c20c                	sw	a1,0(a2)
   19600:	c4be                	sw	a5,72(sp)
   19602:	c2b6                	sw	a3,68(sp)
   19604:	fed2d0e3          	bge	t0,a3,195e4 <_vfiprintf_r+0x848>
   19608:	cbb9                	beqz	a5,1965e <_vfiprintf_r+0x8c2>
   1960a:	0090                	addi	a2,sp,64
   1960c:	85a2                	mv	a1,s0
   1960e:	8552                	mv	a0,s4
   19610:	ee6ff0ef          	jal	ra,18cf6 <__sprint_r.part.0>
   19614:	30051963          	bnez	a0,19926 <_vfiprintf_r+0xb8a>
   19618:	4716                	lw	a4,68(sp)
   1961a:	4ec1                	li	t4,16
   1961c:	19c1                	addi	s3,s3,-16
   1961e:	47a6                	lw	a5,72(sp)
   19620:	8626                	mv	a2,s1
   19622:	00170513          	addi	a0,a4,1
   19626:	429d                	li	t0,7
   19628:	fd3ec5e3          	blt	t4,s3,195f2 <_vfiprintf_r+0x856>
   1962c:	5fa2                	lw	t6,40(sp)
   1962e:	8f56                	mv	t5,s5
   19630:	85aa                	mv	a1,a0
   19632:	8ae2                	mv	s5,s8
   19634:	8c6e                	mv	s8,s11
   19636:	8dce                	mv	s11,s3
   19638:	89a2                	mv	s3,s0
   1963a:	845e                	mv	s0,s7
   1963c:	8bb2                	mv	s7,a2
   1963e:	4722                	lw	a4,8(sp)
   19640:	97ee                	add	a5,a5,s11
   19642:	01bba223          	sw	s11,4(s7)
   19646:	00eba023          	sw	a4,0(s7)
   1964a:	c4be                	sw	a5,72(sp)
   1964c:	c2ae                	sw	a1,68(sp)
   1964e:	471d                	li	a4,7
   19650:	f4b745e3          	blt	a4,a1,1959a <_vfiprintf_r+0x7fe>
   19654:	0ba1                	addi	s7,s7,8
   19656:	00158613          	addi	a2,a1,1
   1965a:	872e                	mv	a4,a1
   1965c:	b8c5                	j	18f4c <_vfiprintf_r+0x1b0>
   1965e:	4701                	li	a4,0
   19660:	4505                	li	a0,1
   19662:	8626                	mv	a2,s1
   19664:	b761                	j	195ec <_vfiprintf_r+0x850>
   19666:	c282                	sw	zero,68(sp)
   19668:	004b7313          	andi	t1,s6,4
   1966c:	08030a63          	beqz	t1,19700 <_vfiprintf_r+0x964>
   19670:	4712                	lw	a4,4(sp)
   19672:	41970bb3          	sub	s7,a4,s9
   19676:	09705563          	blez	s7,19700 <_vfiprintf_r+0x964>
   1967a:	86a6                	mv	a3,s1
   1967c:	4741                	li	a4,16
   1967e:	4616                	lw	a2,68(sp)
   19680:	3f775763          	bge	a4,s7,19a6e <_vfiprintf_r+0xcd2>
   19684:	4d41                	li	s10,16
   19686:	4d9d                	li	s11,7
   19688:	a801                	j	19698 <_vfiprintf_r+0x8fc>
   1968a:	00260513          	addi	a0,a2,2
   1968e:	06a1                	addi	a3,a3,8
   19690:	863a                	mv	a2,a4
   19692:	1bc1                	addi	s7,s7,-16
   19694:	037d5d63          	bge	s10,s7,196ce <_vfiprintf_r+0x932>
   19698:	45a2                	lw	a1,8(sp)
   1969a:	07c1                	addi	a5,a5,16
   1969c:	00160713          	addi	a4,a2,1
   196a0:	c28c                	sw	a1,0(a3)
   196a2:	01a6a223          	sw	s10,4(a3)
   196a6:	c4be                	sw	a5,72(sp)
   196a8:	c2ba                	sw	a4,68(sp)
   196aa:	feedd0e3          	bge	s11,a4,1968a <_vfiprintf_r+0x8ee>
   196ae:	c7a9                	beqz	a5,196f8 <_vfiprintf_r+0x95c>
   196b0:	0090                	addi	a2,sp,64
   196b2:	85ce                	mv	a1,s3
   196b4:	8552                	mv	a0,s4
   196b6:	e40ff0ef          	jal	ra,18cf6 <__sprint_r.part.0>
   196ba:	960512e3          	bnez	a0,1901e <_vfiprintf_r+0x282>
   196be:	4616                	lw	a2,68(sp)
   196c0:	1bc1                	addi	s7,s7,-16
   196c2:	47a6                	lw	a5,72(sp)
   196c4:	86a6                	mv	a3,s1
   196c6:	00160513          	addi	a0,a2,1
   196ca:	fd7d47e3          	blt	s10,s7,19698 <_vfiprintf_r+0x8fc>
   196ce:	85aa                	mv	a1,a0
   196d0:	4722                	lw	a4,8(sp)
   196d2:	97de                	add	a5,a5,s7
   196d4:	0176a223          	sw	s7,4(a3)
   196d8:	c298                	sw	a4,0(a3)
   196da:	c4be                	sw	a5,72(sp)
   196dc:	c2ae                	sw	a1,68(sp)
   196de:	471d                	li	a4,7
   196e0:	90b75de3          	bge	a4,a1,18ffa <_vfiprintf_r+0x25e>
   196e4:	cf91                	beqz	a5,19700 <_vfiprintf_r+0x964>
   196e6:	0090                	addi	a2,sp,64
   196e8:	85ce                	mv	a1,s3
   196ea:	8552                	mv	a0,s4
   196ec:	e0aff0ef          	jal	ra,18cf6 <__sprint_r.part.0>
   196f0:	920517e3          	bnez	a0,1901e <_vfiprintf_r+0x282>
   196f4:	47a6                	lw	a5,72(sp)
   196f6:	b211                	j	18ffa <_vfiprintf_r+0x25e>
   196f8:	4505                	li	a0,1
   196fa:	4601                	li	a2,0
   196fc:	86a6                	mv	a3,s1
   196fe:	bf51                	j	19692 <_vfiprintf_r+0x8f6>
   19700:	4412                	lw	s0,4(sp)
   19702:	01945363          	bge	s0,s9,19708 <_vfiprintf_r+0x96c>
   19706:	8466                	mv	s0,s9
   19708:	47b2                	lw	a5,12(sp)
   1970a:	97a2                	add	a5,a5,s0
   1970c:	c63e                	sw	a5,12(sp)
   1970e:	b8fd                	j	1900c <_vfiprintf_r+0x270>
   19710:	20078e63          	beqz	a5,1992c <_vfiprintf_r+0xb90>
   19714:	0090                	addi	a2,sp,64
   19716:	85ce                	mv	a1,s3
   19718:	8552                	mv	a0,s4
   1971a:	ddcff0ef          	jal	ra,18cf6 <__sprint_r.part.0>
   1971e:	900510e3          	bnez	a0,1901e <_vfiprintf_r+0x282>
   19722:	4616                	lw	a2,68(sp)
   19724:	47a6                	lw	a5,72(sp)
   19726:	08d4                	addi	a3,sp,84
   19728:	0605                	addi	a2,a2,1
   1972a:	8ba6                	mv	s7,s1
   1972c:	b859                	j	18fc2 <_vfiprintf_r+0x226>
   1972e:	c282                	sw	zero,68(sp)
   19730:	8ba6                	mv	s7,s1
   19732:	f78ff06f          	j	18eaa <_vfiprintf_r+0x10e>
   19736:	9a0a92e3          	bnez	s5,190da <_vfiprintf_r+0x33e>
   1973a:	8b6e                	mv	s6,s11
   1973c:	4a81                	li	s5,0
   1973e:	4d01                	li	s10,0
   19740:	1980                	addi	s0,sp,240
   19742:	b265                	j	190ea <_vfiprintf_r+0x34e>
   19744:	46c2                	lw	a3,16(sp)
   19746:	010df793          	andi	a5,s11,16
   1974a:	00468713          	addi	a4,a3,4
   1974e:	efe1                	bnez	a5,19826 <_vfiprintf_r+0xa8a>
   19750:	040df793          	andi	a5,s11,64
   19754:	26078063          	beqz	a5,199b4 <_vfiprintf_r+0xc18>
   19758:	47c2                	lw	a5,16(sp)
   1975a:	4c81                	li	s9,0
   1975c:	c83a                	sw	a4,16(sp)
   1975e:	0007dd03          	lhu	s10,0(a5)
   19762:	4705                	li	a4,1
   19764:	bc31                	j	19180 <_vfiprintf_r+0x3e4>
   19766:	08d4                	addi	a3,sp,84
   19768:	4605                	li	a2,1
   1976a:	4701                	li	a4,0
   1976c:	8ba6                	mv	s7,s1
   1976e:	845ff06f          	j	18fb2 <_vfiprintf_r+0x216>
   19772:	100f9063          	bnez	t6,19872 <_vfiprintf_r+0xad6>
   19776:	4701                	li	a4,0
   19778:	08d4                	addi	a3,sp,84
   1977a:	4605                	li	a2,1
   1977c:	8ba6                	mv	s7,s1
   1977e:	835ff06f          	j	18fb2 <_vfiprintf_r+0x216>
   19782:	400df793          	andi	a5,s11,1024
   19786:	d452                	sw	s4,40(sp)
   19788:	d64e                	sw	s3,44(sp)
   1978a:	8a66                	mv	s4,s9
   1978c:	89ea                	mv	s3,s10
   1978e:	4b01                	li	s6,0
   19790:	4d72                	lw	s10,28(sp)
   19792:	1980                	addi	s0,sp,240
   19794:	8cbe                	mv	s9,a5
   19796:	a819                	j	197ac <_vfiprintf_r+0xa10>
   19798:	4629                	li	a2,10
   1979a:	4681                	li	a3,0
   1979c:	854e                	mv	a0,s3
   1979e:	85d2                	mv	a1,s4
   197a0:	561010ef          	jal	ra,1b500 <__udivdi3>
   197a4:	220a0f63          	beqz	s4,199e2 <_vfiprintf_r+0xc46>
   197a8:	89aa                	mv	s3,a0
   197aa:	8a2e                	mv	s4,a1
   197ac:	4629                	li	a2,10
   197ae:	4681                	li	a3,0
   197b0:	854e                	mv	a0,s3
   197b2:	85d2                	mv	a1,s4
   197b4:	0ac020ef          	jal	ra,1b860 <__umoddi3>
   197b8:	03050513          	addi	a0,a0,48
   197bc:	fea40fa3          	sb	a0,-1(s0)
   197c0:	0b05                	addi	s6,s6,1
   197c2:	147d                	addi	s0,s0,-1
   197c4:	fc0c8ae3          	beqz	s9,19798 <_vfiprintf_r+0x9fc>
   197c8:	000d4683          	lbu	a3,0(s10)
   197cc:	fd6696e3          	bne	a3,s6,19798 <_vfiprintf_r+0x9fc>
   197d0:	0ff00793          	li	a5,255
   197d4:	fcfb02e3          	beq	s6,a5,19798 <_vfiprintf_r+0x9fc>
   197d8:	120a1363          	bnez	s4,198fe <_vfiprintf_r+0xb62>
   197dc:	47a5                	li	a5,9
   197de:	1337e063          	bltu	a5,s3,198fe <_vfiprintf_r+0xb62>
   197e2:	199c                	addi	a5,sp,240
   197e4:	ce6a                	sw	s10,28(sp)
   197e6:	5a22                	lw	s4,40(sp)
   197e8:	59b2                	lw	s3,44(sp)
   197ea:	40878d33          	sub	s10,a5,s0
   197ee:	8b6e                	mv	s6,s11
   197f0:	b8ed                	j	190ea <_vfiprintf_r+0x34e>
   197f2:	0090                	addi	a2,sp,64
   197f4:	85ce                	mv	a1,s3
   197f6:	8552                	mv	a0,s4
   197f8:	d67a                	sw	t5,44(sp)
   197fa:	d47e                	sw	t6,40(sp)
   197fc:	cfaff0ef          	jal	ra,18cf6 <__sprint_r.part.0>
   19800:	80051fe3          	bnez	a0,1901e <_vfiprintf_r+0x282>
   19804:	4716                	lw	a4,68(sp)
   19806:	47a6                	lw	a5,72(sp)
   19808:	5f32                	lw	t5,44(sp)
   1980a:	5fa2                	lw	t6,40(sp)
   1980c:	8ba6                	mv	s7,s1
   1980e:	00170613          	addi	a2,a4,1
   19812:	f3aff06f          	j	18f4c <_vfiprintf_r+0x1b0>
   19816:	00158613          	addi	a2,a1,1
   1981a:	00850693          	addi	a3,a0,8
   1981e:	872e                	mv	a4,a1
   19820:	8baa                	mv	s7,a0
   19822:	f98ff06f          	j	18fba <_vfiprintf_r+0x21e>
   19826:	c83a                	sw	a4,16(sp)
   19828:	0006ad03          	lw	s10,0(a3)
   1982c:	4c81                	li	s9,0
   1982e:	4705                	li	a4,1
   19830:	ba81                	j	19180 <_vfiprintf_r+0x3e4>
   19832:	0006ad03          	lw	s10,0(a3)
   19836:	c83a                	sw	a4,16(sp)
   19838:	41fd5c93          	srai	s9,s10,0x1f
   1983c:	8766                	mv	a4,s9
   1983e:	b8ad                	j	190b8 <_vfiprintf_r+0x31c>
   19840:	47f2                	lw	a5,28(sp)
   19842:	000c4703          	lbu	a4,0(s8)
   19846:	e8078763          	beqz	a5,18ed4 <_vfiprintf_r+0x138>
   1984a:	0007c783          	lbu	a5,0(a5)
   1984e:	e8078363          	beqz	a5,18ed4 <_vfiprintf_r+0x138>
   19852:	400b6b13          	ori	s6,s6,1024
   19856:	e7eff06f          	j	18ed4 <_vfiprintf_r+0x138>
   1985a:	46b2                	lw	a3,12(sp)
   1985c:	41f6d793          	srai	a5,a3,0x1f
   19860:	c314                	sw	a3,0(a4)
   19862:	c35c                	sw	a5,4(a4)
   19864:	df6ff06f          	j	18e5a <_vfiprintf_r+0xbe>
   19868:	0006ad03          	lw	s10,0(a3)
   1986c:	4c81                	li	s9,0
   1986e:	c83a                	sw	a4,16(sp)
   19870:	b229                	j	1917a <_vfiprintf_r+0x3de>
   19872:	187c                	addi	a5,sp,60
   19874:	c6be                	sw	a5,76(sp)
   19876:	4789                	li	a5,2
   19878:	c8be                	sw	a5,80(sp)
   1987a:	05410b93          	addi	s7,sp,84
   1987e:	4705                	li	a4,1
   19880:	bb2d                	j	195ba <_vfiprintf_r+0x81e>
   19882:	8dda                	mv	s11,s6
   19884:	bc71                	j	19320 <_vfiprintf_r+0x584>
   19886:	67f9                	lui	a5,0x1e
   19888:	6e478793          	addi	a5,a5,1764 # 1e6e4 <__clzsi2+0xb6>
   1988c:	cc3e                	sw	a5,24(sp)
   1988e:	020b7793          	andi	a5,s6,32
   19892:	c3b9                	beqz	a5,198d8 <_vfiprintf_r+0xb3c>
   19894:	47c2                	lw	a5,16(sp)
   19896:	079d                	addi	a5,a5,7
   19898:	9be1                	andi	a5,a5,-8
   1989a:	0007ad03          	lw	s10,0(a5)
   1989e:	0047ac83          	lw	s9,4(a5)
   198a2:	07a1                	addi	a5,a5,8
   198a4:	c83e                	sw	a5,16(sp)
   198a6:	001b7693          	andi	a3,s6,1
   198aa:	ce81                	beqz	a3,198c2 <_vfiprintf_r+0xb26>
   198ac:	019d66b3          	or	a3,s10,s9
   198b0:	ca89                	beqz	a3,198c2 <_vfiprintf_r+0xb26>
   198b2:	03000693          	li	a3,48
   198b6:	02d10e23          	sb	a3,60(sp)
   198ba:	02e10ea3          	sb	a4,61(sp)
   198be:	002b6b13          	ori	s6,s6,2
   198c2:	bffb7d93          	andi	s11,s6,-1025
   198c6:	4709                	li	a4,2
   198c8:	b865                	j	19180 <_vfiprintf_r+0x3e4>
   198ca:	67f9                	lui	a5,0x1e
   198cc:	6d078793          	addi	a5,a5,1744 # 1e6d0 <__clzsi2+0xa2>
   198d0:	cc3e                	sw	a5,24(sp)
   198d2:	020b7793          	andi	a5,s6,32
   198d6:	ffdd                	bnez	a5,19894 <_vfiprintf_r+0xaf8>
   198d8:	4642                	lw	a2,16(sp)
   198da:	010b7793          	andi	a5,s6,16
   198de:	00460693          	addi	a3,a2,4
   198e2:	cfb1                	beqz	a5,1993e <_vfiprintf_r+0xba2>
   198e4:	00062d03          	lw	s10,0(a2)
   198e8:	4c81                	li	s9,0
   198ea:	c836                	sw	a3,16(sp)
   198ec:	bf6d                	j	198a6 <_vfiprintf_r+0xb0a>
   198ee:	8522                	mv	a0,s0
   198f0:	c49f60ef          	jal	ra,10538 <strlen>
   198f4:	8d2a                	mv	s10,a0
   198f6:	c86e                	sw	s11,16(sp)
   198f8:	4a81                	li	s5,0
   198fa:	ff0ff06f          	j	190ea <_vfiprintf_r+0x34e>
   198fe:	5792                	lw	a5,36(sp)
   19900:	5582                	lw	a1,32(sp)
   19902:	4b01                	li	s6,0
   19904:	8c1d                	sub	s0,s0,a5
   19906:	863e                	mv	a2,a5
   19908:	8522                	mv	a0,s0
   1990a:	ecafd0ef          	jal	ra,16fd4 <strncpy>
   1990e:	001d4583          	lbu	a1,1(s10)
   19912:	4629                	li	a2,10
   19914:	4681                	li	a3,0
   19916:	00b03733          	snez	a4,a1
   1991a:	854e                	mv	a0,s3
   1991c:	85d2                	mv	a1,s4
   1991e:	9d3a                	add	s10,s10,a4
   19920:	3e1010ef          	jal	ra,1b500 <__udivdi3>
   19924:	b551                	j	197a8 <_vfiprintf_r+0xa0c>
   19926:	89a2                	mv	s3,s0
   19928:	ef6ff06f          	j	1901e <_vfiprintf_r+0x282>
   1992c:	4705                	li	a4,1
   1992e:	87ea                	mv	a5,s10
   19930:	c6a2                	sw	s0,76(sp)
   19932:	c8ea                	sw	s10,80(sp)
   19934:	c4ea                	sw	s10,72(sp)
   19936:	c2ba                	sw	a4,68(sp)
   19938:	08d4                	addi	a3,sp,84
   1993a:	eaeff06f          	j	18fe8 <_vfiprintf_r+0x24c>
   1993e:	040b7793          	andi	a5,s6,64
   19942:	c7a1                	beqz	a5,1998a <_vfiprintf_r+0xbee>
   19944:	47c2                	lw	a5,16(sp)
   19946:	4c81                	li	s9,0
   19948:	c836                	sw	a3,16(sp)
   1994a:	0007dd03          	lhu	s10,0(a5)
   1994e:	bfa1                	j	198a6 <_vfiprintf_r+0xb0a>
   19950:	001c4703          	lbu	a4,1(s8)
   19954:	200b6b13          	ori	s6,s6,512
   19958:	0c05                	addi	s8,s8,1
   1995a:	d7aff06f          	j	18ed4 <_vfiprintf_r+0x138>
   1995e:	001c4703          	lbu	a4,1(s8)
   19962:	020b6b13          	ori	s6,s6,32
   19966:	0c05                	addi	s8,s8,1
   19968:	d6cff06f          	j	18ed4 <_vfiprintf_r+0x138>
   1996c:	47b2                	lw	a5,12(sp)
   1996e:	c31c                	sw	a5,0(a4)
   19970:	ceaff06f          	j	18e5a <_vfiprintf_r+0xbe>
   19974:	4799                	li	a5,6
   19976:	8d56                	mv	s10,s5
   19978:	0757ef63          	bltu	a5,s5,199f6 <_vfiprintf_r+0xc5a>
   1997c:	6e79                	lui	t3,0x1e
   1997e:	8cea                	mv	s9,s10
   19980:	c86e                	sw	s11,16(sp)
   19982:	6f8e0413          	addi	s0,t3,1784 # 1e6f8 <__clzsi2+0xca>
   19986:	d9eff06f          	j	18f24 <_vfiprintf_r+0x188>
   1998a:	200b7793          	andi	a5,s6,512
   1998e:	cfc5                	beqz	a5,19a46 <_vfiprintf_r+0xcaa>
   19990:	47c2                	lw	a5,16(sp)
   19992:	4c81                	li	s9,0
   19994:	c836                	sw	a3,16(sp)
   19996:	0007cd03          	lbu	s10,0(a5)
   1999a:	b731                	j	198a6 <_vfiprintf_r+0xb0a>
   1999c:	200b7793          	andi	a5,s6,512
   199a0:	cbd1                	beqz	a5,19a34 <_vfiprintf_r+0xc98>
   199a2:	47c2                	lw	a5,16(sp)
   199a4:	c83a                	sw	a4,16(sp)
   199a6:	00078d03          	lb	s10,0(a5)
   199aa:	41fd5c93          	srai	s9,s10,0x1f
   199ae:	8766                	mv	a4,s9
   199b0:	f08ff06f          	j	190b8 <_vfiprintf_r+0x31c>
   199b4:	200df793          	andi	a5,s11,512
   199b8:	c7b5                	beqz	a5,19a24 <_vfiprintf_r+0xc88>
   199ba:	47c2                	lw	a5,16(sp)
   199bc:	4c81                	li	s9,0
   199be:	c83a                	sw	a4,16(sp)
   199c0:	0007cd03          	lbu	s10,0(a5)
   199c4:	4705                	li	a4,1
   199c6:	fbaff06f          	j	19180 <_vfiprintf_r+0x3e4>
   199ca:	200b7793          	andi	a5,s6,512
   199ce:	c7a1                	beqz	a5,19a16 <_vfiprintf_r+0xc7a>
   199d0:	47c2                	lw	a5,16(sp)
   199d2:	4c81                	li	s9,0
   199d4:	c83a                	sw	a4,16(sp)
   199d6:	0007cd03          	lbu	s10,0(a5)
   199da:	fa0ff06f          	j	1917a <_vfiprintf_r+0x3de>
   199de:	85b6                	mv	a1,a3
   199e0:	be91                	j	19534 <_vfiprintf_r+0x798>
   199e2:	47a5                	li	a5,9
   199e4:	dd37e2e3          	bltu	a5,s3,197a8 <_vfiprintf_r+0xa0c>
   199e8:	bbed                	j	197e2 <_vfiprintf_r+0xa46>
   199ea:	08d4                	addi	a3,sp,84
   199ec:	4605                	li	a2,1
   199ee:	4701                	li	a4,0
   199f0:	8ba6                	mv	s7,s1
   199f2:	dc8ff06f          	j	18fba <_vfiprintf_r+0x21e>
   199f6:	4d19                	li	s10,6
   199f8:	b751                	j	1997c <_vfiprintf_r+0xbe0>
   199fa:	03b10793          	addi	a5,sp,59
   199fe:	c6be                	sw	a5,76(sp)
   19a00:	4785                	li	a5,1
   19a02:	c8be                	sw	a5,80(sp)
   19a04:	08d4                	addi	a3,sp,84
   19a06:	4605                	li	a2,1
   19a08:	d68ff06f          	j	18f70 <_vfiprintf_r+0x1d4>
   19a0c:	47b2                	lw	a5,12(sp)
   19a0e:	00f71023          	sh	a5,0(a4)
   19a12:	c48ff06f          	j	18e5a <_vfiprintf_r+0xbe>
   19a16:	47c2                	lw	a5,16(sp)
   19a18:	4c81                	li	s9,0
   19a1a:	c83a                	sw	a4,16(sp)
   19a1c:	0007ad03          	lw	s10,0(a5)
   19a20:	f5aff06f          	j	1917a <_vfiprintf_r+0x3de>
   19a24:	47c2                	lw	a5,16(sp)
   19a26:	4c81                	li	s9,0
   19a28:	c83a                	sw	a4,16(sp)
   19a2a:	0007ad03          	lw	s10,0(a5)
   19a2e:	4705                	li	a4,1
   19a30:	f50ff06f          	j	19180 <_vfiprintf_r+0x3e4>
   19a34:	47c2                	lw	a5,16(sp)
   19a36:	c83a                	sw	a4,16(sp)
   19a38:	0007ad03          	lw	s10,0(a5)
   19a3c:	41fd5c93          	srai	s9,s10,0x1f
   19a40:	8766                	mv	a4,s9
   19a42:	e76ff06f          	j	190b8 <_vfiprintf_r+0x31c>
   19a46:	47c2                	lw	a5,16(sp)
   19a48:	4c81                	li	s9,0
   19a4a:	c836                	sw	a3,16(sp)
   19a4c:	0007ad03          	lw	s10,0(a5)
   19a50:	bd99                	j	198a6 <_vfiprintf_r+0xb0a>
   19a52:	0090                	addi	a2,sp,64
   19a54:	85ce                	mv	a1,s3
   19a56:	8552                	mv	a0,s4
   19a58:	a9eff0ef          	jal	ra,18cf6 <__sprint_r.part.0>
   19a5c:	dc2ff06f          	j	1901e <_vfiprintf_r+0x282>
   19a60:	8d56                	mv	s10,s5
   19a62:	c86e                	sw	s11,16(sp)
   19a64:	4a81                	li	s5,0
   19a66:	e84ff06f          	j	190ea <_vfiprintf_r+0x34e>
   19a6a:	85b6                	mv	a1,a3
   19a6c:	bec9                	j	1963e <_vfiprintf_r+0x8a2>
   19a6e:	00160593          	addi	a1,a2,1
   19a72:	b9b9                	j	196d0 <_vfiprintf_r+0x934>
   19a74:	8dda                	mv	s11,s6
   19a76:	e64ff06f          	j	190da <_vfiprintf_r+0x33e>
   19a7a:	57fd                	li	a5,-1
   19a7c:	c63e                	sw	a5,12(sp)
   19a7e:	dacff06f          	j	1902a <_vfiprintf_r+0x28e>
   19a82:	8536                	mv	a0,a3
   19a84:	85b2                	mv	a1,a2
   19a86:	b405                	j	194a6 <_vfiprintf_r+0x70a>
   19a88:	47c2                	lw	a5,16(sp)
   19a8a:	0007aa83          	lw	s5,0(a5)
   19a8e:	0791                	addi	a5,a5,4
   19a90:	000ad363          	bgez	s5,19a96 <_vfiprintf_r+0xcfa>
   19a94:	5afd                	li	s5,-1
   19a96:	001c4703          	lbu	a4,1(s8)
   19a9a:	c83e                	sw	a5,16(sp)
   19a9c:	8c36                	mv	s8,a3
   19a9e:	c36ff06f          	j	18ed4 <_vfiprintf_r+0x138>

00019aa2 <vfiprintf>:
   19aa2:	87aa                	mv	a5,a0
   19aa4:	1c01a503          	lw	a0,448(gp) # 20ec0 <_impure_ptr>
   19aa8:	86b2                	mv	a3,a2
   19aaa:	862e                	mv	a2,a1
   19aac:	85be                	mv	a1,a5
   19aae:	aeeff06f          	j	18d9c <_vfiprintf_r>

00019ab2 <__sbprintf>:
   19ab2:	00c5d783          	lhu	a5,12(a1)
   19ab6:	0645ae03          	lw	t3,100(a1)
   19aba:	00e5d303          	lhu	t1,14(a1)
   19abe:	01c5a883          	lw	a7,28(a1)
   19ac2:	0245a803          	lw	a6,36(a1)
   19ac6:	b8010113          	addi	sp,sp,-1152
   19aca:	9bf5                	andi	a5,a5,-3
   19acc:	40000713          	li	a4,1024
   19ad0:	46812c23          	sw	s0,1144(sp)
   19ad4:	00f11a23          	sh	a5,20(sp)
   19ad8:	842e                	mv	s0,a1
   19ada:	189c                	addi	a5,sp,112
   19adc:	002c                	addi	a1,sp,8
   19ade:	46912a23          	sw	s1,1140(sp)
   19ae2:	47212823          	sw	s2,1136(sp)
   19ae6:	46112e23          	sw	ra,1148(sp)
   19aea:	892a                	mv	s2,a0
   19aec:	d6f2                	sw	t3,108(sp)
   19aee:	00611b23          	sh	t1,22(sp)
   19af2:	d246                	sw	a7,36(sp)
   19af4:	d642                	sw	a6,44(sp)
   19af6:	c43e                	sw	a5,8(sp)
   19af8:	cc3e                	sw	a5,24(sp)
   19afa:	c83a                	sw	a4,16(sp)
   19afc:	ce3a                	sw	a4,28(sp)
   19afe:	d002                	sw	zero,32(sp)
   19b00:	a9cff0ef          	jal	ra,18d9c <_vfiprintf_r>
   19b04:	84aa                	mv	s1,a0
   19b06:	02055963          	bgez	a0,19b38 <__sbprintf+0x86>
   19b0a:	01415783          	lhu	a5,20(sp)
   19b0e:	0407f793          	andi	a5,a5,64
   19b12:	c799                	beqz	a5,19b20 <__sbprintf+0x6e>
   19b14:	00c45783          	lhu	a5,12(s0)
   19b18:	0407e793          	ori	a5,a5,64
   19b1c:	00f41623          	sh	a5,12(s0)
   19b20:	47c12083          	lw	ra,1148(sp)
   19b24:	47812403          	lw	s0,1144(sp)
   19b28:	47012903          	lw	s2,1136(sp)
   19b2c:	8526                	mv	a0,s1
   19b2e:	47412483          	lw	s1,1140(sp)
   19b32:	48010113          	addi	sp,sp,1152
   19b36:	8082                	ret
   19b38:	002c                	addi	a1,sp,8
   19b3a:	854a                	mv	a0,s2
   19b3c:	c11f80ef          	jal	ra,1274c <_fflush_r>
   19b40:	d569                	beqz	a0,19b0a <__sbprintf+0x58>
   19b42:	54fd                	li	s1,-1
   19b44:	b7d9                	j	19b0a <__sbprintf+0x58>

00019b46 <_wctomb_r>:
   19b46:	d081a783          	lw	a5,-760(gp) # 20a08 <__global_locale+0xe0>
   19b4a:	8782                	jr	a5

00019b4c <__ascii_wctomb>:
   19b4c:	cd91                	beqz	a1,19b68 <__ascii_wctomb+0x1c>
   19b4e:	0ff00793          	li	a5,255
   19b52:	00c7e663          	bltu	a5,a2,19b5e <__ascii_wctomb+0x12>
   19b56:	00c58023          	sb	a2,0(a1)
   19b5a:	4505                	li	a0,1
   19b5c:	8082                	ret
   19b5e:	08a00793          	li	a5,138
   19b62:	c11c                	sw	a5,0(a0)
   19b64:	557d                	li	a0,-1
   19b66:	8082                	ret
   19b68:	4501                	li	a0,0
   19b6a:	8082                	ret

00019b6c <_write_r>:
   19b6c:	1141                	addi	sp,sp,-16
   19b6e:	872e                	mv	a4,a1
   19b70:	c422                	sw	s0,8(sp)
   19b72:	c226                	sw	s1,4(sp)
   19b74:	85b2                	mv	a1,a2
   19b76:	842a                	mv	s0,a0
   19b78:	8636                	mv	a2,a3
   19b7a:	853a                	mv	a0,a4
   19b7c:	c606                	sw	ra,12(sp)
   19b7e:	1c01ae23          	sw	zero,476(gp) # 20edc <errno>
   19b82:	0d7010ef          	jal	ra,1b458 <_write>
   19b86:	57fd                	li	a5,-1
   19b88:	00f50763          	beq	a0,a5,19b96 <_write_r+0x2a>
   19b8c:	40b2                	lw	ra,12(sp)
   19b8e:	4422                	lw	s0,8(sp)
   19b90:	4492                	lw	s1,4(sp)
   19b92:	0141                	addi	sp,sp,16
   19b94:	8082                	ret
   19b96:	1dc1a783          	lw	a5,476(gp) # 20edc <errno>
   19b9a:	dbed                	beqz	a5,19b8c <_write_r+0x20>
   19b9c:	40b2                	lw	ra,12(sp)
   19b9e:	c01c                	sw	a5,0(s0)
   19ba0:	4422                	lw	s0,8(sp)
   19ba2:	4492                	lw	s1,4(sp)
   19ba4:	0141                	addi	sp,sp,16
   19ba6:	8082                	ret

00019ba8 <__assert_func>:
   19ba8:	1c01a703          	lw	a4,448(gp) # 20ec0 <_impure_ptr>
   19bac:	1141                	addi	sp,sp,-16
   19bae:	87b6                	mv	a5,a3
   19bb0:	8832                	mv	a6,a2
   19bb2:	c606                	sw	ra,12(sp)
   19bb4:	00c72883          	lw	a7,12(a4)
   19bb8:	86aa                	mv	a3,a0
   19bba:	872e                	mv	a4,a1
   19bbc:	863e                	mv	a2,a5
   19bbe:	00080e63          	beqz	a6,19bda <__assert_func+0x32>
   19bc2:	0001f7b7          	lui	a5,0x1f
   19bc6:	03078793          	addi	a5,a5,48 # 1f030 <zeroes.0+0x10>
   19bca:	0001f5b7          	lui	a1,0x1f
   19bce:	04058593          	addi	a1,a1,64 # 1f040 <zeroes.0+0x20>
   19bd2:	8546                	mv	a0,a7
   19bd4:	2435                	jal	19e00 <fiprintf>
   19bd6:	312010ef          	jal	ra,1aee8 <abort>
   19bda:	0001f837          	lui	a6,0x1f
   19bde:	03c80793          	addi	a5,a6,60 # 1f03c <zeroes.0+0x1c>
   19be2:	03c80813          	addi	a6,a6,60
   19be6:	b7d5                	j	19bca <__assert_func+0x22>

00019be8 <__assert>:
   19be8:	1141                	addi	sp,sp,-16
   19bea:	86b2                	mv	a3,a2
   19bec:	4601                	li	a2,0
   19bee:	c606                	sw	ra,12(sp)
   19bf0:	3f65                	jal	19ba8 <__assert_func>

00019bf2 <atexit>:
   19bf2:	85aa                	mv	a1,a0
   19bf4:	4681                	li	a3,0
   19bf6:	4601                	li	a2,0
   19bf8:	4501                	li	a0,0
   19bfa:	2fa0106f          	j	1aef4 <__register_exitproc>

00019bfe <_calloc_r>:
   19bfe:	02c5b7b3          	mulhu	a5,a1,a2
   19c02:	1141                	addi	sp,sp,-16
   19c04:	c606                	sw	ra,12(sp)
   19c06:	c422                	sw	s0,8(sp)
   19c08:	02c585b3          	mul	a1,a1,a2
   19c0c:	efa5                	bnez	a5,19c84 <_calloc_r+0x86>
   19c0e:	ff8fb0ef          	jal	ra,15406 <_malloc_r>
   19c12:	842a                	mv	s0,a0
   19c14:	c131                	beqz	a0,19c58 <_calloc_r+0x5a>
   19c16:	ffc52603          	lw	a2,-4(a0)
   19c1a:	02400713          	li	a4,36
   19c1e:	9a71                	andi	a2,a2,-4
   19c20:	1671                	addi	a2,a2,-4
   19c22:	04c76063          	bltu	a4,a2,19c62 <_calloc_r+0x64>
   19c26:	46cd                	li	a3,19
   19c28:	87aa                	mv	a5,a0
   19c2a:	02c6f163          	bgeu	a3,a2,19c4c <_calloc_r+0x4e>
   19c2e:	00052023          	sw	zero,0(a0)
   19c32:	00052223          	sw	zero,4(a0)
   19c36:	47ed                	li	a5,27
   19c38:	02c7fd63          	bgeu	a5,a2,19c72 <_calloc_r+0x74>
   19c3c:	00052423          	sw	zero,8(a0)
   19c40:	00052623          	sw	zero,12(a0)
   19c44:	01050793          	addi	a5,a0,16
   19c48:	04e60763          	beq	a2,a4,19c96 <_calloc_r+0x98>
   19c4c:	0007a023          	sw	zero,0(a5)
   19c50:	0007a223          	sw	zero,4(a5)
   19c54:	0007a423          	sw	zero,8(a5)
   19c58:	40b2                	lw	ra,12(sp)
   19c5a:	8522                	mv	a0,s0
   19c5c:	4422                	lw	s0,8(sp)
   19c5e:	0141                	addi	sp,sp,16
   19c60:	8082                	ret
   19c62:	4581                	li	a1,0
   19c64:	e86f60ef          	jal	ra,102ea <memset>
   19c68:	40b2                	lw	ra,12(sp)
   19c6a:	8522                	mv	a0,s0
   19c6c:	4422                	lw	s0,8(sp)
   19c6e:	0141                	addi	sp,sp,16
   19c70:	8082                	ret
   19c72:	00850793          	addi	a5,a0,8
   19c76:	0007a023          	sw	zero,0(a5)
   19c7a:	0007a223          	sw	zero,4(a5)
   19c7e:	0007a423          	sw	zero,8(a5)
   19c82:	bfd9                	j	19c58 <_calloc_r+0x5a>
   19c84:	2899                	jal	19cda <__errno>
   19c86:	4401                	li	s0,0
   19c88:	47b1                	li	a5,12
   19c8a:	40b2                	lw	ra,12(sp)
   19c8c:	c11c                	sw	a5,0(a0)
   19c8e:	8522                	mv	a0,s0
   19c90:	4422                	lw	s0,8(sp)
   19c92:	0141                	addi	sp,sp,16
   19c94:	8082                	ret
   19c96:	00052823          	sw	zero,16(a0)
   19c9a:	01850793          	addi	a5,a0,24
   19c9e:	00052a23          	sw	zero,20(a0)
   19ca2:	b76d                	j	19c4c <_calloc_r+0x4e>

00019ca4 <_close_r>:
   19ca4:	1141                	addi	sp,sp,-16
   19ca6:	c422                	sw	s0,8(sp)
   19ca8:	c226                	sw	s1,4(sp)
   19caa:	842a                	mv	s0,a0
   19cac:	852e                	mv	a0,a1
   19cae:	c606                	sw	ra,12(sp)
   19cb0:	1c01ae23          	sw	zero,476(gp) # 20edc <errno>
   19cb4:	634010ef          	jal	ra,1b2e8 <_close>
   19cb8:	57fd                	li	a5,-1
   19cba:	00f50763          	beq	a0,a5,19cc8 <_close_r+0x24>
   19cbe:	40b2                	lw	ra,12(sp)
   19cc0:	4422                	lw	s0,8(sp)
   19cc2:	4492                	lw	s1,4(sp)
   19cc4:	0141                	addi	sp,sp,16
   19cc6:	8082                	ret
   19cc8:	1dc1a783          	lw	a5,476(gp) # 20edc <errno>
   19ccc:	dbed                	beqz	a5,19cbe <_close_r+0x1a>
   19cce:	40b2                	lw	ra,12(sp)
   19cd0:	c01c                	sw	a5,0(s0)
   19cd2:	4422                	lw	s0,8(sp)
   19cd4:	4492                	lw	s1,4(sp)
   19cd6:	0141                	addi	sp,sp,16
   19cd8:	8082                	ret

00019cda <__errno>:
   19cda:	1c01a503          	lw	a0,448(gp) # 20ec0 <_impure_ptr>
   19cde:	8082                	ret

00019ce0 <_fclose_r.part.0>:
   19ce0:	1141                	addi	sp,sp,-16
   19ce2:	c422                	sw	s0,8(sp)
   19ce4:	c226                	sw	s1,4(sp)
   19ce6:	c04a                	sw	s2,0(sp)
   19ce8:	842e                	mv	s0,a1
   19cea:	c606                	sw	ra,12(sp)
   19cec:	84aa                	mv	s1,a0
   19cee:	8cbf80ef          	jal	ra,125b8 <__sflush_r>
   19cf2:	545c                	lw	a5,44(s0)
   19cf4:	892a                	mv	s2,a0
   19cf6:	c791                	beqz	a5,19d02 <_fclose_r.part.0+0x22>
   19cf8:	4c4c                	lw	a1,28(s0)
   19cfa:	8526                	mv	a0,s1
   19cfc:	9782                	jalr	a5
   19cfe:	04054663          	bltz	a0,19d4a <_fclose_r.part.0+0x6a>
   19d02:	00c45783          	lhu	a5,12(s0)
   19d06:	0807f793          	andi	a5,a5,128
   19d0a:	e7b1                	bnez	a5,19d56 <_fclose_r.part.0+0x76>
   19d0c:	580c                	lw	a1,48(s0)
   19d0e:	c991                	beqz	a1,19d22 <_fclose_r.part.0+0x42>
   19d10:	04040793          	addi	a5,s0,64
   19d14:	00f58563          	beq	a1,a5,19d1e <_fclose_r.part.0+0x3e>
   19d18:	8526                	mv	a0,s1
   19d1a:	e45f80ef          	jal	ra,12b5e <_free_r>
   19d1e:	02042823          	sw	zero,48(s0)
   19d22:	406c                	lw	a1,68(s0)
   19d24:	c591                	beqz	a1,19d30 <_fclose_r.part.0+0x50>
   19d26:	8526                	mv	a0,s1
   19d28:	e37f80ef          	jal	ra,12b5e <_free_r>
   19d2c:	04042223          	sw	zero,68(s0)
   19d30:	d0df80ef          	jal	ra,12a3c <__sfp_lock_acquire>
   19d34:	00041623          	sh	zero,12(s0)
   19d38:	d07f80ef          	jal	ra,12a3e <__sfp_lock_release>
   19d3c:	40b2                	lw	ra,12(sp)
   19d3e:	4422                	lw	s0,8(sp)
   19d40:	4492                	lw	s1,4(sp)
   19d42:	854a                	mv	a0,s2
   19d44:	4902                	lw	s2,0(sp)
   19d46:	0141                	addi	sp,sp,16
   19d48:	8082                	ret
   19d4a:	00c45783          	lhu	a5,12(s0)
   19d4e:	597d                	li	s2,-1
   19d50:	0807f793          	andi	a5,a5,128
   19d54:	dfc5                	beqz	a5,19d0c <_fclose_r.part.0+0x2c>
   19d56:	480c                	lw	a1,16(s0)
   19d58:	8526                	mv	a0,s1
   19d5a:	e05f80ef          	jal	ra,12b5e <_free_r>
   19d5e:	b77d                	j	19d0c <_fclose_r.part.0+0x2c>

00019d60 <_fclose_r>:
   19d60:	cd8d                	beqz	a1,19d9a <_fclose_r+0x3a>
   19d62:	1101                	addi	sp,sp,-32
   19d64:	cc22                	sw	s0,24(sp)
   19d66:	ce06                	sw	ra,28(sp)
   19d68:	842a                	mv	s0,a0
   19d6a:	c119                	beqz	a0,19d70 <_fclose_r+0x10>
   19d6c:	5d1c                	lw	a5,56(a0)
   19d6e:	cf91                	beqz	a5,19d8a <_fclose_r+0x2a>
   19d70:	00c59783          	lh	a5,12(a1)
   19d74:	e791                	bnez	a5,19d80 <_fclose_r+0x20>
   19d76:	40f2                	lw	ra,28(sp)
   19d78:	4462                	lw	s0,24(sp)
   19d7a:	4501                	li	a0,0
   19d7c:	6105                	addi	sp,sp,32
   19d7e:	8082                	ret
   19d80:	8522                	mv	a0,s0
   19d82:	4462                	lw	s0,24(sp)
   19d84:	40f2                	lw	ra,28(sp)
   19d86:	6105                	addi	sp,sp,32
   19d88:	bfa1                	j	19ce0 <_fclose_r.part.0>
   19d8a:	c62e                	sw	a1,12(sp)
   19d8c:	ca9f80ef          	jal	ra,12a34 <__sinit>
   19d90:	45b2                	lw	a1,12(sp)
   19d92:	00c59783          	lh	a5,12(a1)
   19d96:	d3e5                	beqz	a5,19d76 <_fclose_r+0x16>
   19d98:	b7e5                	j	19d80 <_fclose_r+0x20>
   19d9a:	4501                	li	a0,0
   19d9c:	8082                	ret

00019d9e <fclose>:
   19d9e:	cd1d                	beqz	a0,19ddc <fclose+0x3e>
   19da0:	1101                	addi	sp,sp,-32
   19da2:	cc22                	sw	s0,24(sp)
   19da4:	842a                	mv	s0,a0
   19da6:	1c01a503          	lw	a0,448(gp) # 20ec0 <_impure_ptr>
   19daa:	ce06                	sw	ra,28(sp)
   19dac:	c119                	beqz	a0,19db2 <fclose+0x14>
   19dae:	5d1c                	lw	a5,56(a0)
   19db0:	cf91                	beqz	a5,19dcc <fclose+0x2e>
   19db2:	00c41783          	lh	a5,12(s0)
   19db6:	e791                	bnez	a5,19dc2 <fclose+0x24>
   19db8:	40f2                	lw	ra,28(sp)
   19dba:	4462                	lw	s0,24(sp)
   19dbc:	4501                	li	a0,0
   19dbe:	6105                	addi	sp,sp,32
   19dc0:	8082                	ret
   19dc2:	85a2                	mv	a1,s0
   19dc4:	4462                	lw	s0,24(sp)
   19dc6:	40f2                	lw	ra,28(sp)
   19dc8:	6105                	addi	sp,sp,32
   19dca:	bf19                	j	19ce0 <_fclose_r.part.0>
   19dcc:	c62a                	sw	a0,12(sp)
   19dce:	c67f80ef          	jal	ra,12a34 <__sinit>
   19dd2:	00c41783          	lh	a5,12(s0)
   19dd6:	4532                	lw	a0,12(sp)
   19dd8:	d3e5                	beqz	a5,19db8 <fclose+0x1a>
   19dda:	b7e5                	j	19dc2 <fclose+0x24>
   19ddc:	4501                	li	a0,0
   19dde:	8082                	ret

00019de0 <_fiprintf_r>:
   19de0:	7139                	addi	sp,sp,-64
   19de2:	02c10313          	addi	t1,sp,44
   19de6:	d636                	sw	a3,44(sp)
   19de8:	869a                	mv	a3,t1
   19dea:	ce06                	sw	ra,28(sp)
   19dec:	d83a                	sw	a4,48(sp)
   19dee:	da3e                	sw	a5,52(sp)
   19df0:	dc42                	sw	a6,56(sp)
   19df2:	de46                	sw	a7,60(sp)
   19df4:	c61a                	sw	t1,12(sp)
   19df6:	fa7fe0ef          	jal	ra,18d9c <_vfiprintf_r>
   19dfa:	40f2                	lw	ra,28(sp)
   19dfc:	6121                	addi	sp,sp,64
   19dfe:	8082                	ret

00019e00 <fiprintf>:
   19e00:	8e2a                	mv	t3,a0
   19e02:	7139                	addi	sp,sp,-64
   19e04:	1c01a503          	lw	a0,448(gp) # 20ec0 <_impure_ptr>
   19e08:	02810313          	addi	t1,sp,40
   19e0c:	d432                	sw	a2,40(sp)
   19e0e:	d636                	sw	a3,44(sp)
   19e10:	862e                	mv	a2,a1
   19e12:	869a                	mv	a3,t1
   19e14:	85f2                	mv	a1,t3
   19e16:	ce06                	sw	ra,28(sp)
   19e18:	d83a                	sw	a4,48(sp)
   19e1a:	da3e                	sw	a5,52(sp)
   19e1c:	dc42                	sw	a6,56(sp)
   19e1e:	de46                	sw	a7,60(sp)
   19e20:	c61a                	sw	t1,12(sp)
   19e22:	f7bfe0ef          	jal	ra,18d9c <_vfiprintf_r>
   19e26:	40f2                	lw	ra,28(sp)
   19e28:	6121                	addi	sp,sp,64
   19e2a:	8082                	ret

00019e2c <__fputwc>:
   19e2c:	7179                	addi	sp,sp,-48
   19e2e:	d422                	sw	s0,40(sp)
   19e30:	ce4e                	sw	s3,28(sp)
   19e32:	c85a                	sw	s6,16(sp)
   19e34:	d606                	sw	ra,44(sp)
   19e36:	d226                	sw	s1,36(sp)
   19e38:	d04a                	sw	s2,32(sp)
   19e3a:	cc52                	sw	s4,24(sp)
   19e3c:	ca56                	sw	s5,20(sp)
   19e3e:	8b2a                	mv	s6,a0
   19e40:	89ae                	mv	s3,a1
   19e42:	8432                	mv	s0,a2
   19e44:	bdcfb0ef          	jal	ra,15220 <__locale_mb_cur_max>
   19e48:	4785                	li	a5,1
   19e4a:	00f51e63          	bne	a0,a5,19e66 <__fputwc+0x3a>
   19e4e:	fff98793          	addi	a5,s3,-1
   19e52:	0fe00713          	li	a4,254
   19e56:	00f76863          	bltu	a4,a5,19e66 <__fputwc+0x3a>
   19e5a:	0ff9f713          	andi	a4,s3,255
   19e5e:	00e10623          	sb	a4,12(sp)
   19e62:	4905                	li	s2,1
   19e64:	a839                	j	19e82 <__fputwc+0x56>
   19e66:	05c40693          	addi	a3,s0,92
   19e6a:	864e                	mv	a2,s3
   19e6c:	006c                	addi	a1,sp,12
   19e6e:	855a                	mv	a0,s6
   19e70:	7e3000ef          	jal	ra,1ae52 <_wcrtomb_r>
   19e74:	57fd                	li	a5,-1
   19e76:	892a                	mv	s2,a0
   19e78:	06f50563          	beq	a0,a5,19ee2 <__fputwc+0xb6>
   19e7c:	c12d                	beqz	a0,19ede <__fputwc+0xb2>
   19e7e:	00c14703          	lbu	a4,12(sp)
   19e82:	4481                	li	s1,0
   19e84:	5a7d                	li	s4,-1
   19e86:	4aa9                	li	s5,10
   19e88:	a831                	j	19ea4 <__fputwc+0x78>
   19e8a:	401c                	lw	a5,0(s0)
   19e8c:	00178693          	addi	a3,a5,1
   19e90:	c014                	sw	a3,0(s0)
   19e92:	00e78023          	sb	a4,0(a5)
   19e96:	0485                	addi	s1,s1,1
   19e98:	007c                	addi	a5,sp,12
   19e9a:	97a6                	add	a5,a5,s1
   19e9c:	0524f163          	bgeu	s1,s2,19ede <__fputwc+0xb2>
   19ea0:	0007c703          	lbu	a4,0(a5)
   19ea4:	441c                	lw	a5,8(s0)
   19ea6:	17fd                	addi	a5,a5,-1
   19ea8:	c41c                	sw	a5,8(s0)
   19eaa:	fe07d0e3          	bgez	a5,19e8a <__fputwc+0x5e>
   19eae:	4c14                	lw	a3,24(s0)
   19eb0:	85ba                	mv	a1,a4
   19eb2:	8622                	mv	a2,s0
   19eb4:	855a                	mv	a0,s6
   19eb6:	00d7c463          	blt	a5,a3,19ebe <__fputwc+0x92>
   19eba:	fd5718e3          	bne	a4,s5,19e8a <__fputwc+0x5e>
   19ebe:	c4cf80ef          	jal	ra,1230a <__swbuf_r>
   19ec2:	fd451ae3          	bne	a0,s4,19e96 <__fputwc+0x6a>
   19ec6:	597d                	li	s2,-1
   19ec8:	50b2                	lw	ra,44(sp)
   19eca:	5422                	lw	s0,40(sp)
   19ecc:	5492                	lw	s1,36(sp)
   19ece:	49f2                	lw	s3,28(sp)
   19ed0:	4a62                	lw	s4,24(sp)
   19ed2:	4ad2                	lw	s5,20(sp)
   19ed4:	4b42                	lw	s6,16(sp)
   19ed6:	854a                	mv	a0,s2
   19ed8:	5902                	lw	s2,32(sp)
   19eda:	6145                	addi	sp,sp,48
   19edc:	8082                	ret
   19ede:	894e                	mv	s2,s3
   19ee0:	b7e5                	j	19ec8 <__fputwc+0x9c>
   19ee2:	00c45783          	lhu	a5,12(s0)
   19ee6:	0407e793          	ori	a5,a5,64
   19eea:	00f41623          	sh	a5,12(s0)
   19eee:	bfe9                	j	19ec8 <__fputwc+0x9c>

00019ef0 <_fputwc_r>:
   19ef0:	00c61783          	lh	a5,12(a2)
   19ef4:	01279713          	slli	a4,a5,0x12
   19ef8:	00074a63          	bltz	a4,19f0c <_fputwc_r+0x1c>
   19efc:	5278                	lw	a4,100(a2)
   19efe:	6689                	lui	a3,0x2
   19f00:	8fd5                	or	a5,a5,a3
   19f02:	6689                	lui	a3,0x2
   19f04:	8f55                	or	a4,a4,a3
   19f06:	00f61623          	sh	a5,12(a2)
   19f0a:	d278                	sw	a4,100(a2)
   19f0c:	b705                	j	19e2c <__fputwc>

00019f0e <fputwc>:
   19f0e:	1101                	addi	sp,sp,-32
   19f10:	cc22                	sw	s0,24(sp)
   19f12:	1c01a403          	lw	s0,448(gp) # 20ec0 <_impure_ptr>
   19f16:	ce06                	sw	ra,28(sp)
   19f18:	862e                	mv	a2,a1
   19f1a:	85aa                	mv	a1,a0
   19f1c:	c019                	beqz	s0,19f22 <fputwc+0x14>
   19f1e:	5c1c                	lw	a5,56(s0)
   19f20:	c785                	beqz	a5,19f48 <fputwc+0x3a>
   19f22:	00c61783          	lh	a5,12(a2)
   19f26:	01279713          	slli	a4,a5,0x12
   19f2a:	00074a63          	bltz	a4,19f3e <fputwc+0x30>
   19f2e:	5278                	lw	a4,100(a2)
   19f30:	6689                	lui	a3,0x2
   19f32:	8fd5                	or	a5,a5,a3
   19f34:	6689                	lui	a3,0x2
   19f36:	8f55                	or	a4,a4,a3
   19f38:	00f61623          	sh	a5,12(a2)
   19f3c:	d278                	sw	a4,100(a2)
   19f3e:	8522                	mv	a0,s0
   19f40:	4462                	lw	s0,24(sp)
   19f42:	40f2                	lw	ra,28(sp)
   19f44:	6105                	addi	sp,sp,32
   19f46:	b5dd                	j	19e2c <__fputwc>
   19f48:	c42a                	sw	a0,8(sp)
   19f4a:	8522                	mv	a0,s0
   19f4c:	c632                	sw	a2,12(sp)
   19f4e:	ae7f80ef          	jal	ra,12a34 <__sinit>
   19f52:	4632                	lw	a2,12(sp)
   19f54:	45a2                	lw	a1,8(sp)
   19f56:	b7f1                	j	19f22 <fputwc+0x14>

00019f58 <_fstat_r>:
   19f58:	1141                	addi	sp,sp,-16
   19f5a:	872e                	mv	a4,a1
   19f5c:	c422                	sw	s0,8(sp)
   19f5e:	c226                	sw	s1,4(sp)
   19f60:	842a                	mv	s0,a0
   19f62:	85b2                	mv	a1,a2
   19f64:	853a                	mv	a0,a4
   19f66:	c606                	sw	ra,12(sp)
   19f68:	1c01ae23          	sw	zero,476(gp) # 20edc <errno>
   19f6c:	3ca010ef          	jal	ra,1b336 <_fstat>
   19f70:	57fd                	li	a5,-1
   19f72:	00f50763          	beq	a0,a5,19f80 <_fstat_r+0x28>
   19f76:	40b2                	lw	ra,12(sp)
   19f78:	4422                	lw	s0,8(sp)
   19f7a:	4492                	lw	s1,4(sp)
   19f7c:	0141                	addi	sp,sp,16
   19f7e:	8082                	ret
   19f80:	1dc1a783          	lw	a5,476(gp) # 20edc <errno>
   19f84:	dbed                	beqz	a5,19f76 <_fstat_r+0x1e>
   19f86:	40b2                	lw	ra,12(sp)
   19f88:	c01c                	sw	a5,0(s0)
   19f8a:	4422                	lw	s0,8(sp)
   19f8c:	4492                	lw	s1,4(sp)
   19f8e:	0141                	addi	sp,sp,16
   19f90:	8082                	ret

00019f92 <_isatty_r>:
   19f92:	1141                	addi	sp,sp,-16
   19f94:	c422                	sw	s0,8(sp)
   19f96:	c226                	sw	s1,4(sp)
   19f98:	842a                	mv	s0,a0
   19f9a:	852e                	mv	a0,a1
   19f9c:	c606                	sw	ra,12(sp)
   19f9e:	1c01ae23          	sw	zero,476(gp) # 20edc <errno>
   19fa2:	3d2010ef          	jal	ra,1b374 <_isatty>
   19fa6:	57fd                	li	a5,-1
   19fa8:	00f50763          	beq	a0,a5,19fb6 <_isatty_r+0x24>
   19fac:	40b2                	lw	ra,12(sp)
   19fae:	4422                	lw	s0,8(sp)
   19fb0:	4492                	lw	s1,4(sp)
   19fb2:	0141                	addi	sp,sp,16
   19fb4:	8082                	ret
   19fb6:	1dc1a783          	lw	a5,476(gp) # 20edc <errno>
   19fba:	dbed                	beqz	a5,19fac <_isatty_r+0x1a>
   19fbc:	40b2                	lw	ra,12(sp)
   19fbe:	c01c                	sw	a5,0(s0)
   19fc0:	4422                	lw	s0,8(sp)
   19fc2:	4492                	lw	s1,4(sp)
   19fc4:	0141                	addi	sp,sp,16
   19fc6:	8082                	ret

00019fc8 <_lseek_r>:
   19fc8:	1141                	addi	sp,sp,-16
   19fca:	872e                	mv	a4,a1
   19fcc:	c422                	sw	s0,8(sp)
   19fce:	c226                	sw	s1,4(sp)
   19fd0:	85b2                	mv	a1,a2
   19fd2:	842a                	mv	s0,a0
   19fd4:	8636                	mv	a2,a3
   19fd6:	853a                	mv	a0,a4
   19fd8:	c606                	sw	ra,12(sp)
   19fda:	1c01ae23          	sw	zero,476(gp) # 20edc <errno>
   19fde:	3ce010ef          	jal	ra,1b3ac <_lseek>
   19fe2:	57fd                	li	a5,-1
   19fe4:	00f50763          	beq	a0,a5,19ff2 <_lseek_r+0x2a>
   19fe8:	40b2                	lw	ra,12(sp)
   19fea:	4422                	lw	s0,8(sp)
   19fec:	4492                	lw	s1,4(sp)
   19fee:	0141                	addi	sp,sp,16
   19ff0:	8082                	ret
   19ff2:	1dc1a783          	lw	a5,476(gp) # 20edc <errno>
   19ff6:	dbed                	beqz	a5,19fe8 <_lseek_r+0x20>
   19ff8:	40b2                	lw	ra,12(sp)
   19ffa:	c01c                	sw	a5,0(s0)
   19ffc:	4422                	lw	s0,8(sp)
   19ffe:	4492                	lw	s1,4(sp)
   1a000:	0141                	addi	sp,sp,16
   1a002:	8082                	ret

0001a004 <_read_r>:
   1a004:	1141                	addi	sp,sp,-16
   1a006:	872e                	mv	a4,a1
   1a008:	c422                	sw	s0,8(sp)
   1a00a:	c226                	sw	s1,4(sp)
   1a00c:	85b2                	mv	a1,a2
   1a00e:	842a                	mv	s0,a0
   1a010:	8636                	mv	a2,a3
   1a012:	853a                	mv	a0,a4
   1a014:	c606                	sw	ra,12(sp)
   1a016:	1c01ae23          	sw	zero,476(gp) # 20edc <errno>
   1a01a:	3be010ef          	jal	ra,1b3d8 <_read>
   1a01e:	57fd                	li	a5,-1
   1a020:	00f50763          	beq	a0,a5,1a02e <_read_r+0x2a>
   1a024:	40b2                	lw	ra,12(sp)
   1a026:	4422                	lw	s0,8(sp)
   1a028:	4492                	lw	s1,4(sp)
   1a02a:	0141                	addi	sp,sp,16
   1a02c:	8082                	ret
   1a02e:	1dc1a783          	lw	a5,476(gp) # 20edc <errno>
   1a032:	dbed                	beqz	a5,1a024 <_read_r+0x20>
   1a034:	40b2                	lw	ra,12(sp)
   1a036:	c01c                	sw	a5,0(s0)
   1a038:	4422                	lw	s0,8(sp)
   1a03a:	4492                	lw	s1,4(sp)
   1a03c:	0141                	addi	sp,sp,16
   1a03e:	8082                	ret

0001a040 <cleanup_glue>:
   1a040:	1101                	addi	sp,sp,-32
   1a042:	c84a                	sw	s2,16(sp)
   1a044:	0005a903          	lw	s2,0(a1)
   1a048:	cc22                	sw	s0,24(sp)
   1a04a:	ca26                	sw	s1,20(sp)
   1a04c:	ce06                	sw	ra,28(sp)
   1a04e:	c64e                	sw	s3,12(sp)
   1a050:	c452                	sw	s4,8(sp)
   1a052:	842e                	mv	s0,a1
   1a054:	84aa                	mv	s1,a0
   1a056:	02090a63          	beqz	s2,1a08a <cleanup_glue+0x4a>
   1a05a:	00092983          	lw	s3,0(s2)
   1a05e:	02098263          	beqz	s3,1a082 <cleanup_glue+0x42>
   1a062:	0009aa03          	lw	s4,0(s3)
   1a066:	000a0a63          	beqz	s4,1a07a <cleanup_glue+0x3a>
   1a06a:	000a2583          	lw	a1,0(s4)
   1a06e:	c191                	beqz	a1,1a072 <cleanup_glue+0x32>
   1a070:	3fc1                	jal	1a040 <cleanup_glue>
   1a072:	85d2                	mv	a1,s4
   1a074:	8526                	mv	a0,s1
   1a076:	ae9f80ef          	jal	ra,12b5e <_free_r>
   1a07a:	85ce                	mv	a1,s3
   1a07c:	8526                	mv	a0,s1
   1a07e:	ae1f80ef          	jal	ra,12b5e <_free_r>
   1a082:	85ca                	mv	a1,s2
   1a084:	8526                	mv	a0,s1
   1a086:	ad9f80ef          	jal	ra,12b5e <_free_r>
   1a08a:	85a2                	mv	a1,s0
   1a08c:	4462                	lw	s0,24(sp)
   1a08e:	40f2                	lw	ra,28(sp)
   1a090:	4942                	lw	s2,16(sp)
   1a092:	49b2                	lw	s3,12(sp)
   1a094:	4a22                	lw	s4,8(sp)
   1a096:	8526                	mv	a0,s1
   1a098:	44d2                	lw	s1,20(sp)
   1a09a:	6105                	addi	sp,sp,32
   1a09c:	ac3f806f          	j	12b5e <_free_r>

0001a0a0 <_reclaim_reent>:
   1a0a0:	1c01a783          	lw	a5,448(gp) # 20ec0 <_impure_ptr>
   1a0a4:	0aa78463          	beq	a5,a0,1a14c <_reclaim_reent+0xac>
   1a0a8:	456c                	lw	a1,76(a0)
   1a0aa:	1101                	addi	sp,sp,-32
   1a0ac:	ca26                	sw	s1,20(sp)
   1a0ae:	ce06                	sw	ra,28(sp)
   1a0b0:	cc22                	sw	s0,24(sp)
   1a0b2:	c84a                	sw	s2,16(sp)
   1a0b4:	c64e                	sw	s3,12(sp)
   1a0b6:	84aa                	mv	s1,a0
   1a0b8:	c58d                	beqz	a1,1a0e2 <_reclaim_reent+0x42>
   1a0ba:	4901                	li	s2,0
   1a0bc:	08000993          	li	s3,128
   1a0c0:	012587b3          	add	a5,a1,s2
   1a0c4:	4380                	lw	s0,0(a5)
   1a0c6:	c801                	beqz	s0,1a0d6 <_reclaim_reent+0x36>
   1a0c8:	85a2                	mv	a1,s0
   1a0ca:	4000                	lw	s0,0(s0)
   1a0cc:	8526                	mv	a0,s1
   1a0ce:	a91f80ef          	jal	ra,12b5e <_free_r>
   1a0d2:	f87d                	bnez	s0,1a0c8 <_reclaim_reent+0x28>
   1a0d4:	44ec                	lw	a1,76(s1)
   1a0d6:	0911                	addi	s2,s2,4
   1a0d8:	ff3914e3          	bne	s2,s3,1a0c0 <_reclaim_reent+0x20>
   1a0dc:	8526                	mv	a0,s1
   1a0de:	a81f80ef          	jal	ra,12b5e <_free_r>
   1a0e2:	40ac                	lw	a1,64(s1)
   1a0e4:	c581                	beqz	a1,1a0ec <_reclaim_reent+0x4c>
   1a0e6:	8526                	mv	a0,s1
   1a0e8:	a77f80ef          	jal	ra,12b5e <_free_r>
   1a0ec:	1484a403          	lw	s0,328(s1)
   1a0f0:	cc01                	beqz	s0,1a108 <_reclaim_reent+0x68>
   1a0f2:	14c48913          	addi	s2,s1,332
   1a0f6:	01240963          	beq	s0,s2,1a108 <_reclaim_reent+0x68>
   1a0fa:	85a2                	mv	a1,s0
   1a0fc:	4000                	lw	s0,0(s0)
   1a0fe:	8526                	mv	a0,s1
   1a100:	a5ff80ef          	jal	ra,12b5e <_free_r>
   1a104:	fe891be3          	bne	s2,s0,1a0fa <_reclaim_reent+0x5a>
   1a108:	48ec                	lw	a1,84(s1)
   1a10a:	c581                	beqz	a1,1a112 <_reclaim_reent+0x72>
   1a10c:	8526                	mv	a0,s1
   1a10e:	a51f80ef          	jal	ra,12b5e <_free_r>
   1a112:	5c9c                	lw	a5,56(s1)
   1a114:	c78d                	beqz	a5,1a13e <_reclaim_reent+0x9e>
   1a116:	5cdc                	lw	a5,60(s1)
   1a118:	8526                	mv	a0,s1
   1a11a:	9782                	jalr	a5
   1a11c:	2e04a403          	lw	s0,736(s1)
   1a120:	cc19                	beqz	s0,1a13e <_reclaim_reent+0x9e>
   1a122:	400c                	lw	a1,0(s0)
   1a124:	c199                	beqz	a1,1a12a <_reclaim_reent+0x8a>
   1a126:	8526                	mv	a0,s1
   1a128:	3f21                	jal	1a040 <cleanup_glue>
   1a12a:	85a2                	mv	a1,s0
   1a12c:	4462                	lw	s0,24(sp)
   1a12e:	40f2                	lw	ra,28(sp)
   1a130:	4942                	lw	s2,16(sp)
   1a132:	49b2                	lw	s3,12(sp)
   1a134:	8526                	mv	a0,s1
   1a136:	44d2                	lw	s1,20(sp)
   1a138:	6105                	addi	sp,sp,32
   1a13a:	a25f806f          	j	12b5e <_free_r>
   1a13e:	40f2                	lw	ra,28(sp)
   1a140:	4462                	lw	s0,24(sp)
   1a142:	44d2                	lw	s1,20(sp)
   1a144:	4942                	lw	s2,16(sp)
   1a146:	49b2                	lw	s3,12(sp)
   1a148:	6105                	addi	sp,sp,32
   1a14a:	8082                	ret
   1a14c:	8082                	ret

0001a14e <__ssprint_r>:
   1a14e:	461c                	lw	a5,8(a2)
   1a150:	7179                	addi	sp,sp,-48
   1a152:	ca56                	sw	s5,20(sp)
   1a154:	d606                	sw	ra,44(sp)
   1a156:	d422                	sw	s0,40(sp)
   1a158:	d226                	sw	s1,36(sp)
   1a15a:	d04a                	sw	s2,32(sp)
   1a15c:	ce4e                	sw	s3,28(sp)
   1a15e:	cc52                	sw	s4,24(sp)
   1a160:	c85a                	sw	s6,16(sp)
   1a162:	c65e                	sw	s7,12(sp)
   1a164:	c462                	sw	s8,8(sp)
   1a166:	8ab2                	mv	s5,a2
   1a168:	0e078a63          	beqz	a5,1a25c <__ssprint_r+0x10e>
   1a16c:	8b2a                	mv	s6,a0
   1a16e:	00062983          	lw	s3,0(a2)
   1a172:	4188                	lw	a0,0(a1)
   1a174:	4584                	lw	s1,8(a1)
   1a176:	842e                	mv	s0,a1
   1a178:	a869                	j	1a212 <__ssprint_r+0xc4>
   1a17a:	00c45783          	lhu	a5,12(s0)
   1a17e:	4807f713          	andi	a4,a5,1152
   1a182:	c72d                	beqz	a4,1a1ec <__ssprint_r+0x9e>
   1a184:	4854                	lw	a3,20(s0)
   1a186:	480c                	lw	a1,16(s0)
   1a188:	00190713          	addi	a4,s2,1
   1a18c:	00169493          	slli	s1,a3,0x1
   1a190:	96a6                	add	a3,a3,s1
   1a192:	01f6d493          	srli	s1,a3,0x1f
   1a196:	40b50a33          	sub	s4,a0,a1
   1a19a:	94b6                	add	s1,s1,a3
   1a19c:	8485                	srai	s1,s1,0x1
   1a19e:	9752                	add	a4,a4,s4
   1a1a0:	8626                	mv	a2,s1
   1a1a2:	00e4f463          	bgeu	s1,a4,1a1aa <__ssprint_r+0x5c>
   1a1a6:	84ba                	mv	s1,a4
   1a1a8:	863a                	mv	a2,a4
   1a1aa:	4007f793          	andi	a5,a5,1024
   1a1ae:	cfbd                	beqz	a5,1a22c <__ssprint_r+0xde>
   1a1b0:	85b2                	mv	a1,a2
   1a1b2:	855a                	mv	a0,s6
   1a1b4:	a52fb0ef          	jal	ra,15406 <_malloc_r>
   1a1b8:	8c2a                	mv	s8,a0
   1a1ba:	c151                	beqz	a0,1a23e <__ssprint_r+0xf0>
   1a1bc:	480c                	lw	a1,16(s0)
   1a1be:	8652                	mv	a2,s4
   1a1c0:	8cbfb0ef          	jal	ra,15a8a <memcpy>
   1a1c4:	00c45783          	lhu	a5,12(s0)
   1a1c8:	b7f7f793          	andi	a5,a5,-1153
   1a1cc:	0807e793          	ori	a5,a5,128
   1a1d0:	00f41623          	sh	a5,12(s0)
   1a1d4:	014c0533          	add	a0,s8,s4
   1a1d8:	41448a33          	sub	s4,s1,s4
   1a1dc:	c844                	sw	s1,20(s0)
   1a1de:	01442423          	sw	s4,8(s0)
   1a1e2:	01842823          	sw	s8,16(s0)
   1a1e6:	c008                	sw	a0,0(s0)
   1a1e8:	84ca                	mv	s1,s2
   1a1ea:	8a4a                	mv	s4,s2
   1a1ec:	8652                	mv	a2,s4
   1a1ee:	85de                	mv	a1,s7
   1a1f0:	983fb0ef          	jal	ra,15b72 <memmove>
   1a1f4:	4418                	lw	a4,8(s0)
   1a1f6:	4008                	lw	a0,0(s0)
   1a1f8:	008aa783          	lw	a5,8(s5)
   1a1fc:	409704b3          	sub	s1,a4,s1
   1a200:	9552                	add	a0,a0,s4
   1a202:	c404                	sw	s1,8(s0)
   1a204:	c008                	sw	a0,0(s0)
   1a206:	41278933          	sub	s2,a5,s2
   1a20a:	012aa423          	sw	s2,8(s5)
   1a20e:	04090763          	beqz	s2,1a25c <__ssprint_r+0x10e>
   1a212:	0049a903          	lw	s2,4(s3)
   1a216:	0009ab83          	lw	s7,0(s3)
   1a21a:	8a26                	mv	s4,s1
   1a21c:	09a1                	addi	s3,s3,8
   1a21e:	fe090ae3          	beqz	s2,1a212 <__ssprint_r+0xc4>
   1a222:	f4997ce3          	bgeu	s2,s1,1a17a <__ssprint_r+0x2c>
   1a226:	84ca                	mv	s1,s2
   1a228:	8a4a                	mv	s4,s2
   1a22a:	b7c9                	j	1a1ec <__ssprint_r+0x9e>
   1a22c:	855a                	mv	a0,s6
   1a22e:	e1afc0ef          	jal	ra,16848 <_realloc_r>
   1a232:	8c2a                	mv	s8,a0
   1a234:	f145                	bnez	a0,1a1d4 <__ssprint_r+0x86>
   1a236:	480c                	lw	a1,16(s0)
   1a238:	855a                	mv	a0,s6
   1a23a:	925f80ef          	jal	ra,12b5e <_free_r>
   1a23e:	47b1                	li	a5,12
   1a240:	00fb2023          	sw	a5,0(s6)
   1a244:	00c45783          	lhu	a5,12(s0)
   1a248:	557d                	li	a0,-1
   1a24a:	0407e793          	ori	a5,a5,64
   1a24e:	00f41623          	sh	a5,12(s0)
   1a252:	000aa423          	sw	zero,8(s5)
   1a256:	000aa223          	sw	zero,4(s5)
   1a25a:	a021                	j	1a262 <__ssprint_r+0x114>
   1a25c:	000aa223          	sw	zero,4(s5)
   1a260:	4501                	li	a0,0
   1a262:	50b2                	lw	ra,44(sp)
   1a264:	5422                	lw	s0,40(sp)
   1a266:	5492                	lw	s1,36(sp)
   1a268:	5902                	lw	s2,32(sp)
   1a26a:	49f2                	lw	s3,28(sp)
   1a26c:	4a62                	lw	s4,24(sp)
   1a26e:	4ad2                	lw	s5,20(sp)
   1a270:	4b42                	lw	s6,16(sp)
   1a272:	4bb2                	lw	s7,12(sp)
   1a274:	4c22                	lw	s8,8(sp)
   1a276:	6145                	addi	sp,sp,48
   1a278:	8082                	ret

0001a27a <_svfiprintf_r>:
   1a27a:	00c5d783          	lhu	a5,12(a1)
   1a27e:	7169                	addi	sp,sp,-304
   1a280:	11412c23          	sw	s4,280(sp)
   1a284:	11612823          	sw	s6,272(sp)
   1a288:	dfee                	sw	s11,252(sp)
   1a28a:	12112623          	sw	ra,300(sp)
   1a28e:	12812423          	sw	s0,296(sp)
   1a292:	12912223          	sw	s1,292(sp)
   1a296:	13212023          	sw	s2,288(sp)
   1a29a:	11312e23          	sw	s3,284(sp)
   1a29e:	11512a23          	sw	s5,276(sp)
   1a2a2:	11712623          	sw	s7,268(sp)
   1a2a6:	11812423          	sw	s8,264(sp)
   1a2aa:	11912223          	sw	s9,260(sp)
   1a2ae:	11a12023          	sw	s10,256(sp)
   1a2b2:	0807f793          	andi	a5,a5,128
   1a2b6:	c636                	sw	a3,12(sp)
   1a2b8:	8a2e                	mv	s4,a1
   1a2ba:	8b2a                	mv	s6,a0
   1a2bc:	8db2                	mv	s11,a2
   1a2be:	c781                	beqz	a5,1a2c6 <_svfiprintf_r+0x4c>
   1a2c0:	499c                	lw	a5,16(a1)
   1a2c2:	1c078be3          	beqz	a5,1ac98 <_svfiprintf_r+0xa1e>
   1a2c6:	0001f7b7          	lui	a5,0x1f
   1a2ca:	04c10a93          	addi	s5,sp,76
   1a2ce:	17478793          	addi	a5,a5,372 # 1f174 <_ctype_+0x104>
   1a2d2:	0001fc37          	lui	s8,0x1f
   1a2d6:	0001f4b7          	lui	s1,0x1f
   1a2da:	89ee                	mv	s3,s11
   1a2dc:	c0d6                	sw	s5,64(sp)
   1a2de:	c482                	sw	zero,72(sp)
   1a2e0:	c282                	sw	zero,68(sp)
   1a2e2:	ca02                	sw	zero,20(sp)
   1a2e4:	cc02                	sw	zero,24(sp)
   1a2e6:	d002                	sw	zero,32(sp)
   1a2e8:	ce02                	sw	zero,28(sp)
   1a2ea:	c402                	sw	zero,8(sp)
   1a2ec:	c83e                	sw	a5,16(sp)
   1a2ee:	2e0c0c13          	addi	s8,s8,736 # 1f2e0 <blanks.1>
   1a2f2:	2f048493          	addi	s1,s1,752 # 1f2f0 <zeroes.0>
   1a2f6:	8dd6                	mv	s11,s5
   1a2f8:	0009c783          	lbu	a5,0(s3)
   1a2fc:	18078363          	beqz	a5,1a482 <_svfiprintf_r+0x208>
   1a300:	844e                	mv	s0,s3
   1a302:	02500693          	li	a3,37
   1a306:	1ed78f63          	beq	a5,a3,1a504 <_svfiprintf_r+0x28a>
   1a30a:	00144783          	lbu	a5,1(s0)
   1a30e:	0405                	addi	s0,s0,1
   1a310:	fbfd                	bnez	a5,1a306 <_svfiprintf_r+0x8c>
   1a312:	41340bb3          	sub	s7,s0,s3
   1a316:	17340663          	beq	s0,s3,1a482 <_svfiprintf_r+0x208>
   1a31a:	46a6                	lw	a3,72(sp)
   1a31c:	4796                	lw	a5,68(sp)
   1a31e:	013da023          	sw	s3,0(s11)
   1a322:	96de                	add	a3,a3,s7
   1a324:	0785                	addi	a5,a5,1
   1a326:	017da223          	sw	s7,4(s11)
   1a32a:	c4b6                	sw	a3,72(sp)
   1a32c:	c2be                	sw	a5,68(sp)
   1a32e:	469d                	li	a3,7
   1a330:	0da1                	addi	s11,s11,8
   1a332:	1ef6c063          	blt	a3,a5,1a512 <_svfiprintf_r+0x298>
   1a336:	4722                	lw	a4,8(sp)
   1a338:	00044783          	lbu	a5,0(s0)
   1a33c:	975e                	add	a4,a4,s7
   1a33e:	c43a                	sw	a4,8(sp)
   1a340:	14078163          	beqz	a5,1a482 <_svfiprintf_r+0x208>
   1a344:	58fd                	li	a7,-1
   1a346:	00144683          	lbu	a3,1(s0)
   1a34a:	00140993          	addi	s3,s0,1
   1a34e:	02010da3          	sb	zero,59(sp)
   1a352:	c202                	sw	zero,4(sp)
   1a354:	4901                	li	s2,0
   1a356:	05a00b93          	li	s7,90
   1a35a:	4ca5                	li	s9,9
   1a35c:	02a00593          	li	a1,42
   1a360:	8446                	mv	s0,a7
   1a362:	0985                	addi	s3,s3,1
   1a364:	fe068793          	addi	a5,a3,-32 # 1fe0 <register_fini-0xe094>
   1a368:	02fbec63          	bltu	s7,a5,1a3a0 <_svfiprintf_r+0x126>
   1a36c:	4742                	lw	a4,16(sp)
   1a36e:	078a                	slli	a5,a5,0x2
   1a370:	97ba                	add	a5,a5,a4
   1a372:	439c                	lw	a5,0(a5)
   1a374:	8782                	jr	a5
   1a376:	c202                	sw	zero,4(sp)
   1a378:	fd068793          	addi	a5,a3,-48
   1a37c:	4612                	lw	a2,4(sp)
   1a37e:	0009c683          	lbu	a3,0(s3)
   1a382:	0985                	addi	s3,s3,1
   1a384:	00261713          	slli	a4,a2,0x2
   1a388:	9732                	add	a4,a4,a2
   1a38a:	0706                	slli	a4,a4,0x1
   1a38c:	97ba                	add	a5,a5,a4
   1a38e:	c23e                	sw	a5,4(sp)
   1a390:	fd068793          	addi	a5,a3,-48
   1a394:	fefcf4e3          	bgeu	s9,a5,1a37c <_svfiprintf_r+0x102>
   1a398:	fe068793          	addi	a5,a3,-32
   1a39c:	fcfbf8e3          	bgeu	s7,a5,1a36c <_svfiprintf_r+0xf2>
   1a3a0:	c2ed                	beqz	a3,1a482 <_svfiprintf_r+0x208>
   1a3a2:	08d10623          	sb	a3,140(sp)
   1a3a6:	02010da3          	sb	zero,59(sp)
   1a3aa:	4b85                	li	s7,1
   1a3ac:	4c85                	li	s9,1
   1a3ae:	0160                	addi	s0,sp,140
   1a3b0:	4881                	li	a7,0
   1a3b2:	00297f13          	andi	t5,s2,2
   1a3b6:	000f0363          	beqz	t5,1a3bc <_svfiprintf_r+0x142>
   1a3ba:	0b89                	addi	s7,s7,2
   1a3bc:	08497e93          	andi	t4,s2,132
   1a3c0:	47a6                	lw	a5,72(sp)
   1a3c2:	4616                	lw	a2,68(sp)
   1a3c4:	000e9763          	bnez	t4,1a3d2 <_svfiprintf_r+0x158>
   1a3c8:	4712                	lw	a4,4(sp)
   1a3ca:	41770d33          	sub	s10,a4,s7
   1a3ce:	5ba04b63          	bgtz	s10,1a984 <_svfiprintf_r+0x70a>
   1a3d2:	03b14503          	lbu	a0,59(sp)
   1a3d6:	00160593          	addi	a1,a2,1
   1a3da:	008d8693          	addi	a3,s11,8
   1a3de:	c515                	beqz	a0,1a40a <_svfiprintf_r+0x190>
   1a3e0:	03b10513          	addi	a0,sp,59
   1a3e4:	0785                	addi	a5,a5,1
   1a3e6:	00ada023          	sw	a0,0(s11)
   1a3ea:	4505                	li	a0,1
   1a3ec:	00ada223          	sw	a0,4(s11)
   1a3f0:	c4be                	sw	a5,72(sp)
   1a3f2:	c2ae                	sw	a1,68(sp)
   1a3f4:	451d                	li	a0,7
   1a3f6:	62b54d63          	blt	a0,a1,1aa30 <_svfiprintf_r+0x7b6>
   1a3fa:	00260f93          	addi	t6,a2,2
   1a3fe:	010d8513          	addi	a0,s11,16
   1a402:	862e                	mv	a2,a1
   1a404:	8db6                	mv	s11,a3
   1a406:	85fe                	mv	a1,t6
   1a408:	86aa                	mv	a3,a0
   1a40a:	020f0263          	beqz	t5,1a42e <_svfiprintf_r+0x1b4>
   1a40e:	1870                	addi	a2,sp,60
   1a410:	0789                	addi	a5,a5,2
   1a412:	00cda023          	sw	a2,0(s11)
   1a416:	4609                	li	a2,2
   1a418:	00cda223          	sw	a2,4(s11)
   1a41c:	c4be                	sw	a5,72(sp)
   1a41e:	c2ae                	sw	a1,68(sp)
   1a420:	471d                	li	a4,7
   1a422:	62b74b63          	blt	a4,a1,1aa58 <_svfiprintf_r+0x7de>
   1a426:	862e                	mv	a2,a1
   1a428:	8db6                	mv	s11,a3
   1a42a:	0585                	addi	a1,a1,1
   1a42c:	06a1                	addi	a3,a3,8
   1a42e:	08000513          	li	a0,128
   1a432:	42ae8063          	beq	t4,a0,1a852 <_svfiprintf_r+0x5d8>
   1a436:	41988d33          	sub	s10,a7,s9
   1a43a:	4ba04363          	bgtz	s10,1a8e0 <_svfiprintf_r+0x666>
   1a43e:	97e6                	add	a5,a5,s9
   1a440:	008da023          	sw	s0,0(s11)
   1a444:	019da223          	sw	s9,4(s11)
   1a448:	c4be                	sw	a5,72(sp)
   1a44a:	c2ae                	sw	a1,68(sp)
   1a44c:	471d                	li	a4,7
   1a44e:	50b74763          	blt	a4,a1,1a95c <_svfiprintf_r+0x6e2>
   1a452:	00497313          	andi	t1,s2,4
   1a456:	00030763          	beqz	t1,1a464 <_svfiprintf_r+0x1ea>
   1a45a:	4712                	lw	a4,4(sp)
   1a45c:	41770cb3          	sub	s9,a4,s7
   1a460:	61904e63          	bgtz	s9,1aa7c <_svfiprintf_r+0x802>
   1a464:	4412                	lw	s0,4(sp)
   1a466:	01745363          	bge	s0,s7,1a46c <_svfiprintf_r+0x1f2>
   1a46a:	845e                	mv	s0,s7
   1a46c:	4722                	lw	a4,8(sp)
   1a46e:	9722                	add	a4,a4,s0
   1a470:	c43a                	sw	a4,8(sp)
   1a472:	4e079f63          	bnez	a5,1a970 <_svfiprintf_r+0x6f6>
   1a476:	0009c783          	lbu	a5,0(s3)
   1a47a:	c282                	sw	zero,68(sp)
   1a47c:	8dd6                	mv	s11,s5
   1a47e:	e80791e3          	bnez	a5,1a300 <_svfiprintf_r+0x86>
   1a482:	47a6                	lw	a5,72(sp)
   1a484:	16079ee3          	bnez	a5,1ae00 <_svfiprintf_r+0xb86>
   1a488:	00ca5783          	lhu	a5,12(s4)
   1a48c:	0407f793          	andi	a5,a5,64
   1a490:	18079ae3          	bnez	a5,1ae24 <_svfiprintf_r+0xbaa>
   1a494:	12c12083          	lw	ra,300(sp)
   1a498:	12812403          	lw	s0,296(sp)
   1a49c:	4522                	lw	a0,8(sp)
   1a49e:	12412483          	lw	s1,292(sp)
   1a4a2:	12012903          	lw	s2,288(sp)
   1a4a6:	11c12983          	lw	s3,284(sp)
   1a4aa:	11812a03          	lw	s4,280(sp)
   1a4ae:	11412a83          	lw	s5,276(sp)
   1a4b2:	11012b03          	lw	s6,272(sp)
   1a4b6:	10c12b83          	lw	s7,268(sp)
   1a4ba:	10812c03          	lw	s8,264(sp)
   1a4be:	10412c83          	lw	s9,260(sp)
   1a4c2:	10012d03          	lw	s10,256(sp)
   1a4c6:	5dfe                	lw	s11,252(sp)
   1a4c8:	6155                	addi	sp,sp,304
   1a4ca:	8082                	ret
   1a4cc:	855a                	mv	a0,s6
   1a4ce:	cf3fa0ef          	jal	ra,151c0 <_localeconv_r>
   1a4d2:	415c                	lw	a5,4(a0)
   1a4d4:	853e                	mv	a0,a5
   1a4d6:	ce3e                	sw	a5,28(sp)
   1a4d8:	860f60ef          	jal	ra,10538 <strlen>
   1a4dc:	87aa                	mv	a5,a0
   1a4de:	855a                	mv	a0,s6
   1a4e0:	8d3e                	mv	s10,a5
   1a4e2:	d03e                	sw	a5,32(sp)
   1a4e4:	cddfa0ef          	jal	ra,151c0 <_localeconv_r>
   1a4e8:	451c                	lw	a5,8(a0)
   1a4ea:	02a00593          	li	a1,42
   1a4ee:	cc3e                	sw	a5,24(sp)
   1a4f0:	6e0d1963          	bnez	s10,1abe2 <_svfiprintf_r+0x968>
   1a4f4:	0009c683          	lbu	a3,0(s3)
   1a4f8:	b5ad                	j	1a362 <_svfiprintf_r+0xe8>
   1a4fa:	0009c683          	lbu	a3,0(s3)
   1a4fe:	02096913          	ori	s2,s2,32
   1a502:	b585                	j	1a362 <_svfiprintf_r+0xe8>
   1a504:	41340bb3          	sub	s7,s0,s3
   1a508:	e13419e3          	bne	s0,s3,1a31a <_svfiprintf_r+0xa0>
   1a50c:	00044783          	lbu	a5,0(s0)
   1a510:	bd05                	j	1a340 <_svfiprintf_r+0xc6>
   1a512:	0090                	addi	a2,sp,64
   1a514:	85d2                	mv	a1,s4
   1a516:	855a                	mv	a0,s6
   1a518:	391d                	jal	1a14e <__ssprint_r>
   1a51a:	f53d                	bnez	a0,1a488 <_svfiprintf_r+0x20e>
   1a51c:	8dd6                	mv	s11,s5
   1a51e:	bd21                	j	1a336 <_svfiprintf_r+0xbc>
   1a520:	47b2                	lw	a5,12(sp)
   1a522:	88a2                	mv	a7,s0
   1a524:	02010da3          	sb	zero,59(sp)
   1a528:	4380                	lw	s0,0(a5)
   1a52a:	00478d13          	addi	s10,a5,4
   1a52e:	00040be3          	beqz	s0,1ad44 <_svfiprintf_r+0xaca>
   1a532:	57fd                	li	a5,-1
   1a534:	74f88b63          	beq	a7,a5,1ac8a <_svfiprintf_r+0xa10>
   1a538:	8646                	mv	a2,a7
   1a53a:	4581                	li	a1,0
   1a53c:	8522                	mv	a0,s0
   1a53e:	c646                	sw	a7,12(sp)
   1a540:	cb6fb0ef          	jal	ra,159f6 <memchr>
   1a544:	48b2                	lw	a7,12(sp)
   1a546:	0c0504e3          	beqz	a0,1ae0e <_svfiprintf_r+0xb94>
   1a54a:	40850cb3          	sub	s9,a0,s0
   1a54e:	c66a                	sw	s10,12(sp)
   1a550:	4881                	li	a7,0
   1a552:	a09d                	j	1a5b8 <_svfiprintf_r+0x33e>
   1a554:	4732                	lw	a4,12(sp)
   1a556:	02010da3          	sb	zero,59(sp)
   1a55a:	4b85                	li	s7,1
   1a55c:	431c                	lw	a5,0(a4)
   1a55e:	0711                	addi	a4,a4,4
   1a560:	c63a                	sw	a4,12(sp)
   1a562:	08f10623          	sb	a5,140(sp)
   1a566:	4c85                	li	s9,1
   1a568:	0160                	addi	s0,sp,140
   1a56a:	b599                	j	1a3b0 <_svfiprintf_r+0x136>
   1a56c:	02097793          	andi	a5,s2,32
   1a570:	88a2                	mv	a7,s0
   1a572:	c3e9                	beqz	a5,1a634 <_svfiprintf_r+0x3ba>
   1a574:	47b2                	lw	a5,12(sp)
   1a576:	079d                	addi	a5,a5,7
   1a578:	9be1                	andi	a5,a5,-8
   1a57a:	43d4                	lw	a3,4(a5)
   1a57c:	0007ac83          	lw	s9,0(a5)
   1a580:	07a1                	addi	a5,a5,8
   1a582:	c63e                	sw	a5,12(sp)
   1a584:	8bb6                	mv	s7,a3
   1a586:	0c06cb63          	bltz	a3,1a65c <_svfiprintf_r+0x3e2>
   1a58a:	56fd                	li	a3,-1
   1a58c:	8d4a                	mv	s10,s2
   1a58e:	00d88863          	beq	a7,a3,1a59e <_svfiprintf_r+0x324>
   1a592:	017ce6b3          	or	a3,s9,s7
   1a596:	f7f97d13          	andi	s10,s2,-129
   1a59a:	54068763          	beqz	a3,1aae8 <_svfiprintf_r+0x86e>
   1a59e:	5a0b9b63          	bnez	s7,1ab54 <_svfiprintf_r+0x8da>
   1a5a2:	46a5                	li	a3,9
   1a5a4:	5b96e863          	bltu	a3,s9,1ab54 <_svfiprintf_r+0x8da>
   1a5a8:	030c8793          	addi	a5,s9,48
   1a5ac:	0ef107a3          	sb	a5,239(sp)
   1a5b0:	896a                	mv	s2,s10
   1a5b2:	4c85                	li	s9,1
   1a5b4:	0ef10413          	addi	s0,sp,239
   1a5b8:	8bc6                	mv	s7,a7
   1a5ba:	0198d363          	bge	a7,s9,1a5c0 <_svfiprintf_r+0x346>
   1a5be:	8be6                	mv	s7,s9
   1a5c0:	03b14783          	lbu	a5,59(sp)
   1a5c4:	00f037b3          	snez	a5,a5
   1a5c8:	9bbe                	add	s7,s7,a5
   1a5ca:	b3e5                	j	1a3b2 <_svfiprintf_r+0x138>
   1a5cc:	88a2                	mv	a7,s0
   1a5ce:	01096913          	ori	s2,s2,16
   1a5d2:	02097793          	andi	a5,s2,32
   1a5d6:	52078063          	beqz	a5,1aaf6 <_svfiprintf_r+0x87c>
   1a5da:	47b2                	lw	a5,12(sp)
   1a5dc:	079d                	addi	a5,a5,7
   1a5de:	9be1                	andi	a5,a5,-8
   1a5e0:	0007ac83          	lw	s9,0(a5)
   1a5e4:	0047ab83          	lw	s7,4(a5)
   1a5e8:	07a1                	addi	a5,a5,8
   1a5ea:	c63e                	sw	a5,12(sp)
   1a5ec:	bff97d13          	andi	s10,s2,-1025
   1a5f0:	4681                	li	a3,0
   1a5f2:	02010da3          	sb	zero,59(sp)
   1a5f6:	567d                	li	a2,-1
   1a5f8:	08c88363          	beq	a7,a2,1a67e <_svfiprintf_r+0x404>
   1a5fc:	017ce633          	or	a2,s9,s7
   1a600:	f7fd7913          	andi	s2,s10,-129
   1a604:	36061e63          	bnez	a2,1a980 <_svfiprintf_r+0x706>
   1a608:	20089463          	bnez	a7,1a810 <_svfiprintf_r+0x596>
   1a60c:	4e069163          	bnez	a3,1aaee <_svfiprintf_r+0x874>
   1a610:	001d7c93          	andi	s9,s10,1
   1a614:	1980                	addi	s0,sp,240
   1a616:	fa0c81e3          	beqz	s9,1a5b8 <_svfiprintf_r+0x33e>
   1a61a:	03000793          	li	a5,48
   1a61e:	0ef107a3          	sb	a5,239(sp)
   1a622:	0ef10413          	addi	s0,sp,239
   1a626:	bf49                	j	1a5b8 <_svfiprintf_r+0x33e>
   1a628:	01096913          	ori	s2,s2,16
   1a62c:	02097793          	andi	a5,s2,32
   1a630:	88a2                	mv	a7,s0
   1a632:	f3a9                	bnez	a5,1a574 <_svfiprintf_r+0x2fa>
   1a634:	4732                	lw	a4,12(sp)
   1a636:	01097793          	andi	a5,s2,16
   1a63a:	00470693          	addi	a3,a4,4
   1a63e:	5a079f63          	bnez	a5,1abfc <_svfiprintf_r+0x982>
   1a642:	04097793          	andi	a5,s2,64
   1a646:	72078d63          	beqz	a5,1ad80 <_svfiprintf_r+0xb06>
   1a64a:	47b2                	lw	a5,12(sp)
   1a64c:	c636                	sw	a3,12(sp)
   1a64e:	00079c83          	lh	s9,0(a5)
   1a652:	41fcdb93          	srai	s7,s9,0x1f
   1a656:	86de                	mv	a3,s7
   1a658:	f206d9e3          	bgez	a3,1a58a <_svfiprintf_r+0x310>
   1a65c:	019036b3          	snez	a3,s9
   1a660:	41700eb3          	neg	t4,s7
   1a664:	40de8bb3          	sub	s7,t4,a3
   1a668:	02d00693          	li	a3,45
   1a66c:	02d10da3          	sb	a3,59(sp)
   1a670:	567d                	li	a2,-1
   1a672:	41900cb3          	neg	s9,s9
   1a676:	8d4a                	mv	s10,s2
   1a678:	4685                	li	a3,1
   1a67a:	f8c891e3          	bne	a7,a2,1a5fc <_svfiprintf_r+0x382>
   1a67e:	4605                	li	a2,1
   1a680:	f0c68fe3          	beq	a3,a2,1a59e <_svfiprintf_r+0x324>
   1a684:	4609                	li	a2,2
   1a686:	18c68c63          	beq	a3,a2,1a81e <_svfiprintf_r+0x5a4>
   1a68a:	1980                	addi	s0,sp,240
   1a68c:	01db9793          	slli	a5,s7,0x1d
   1a690:	007cf693          	andi	a3,s9,7
   1a694:	003cdc93          	srli	s9,s9,0x3
   1a698:	03068693          	addi	a3,a3,48
   1a69c:	0197ecb3          	or	s9,a5,s9
   1a6a0:	003bdb93          	srli	s7,s7,0x3
   1a6a4:	fed40fa3          	sb	a3,-1(s0)
   1a6a8:	017ce7b3          	or	a5,s9,s7
   1a6ac:	85a2                	mv	a1,s0
   1a6ae:	147d                	addi	s0,s0,-1
   1a6b0:	fff1                	bnez	a5,1a68c <_svfiprintf_r+0x412>
   1a6b2:	001d7793          	andi	a5,s10,1
   1a6b6:	18078963          	beqz	a5,1a848 <_svfiprintf_r+0x5ce>
   1a6ba:	03000793          	li	a5,48
   1a6be:	18f68563          	beq	a3,a5,1a848 <_svfiprintf_r+0x5ce>
   1a6c2:	15f9                	addi	a1,a1,-2
   1a6c4:	fef40fa3          	sb	a5,-1(s0)
   1a6c8:	199c                	addi	a5,sp,240
   1a6ca:	40b78cb3          	sub	s9,a5,a1
   1a6ce:	896a                	mv	s2,s10
   1a6d0:	842e                	mv	s0,a1
   1a6d2:	b5dd                	j	1a5b8 <_svfiprintf_r+0x33e>
   1a6d4:	88a2                	mv	a7,s0
   1a6d6:	01096d13          	ori	s10,s2,16
   1a6da:	020d7793          	andi	a5,s10,32
   1a6de:	42078d63          	beqz	a5,1ab18 <_svfiprintf_r+0x89e>
   1a6e2:	47b2                	lw	a5,12(sp)
   1a6e4:	4685                	li	a3,1
   1a6e6:	00778913          	addi	s2,a5,7
   1a6ea:	ff897913          	andi	s2,s2,-8
   1a6ee:	00890793          	addi	a5,s2,8
   1a6f2:	00092c83          	lw	s9,0(s2)
   1a6f6:	00492b83          	lw	s7,4(s2)
   1a6fa:	c63e                	sw	a5,12(sp)
   1a6fc:	bddd                	j	1a5f2 <_svfiprintf_r+0x378>
   1a6fe:	47b2                	lw	a5,12(sp)
   1a700:	76e1                	lui	a3,0xffff8
   1a702:	8306c693          	xori	a3,a3,-2000
   1a706:	0007ac83          	lw	s9,0(a5)
   1a70a:	0791                	addi	a5,a5,4
   1a70c:	c63e                	sw	a5,12(sp)
   1a70e:	67f9                	lui	a5,0x1e
   1a710:	6d078793          	addi	a5,a5,1744 # 1e6d0 <__clzsi2+0xa2>
   1a714:	02d11e23          	sh	a3,60(sp)
   1a718:	88a2                	mv	a7,s0
   1a71a:	4b81                	li	s7,0
   1a71c:	00296d13          	ori	s10,s2,2
   1a720:	ca3e                	sw	a5,20(sp)
   1a722:	4689                	li	a3,2
   1a724:	b5f9                	j	1a5f2 <_svfiprintf_r+0x378>
   1a726:	0009c683          	lbu	a3,0(s3)
   1a72a:	08096913          	ori	s2,s2,128
   1a72e:	b915                	j	1a362 <_svfiprintf_r+0xe8>
   1a730:	0009c683          	lbu	a3,0(s3)
   1a734:	00198713          	addi	a4,s3,1
   1a738:	6eb68a63          	beq	a3,a1,1ae2c <_svfiprintf_r+0xbb2>
   1a73c:	fd068793          	addi	a5,a3,-48 # ffff7fd0 <__BSS_END__+0xfffd70a8>
   1a740:	89ba                	mv	s3,a4
   1a742:	4401                	li	s0,0
   1a744:	c2fce0e3          	bltu	s9,a5,1a364 <_svfiprintf_r+0xea>
   1a748:	0009c683          	lbu	a3,0(s3)
   1a74c:	00241713          	slli	a4,s0,0x2
   1a750:	008708b3          	add	a7,a4,s0
   1a754:	0886                	slli	a7,a7,0x1
   1a756:	00f88433          	add	s0,a7,a5
   1a75a:	fd068793          	addi	a5,a3,-48
   1a75e:	0985                	addi	s3,s3,1
   1a760:	fefcf4e3          	bgeu	s9,a5,1a748 <_svfiprintf_r+0x4ce>
   1a764:	b101                	j	1a364 <_svfiprintf_r+0xea>
   1a766:	0009c683          	lbu	a3,0(s3)
   1a76a:	00496913          	ori	s2,s2,4
   1a76e:	bed5                	j	1a362 <_svfiprintf_r+0xe8>
   1a770:	02b00793          	li	a5,43
   1a774:	0009c683          	lbu	a3,0(s3)
   1a778:	02f10da3          	sb	a5,59(sp)
   1a77c:	b6dd                	j	1a362 <_svfiprintf_r+0xe8>
   1a77e:	4732                	lw	a4,12(sp)
   1a780:	0009c683          	lbu	a3,0(s3)
   1a784:	431c                	lw	a5,0(a4)
   1a786:	0711                	addi	a4,a4,4
   1a788:	c63a                	sw	a4,12(sp)
   1a78a:	c23e                	sw	a5,4(sp)
   1a78c:	bc07dbe3          	bgez	a5,1a362 <_svfiprintf_r+0xe8>
   1a790:	40f007b3          	neg	a5,a5
   1a794:	c23e                	sw	a5,4(sp)
   1a796:	00496913          	ori	s2,s2,4
   1a79a:	b6e1                	j	1a362 <_svfiprintf_r+0xe8>
   1a79c:	0009c683          	lbu	a3,0(s3)
   1a7a0:	00196913          	ori	s2,s2,1
   1a7a4:	be7d                	j	1a362 <_svfiprintf_r+0xe8>
   1a7a6:	03b14783          	lbu	a5,59(sp)
   1a7aa:	0009c683          	lbu	a3,0(s3)
   1a7ae:	ba079ae3          	bnez	a5,1a362 <_svfiprintf_r+0xe8>
   1a7b2:	02000793          	li	a5,32
   1a7b6:	02f10da3          	sb	a5,59(sp)
   1a7ba:	b665                	j	1a362 <_svfiprintf_r+0xe8>
   1a7bc:	0009c683          	lbu	a3,0(s3)
   1a7c0:	06800793          	li	a5,104
   1a7c4:	54f68b63          	beq	a3,a5,1ad1a <_svfiprintf_r+0xaa0>
   1a7c8:	04096913          	ori	s2,s2,64
   1a7cc:	be59                	j	1a362 <_svfiprintf_r+0xe8>
   1a7ce:	4732                	lw	a4,12(sp)
   1a7d0:	02097793          	andi	a5,s2,32
   1a7d4:	4314                	lw	a3,0(a4)
   1a7d6:	0711                	addi	a4,a4,4
   1a7d8:	c63a                	sw	a4,12(sp)
   1a7da:	3e079763          	bnez	a5,1abc8 <_svfiprintf_r+0x94e>
   1a7de:	01097793          	andi	a5,s2,16
   1a7e2:	54079d63          	bnez	a5,1ad3c <_svfiprintf_r+0xac2>
   1a7e6:	04097793          	andi	a5,s2,64
   1a7ea:	60079663          	bnez	a5,1adf6 <_svfiprintf_r+0xb7c>
   1a7ee:	20097313          	andi	t1,s2,512
   1a7f2:	54030563          	beqz	t1,1ad3c <_svfiprintf_r+0xac2>
   1a7f6:	47a2                	lw	a5,8(sp)
   1a7f8:	00f68023          	sb	a5,0(a3)
   1a7fc:	bcf5                	j	1a2f8 <_svfiprintf_r+0x7e>
   1a7fe:	0009c683          	lbu	a3,0(s3)
   1a802:	06c00793          	li	a5,108
   1a806:	52f68163          	beq	a3,a5,1ad28 <_svfiprintf_r+0xaae>
   1a80a:	01096913          	ori	s2,s2,16
   1a80e:	be91                	j	1a362 <_svfiprintf_r+0xe8>
   1a810:	4605                	li	a2,1
   1a812:	60c68363          	beq	a3,a2,1ae18 <_svfiprintf_r+0xb9e>
   1a816:	4609                	li	a2,2
   1a818:	8d4a                	mv	s10,s2
   1a81a:	e6c698e3          	bne	a3,a2,1a68a <_svfiprintf_r+0x410>
   1a81e:	46d2                	lw	a3,20(sp)
   1a820:	1980                	addi	s0,sp,240
   1a822:	00fcf793          	andi	a5,s9,15
   1a826:	97b6                	add	a5,a5,a3
   1a828:	0007c703          	lbu	a4,0(a5)
   1a82c:	004cdc93          	srli	s9,s9,0x4
   1a830:	01cb9793          	slli	a5,s7,0x1c
   1a834:	0197ecb3          	or	s9,a5,s9
   1a838:	004bdb93          	srli	s7,s7,0x4
   1a83c:	fee40fa3          	sb	a4,-1(s0)
   1a840:	017ce7b3          	or	a5,s9,s7
   1a844:	147d                	addi	s0,s0,-1
   1a846:	fff1                	bnez	a5,1a822 <_svfiprintf_r+0x5a8>
   1a848:	199c                	addi	a5,sp,240
   1a84a:	40878cb3          	sub	s9,a5,s0
   1a84e:	896a                	mv	s2,s10
   1a850:	b3a5                	j	1a5b8 <_svfiprintf_r+0x33e>
   1a852:	4712                	lw	a4,4(sp)
   1a854:	41770d33          	sub	s10,a4,s7
   1a858:	bda05fe3          	blez	s10,1a436 <_svfiprintf_r+0x1bc>
   1a85c:	4541                	li	a0,16
   1a85e:	5da55063          	bge	a0,s10,1ae1e <_svfiprintf_r+0xba4>
   1a862:	d222                	sw	s0,36(sp)
   1a864:	46c1                	li	a3,16
   1a866:	8452                	mv	s0,s4
   1a868:	4e9d                	li	t4,7
   1a86a:	8a6a                	mv	s4,s10
   1a86c:	8d4e                	mv	s10,s3
   1a86e:	89c6                	mv	s3,a7
   1a870:	a021                	j	1a878 <_svfiprintf_r+0x5fe>
   1a872:	1a41                	addi	s4,s4,-16
   1a874:	0346db63          	bge	a3,s4,1a8aa <_svfiprintf_r+0x630>
   1a878:	07c1                	addi	a5,a5,16
   1a87a:	0605                	addi	a2,a2,1
   1a87c:	009da023          	sw	s1,0(s11)
   1a880:	00dda223          	sw	a3,4(s11)
   1a884:	c4be                	sw	a5,72(sp)
   1a886:	c2b2                	sw	a2,68(sp)
   1a888:	0da1                	addi	s11,s11,8
   1a88a:	feced4e3          	bge	t4,a2,1a872 <_svfiprintf_r+0x5f8>
   1a88e:	0090                	addi	a2,sp,64
   1a890:	85a2                	mv	a1,s0
   1a892:	855a                	mv	a0,s6
   1a894:	386d                	jal	1a14e <__ssprint_r>
   1a896:	4a051063          	bnez	a0,1ad36 <_svfiprintf_r+0xabc>
   1a89a:	46c1                	li	a3,16
   1a89c:	1a41                	addi	s4,s4,-16
   1a89e:	47a6                	lw	a5,72(sp)
   1a8a0:	4616                	lw	a2,68(sp)
   1a8a2:	8dd6                	mv	s11,s5
   1a8a4:	4e9d                	li	t4,7
   1a8a6:	fd46c9e3          	blt	a3,s4,1a878 <_svfiprintf_r+0x5fe>
   1a8aa:	88ce                	mv	a7,s3
   1a8ac:	89ea                	mv	s3,s10
   1a8ae:	8d52                	mv	s10,s4
   1a8b0:	8a22                	mv	s4,s0
   1a8b2:	5412                	lw	s0,36(sp)
   1a8b4:	0605                	addi	a2,a2,1
   1a8b6:	008d8513          	addi	a0,s11,8
   1a8ba:	97ea                	add	a5,a5,s10
   1a8bc:	009da023          	sw	s1,0(s11)
   1a8c0:	01ada223          	sw	s10,4(s11)
   1a8c4:	c4be                	sw	a5,72(sp)
   1a8c6:	c2b2                	sw	a2,68(sp)
   1a8c8:	471d                	li	a4,7
   1a8ca:	42c74763          	blt	a4,a2,1acf8 <_svfiprintf_r+0xa7e>
   1a8ce:	41988d33          	sub	s10,a7,s9
   1a8d2:	00160593          	addi	a1,a2,1
   1a8d6:	00850693          	addi	a3,a0,8
   1a8da:	8daa                	mv	s11,a0
   1a8dc:	b7a051e3          	blez	s10,1a43e <_svfiprintf_r+0x1c4>
   1a8e0:	4541                	li	a0,16
   1a8e2:	4da55663          	bge	a0,s10,1adae <_svfiprintf_r+0xb34>
   1a8e6:	46c1                	li	a3,16
   1a8e8:	489d                	li	a7,7
   1a8ea:	a021                	j	1a8f2 <_svfiprintf_r+0x678>
   1a8ec:	1d41                	addi	s10,s10,-16
   1a8ee:	03a6db63          	bge	a3,s10,1a924 <_svfiprintf_r+0x6aa>
   1a8f2:	07c1                	addi	a5,a5,16
   1a8f4:	0605                	addi	a2,a2,1
   1a8f6:	009da023          	sw	s1,0(s11)
   1a8fa:	00dda223          	sw	a3,4(s11)
   1a8fe:	c4be                	sw	a5,72(sp)
   1a900:	c2b2                	sw	a2,68(sp)
   1a902:	0da1                	addi	s11,s11,8
   1a904:	fec8d4e3          	bge	a7,a2,1a8ec <_svfiprintf_r+0x672>
   1a908:	0090                	addi	a2,sp,64
   1a90a:	85d2                	mv	a1,s4
   1a90c:	855a                	mv	a0,s6
   1a90e:	3081                	jal	1a14e <__ssprint_r>
   1a910:	b6051ce3          	bnez	a0,1a488 <_svfiprintf_r+0x20e>
   1a914:	46c1                	li	a3,16
   1a916:	1d41                	addi	s10,s10,-16
   1a918:	47a6                	lw	a5,72(sp)
   1a91a:	4616                	lw	a2,68(sp)
   1a91c:	8dd6                	mv	s11,s5
   1a91e:	489d                	li	a7,7
   1a920:	fda6c9e3          	blt	a3,s10,1a8f2 <_svfiprintf_r+0x678>
   1a924:	00160593          	addi	a1,a2,1
   1a928:	008d8613          	addi	a2,s11,8
   1a92c:	97ea                	add	a5,a5,s10
   1a92e:	009da023          	sw	s1,0(s11)
   1a932:	01ada223          	sw	s10,4(s11)
   1a936:	c4be                	sw	a5,72(sp)
   1a938:	c2ae                	sw	a1,68(sp)
   1a93a:	471d                	li	a4,7
   1a93c:	1eb74f63          	blt	a4,a1,1ab3a <_svfiprintf_r+0x8c0>
   1a940:	8db2                	mv	s11,a2
   1a942:	0585                	addi	a1,a1,1
   1a944:	97e6                	add	a5,a5,s9
   1a946:	008da023          	sw	s0,0(s11)
   1a94a:	019da223          	sw	s9,4(s11)
   1a94e:	c4be                	sw	a5,72(sp)
   1a950:	c2ae                	sw	a1,68(sp)
   1a952:	471d                	li	a4,7
   1a954:	00860693          	addi	a3,a2,8
   1a958:	aeb75de3          	bge	a4,a1,1a452 <_svfiprintf_r+0x1d8>
   1a95c:	0090                	addi	a2,sp,64
   1a95e:	85d2                	mv	a1,s4
   1a960:	855a                	mv	a0,s6
   1a962:	fecff0ef          	jal	ra,1a14e <__ssprint_r>
   1a966:	b20511e3          	bnez	a0,1a488 <_svfiprintf_r+0x20e>
   1a96a:	47a6                	lw	a5,72(sp)
   1a96c:	86d6                	mv	a3,s5
   1a96e:	b4d5                	j	1a452 <_svfiprintf_r+0x1d8>
   1a970:	0090                	addi	a2,sp,64
   1a972:	85d2                	mv	a1,s4
   1a974:	855a                	mv	a0,s6
   1a976:	fd8ff0ef          	jal	ra,1a14e <__ssprint_r>
   1a97a:	ae050ee3          	beqz	a0,1a476 <_svfiprintf_r+0x1fc>
   1a97e:	b629                	j	1a488 <_svfiprintf_r+0x20e>
   1a980:	8d4a                	mv	s10,s2
   1a982:	b9f5                	j	1a67e <_svfiprintf_r+0x404>
   1a984:	46c1                	li	a3,16
   1a986:	07a6d863          	bge	a3,s10,1a9f6 <_svfiprintf_r+0x77c>
   1a98a:	85ce                	mv	a1,s3
   1a98c:	876e                	mv	a4,s11
   1a98e:	89a2                	mv	s3,s0
   1a990:	8de6                	mv	s11,s9
   1a992:	846a                	mv	s0,s10
   1a994:	4f9d                	li	t6,7
   1a996:	8d5e                	mv	s10,s7
   1a998:	d27a                	sw	t5,36(sp)
   1a99a:	8bca                	mv	s7,s2
   1a99c:	d476                	sw	t4,40(sp)
   1a99e:	8952                	mv	s2,s4
   1a9a0:	8cc6                	mv	s9,a7
   1a9a2:	8a2e                	mv	s4,a1
   1a9a4:	a021                	j	1a9ac <_svfiprintf_r+0x732>
   1a9a6:	1441                	addi	s0,s0,-16
   1a9a8:	0286db63          	bge	a3,s0,1a9de <_svfiprintf_r+0x764>
   1a9ac:	07c1                	addi	a5,a5,16
   1a9ae:	0605                	addi	a2,a2,1
   1a9b0:	01872023          	sw	s8,0(a4)
   1a9b4:	c354                	sw	a3,4(a4)
   1a9b6:	c4be                	sw	a5,72(sp)
   1a9b8:	c2b2                	sw	a2,68(sp)
   1a9ba:	0721                	addi	a4,a4,8
   1a9bc:	fecfd5e3          	bge	t6,a2,1a9a6 <_svfiprintf_r+0x72c>
   1a9c0:	0090                	addi	a2,sp,64
   1a9c2:	85ca                	mv	a1,s2
   1a9c4:	855a                	mv	a0,s6
   1a9c6:	f88ff0ef          	jal	ra,1a14e <__ssprint_r>
   1a9ca:	30051b63          	bnez	a0,1ace0 <_svfiprintf_r+0xa66>
   1a9ce:	46c1                	li	a3,16
   1a9d0:	1441                	addi	s0,s0,-16
   1a9d2:	47a6                	lw	a5,72(sp)
   1a9d4:	4616                	lw	a2,68(sp)
   1a9d6:	8756                	mv	a4,s5
   1a9d8:	4f9d                	li	t6,7
   1a9da:	fc86c9e3          	blt	a3,s0,1a9ac <_svfiprintf_r+0x732>
   1a9de:	5f12                	lw	t5,36(sp)
   1a9e0:	5ea2                	lw	t4,40(sp)
   1a9e2:	88e6                	mv	a7,s9
   1a9e4:	8cee                	mv	s9,s11
   1a9e6:	8dba                	mv	s11,a4
   1a9e8:	8752                	mv	a4,s4
   1a9ea:	8a4a                	mv	s4,s2
   1a9ec:	895e                	mv	s2,s7
   1a9ee:	8bea                	mv	s7,s10
   1a9f0:	8d22                	mv	s10,s0
   1a9f2:	844e                	mv	s0,s3
   1a9f4:	89ba                	mv	s3,a4
   1a9f6:	97ea                	add	a5,a5,s10
   1a9f8:	0605                	addi	a2,a2,1
   1a9fa:	018da023          	sw	s8,0(s11)
   1a9fe:	01ada223          	sw	s10,4(s11)
   1aa02:	c4be                	sw	a5,72(sp)
   1aa04:	c2b2                	sw	a2,68(sp)
   1aa06:	469d                	li	a3,7
   1aa08:	0da1                	addi	s11,s11,8
   1aa0a:	9cc6d4e3          	bge	a3,a2,1a3d2 <_svfiprintf_r+0x158>
   1aa0e:	0090                	addi	a2,sp,64
   1aa10:	85d2                	mv	a1,s4
   1aa12:	855a                	mv	a0,s6
   1aa14:	d646                	sw	a7,44(sp)
   1aa16:	d476                	sw	t4,40(sp)
   1aa18:	d27a                	sw	t5,36(sp)
   1aa1a:	f34ff0ef          	jal	ra,1a14e <__ssprint_r>
   1aa1e:	a60515e3          	bnez	a0,1a488 <_svfiprintf_r+0x20e>
   1aa22:	47a6                	lw	a5,72(sp)
   1aa24:	4616                	lw	a2,68(sp)
   1aa26:	58b2                	lw	a7,44(sp)
   1aa28:	5ea2                	lw	t4,40(sp)
   1aa2a:	5f12                	lw	t5,36(sp)
   1aa2c:	8dd6                	mv	s11,s5
   1aa2e:	b255                	j	1a3d2 <_svfiprintf_r+0x158>
   1aa30:	0090                	addi	a2,sp,64
   1aa32:	85d2                	mv	a1,s4
   1aa34:	855a                	mv	a0,s6
   1aa36:	d646                	sw	a7,44(sp)
   1aa38:	d476                	sw	t4,40(sp)
   1aa3a:	d27a                	sw	t5,36(sp)
   1aa3c:	f12ff0ef          	jal	ra,1a14e <__ssprint_r>
   1aa40:	a40514e3          	bnez	a0,1a488 <_svfiprintf_r+0x20e>
   1aa44:	4616                	lw	a2,68(sp)
   1aa46:	47a6                	lw	a5,72(sp)
   1aa48:	58b2                	lw	a7,44(sp)
   1aa4a:	5ea2                	lw	t4,40(sp)
   1aa4c:	5f12                	lw	t5,36(sp)
   1aa4e:	08d4                	addi	a3,sp,84
   1aa50:	00160593          	addi	a1,a2,1
   1aa54:	8dd6                	mv	s11,s5
   1aa56:	ba55                	j	1a40a <_svfiprintf_r+0x190>
   1aa58:	0090                	addi	a2,sp,64
   1aa5a:	85d2                	mv	a1,s4
   1aa5c:	855a                	mv	a0,s6
   1aa5e:	d446                	sw	a7,40(sp)
   1aa60:	d276                	sw	t4,36(sp)
   1aa62:	eecff0ef          	jal	ra,1a14e <__ssprint_r>
   1aa66:	a20511e3          	bnez	a0,1a488 <_svfiprintf_r+0x20e>
   1aa6a:	4616                	lw	a2,68(sp)
   1aa6c:	47a6                	lw	a5,72(sp)
   1aa6e:	58a2                	lw	a7,40(sp)
   1aa70:	5e92                	lw	t4,36(sp)
   1aa72:	08d4                	addi	a3,sp,84
   1aa74:	00160593          	addi	a1,a2,1
   1aa78:	8dd6                	mv	s11,s5
   1aa7a:	ba55                	j	1a42e <_svfiprintf_r+0x1b4>
   1aa7c:	4641                	li	a2,16
   1aa7e:	4716                	lw	a4,68(sp)
   1aa80:	05965063          	bge	a2,s9,1aac0 <_svfiprintf_r+0x846>
   1aa84:	4d41                	li	s10,16
   1aa86:	441d                	li	s0,7
   1aa88:	a021                	j	1aa90 <_svfiprintf_r+0x816>
   1aa8a:	1cc1                	addi	s9,s9,-16
   1aa8c:	039d5a63          	bge	s10,s9,1aac0 <_svfiprintf_r+0x846>
   1aa90:	07c1                	addi	a5,a5,16
   1aa92:	0705                	addi	a4,a4,1
   1aa94:	0186a023          	sw	s8,0(a3)
   1aa98:	01a6a223          	sw	s10,4(a3)
   1aa9c:	c4be                	sw	a5,72(sp)
   1aa9e:	c2ba                	sw	a4,68(sp)
   1aaa0:	06a1                	addi	a3,a3,8
   1aaa2:	fee454e3          	bge	s0,a4,1aa8a <_svfiprintf_r+0x810>
   1aaa6:	0090                	addi	a2,sp,64
   1aaa8:	85d2                	mv	a1,s4
   1aaaa:	855a                	mv	a0,s6
   1aaac:	ea2ff0ef          	jal	ra,1a14e <__ssprint_r>
   1aab0:	9c051ce3          	bnez	a0,1a488 <_svfiprintf_r+0x20e>
   1aab4:	1cc1                	addi	s9,s9,-16
   1aab6:	47a6                	lw	a5,72(sp)
   1aab8:	4716                	lw	a4,68(sp)
   1aaba:	86d6                	mv	a3,s5
   1aabc:	fd9d4ae3          	blt	s10,s9,1aa90 <_svfiprintf_r+0x816>
   1aac0:	97e6                	add	a5,a5,s9
   1aac2:	0705                	addi	a4,a4,1
   1aac4:	0186a023          	sw	s8,0(a3)
   1aac8:	0196a223          	sw	s9,4(a3)
   1aacc:	c4be                	sw	a5,72(sp)
   1aace:	c2ba                	sw	a4,68(sp)
   1aad0:	469d                	li	a3,7
   1aad2:	98e6d9e3          	bge	a3,a4,1a464 <_svfiprintf_r+0x1ea>
   1aad6:	0090                	addi	a2,sp,64
   1aad8:	85d2                	mv	a1,s4
   1aada:	855a                	mv	a0,s6
   1aadc:	e72ff0ef          	jal	ra,1a14e <__ssprint_r>
   1aae0:	9a0514e3          	bnez	a0,1a488 <_svfiprintf_r+0x20e>
   1aae4:	47a6                	lw	a5,72(sp)
   1aae6:	babd                	j	1a464 <_svfiprintf_r+0x1ea>
   1aae8:	ac0890e3          	bnez	a7,1a5a8 <_svfiprintf_r+0x32e>
   1aaec:	896a                	mv	s2,s10
   1aaee:	4881                	li	a7,0
   1aaf0:	4c81                	li	s9,0
   1aaf2:	1980                	addi	s0,sp,240
   1aaf4:	b4d1                	j	1a5b8 <_svfiprintf_r+0x33e>
   1aaf6:	4732                	lw	a4,12(sp)
   1aaf8:	01097793          	andi	a5,s2,16
   1aafc:	00470693          	addi	a3,a4,4
   1ab00:	10079563          	bnez	a5,1ac0a <_svfiprintf_r+0x990>
   1ab04:	04097793          	andi	a5,s2,64
   1ab08:	26078363          	beqz	a5,1ad6e <_svfiprintf_r+0xaf4>
   1ab0c:	47b2                	lw	a5,12(sp)
   1ab0e:	4b81                	li	s7,0
   1ab10:	c636                	sw	a3,12(sp)
   1ab12:	0007dc83          	lhu	s9,0(a5)
   1ab16:	bcd9                	j	1a5ec <_svfiprintf_r+0x372>
   1ab18:	4732                	lw	a4,12(sp)
   1ab1a:	010d7793          	andi	a5,s10,16
   1ab1e:	00470693          	addi	a3,a4,4
   1ab22:	ebd5                	bnez	a5,1abd6 <_svfiprintf_r+0x95c>
   1ab24:	040d7793          	andi	a5,s10,64
   1ab28:	26078863          	beqz	a5,1ad98 <_svfiprintf_r+0xb1e>
   1ab2c:	47b2                	lw	a5,12(sp)
   1ab2e:	4b81                	li	s7,0
   1ab30:	c636                	sw	a3,12(sp)
   1ab32:	0007dc83          	lhu	s9,0(a5)
   1ab36:	4685                	li	a3,1
   1ab38:	bc6d                	j	1a5f2 <_svfiprintf_r+0x378>
   1ab3a:	0090                	addi	a2,sp,64
   1ab3c:	85d2                	mv	a1,s4
   1ab3e:	855a                	mv	a0,s6
   1ab40:	e0eff0ef          	jal	ra,1a14e <__ssprint_r>
   1ab44:	940512e3          	bnez	a0,1a488 <_svfiprintf_r+0x20e>
   1ab48:	4596                	lw	a1,68(sp)
   1ab4a:	47a6                	lw	a5,72(sp)
   1ab4c:	08d4                	addi	a3,sp,84
   1ab4e:	0585                	addi	a1,a1,1
   1ab50:	8dd6                	mv	s11,s5
   1ab52:	b0f5                	j	1a43e <_svfiprintf_r+0x1c4>
   1ab54:	400d7793          	andi	a5,s10,1024
   1ab58:	d452                	sw	s4,40(sp)
   1ab5a:	d64e                	sw	s3,44(sp)
   1ab5c:	8a5e                	mv	s4,s7
   1ab5e:	89e6                	mv	s3,s9
   1ab60:	4901                	li	s2,0
   1ab62:	4ce2                	lw	s9,24(sp)
   1ab64:	1980                	addi	s0,sp,240
   1ab66:	d246                	sw	a7,36(sp)
   1ab68:	8bbe                	mv	s7,a5
   1ab6a:	a819                	j	1ab80 <_svfiprintf_r+0x906>
   1ab6c:	4629                	li	a2,10
   1ab6e:	4681                	li	a3,0
   1ab70:	854e                	mv	a0,s3
   1ab72:	85d2                	mv	a1,s4
   1ab74:	18d000ef          	jal	ra,1b500 <__udivdi3>
   1ab78:	220a0d63          	beqz	s4,1adb2 <_svfiprintf_r+0xb38>
   1ab7c:	89aa                	mv	s3,a0
   1ab7e:	8a2e                	mv	s4,a1
   1ab80:	4629                	li	a2,10
   1ab82:	4681                	li	a3,0
   1ab84:	854e                	mv	a0,s3
   1ab86:	85d2                	mv	a1,s4
   1ab88:	4d9000ef          	jal	ra,1b860 <__umoddi3>
   1ab8c:	03050513          	addi	a0,a0,48
   1ab90:	fea40fa3          	sb	a0,-1(s0)
   1ab94:	0905                	addi	s2,s2,1
   1ab96:	147d                	addi	s0,s0,-1
   1ab98:	fc0b8ae3          	beqz	s7,1ab6c <_svfiprintf_r+0x8f2>
   1ab9c:	000cc683          	lbu	a3,0(s9)
   1aba0:	fd2696e3          	bne	a3,s2,1ab6c <_svfiprintf_r+0x8f2>
   1aba4:	0ff00793          	li	a5,255
   1aba8:	fcf902e3          	beq	s2,a5,1ab6c <_svfiprintf_r+0x8f2>
   1abac:	100a1663          	bnez	s4,1acb8 <_svfiprintf_r+0xa3e>
   1abb0:	47a5                	li	a5,9
   1abb2:	1137e363          	bltu	a5,s3,1acb8 <_svfiprintf_r+0xa3e>
   1abb6:	199c                	addi	a5,sp,240
   1abb8:	cc66                	sw	s9,24(sp)
   1abba:	5892                	lw	a7,36(sp)
   1abbc:	5a22                	lw	s4,40(sp)
   1abbe:	59b2                	lw	s3,44(sp)
   1abc0:	40878cb3          	sub	s9,a5,s0
   1abc4:	896a                	mv	s2,s10
   1abc6:	bacd                	j	1a5b8 <_svfiprintf_r+0x33e>
   1abc8:	4722                	lw	a4,8(sp)
   1abca:	41f75793          	srai	a5,a4,0x1f
   1abce:	c298                	sw	a4,0(a3)
   1abd0:	c2dc                	sw	a5,4(a3)
   1abd2:	f26ff06f          	j	1a2f8 <_svfiprintf_r+0x7e>
   1abd6:	c636                	sw	a3,12(sp)
   1abd8:	00072c83          	lw	s9,0(a4)
   1abdc:	4b81                	li	s7,0
   1abde:	4685                	li	a3,1
   1abe0:	bc09                	j	1a5f2 <_svfiprintf_r+0x378>
   1abe2:	47e2                	lw	a5,24(sp)
   1abe4:	0009c683          	lbu	a3,0(s3)
   1abe8:	f6078d63          	beqz	a5,1a362 <_svfiprintf_r+0xe8>
   1abec:	0007c783          	lbu	a5,0(a5)
   1abf0:	f6078963          	beqz	a5,1a362 <_svfiprintf_r+0xe8>
   1abf4:	40096913          	ori	s2,s2,1024
   1abf8:	f6aff06f          	j	1a362 <_svfiprintf_r+0xe8>
   1abfc:	00072c83          	lw	s9,0(a4)
   1ac00:	c636                	sw	a3,12(sp)
   1ac02:	41fcdb93          	srai	s7,s9,0x1f
   1ac06:	86de                	mv	a3,s7
   1ac08:	babd                	j	1a586 <_svfiprintf_r+0x30c>
   1ac0a:	00072c83          	lw	s9,0(a4)
   1ac0e:	4b81                	li	s7,0
   1ac10:	c636                	sw	a3,12(sp)
   1ac12:	bae9                	j	1a5ec <_svfiprintf_r+0x372>
   1ac14:	67f9                	lui	a5,0x1e
   1ac16:	6e478793          	addi	a5,a5,1764 # 1e6e4 <__clzsi2+0xb6>
   1ac1a:	ca3e                	sw	a5,20(sp)
   1ac1c:	02097793          	andi	a5,s2,32
   1ac20:	88a2                	mv	a7,s0
   1ac22:	cba9                	beqz	a5,1ac74 <_svfiprintf_r+0x9fa>
   1ac24:	47b2                	lw	a5,12(sp)
   1ac26:	079d                	addi	a5,a5,7
   1ac28:	9be1                	andi	a5,a5,-8
   1ac2a:	0007ac83          	lw	s9,0(a5)
   1ac2e:	0047ab83          	lw	s7,4(a5)
   1ac32:	07a1                	addi	a5,a5,8
   1ac34:	c63e                	sw	a5,12(sp)
   1ac36:	00197613          	andi	a2,s2,1
   1ac3a:	ce01                	beqz	a2,1ac52 <_svfiprintf_r+0x9d8>
   1ac3c:	017ce633          	or	a2,s9,s7
   1ac40:	ca09                	beqz	a2,1ac52 <_svfiprintf_r+0x9d8>
   1ac42:	03000613          	li	a2,48
   1ac46:	02c10e23          	sb	a2,60(sp)
   1ac4a:	02d10ea3          	sb	a3,61(sp)
   1ac4e:	00296913          	ori	s2,s2,2
   1ac52:	bff97d13          	andi	s10,s2,-1025
   1ac56:	4689                	li	a3,2
   1ac58:	ba69                	j	1a5f2 <_svfiprintf_r+0x378>
   1ac5a:	88a2                	mv	a7,s0
   1ac5c:	8d4a                	mv	s10,s2
   1ac5e:	bcb5                	j	1a6da <_svfiprintf_r+0x460>
   1ac60:	88a2                	mv	a7,s0
   1ac62:	ba85                	j	1a5d2 <_svfiprintf_r+0x358>
   1ac64:	67f9                	lui	a5,0x1e
   1ac66:	6d078793          	addi	a5,a5,1744 # 1e6d0 <__clzsi2+0xa2>
   1ac6a:	ca3e                	sw	a5,20(sp)
   1ac6c:	02097793          	andi	a5,s2,32
   1ac70:	88a2                	mv	a7,s0
   1ac72:	fbcd                	bnez	a5,1ac24 <_svfiprintf_r+0x9aa>
   1ac74:	4732                	lw	a4,12(sp)
   1ac76:	01097793          	andi	a5,s2,16
   1ac7a:	00470613          	addi	a2,a4,4
   1ac7e:	c7a5                	beqz	a5,1ace6 <_svfiprintf_r+0xa6c>
   1ac80:	00072c83          	lw	s9,0(a4)
   1ac84:	4b81                	li	s7,0
   1ac86:	c632                	sw	a2,12(sp)
   1ac88:	b77d                	j	1ac36 <_svfiprintf_r+0x9bc>
   1ac8a:	8522                	mv	a0,s0
   1ac8c:	8adf50ef          	jal	ra,10538 <strlen>
   1ac90:	8caa                	mv	s9,a0
   1ac92:	c66a                	sw	s10,12(sp)
   1ac94:	4881                	li	a7,0
   1ac96:	b20d                	j	1a5b8 <_svfiprintf_r+0x33e>
   1ac98:	04000593          	li	a1,64
   1ac9c:	f6afa0ef          	jal	ra,15406 <_malloc_r>
   1aca0:	00aa2023          	sw	a0,0(s4)
   1aca4:	00aa2823          	sw	a0,16(s4)
   1aca8:	18050e63          	beqz	a0,1ae44 <_svfiprintf_r+0xbca>
   1acac:	04000793          	li	a5,64
   1acb0:	00fa2a23          	sw	a5,20(s4)
   1acb4:	e12ff06f          	j	1a2c6 <_svfiprintf_r+0x4c>
   1acb8:	5782                	lw	a5,32(sp)
   1acba:	45f2                	lw	a1,28(sp)
   1acbc:	4901                	li	s2,0
   1acbe:	8c1d                	sub	s0,s0,a5
   1acc0:	863e                	mv	a2,a5
   1acc2:	8522                	mv	a0,s0
   1acc4:	b10fc0ef          	jal	ra,16fd4 <strncpy>
   1acc8:	001cc583          	lbu	a1,1(s9)
   1accc:	4629                	li	a2,10
   1acce:	4681                	li	a3,0
   1acd0:	00b03833          	snez	a6,a1
   1acd4:	854e                	mv	a0,s3
   1acd6:	85d2                	mv	a1,s4
   1acd8:	9cc2                	add	s9,s9,a6
   1acda:	027000ef          	jal	ra,1b500 <__udivdi3>
   1acde:	bd79                	j	1ab7c <_svfiprintf_r+0x902>
   1ace0:	8a4a                	mv	s4,s2
   1ace2:	fa6ff06f          	j	1a488 <_svfiprintf_r+0x20e>
   1ace6:	04097793          	andi	a5,s2,64
   1acea:	cbad                	beqz	a5,1ad5c <_svfiprintf_r+0xae2>
   1acec:	47b2                	lw	a5,12(sp)
   1acee:	4b81                	li	s7,0
   1acf0:	c632                	sw	a2,12(sp)
   1acf2:	0007dc83          	lhu	s9,0(a5)
   1acf6:	b781                	j	1ac36 <_svfiprintf_r+0x9bc>
   1acf8:	0090                	addi	a2,sp,64
   1acfa:	85d2                	mv	a1,s4
   1acfc:	855a                	mv	a0,s6
   1acfe:	d246                	sw	a7,36(sp)
   1ad00:	c4eff0ef          	jal	ra,1a14e <__ssprint_r>
   1ad04:	f8051263          	bnez	a0,1a488 <_svfiprintf_r+0x20e>
   1ad08:	4616                	lw	a2,68(sp)
   1ad0a:	47a6                	lw	a5,72(sp)
   1ad0c:	5892                	lw	a7,36(sp)
   1ad0e:	08d4                	addi	a3,sp,84
   1ad10:	00160593          	addi	a1,a2,1
   1ad14:	8dd6                	mv	s11,s5
   1ad16:	f20ff06f          	j	1a436 <_svfiprintf_r+0x1bc>
   1ad1a:	0019c683          	lbu	a3,1(s3)
   1ad1e:	20096913          	ori	s2,s2,512
   1ad22:	0985                	addi	s3,s3,1
   1ad24:	e3eff06f          	j	1a362 <_svfiprintf_r+0xe8>
   1ad28:	0019c683          	lbu	a3,1(s3)
   1ad2c:	02096913          	ori	s2,s2,32
   1ad30:	0985                	addi	s3,s3,1
   1ad32:	e30ff06f          	j	1a362 <_svfiprintf_r+0xe8>
   1ad36:	8a22                	mv	s4,s0
   1ad38:	f50ff06f          	j	1a488 <_svfiprintf_r+0x20e>
   1ad3c:	47a2                	lw	a5,8(sp)
   1ad3e:	c29c                	sw	a5,0(a3)
   1ad40:	db8ff06f          	j	1a2f8 <_svfiprintf_r+0x7e>
   1ad44:	4799                	li	a5,6
   1ad46:	8cc6                	mv	s9,a7
   1ad48:	0117f363          	bgeu	a5,a7,1ad4e <_svfiprintf_r+0xad4>
   1ad4c:	4c99                	li	s9,6
   1ad4e:	6e79                	lui	t3,0x1e
   1ad50:	8be6                	mv	s7,s9
   1ad52:	c66a                	sw	s10,12(sp)
   1ad54:	6f8e0413          	addi	s0,t3,1784 # 1e6f8 <__clzsi2+0xca>
   1ad58:	e58ff06f          	j	1a3b0 <_svfiprintf_r+0x136>
   1ad5c:	20097793          	andi	a5,s2,512
   1ad60:	c7c9                	beqz	a5,1adea <_svfiprintf_r+0xb70>
   1ad62:	47b2                	lw	a5,12(sp)
   1ad64:	4b81                	li	s7,0
   1ad66:	c632                	sw	a2,12(sp)
   1ad68:	0007cc83          	lbu	s9,0(a5)
   1ad6c:	b5e9                	j	1ac36 <_svfiprintf_r+0x9bc>
   1ad6e:	20097793          	andi	a5,s2,512
   1ad72:	c7ad                	beqz	a5,1addc <_svfiprintf_r+0xb62>
   1ad74:	47b2                	lw	a5,12(sp)
   1ad76:	4b81                	li	s7,0
   1ad78:	c636                	sw	a3,12(sp)
   1ad7a:	0007cc83          	lbu	s9,0(a5)
   1ad7e:	b0bd                	j	1a5ec <_svfiprintf_r+0x372>
   1ad80:	20097793          	andi	a5,s2,512
   1ad84:	c3b9                	beqz	a5,1adca <_svfiprintf_r+0xb50>
   1ad86:	47b2                	lw	a5,12(sp)
   1ad88:	c636                	sw	a3,12(sp)
   1ad8a:	00078c83          	lb	s9,0(a5)
   1ad8e:	41fcdb93          	srai	s7,s9,0x1f
   1ad92:	86de                	mv	a3,s7
   1ad94:	ff2ff06f          	j	1a586 <_svfiprintf_r+0x30c>
   1ad98:	200d7793          	andi	a5,s10,512
   1ad9c:	cf99                	beqz	a5,1adba <_svfiprintf_r+0xb40>
   1ad9e:	47b2                	lw	a5,12(sp)
   1ada0:	4b81                	li	s7,0
   1ada2:	c636                	sw	a3,12(sp)
   1ada4:	0007cc83          	lbu	s9,0(a5)
   1ada8:	4685                	li	a3,1
   1adaa:	849ff06f          	j	1a5f2 <_svfiprintf_r+0x378>
   1adae:	8636                	mv	a2,a3
   1adb0:	beb5                	j	1a92c <_svfiprintf_r+0x6b2>
   1adb2:	47a5                	li	a5,9
   1adb4:	dd37e4e3          	bltu	a5,s3,1ab7c <_svfiprintf_r+0x902>
   1adb8:	bbfd                	j	1abb6 <_svfiprintf_r+0x93c>
   1adba:	47b2                	lw	a5,12(sp)
   1adbc:	4b81                	li	s7,0
   1adbe:	c636                	sw	a3,12(sp)
   1adc0:	0007ac83          	lw	s9,0(a5)
   1adc4:	4685                	li	a3,1
   1adc6:	82dff06f          	j	1a5f2 <_svfiprintf_r+0x378>
   1adca:	47b2                	lw	a5,12(sp)
   1adcc:	c636                	sw	a3,12(sp)
   1adce:	0007ac83          	lw	s9,0(a5)
   1add2:	41fcdb93          	srai	s7,s9,0x1f
   1add6:	86de                	mv	a3,s7
   1add8:	faeff06f          	j	1a586 <_svfiprintf_r+0x30c>
   1addc:	47b2                	lw	a5,12(sp)
   1adde:	4b81                	li	s7,0
   1ade0:	c636                	sw	a3,12(sp)
   1ade2:	0007ac83          	lw	s9,0(a5)
   1ade6:	807ff06f          	j	1a5ec <_svfiprintf_r+0x372>
   1adea:	47b2                	lw	a5,12(sp)
   1adec:	4b81                	li	s7,0
   1adee:	c632                	sw	a2,12(sp)
   1adf0:	0007ac83          	lw	s9,0(a5)
   1adf4:	b589                	j	1ac36 <_svfiprintf_r+0x9bc>
   1adf6:	47a2                	lw	a5,8(sp)
   1adf8:	00f69023          	sh	a5,0(a3)
   1adfc:	cfcff06f          	j	1a2f8 <_svfiprintf_r+0x7e>
   1ae00:	0090                	addi	a2,sp,64
   1ae02:	85d2                	mv	a1,s4
   1ae04:	855a                	mv	a0,s6
   1ae06:	b48ff0ef          	jal	ra,1a14e <__ssprint_r>
   1ae0a:	e7eff06f          	j	1a488 <_svfiprintf_r+0x20e>
   1ae0e:	8cc6                	mv	s9,a7
   1ae10:	c66a                	sw	s10,12(sp)
   1ae12:	4881                	li	a7,0
   1ae14:	fa4ff06f          	j	1a5b8 <_svfiprintf_r+0x33e>
   1ae18:	8d4a                	mv	s10,s2
   1ae1a:	f8eff06f          	j	1a5a8 <_svfiprintf_r+0x32e>
   1ae1e:	8536                	mv	a0,a3
   1ae20:	862e                	mv	a2,a1
   1ae22:	bc61                	j	1a8ba <_svfiprintf_r+0x640>
   1ae24:	57fd                	li	a5,-1
   1ae26:	c43e                	sw	a5,8(sp)
   1ae28:	e6cff06f          	j	1a494 <_svfiprintf_r+0x21a>
   1ae2c:	47b2                	lw	a5,12(sp)
   1ae2e:	4380                	lw	s0,0(a5)
   1ae30:	0791                	addi	a5,a5,4
   1ae32:	00045363          	bgez	s0,1ae38 <_svfiprintf_r+0xbbe>
   1ae36:	547d                	li	s0,-1
   1ae38:	0019c683          	lbu	a3,1(s3)
   1ae3c:	c63e                	sw	a5,12(sp)
   1ae3e:	89ba                	mv	s3,a4
   1ae40:	d22ff06f          	j	1a362 <_svfiprintf_r+0xe8>
   1ae44:	47b1                	li	a5,12
   1ae46:	00fb2023          	sw	a5,0(s6)
   1ae4a:	57fd                	li	a5,-1
   1ae4c:	c43e                	sw	a5,8(sp)
   1ae4e:	e46ff06f          	j	1a494 <_svfiprintf_r+0x21a>

0001ae52 <_wcrtomb_r>:
   1ae52:	1101                	addi	sp,sp,-32
   1ae54:	cc22                	sw	s0,24(sp)
   1ae56:	ca26                	sw	s1,20(sp)
   1ae58:	ce06                	sw	ra,28(sp)
   1ae5a:	d081a783          	lw	a5,-760(gp) # 20a08 <__global_locale+0xe0>
   1ae5e:	842a                	mv	s0,a0
   1ae60:	84b6                	mv	s1,a3
   1ae62:	c991                	beqz	a1,1ae76 <_wcrtomb_r+0x24>
   1ae64:	9782                	jalr	a5
   1ae66:	57fd                	li	a5,-1
   1ae68:	00f50d63          	beq	a0,a5,1ae82 <_wcrtomb_r+0x30>
   1ae6c:	40f2                	lw	ra,28(sp)
   1ae6e:	4462                	lw	s0,24(sp)
   1ae70:	44d2                	lw	s1,20(sp)
   1ae72:	6105                	addi	sp,sp,32
   1ae74:	8082                	ret
   1ae76:	4601                	li	a2,0
   1ae78:	004c                	addi	a1,sp,4
   1ae7a:	9782                	jalr	a5
   1ae7c:	57fd                	li	a5,-1
   1ae7e:	fef517e3          	bne	a0,a5,1ae6c <_wcrtomb_r+0x1a>
   1ae82:	0004a023          	sw	zero,0(s1)
   1ae86:	08a00793          	li	a5,138
   1ae8a:	40f2                	lw	ra,28(sp)
   1ae8c:	c01c                	sw	a5,0(s0)
   1ae8e:	4462                	lw	s0,24(sp)
   1ae90:	44d2                	lw	s1,20(sp)
   1ae92:	6105                	addi	sp,sp,32
   1ae94:	8082                	ret

0001ae96 <wcrtomb>:
   1ae96:	1101                	addi	sp,sp,-32
   1ae98:	cc22                	sw	s0,24(sp)
   1ae9a:	ca26                	sw	s1,20(sp)
   1ae9c:	ce06                	sw	ra,28(sp)
   1ae9e:	1c01a483          	lw	s1,448(gp) # 20ec0 <_impure_ptr>
   1aea2:	d081a783          	lw	a5,-760(gp) # 20a08 <__global_locale+0xe0>
   1aea6:	8432                	mv	s0,a2
   1aea8:	cd11                	beqz	a0,1aec4 <wcrtomb+0x2e>
   1aeaa:	862e                	mv	a2,a1
   1aeac:	86a2                	mv	a3,s0
   1aeae:	85aa                	mv	a1,a0
   1aeb0:	8526                	mv	a0,s1
   1aeb2:	9782                	jalr	a5
   1aeb4:	57fd                	li	a5,-1
   1aeb6:	00f50f63          	beq	a0,a5,1aed4 <wcrtomb+0x3e>
   1aeba:	40f2                	lw	ra,28(sp)
   1aebc:	4462                	lw	s0,24(sp)
   1aebe:	44d2                	lw	s1,20(sp)
   1aec0:	6105                	addi	sp,sp,32
   1aec2:	8082                	ret
   1aec4:	86b2                	mv	a3,a2
   1aec6:	004c                	addi	a1,sp,4
   1aec8:	4601                	li	a2,0
   1aeca:	8526                	mv	a0,s1
   1aecc:	9782                	jalr	a5
   1aece:	57fd                	li	a5,-1
   1aed0:	fef515e3          	bne	a0,a5,1aeba <wcrtomb+0x24>
   1aed4:	00042023          	sw	zero,0(s0)
   1aed8:	40f2                	lw	ra,28(sp)
   1aeda:	4462                	lw	s0,24(sp)
   1aedc:	08a00793          	li	a5,138
   1aee0:	c09c                	sw	a5,0(s1)
   1aee2:	44d2                	lw	s1,20(sp)
   1aee4:	6105                	addi	sp,sp,32
   1aee6:	8082                	ret

0001aee8 <abort>:
   1aee8:	1141                	addi	sp,sp,-16
   1aeea:	4519                	li	a0,6
   1aeec:	c606                	sw	ra,12(sp)
   1aeee:	2c11                	jal	1b102 <raise>
   1aef0:	4505                	li	a0,1
   1aef2:	210d                	jal	1b314 <_exit>

0001aef4 <__register_exitproc>:
   1aef4:	1b81a703          	lw	a4,440(gp) # 20eb8 <_global_impure_ptr>
   1aef8:	14872783          	lw	a5,328(a4)
   1aefc:	c3a1                	beqz	a5,1af3c <__register_exitproc+0x48>
   1aefe:	43d8                	lw	a4,4(a5)
   1af00:	487d                	li	a6,31
   1af02:	04e84d63          	blt	a6,a4,1af5c <__register_exitproc+0x68>
   1af06:	00271813          	slli	a6,a4,0x2
   1af0a:	c11d                	beqz	a0,1af30 <__register_exitproc+0x3c>
   1af0c:	01078333          	add	t1,a5,a6
   1af10:	08c32423          	sw	a2,136(t1)
   1af14:	1887a883          	lw	a7,392(a5)
   1af18:	4605                	li	a2,1
   1af1a:	00e61633          	sll	a2,a2,a4
   1af1e:	00c8e8b3          	or	a7,a7,a2
   1af22:	1917a423          	sw	a7,392(a5)
   1af26:	10d32423          	sw	a3,264(t1)
   1af2a:	4689                	li	a3,2
   1af2c:	00d50d63          	beq	a0,a3,1af46 <__register_exitproc+0x52>
   1af30:	0705                	addi	a4,a4,1
   1af32:	c3d8                	sw	a4,4(a5)
   1af34:	97c2                	add	a5,a5,a6
   1af36:	c78c                	sw	a1,8(a5)
   1af38:	4501                	li	a0,0
   1af3a:	8082                	ret
   1af3c:	14c70793          	addi	a5,a4,332
   1af40:	14f72423          	sw	a5,328(a4)
   1af44:	bf6d                	j	1aefe <__register_exitproc+0xa>
   1af46:	18c7a683          	lw	a3,396(a5)
   1af4a:	0705                	addi	a4,a4,1
   1af4c:	c3d8                	sw	a4,4(a5)
   1af4e:	8e55                	or	a2,a2,a3
   1af50:	18c7a623          	sw	a2,396(a5)
   1af54:	97c2                	add	a5,a5,a6
   1af56:	c78c                	sw	a1,8(a5)
   1af58:	4501                	li	a0,0
   1af5a:	8082                	ret
   1af5c:	557d                	li	a0,-1
   1af5e:	8082                	ret

0001af60 <_init_signal_r>:
   1af60:	2dc52783          	lw	a5,732(a0)
   1af64:	c399                	beqz	a5,1af6a <_init_signal_r+0xa>
   1af66:	4501                	li	a0,0
   1af68:	8082                	ret
   1af6a:	1141                	addi	sp,sp,-16
   1af6c:	08000593          	li	a1,128
   1af70:	c422                	sw	s0,8(sp)
   1af72:	c606                	sw	ra,12(sp)
   1af74:	842a                	mv	s0,a0
   1af76:	c90fa0ef          	jal	ra,15406 <_malloc_r>
   1af7a:	2ca42e23          	sw	a0,732(s0)
   1af7e:	cd09                	beqz	a0,1af98 <_init_signal_r+0x38>
   1af80:	08050793          	addi	a5,a0,128
   1af84:	00052023          	sw	zero,0(a0)
   1af88:	0511                	addi	a0,a0,4
   1af8a:	fef51de3          	bne	a0,a5,1af84 <_init_signal_r+0x24>
   1af8e:	4501                	li	a0,0
   1af90:	40b2                	lw	ra,12(sp)
   1af92:	4422                	lw	s0,8(sp)
   1af94:	0141                	addi	sp,sp,16
   1af96:	8082                	ret
   1af98:	557d                	li	a0,-1
   1af9a:	bfdd                	j	1af90 <_init_signal_r+0x30>

0001af9c <_signal_r>:
   1af9c:	1101                	addi	sp,sp,-32
   1af9e:	ca26                	sw	s1,20(sp)
   1afa0:	ce06                	sw	ra,28(sp)
   1afa2:	cc22                	sw	s0,24(sp)
   1afa4:	47fd                	li	a5,31
   1afa6:	84aa                	mv	s1,a0
   1afa8:	00b7ef63          	bltu	a5,a1,1afc6 <_signal_r+0x2a>
   1afac:	2dc52703          	lw	a4,732(a0)
   1afb0:	842e                	mv	s0,a1
   1afb2:	c315                	beqz	a4,1afd6 <_signal_r+0x3a>
   1afb4:	040a                	slli	s0,s0,0x2
   1afb6:	943a                	add	s0,s0,a4
   1afb8:	4008                	lw	a0,0(s0)
   1afba:	c010                	sw	a2,0(s0)
   1afbc:	40f2                	lw	ra,28(sp)
   1afbe:	4462                	lw	s0,24(sp)
   1afc0:	44d2                	lw	s1,20(sp)
   1afc2:	6105                	addi	sp,sp,32
   1afc4:	8082                	ret
   1afc6:	40f2                	lw	ra,28(sp)
   1afc8:	4462                	lw	s0,24(sp)
   1afca:	47d9                	li	a5,22
   1afcc:	c11c                	sw	a5,0(a0)
   1afce:	44d2                	lw	s1,20(sp)
   1afd0:	557d                	li	a0,-1
   1afd2:	6105                	addi	sp,sp,32
   1afd4:	8082                	ret
   1afd6:	08000593          	li	a1,128
   1afda:	c632                	sw	a2,12(sp)
   1afdc:	c2afa0ef          	jal	ra,15406 <_malloc_r>
   1afe0:	2ca4ae23          	sw	a0,732(s1)
   1afe4:	872a                	mv	a4,a0
   1afe6:	c919                	beqz	a0,1affc <_signal_r+0x60>
   1afe8:	4632                	lw	a2,12(sp)
   1afea:	87aa                	mv	a5,a0
   1afec:	08050693          	addi	a3,a0,128
   1aff0:	0007a023          	sw	zero,0(a5)
   1aff4:	0791                	addi	a5,a5,4
   1aff6:	fed79de3          	bne	a5,a3,1aff0 <_signal_r+0x54>
   1affa:	bf6d                	j	1afb4 <_signal_r+0x18>
   1affc:	557d                	li	a0,-1
   1affe:	bf7d                	j	1afbc <_signal_r+0x20>

0001b000 <_raise_r>:
   1b000:	1141                	addi	sp,sp,-16
   1b002:	c226                	sw	s1,4(sp)
   1b004:	c606                	sw	ra,12(sp)
   1b006:	c422                	sw	s0,8(sp)
   1b008:	47fd                	li	a5,31
   1b00a:	84aa                	mv	s1,a0
   1b00c:	06b7e363          	bltu	a5,a1,1b072 <_raise_r+0x72>
   1b010:	2dc52783          	lw	a5,732(a0)
   1b014:	842e                	mv	s0,a1
   1b016:	c795                	beqz	a5,1b042 <_raise_r+0x42>
   1b018:	00259713          	slli	a4,a1,0x2
   1b01c:	97ba                	add	a5,a5,a4
   1b01e:	4398                	lw	a4,0(a5)
   1b020:	c30d                	beqz	a4,1b042 <_raise_r+0x42>
   1b022:	4685                	li	a3,1
   1b024:	04d70163          	beq	a4,a3,1b066 <_raise_r+0x66>
   1b028:	56fd                	li	a3,-1
   1b02a:	02d70663          	beq	a4,a3,1b056 <_raise_r+0x56>
   1b02e:	852e                	mv	a0,a1
   1b030:	0007a023          	sw	zero,0(a5)
   1b034:	9702                	jalr	a4
   1b036:	4501                	li	a0,0
   1b038:	40b2                	lw	ra,12(sp)
   1b03a:	4422                	lw	s0,8(sp)
   1b03c:	4492                	lw	s1,4(sp)
   1b03e:	0141                	addi	sp,sp,16
   1b040:	8082                	ret
   1b042:	8526                	mv	a0,s1
   1b044:	244d                	jal	1b2e6 <_getpid_r>
   1b046:	8622                	mv	a2,s0
   1b048:	4422                	lw	s0,8(sp)
   1b04a:	40b2                	lw	ra,12(sp)
   1b04c:	85aa                	mv	a1,a0
   1b04e:	8526                	mv	a0,s1
   1b050:	4492                	lw	s1,4(sp)
   1b052:	0141                	addi	sp,sp,16
   1b054:	aca9                	j	1b2ae <_kill_r>
   1b056:	40b2                	lw	ra,12(sp)
   1b058:	4422                	lw	s0,8(sp)
   1b05a:	47d9                	li	a5,22
   1b05c:	c11c                	sw	a5,0(a0)
   1b05e:	4492                	lw	s1,4(sp)
   1b060:	4505                	li	a0,1
   1b062:	0141                	addi	sp,sp,16
   1b064:	8082                	ret
   1b066:	40b2                	lw	ra,12(sp)
   1b068:	4422                	lw	s0,8(sp)
   1b06a:	4492                	lw	s1,4(sp)
   1b06c:	4501                	li	a0,0
   1b06e:	0141                	addi	sp,sp,16
   1b070:	8082                	ret
   1b072:	47d9                	li	a5,22
   1b074:	c11c                	sw	a5,0(a0)
   1b076:	557d                	li	a0,-1
   1b078:	b7c1                	j	1b038 <_raise_r+0x38>

0001b07a <__sigtramp_r>:
   1b07a:	47fd                	li	a5,31
   1b07c:	08b7e163          	bltu	a5,a1,1b0fe <__sigtramp_r+0x84>
   1b080:	2dc52703          	lw	a4,732(a0)
   1b084:	1141                	addi	sp,sp,-16
   1b086:	c422                	sw	s0,8(sp)
   1b088:	c226                	sw	s1,4(sp)
   1b08a:	c606                	sw	ra,12(sp)
   1b08c:	842e                	mv	s0,a1
   1b08e:	84aa                	mv	s1,a0
   1b090:	cf05                	beqz	a4,1b0c8 <__sigtramp_r+0x4e>
   1b092:	00241513          	slli	a0,s0,0x2
   1b096:	972a                	add	a4,a4,a0
   1b098:	431c                	lw	a5,0(a4)
   1b09a:	c38d                	beqz	a5,1b0bc <__sigtramp_r+0x42>
   1b09c:	56fd                	li	a3,-1
   1b09e:	04d78c63          	beq	a5,a3,1b0f6 <__sigtramp_r+0x7c>
   1b0a2:	4685                	li	a3,1
   1b0a4:	04d78363          	beq	a5,a3,1b0ea <__sigtramp_r+0x70>
   1b0a8:	8522                	mv	a0,s0
   1b0aa:	00072023          	sw	zero,0(a4)
   1b0ae:	9782                	jalr	a5
   1b0b0:	4501                	li	a0,0
   1b0b2:	40b2                	lw	ra,12(sp)
   1b0b4:	4422                	lw	s0,8(sp)
   1b0b6:	4492                	lw	s1,4(sp)
   1b0b8:	0141                	addi	sp,sp,16
   1b0ba:	8082                	ret
   1b0bc:	40b2                	lw	ra,12(sp)
   1b0be:	4422                	lw	s0,8(sp)
   1b0c0:	4492                	lw	s1,4(sp)
   1b0c2:	4505                	li	a0,1
   1b0c4:	0141                	addi	sp,sp,16
   1b0c6:	8082                	ret
   1b0c8:	08000593          	li	a1,128
   1b0cc:	b3afa0ef          	jal	ra,15406 <_malloc_r>
   1b0d0:	2ca4ae23          	sw	a0,732(s1)
   1b0d4:	872a                	mv	a4,a0
   1b0d6:	c115                	beqz	a0,1b0fa <__sigtramp_r+0x80>
   1b0d8:	87aa                	mv	a5,a0
   1b0da:	08050693          	addi	a3,a0,128
   1b0de:	0007a023          	sw	zero,0(a5)
   1b0e2:	0791                	addi	a5,a5,4
   1b0e4:	fed79de3          	bne	a5,a3,1b0de <__sigtramp_r+0x64>
   1b0e8:	b76d                	j	1b092 <__sigtramp_r+0x18>
   1b0ea:	40b2                	lw	ra,12(sp)
   1b0ec:	4422                	lw	s0,8(sp)
   1b0ee:	4492                	lw	s1,4(sp)
   1b0f0:	450d                	li	a0,3
   1b0f2:	0141                	addi	sp,sp,16
   1b0f4:	8082                	ret
   1b0f6:	4509                	li	a0,2
   1b0f8:	bf6d                	j	1b0b2 <__sigtramp_r+0x38>
   1b0fa:	557d                	li	a0,-1
   1b0fc:	bf5d                	j	1b0b2 <__sigtramp_r+0x38>
   1b0fe:	557d                	li	a0,-1
   1b100:	8082                	ret

0001b102 <raise>:
   1b102:	1141                	addi	sp,sp,-16
   1b104:	c226                	sw	s1,4(sp)
   1b106:	c606                	sw	ra,12(sp)
   1b108:	c422                	sw	s0,8(sp)
   1b10a:	47fd                	li	a5,31
   1b10c:	1c01a483          	lw	s1,448(gp) # 20ec0 <_impure_ptr>
   1b110:	06a7e263          	bltu	a5,a0,1b174 <raise+0x72>
   1b114:	2dc4a783          	lw	a5,732(s1)
   1b118:	842a                	mv	s0,a0
   1b11a:	c78d                	beqz	a5,1b144 <raise+0x42>
   1b11c:	00251713          	slli	a4,a0,0x2
   1b120:	97ba                	add	a5,a5,a4
   1b122:	4398                	lw	a4,0(a5)
   1b124:	c305                	beqz	a4,1b144 <raise+0x42>
   1b126:	4685                	li	a3,1
   1b128:	04d70063          	beq	a4,a3,1b168 <raise+0x66>
   1b12c:	56fd                	li	a3,-1
   1b12e:	02d70563          	beq	a4,a3,1b158 <raise+0x56>
   1b132:	0007a023          	sw	zero,0(a5)
   1b136:	9702                	jalr	a4
   1b138:	4501                	li	a0,0
   1b13a:	40b2                	lw	ra,12(sp)
   1b13c:	4422                	lw	s0,8(sp)
   1b13e:	4492                	lw	s1,4(sp)
   1b140:	0141                	addi	sp,sp,16
   1b142:	8082                	ret
   1b144:	8526                	mv	a0,s1
   1b146:	2245                	jal	1b2e6 <_getpid_r>
   1b148:	8622                	mv	a2,s0
   1b14a:	4422                	lw	s0,8(sp)
   1b14c:	40b2                	lw	ra,12(sp)
   1b14e:	85aa                	mv	a1,a0
   1b150:	8526                	mv	a0,s1
   1b152:	4492                	lw	s1,4(sp)
   1b154:	0141                	addi	sp,sp,16
   1b156:	aaa1                	j	1b2ae <_kill_r>
   1b158:	40b2                	lw	ra,12(sp)
   1b15a:	4422                	lw	s0,8(sp)
   1b15c:	47d9                	li	a5,22
   1b15e:	c09c                	sw	a5,0(s1)
   1b160:	4505                	li	a0,1
   1b162:	4492                	lw	s1,4(sp)
   1b164:	0141                	addi	sp,sp,16
   1b166:	8082                	ret
   1b168:	40b2                	lw	ra,12(sp)
   1b16a:	4422                	lw	s0,8(sp)
   1b16c:	4492                	lw	s1,4(sp)
   1b16e:	4501                	li	a0,0
   1b170:	0141                	addi	sp,sp,16
   1b172:	8082                	ret
   1b174:	47d9                	li	a5,22
   1b176:	c09c                	sw	a5,0(s1)
   1b178:	557d                	li	a0,-1
   1b17a:	b7c1                	j	1b13a <raise+0x38>

0001b17c <signal>:
   1b17c:	1141                	addi	sp,sp,-16
   1b17e:	c04a                	sw	s2,0(sp)
   1b180:	c606                	sw	ra,12(sp)
   1b182:	c422                	sw	s0,8(sp)
   1b184:	c226                	sw	s1,4(sp)
   1b186:	47fd                	li	a5,31
   1b188:	1c01a903          	lw	s2,448(gp) # 20ec0 <_impure_ptr>
   1b18c:	02a7e163          	bltu	a5,a0,1b1ae <signal+0x32>
   1b190:	842a                	mv	s0,a0
   1b192:	2dc92503          	lw	a0,732(s2)
   1b196:	84ae                	mv	s1,a1
   1b198:	c50d                	beqz	a0,1b1c2 <signal+0x46>
   1b19a:	040a                	slli	s0,s0,0x2
   1b19c:	942a                	add	s0,s0,a0
   1b19e:	4008                	lw	a0,0(s0)
   1b1a0:	c004                	sw	s1,0(s0)
   1b1a2:	40b2                	lw	ra,12(sp)
   1b1a4:	4422                	lw	s0,8(sp)
   1b1a6:	4492                	lw	s1,4(sp)
   1b1a8:	4902                	lw	s2,0(sp)
   1b1aa:	0141                	addi	sp,sp,16
   1b1ac:	8082                	ret
   1b1ae:	40b2                	lw	ra,12(sp)
   1b1b0:	4422                	lw	s0,8(sp)
   1b1b2:	47d9                	li	a5,22
   1b1b4:	00f92023          	sw	a5,0(s2)
   1b1b8:	4492                	lw	s1,4(sp)
   1b1ba:	4902                	lw	s2,0(sp)
   1b1bc:	557d                	li	a0,-1
   1b1be:	0141                	addi	sp,sp,16
   1b1c0:	8082                	ret
   1b1c2:	08000593          	li	a1,128
   1b1c6:	854a                	mv	a0,s2
   1b1c8:	a3efa0ef          	jal	ra,15406 <_malloc_r>
   1b1cc:	2ca92e23          	sw	a0,732(s2)
   1b1d0:	c911                	beqz	a0,1b1e4 <signal+0x68>
   1b1d2:	87aa                	mv	a5,a0
   1b1d4:	08050713          	addi	a4,a0,128
   1b1d8:	0007a023          	sw	zero,0(a5)
   1b1dc:	0791                	addi	a5,a5,4
   1b1de:	fef71de3          	bne	a4,a5,1b1d8 <signal+0x5c>
   1b1e2:	bf65                	j	1b19a <signal+0x1e>
   1b1e4:	557d                	li	a0,-1
   1b1e6:	bf75                	j	1b1a2 <signal+0x26>

0001b1e8 <_init_signal>:
   1b1e8:	1141                	addi	sp,sp,-16
   1b1ea:	c422                	sw	s0,8(sp)
   1b1ec:	1c01a403          	lw	s0,448(gp) # 20ec0 <_impure_ptr>
   1b1f0:	c606                	sw	ra,12(sp)
   1b1f2:	2dc42783          	lw	a5,732(s0)
   1b1f6:	c791                	beqz	a5,1b202 <_init_signal+0x1a>
   1b1f8:	4501                	li	a0,0
   1b1fa:	40b2                	lw	ra,12(sp)
   1b1fc:	4422                	lw	s0,8(sp)
   1b1fe:	0141                	addi	sp,sp,16
   1b200:	8082                	ret
   1b202:	08000593          	li	a1,128
   1b206:	8522                	mv	a0,s0
   1b208:	9fefa0ef          	jal	ra,15406 <_malloc_r>
   1b20c:	2ca42e23          	sw	a0,732(s0)
   1b210:	c909                	beqz	a0,1b222 <_init_signal+0x3a>
   1b212:	08050793          	addi	a5,a0,128
   1b216:	00052023          	sw	zero,0(a0)
   1b21a:	0511                	addi	a0,a0,4
   1b21c:	fef51de3          	bne	a0,a5,1b216 <_init_signal+0x2e>
   1b220:	bfe1                	j	1b1f8 <_init_signal+0x10>
   1b222:	557d                	li	a0,-1
   1b224:	bfd9                	j	1b1fa <_init_signal+0x12>

0001b226 <__sigtramp>:
   1b226:	1141                	addi	sp,sp,-16
   1b228:	c226                	sw	s1,4(sp)
   1b22a:	c606                	sw	ra,12(sp)
   1b22c:	c422                	sw	s0,8(sp)
   1b22e:	47fd                	li	a5,31
   1b230:	1c01a483          	lw	s1,448(gp) # 20ec0 <_impure_ptr>
   1b234:	06a7eb63          	bltu	a5,a0,1b2aa <__sigtramp+0x84>
   1b238:	2dc4a703          	lw	a4,732(s1)
   1b23c:	842a                	mv	s0,a0
   1b23e:	cf05                	beqz	a4,1b276 <__sigtramp+0x50>
   1b240:	00241513          	slli	a0,s0,0x2
   1b244:	972a                	add	a4,a4,a0
   1b246:	431c                	lw	a5,0(a4)
   1b248:	c38d                	beqz	a5,1b26a <__sigtramp+0x44>
   1b24a:	56fd                	li	a3,-1
   1b24c:	04d78d63          	beq	a5,a3,1b2a6 <__sigtramp+0x80>
   1b250:	4685                	li	a3,1
   1b252:	04d78463          	beq	a5,a3,1b29a <__sigtramp+0x74>
   1b256:	8522                	mv	a0,s0
   1b258:	00072023          	sw	zero,0(a4)
   1b25c:	9782                	jalr	a5
   1b25e:	4501                	li	a0,0
   1b260:	40b2                	lw	ra,12(sp)
   1b262:	4422                	lw	s0,8(sp)
   1b264:	4492                	lw	s1,4(sp)
   1b266:	0141                	addi	sp,sp,16
   1b268:	8082                	ret
   1b26a:	40b2                	lw	ra,12(sp)
   1b26c:	4422                	lw	s0,8(sp)
   1b26e:	4492                	lw	s1,4(sp)
   1b270:	4505                	li	a0,1
   1b272:	0141                	addi	sp,sp,16
   1b274:	8082                	ret
   1b276:	08000593          	li	a1,128
   1b27a:	8526                	mv	a0,s1
   1b27c:	98afa0ef          	jal	ra,15406 <_malloc_r>
   1b280:	2ca4ae23          	sw	a0,732(s1)
   1b284:	872a                	mv	a4,a0
   1b286:	c115                	beqz	a0,1b2aa <__sigtramp+0x84>
   1b288:	87aa                	mv	a5,a0
   1b28a:	08050693          	addi	a3,a0,128
   1b28e:	0007a023          	sw	zero,0(a5)
   1b292:	0791                	addi	a5,a5,4
   1b294:	fed79de3          	bne	a5,a3,1b28e <__sigtramp+0x68>
   1b298:	b765                	j	1b240 <__sigtramp+0x1a>
   1b29a:	40b2                	lw	ra,12(sp)
   1b29c:	4422                	lw	s0,8(sp)
   1b29e:	4492                	lw	s1,4(sp)
   1b2a0:	450d                	li	a0,3
   1b2a2:	0141                	addi	sp,sp,16
   1b2a4:	8082                	ret
   1b2a6:	4509                	li	a0,2
   1b2a8:	bf65                	j	1b260 <__sigtramp+0x3a>
   1b2aa:	557d                	li	a0,-1
   1b2ac:	bf55                	j	1b260 <__sigtramp+0x3a>

0001b2ae <_kill_r>:
   1b2ae:	1141                	addi	sp,sp,-16
   1b2b0:	872e                	mv	a4,a1
   1b2b2:	c422                	sw	s0,8(sp)
   1b2b4:	c226                	sw	s1,4(sp)
   1b2b6:	842a                	mv	s0,a0
   1b2b8:	85b2                	mv	a1,a2
   1b2ba:	853a                	mv	a0,a4
   1b2bc:	c606                	sw	ra,12(sp)
   1b2be:	1c01ae23          	sw	zero,476(gp) # 20edc <errno>
   1b2c2:	28d9                	jal	1b398 <_kill>
   1b2c4:	57fd                	li	a5,-1
   1b2c6:	00f50763          	beq	a0,a5,1b2d4 <_kill_r+0x26>
   1b2ca:	40b2                	lw	ra,12(sp)
   1b2cc:	4422                	lw	s0,8(sp)
   1b2ce:	4492                	lw	s1,4(sp)
   1b2d0:	0141                	addi	sp,sp,16
   1b2d2:	8082                	ret
   1b2d4:	1dc1a783          	lw	a5,476(gp) # 20edc <errno>
   1b2d8:	dbed                	beqz	a5,1b2ca <_kill_r+0x1c>
   1b2da:	40b2                	lw	ra,12(sp)
   1b2dc:	c01c                	sw	a5,0(s0)
   1b2de:	4422                	lw	s0,8(sp)
   1b2e0:	4492                	lw	s1,4(sp)
   1b2e2:	0141                	addi	sp,sp,16
   1b2e4:	8082                	ret

0001b2e6 <_getpid_r>:
   1b2e6:	a069                	j	1b370 <_getpid>

0001b2e8 <_close>:
   1b2e8:	1141                	addi	sp,sp,-16
   1b2ea:	c606                	sw	ra,12(sp)
   1b2ec:	c422                	sw	s0,8(sp)
   1b2ee:	03900893          	li	a7,57
   1b2f2:	00000073          	ecall
   1b2f6:	842a                	mv	s0,a0
   1b2f8:	00054763          	bltz	a0,1b306 <_close+0x1e>
   1b2fc:	40b2                	lw	ra,12(sp)
   1b2fe:	8522                	mv	a0,s0
   1b300:	4422                	lw	s0,8(sp)
   1b302:	0141                	addi	sp,sp,16
   1b304:	8082                	ret
   1b306:	40800433          	neg	s0,s0
   1b30a:	9d1fe0ef          	jal	ra,19cda <__errno>
   1b30e:	c100                	sw	s0,0(a0)
   1b310:	547d                	li	s0,-1
   1b312:	b7ed                	j	1b2fc <_close+0x14>

0001b314 <_exit>:
   1b314:	05d00893          	li	a7,93
   1b318:	00000073          	ecall
   1b31c:	00054363          	bltz	a0,1b322 <_exit+0xe>
   1b320:	a001                	j	1b320 <_exit+0xc>
   1b322:	1141                	addi	sp,sp,-16
   1b324:	c422                	sw	s0,8(sp)
   1b326:	842a                	mv	s0,a0
   1b328:	c606                	sw	ra,12(sp)
   1b32a:	40800433          	neg	s0,s0
   1b32e:	9adfe0ef          	jal	ra,19cda <__errno>
   1b332:	c100                	sw	s0,0(a0)
   1b334:	a001                	j	1b334 <_exit+0x20>

0001b336 <_fstat>:
   1b336:	7175                	addi	sp,sp,-144
   1b338:	c326                	sw	s1,132(sp)
   1b33a:	c706                	sw	ra,140(sp)
   1b33c:	84ae                	mv	s1,a1
   1b33e:	c522                	sw	s0,136(sp)
   1b340:	05000893          	li	a7,80
   1b344:	858a                	mv	a1,sp
   1b346:	00000073          	ecall
   1b34a:	842a                	mv	s0,a0
   1b34c:	00054b63          	bltz	a0,1b362 <_fstat+0x2c>
   1b350:	8526                	mv	a0,s1
   1b352:	858a                	mv	a1,sp
   1b354:	2a05                	jal	1b484 <_conv_stat>
   1b356:	40ba                	lw	ra,140(sp)
   1b358:	8522                	mv	a0,s0
   1b35a:	442a                	lw	s0,136(sp)
   1b35c:	449a                	lw	s1,132(sp)
   1b35e:	6149                	addi	sp,sp,144
   1b360:	8082                	ret
   1b362:	40800433          	neg	s0,s0
   1b366:	975fe0ef          	jal	ra,19cda <__errno>
   1b36a:	c100                	sw	s0,0(a0)
   1b36c:	547d                	li	s0,-1
   1b36e:	b7cd                	j	1b350 <_fstat+0x1a>

0001b370 <_getpid>:
   1b370:	4505                	li	a0,1
   1b372:	8082                	ret

0001b374 <_isatty>:
   1b374:	7159                	addi	sp,sp,-112
   1b376:	002c                	addi	a1,sp,8
   1b378:	d686                	sw	ra,108(sp)
   1b37a:	fbdff0ef          	jal	ra,1b336 <_fstat>
   1b37e:	57fd                	li	a5,-1
   1b380:	00f50863          	beq	a0,a5,1b390 <_isatty+0x1c>
   1b384:	4532                	lw	a0,12(sp)
   1b386:	50b6                	lw	ra,108(sp)
   1b388:	8135                	srli	a0,a0,0xd
   1b38a:	8905                	andi	a0,a0,1
   1b38c:	6165                	addi	sp,sp,112
   1b38e:	8082                	ret
   1b390:	50b6                	lw	ra,108(sp)
   1b392:	4501                	li	a0,0
   1b394:	6165                	addi	sp,sp,112
   1b396:	8082                	ret

0001b398 <_kill>:
   1b398:	1141                	addi	sp,sp,-16
   1b39a:	c606                	sw	ra,12(sp)
   1b39c:	93ffe0ef          	jal	ra,19cda <__errno>
   1b3a0:	40b2                	lw	ra,12(sp)
   1b3a2:	47d9                	li	a5,22
   1b3a4:	c11c                	sw	a5,0(a0)
   1b3a6:	557d                	li	a0,-1
   1b3a8:	0141                	addi	sp,sp,16
   1b3aa:	8082                	ret

0001b3ac <_lseek>:
   1b3ac:	1141                	addi	sp,sp,-16
   1b3ae:	c606                	sw	ra,12(sp)
   1b3b0:	c422                	sw	s0,8(sp)
   1b3b2:	03e00893          	li	a7,62
   1b3b6:	00000073          	ecall
   1b3ba:	842a                	mv	s0,a0
   1b3bc:	00054763          	bltz	a0,1b3ca <_lseek+0x1e>
   1b3c0:	40b2                	lw	ra,12(sp)
   1b3c2:	8522                	mv	a0,s0
   1b3c4:	4422                	lw	s0,8(sp)
   1b3c6:	0141                	addi	sp,sp,16
   1b3c8:	8082                	ret
   1b3ca:	40800433          	neg	s0,s0
   1b3ce:	90dfe0ef          	jal	ra,19cda <__errno>
   1b3d2:	c100                	sw	s0,0(a0)
   1b3d4:	547d                	li	s0,-1
   1b3d6:	b7ed                	j	1b3c0 <_lseek+0x14>

0001b3d8 <_read>:
   1b3d8:	1141                	addi	sp,sp,-16
   1b3da:	c606                	sw	ra,12(sp)
   1b3dc:	c422                	sw	s0,8(sp)
   1b3de:	03f00893          	li	a7,63
   1b3e2:	00000073          	ecall
   1b3e6:	842a                	mv	s0,a0
   1b3e8:	00054763          	bltz	a0,1b3f6 <_read+0x1e>
   1b3ec:	40b2                	lw	ra,12(sp)
   1b3ee:	8522                	mv	a0,s0
   1b3f0:	4422                	lw	s0,8(sp)
   1b3f2:	0141                	addi	sp,sp,16
   1b3f4:	8082                	ret
   1b3f6:	40800433          	neg	s0,s0
   1b3fa:	8e1fe0ef          	jal	ra,19cda <__errno>
   1b3fe:	c100                	sw	s0,0(a0)
   1b400:	547d                	li	s0,-1
   1b402:	b7ed                	j	1b3ec <_read+0x14>

0001b404 <_sbrk>:
   1b404:	1e01a703          	lw	a4,480(gp) # 20ee0 <heap_end.0>
   1b408:	1141                	addi	sp,sp,-16
   1b40a:	c606                	sw	ra,12(sp)
   1b40c:	87aa                	mv	a5,a0
   1b40e:	ef01                	bnez	a4,1b426 <_sbrk+0x22>
   1b410:	0d600893          	li	a7,214
   1b414:	4501                	li	a0,0
   1b416:	00000073          	ecall
   1b41a:	567d                	li	a2,-1
   1b41c:	872a                	mv	a4,a0
   1b41e:	02c50563          	beq	a0,a2,1b448 <_sbrk+0x44>
   1b422:	1ea1a023          	sw	a0,480(gp) # 20ee0 <heap_end.0>
   1b426:	0d600893          	li	a7,214
   1b42a:	00e78533          	add	a0,a5,a4
   1b42e:	00000073          	ecall
   1b432:	1e01a703          	lw	a4,480(gp) # 20ee0 <heap_end.0>
   1b436:	97ba                	add	a5,a5,a4
   1b438:	00f51863          	bne	a0,a5,1b448 <_sbrk+0x44>
   1b43c:	40b2                	lw	ra,12(sp)
   1b43e:	1ea1a023          	sw	a0,480(gp) # 20ee0 <heap_end.0>
   1b442:	853a                	mv	a0,a4
   1b444:	0141                	addi	sp,sp,16
   1b446:	8082                	ret
   1b448:	893fe0ef          	jal	ra,19cda <__errno>
   1b44c:	40b2                	lw	ra,12(sp)
   1b44e:	47b1                	li	a5,12
   1b450:	c11c                	sw	a5,0(a0)
   1b452:	557d                	li	a0,-1
   1b454:	0141                	addi	sp,sp,16
   1b456:	8082                	ret

0001b458 <_write>:
   1b458:	1141                	addi	sp,sp,-16
   1b45a:	c606                	sw	ra,12(sp)
   1b45c:	c422                	sw	s0,8(sp)
   1b45e:	04000893          	li	a7,64
   1b462:	00000073          	ecall
   1b466:	842a                	mv	s0,a0
   1b468:	00054763          	bltz	a0,1b476 <_write+0x1e>
   1b46c:	40b2                	lw	ra,12(sp)
   1b46e:	8522                	mv	a0,s0
   1b470:	4422                	lw	s0,8(sp)
   1b472:	0141                	addi	sp,sp,16
   1b474:	8082                	ret
   1b476:	40800433          	neg	s0,s0
   1b47a:	861fe0ef          	jal	ra,19cda <__errno>
   1b47e:	c100                	sw	s0,0(a0)
   1b480:	547d                	li	s0,-1
   1b482:	b7ed                	j	1b46c <_write+0x14>

0001b484 <_conv_stat>:
   1b484:	1141                	addi	sp,sp,-16
   1b486:	0145a383          	lw	t2,20(a1)
   1b48a:	0185a283          	lw	t0,24(a1)
   1b48e:	01c5af83          	lw	t6,28(a1)
   1b492:	0205af03          	lw	t5,32(a1)
   1b496:	0305ae83          	lw	t4,48(a1)
   1b49a:	0405ae03          	lw	t3,64(a1)
   1b49e:	0385a303          	lw	t1,56(a1)
   1b4a2:	0485a803          	lw	a6,72(a1)
   1b4a6:	04c5a883          	lw	a7,76(a1)
   1b4aa:	4db0                	lw	a2,88(a1)
   1b4ac:	c622                	sw	s0,12(sp)
   1b4ae:	c426                	sw	s1,8(sp)
   1b4b0:	4980                	lw	s0,16(a1)
   1b4b2:	4584                	lw	s1,8(a1)
   1b4b4:	c24a                	sw	s2,4(sp)
   1b4b6:	0005a903          	lw	s2,0(a1)
   1b4ba:	4df4                	lw	a3,92(a1)
   1b4bc:	55b8                	lw	a4,104(a1)
   1b4be:	55fc                	lw	a5,108(a1)
   1b4c0:	01251023          	sh	s2,0(a0)
   1b4c4:	00951123          	sh	s1,2(a0)
   1b4c8:	c140                	sw	s0,4(a0)
   1b4ca:	00751423          	sh	t2,8(a0)
   1b4ce:	00551523          	sh	t0,10(a0)
   1b4d2:	01f51623          	sh	t6,12(a0)
   1b4d6:	01e51723          	sh	t5,14(a0)
   1b4da:	01d52823          	sw	t4,16(a0)
   1b4de:	05c52623          	sw	t3,76(a0)
   1b4e2:	04652423          	sw	t1,72(a0)
   1b4e6:	01052c23          	sw	a6,24(a0)
   1b4ea:	01152e23          	sw	a7,28(a0)
   1b4ee:	d510                	sw	a2,40(a0)
   1b4f0:	d554                	sw	a3,44(a0)
   1b4f2:	4432                	lw	s0,12(sp)
   1b4f4:	dd18                	sw	a4,56(a0)
   1b4f6:	dd5c                	sw	a5,60(a0)
   1b4f8:	44a2                	lw	s1,8(sp)
   1b4fa:	4912                	lw	s2,4(sp)
   1b4fc:	0141                	addi	sp,sp,16
   1b4fe:	8082                	ret

0001b500 <__udivdi3>:
   1b500:	88aa                	mv	a7,a0
   1b502:	87ae                	mv	a5,a1
   1b504:	8832                	mv	a6,a2
   1b506:	8536                	mv	a0,a3
   1b508:	8346                	mv	t1,a7
   1b50a:	20069663          	bnez	a3,1b716 <__udivdi3+0x216>
   1b50e:	0001f6b7          	lui	a3,0x1f
   1b512:	3b468693          	addi	a3,a3,948 # 1f3b4 <__clz_tab>
   1b516:	0ac5ff63          	bgeu	a1,a2,1b5d4 <__udivdi3+0xd4>
   1b51a:	6741                	lui	a4,0x10
   1b51c:	0ae67563          	bgeu	a2,a4,1b5c6 <__udivdi3+0xc6>
   1b520:	0ff00713          	li	a4,255
   1b524:	00c73733          	sltu	a4,a4,a2
   1b528:	070e                	slli	a4,a4,0x3
   1b52a:	00e65533          	srl	a0,a2,a4
   1b52e:	96aa                	add	a3,a3,a0
   1b530:	0006c683          	lbu	a3,0(a3)
   1b534:	02000513          	li	a0,32
   1b538:	9736                	add	a4,a4,a3
   1b53a:	40e506b3          	sub	a3,a0,a4
   1b53e:	00e50b63          	beq	a0,a4,1b554 <__udivdi3+0x54>
   1b542:	00d795b3          	sll	a1,a5,a3
   1b546:	00e8d733          	srl	a4,a7,a4
   1b54a:	00d61833          	sll	a6,a2,a3
   1b54e:	8dd9                	or	a1,a1,a4
   1b550:	00d89333          	sll	t1,a7,a3
   1b554:	01085893          	srli	a7,a6,0x10
   1b558:	0315d6b3          	divu	a3,a1,a7
   1b55c:	01081613          	slli	a2,a6,0x10
   1b560:	8241                	srli	a2,a2,0x10
   1b562:	01035793          	srli	a5,t1,0x10
   1b566:	0315f733          	remu	a4,a1,a7
   1b56a:	8536                	mv	a0,a3
   1b56c:	02d605b3          	mul	a1,a2,a3
   1b570:	0742                	slli	a4,a4,0x10
   1b572:	8fd9                	or	a5,a5,a4
   1b574:	00b7fc63          	bgeu	a5,a1,1b58c <__udivdi3+0x8c>
   1b578:	97c2                	add	a5,a5,a6
   1b57a:	fff68513          	addi	a0,a3,-1
   1b57e:	0107e763          	bltu	a5,a6,1b58c <__udivdi3+0x8c>
   1b582:	00b7f563          	bgeu	a5,a1,1b58c <__udivdi3+0x8c>
   1b586:	ffe68513          	addi	a0,a3,-2
   1b58a:	97c2                	add	a5,a5,a6
   1b58c:	8f8d                	sub	a5,a5,a1
   1b58e:	0317f733          	remu	a4,a5,a7
   1b592:	0342                	slli	t1,t1,0x10
   1b594:	01035313          	srli	t1,t1,0x10
   1b598:	0317d7b3          	divu	a5,a5,a7
   1b59c:	0742                	slli	a4,a4,0x10
   1b59e:	00676333          	or	t1,a4,t1
   1b5a2:	02f606b3          	mul	a3,a2,a5
   1b5a6:	863e                	mv	a2,a5
   1b5a8:	00d37b63          	bgeu	t1,a3,1b5be <__udivdi3+0xbe>
   1b5ac:	9342                	add	t1,t1,a6
   1b5ae:	fff78613          	addi	a2,a5,-1
   1b5b2:	01036663          	bltu	t1,a6,1b5be <__udivdi3+0xbe>
   1b5b6:	00d37463          	bgeu	t1,a3,1b5be <__udivdi3+0xbe>
   1b5ba:	ffe78613          	addi	a2,a5,-2
   1b5be:	0542                	slli	a0,a0,0x10
   1b5c0:	8d51                	or	a0,a0,a2
   1b5c2:	4581                	li	a1,0
   1b5c4:	a85d                	j	1b67a <__udivdi3+0x17a>
   1b5c6:	01000537          	lui	a0,0x1000
   1b5ca:	4741                	li	a4,16
   1b5cc:	f4a66fe3          	bltu	a2,a0,1b52a <__udivdi3+0x2a>
   1b5d0:	4761                	li	a4,24
   1b5d2:	bfa1                	j	1b52a <__udivdi3+0x2a>
   1b5d4:	e601                	bnez	a2,1b5dc <__udivdi3+0xdc>
   1b5d6:	4705                	li	a4,1
   1b5d8:	02c75833          	divu	a6,a4,a2
   1b5dc:	6741                	lui	a4,0x10
   1b5de:	08e87f63          	bgeu	a6,a4,1b67c <__udivdi3+0x17c>
   1b5e2:	0ff00713          	li	a4,255
   1b5e6:	01077363          	bgeu	a4,a6,1b5ec <__udivdi3+0xec>
   1b5ea:	4521                	li	a0,8
   1b5ec:	00a85733          	srl	a4,a6,a0
   1b5f0:	96ba                	add	a3,a3,a4
   1b5f2:	0006c703          	lbu	a4,0(a3)
   1b5f6:	02000613          	li	a2,32
   1b5fa:	972a                	add	a4,a4,a0
   1b5fc:	40e606b3          	sub	a3,a2,a4
   1b600:	08e61563          	bne	a2,a4,1b68a <__udivdi3+0x18a>
   1b604:	410787b3          	sub	a5,a5,a6
   1b608:	4585                	li	a1,1
   1b60a:	01085893          	srli	a7,a6,0x10
   1b60e:	01081613          	slli	a2,a6,0x10
   1b612:	8241                	srli	a2,a2,0x10
   1b614:	01035713          	srli	a4,t1,0x10
   1b618:	0317f6b3          	remu	a3,a5,a7
   1b61c:	0317d7b3          	divu	a5,a5,a7
   1b620:	06c2                	slli	a3,a3,0x10
   1b622:	8f55                	or	a4,a4,a3
   1b624:	02f60e33          	mul	t3,a2,a5
   1b628:	853e                	mv	a0,a5
   1b62a:	01c77c63          	bgeu	a4,t3,1b642 <__udivdi3+0x142>
   1b62e:	9742                	add	a4,a4,a6
   1b630:	fff78513          	addi	a0,a5,-1
   1b634:	01076763          	bltu	a4,a6,1b642 <__udivdi3+0x142>
   1b638:	01c77563          	bgeu	a4,t3,1b642 <__udivdi3+0x142>
   1b63c:	ffe78513          	addi	a0,a5,-2
   1b640:	9742                	add	a4,a4,a6
   1b642:	41c70733          	sub	a4,a4,t3
   1b646:	031777b3          	remu	a5,a4,a7
   1b64a:	0342                	slli	t1,t1,0x10
   1b64c:	01035313          	srli	t1,t1,0x10
   1b650:	03175733          	divu	a4,a4,a7
   1b654:	07c2                	slli	a5,a5,0x10
   1b656:	0067e333          	or	t1,a5,t1
   1b65a:	02e606b3          	mul	a3,a2,a4
   1b65e:	863a                	mv	a2,a4
   1b660:	00d37b63          	bgeu	t1,a3,1b676 <__udivdi3+0x176>
   1b664:	9342                	add	t1,t1,a6
   1b666:	fff70613          	addi	a2,a4,-1 # ffff <register_fini-0x75>
   1b66a:	01036663          	bltu	t1,a6,1b676 <__udivdi3+0x176>
   1b66e:	00d37463          	bgeu	t1,a3,1b676 <__udivdi3+0x176>
   1b672:	ffe70613          	addi	a2,a4,-2
   1b676:	0542                	slli	a0,a0,0x10
   1b678:	8d51                	or	a0,a0,a2
   1b67a:	8082                	ret
   1b67c:	01000737          	lui	a4,0x1000
   1b680:	4541                	li	a0,16
   1b682:	f6e865e3          	bltu	a6,a4,1b5ec <__udivdi3+0xec>
   1b686:	4561                	li	a0,24
   1b688:	b795                	j	1b5ec <__udivdi3+0xec>
   1b68a:	00d81833          	sll	a6,a6,a3
   1b68e:	00e7d533          	srl	a0,a5,a4
   1b692:	00d89333          	sll	t1,a7,a3
   1b696:	00d797b3          	sll	a5,a5,a3
   1b69a:	00e8d733          	srl	a4,a7,a4
   1b69e:	01085893          	srli	a7,a6,0x10
   1b6a2:	00f76633          	or	a2,a4,a5
   1b6a6:	03157733          	remu	a4,a0,a7
   1b6aa:	01081793          	slli	a5,a6,0x10
   1b6ae:	83c1                	srli	a5,a5,0x10
   1b6b0:	01065593          	srli	a1,a2,0x10
   1b6b4:	03155533          	divu	a0,a0,a7
   1b6b8:	0742                	slli	a4,a4,0x10
   1b6ba:	8f4d                	or	a4,a4,a1
   1b6bc:	02a786b3          	mul	a3,a5,a0
   1b6c0:	85aa                	mv	a1,a0
   1b6c2:	00d77c63          	bgeu	a4,a3,1b6da <__udivdi3+0x1da>
   1b6c6:	9742                	add	a4,a4,a6
   1b6c8:	fff50593          	addi	a1,a0,-1 # ffffff <__BSS_END__+0xfdf0d7>
   1b6cc:	01076763          	bltu	a4,a6,1b6da <__udivdi3+0x1da>
   1b6d0:	00d77563          	bgeu	a4,a3,1b6da <__udivdi3+0x1da>
   1b6d4:	ffe50593          	addi	a1,a0,-2
   1b6d8:	9742                	add	a4,a4,a6
   1b6da:	40d706b3          	sub	a3,a4,a3
   1b6de:	0316f733          	remu	a4,a3,a7
   1b6e2:	0642                	slli	a2,a2,0x10
   1b6e4:	8241                	srli	a2,a2,0x10
   1b6e6:	0316d6b3          	divu	a3,a3,a7
   1b6ea:	0742                	slli	a4,a4,0x10
   1b6ec:	02d78533          	mul	a0,a5,a3
   1b6f0:	00c767b3          	or	a5,a4,a2
   1b6f4:	8736                	mv	a4,a3
   1b6f6:	00a7fc63          	bgeu	a5,a0,1b70e <__udivdi3+0x20e>
   1b6fa:	97c2                	add	a5,a5,a6
   1b6fc:	fff68713          	addi	a4,a3,-1
   1b700:	0107e763          	bltu	a5,a6,1b70e <__udivdi3+0x20e>
   1b704:	00a7f563          	bgeu	a5,a0,1b70e <__udivdi3+0x20e>
   1b708:	ffe68713          	addi	a4,a3,-2
   1b70c:	97c2                	add	a5,a5,a6
   1b70e:	05c2                	slli	a1,a1,0x10
   1b710:	8f89                	sub	a5,a5,a0
   1b712:	8dd9                	or	a1,a1,a4
   1b714:	bddd                	j	1b60a <__udivdi3+0x10a>
   1b716:	14d5e263          	bltu	a1,a3,1b85a <__udivdi3+0x35a>
   1b71a:	6741                	lui	a4,0x10
   1b71c:	02e6ff63          	bgeu	a3,a4,1b75a <__udivdi3+0x25a>
   1b720:	0ff00713          	li	a4,255
   1b724:	00d735b3          	sltu	a1,a4,a3
   1b728:	058e                	slli	a1,a1,0x3
   1b72a:	0001f737          	lui	a4,0x1f
   1b72e:	00b6d533          	srl	a0,a3,a1
   1b732:	3b470713          	addi	a4,a4,948 # 1f3b4 <__clz_tab>
   1b736:	972a                	add	a4,a4,a0
   1b738:	00074703          	lbu	a4,0(a4)
   1b73c:	02000513          	li	a0,32
   1b740:	972e                	add	a4,a4,a1
   1b742:	40e505b3          	sub	a1,a0,a4
   1b746:	02e51163          	bne	a0,a4,1b768 <__udivdi3+0x268>
   1b74a:	4505                	li	a0,1
   1b74c:	f2f6e7e3          	bltu	a3,a5,1b67a <__udivdi3+0x17a>
   1b750:	00c8b533          	sltu	a0,a7,a2
   1b754:	00154513          	xori	a0,a0,1
   1b758:	b70d                	j	1b67a <__udivdi3+0x17a>
   1b75a:	01000737          	lui	a4,0x1000
   1b75e:	45c1                	li	a1,16
   1b760:	fce6e5e3          	bltu	a3,a4,1b72a <__udivdi3+0x22a>
   1b764:	45e1                	li	a1,24
   1b766:	b7d1                	j	1b72a <__udivdi3+0x22a>
   1b768:	00e65833          	srl	a6,a2,a4
   1b76c:	00b696b3          	sll	a3,a3,a1
   1b770:	00d86833          	or	a6,a6,a3
   1b774:	00e7de33          	srl	t3,a5,a4
   1b778:	01085e93          	srli	t4,a6,0x10
   1b77c:	03de76b3          	remu	a3,t3,t4
   1b780:	00b797b3          	sll	a5,a5,a1
   1b784:	00e8d733          	srl	a4,a7,a4
   1b788:	00b61333          	sll	t1,a2,a1
   1b78c:	00f76633          	or	a2,a4,a5
   1b790:	01081793          	slli	a5,a6,0x10
   1b794:	83c1                	srli	a5,a5,0x10
   1b796:	01065713          	srli	a4,a2,0x10
   1b79a:	03de5e33          	divu	t3,t3,t4
   1b79e:	06c2                	slli	a3,a3,0x10
   1b7a0:	8f55                	or	a4,a4,a3
   1b7a2:	03c78f33          	mul	t5,a5,t3
   1b7a6:	8572                	mv	a0,t3
   1b7a8:	01e77c63          	bgeu	a4,t5,1b7c0 <__udivdi3+0x2c0>
   1b7ac:	9742                	add	a4,a4,a6
   1b7ae:	fffe0513          	addi	a0,t3,-1
   1b7b2:	01076763          	bltu	a4,a6,1b7c0 <__udivdi3+0x2c0>
   1b7b6:	01e77563          	bgeu	a4,t5,1b7c0 <__udivdi3+0x2c0>
   1b7ba:	ffee0513          	addi	a0,t3,-2
   1b7be:	9742                	add	a4,a4,a6
   1b7c0:	41e70733          	sub	a4,a4,t5
   1b7c4:	03d776b3          	remu	a3,a4,t4
   1b7c8:	03d75733          	divu	a4,a4,t4
   1b7cc:	06c2                	slli	a3,a3,0x10
   1b7ce:	02e78e33          	mul	t3,a5,a4
   1b7d2:	01061793          	slli	a5,a2,0x10
   1b7d6:	83c1                	srli	a5,a5,0x10
   1b7d8:	8fd5                	or	a5,a5,a3
   1b7da:	863a                	mv	a2,a4
   1b7dc:	01c7fc63          	bgeu	a5,t3,1b7f4 <__udivdi3+0x2f4>
   1b7e0:	97c2                	add	a5,a5,a6
   1b7e2:	fff70613          	addi	a2,a4,-1 # ffffff <__BSS_END__+0xfdf0d7>
   1b7e6:	0107e763          	bltu	a5,a6,1b7f4 <__udivdi3+0x2f4>
   1b7ea:	01c7f563          	bgeu	a5,t3,1b7f4 <__udivdi3+0x2f4>
   1b7ee:	ffe70613          	addi	a2,a4,-2
   1b7f2:	97c2                	add	a5,a5,a6
   1b7f4:	0542                	slli	a0,a0,0x10
   1b7f6:	6ec1                	lui	t4,0x10
   1b7f8:	8d51                	or	a0,a0,a2
   1b7fa:	fffe8693          	addi	a3,t4,-1 # ffff <register_fini-0x75>
   1b7fe:	00d57833          	and	a6,a0,a3
   1b802:	01055613          	srli	a2,a0,0x10
   1b806:	00d376b3          	and	a3,t1,a3
   1b80a:	01035313          	srli	t1,t1,0x10
   1b80e:	41c787b3          	sub	a5,a5,t3
   1b812:	02d80e33          	mul	t3,a6,a3
   1b816:	02d606b3          	mul	a3,a2,a3
   1b81a:	010e5713          	srli	a4,t3,0x10
   1b81e:	02680833          	mul	a6,a6,t1
   1b822:	9836                	add	a6,a6,a3
   1b824:	9742                	add	a4,a4,a6
   1b826:	02660633          	mul	a2,a2,t1
   1b82a:	00d77363          	bgeu	a4,a3,1b830 <__udivdi3+0x330>
   1b82e:	9676                	add	a2,a2,t4
   1b830:	01075693          	srli	a3,a4,0x10
   1b834:	9636                	add	a2,a2,a3
   1b836:	02c7e063          	bltu	a5,a2,1b856 <__udivdi3+0x356>
   1b83a:	d8c794e3          	bne	a5,a2,1b5c2 <__udivdi3+0xc2>
   1b83e:	67c1                	lui	a5,0x10
   1b840:	17fd                	addi	a5,a5,-1
   1b842:	8f7d                	and	a4,a4,a5
   1b844:	0742                	slli	a4,a4,0x10
   1b846:	00fe7e33          	and	t3,t3,a5
   1b84a:	00b898b3          	sll	a7,a7,a1
   1b84e:	9772                	add	a4,a4,t3
   1b850:	4581                	li	a1,0
   1b852:	e2e8f4e3          	bgeu	a7,a4,1b67a <__udivdi3+0x17a>
   1b856:	157d                	addi	a0,a0,-1
   1b858:	b3ad                	j	1b5c2 <__udivdi3+0xc2>
   1b85a:	4581                	li	a1,0
   1b85c:	4501                	li	a0,0
   1b85e:	bd31                	j	1b67a <__udivdi3+0x17a>

0001b860 <__umoddi3>:
   1b860:	8eaa                	mv	t4,a0
   1b862:	832e                	mv	t1,a1
   1b864:	8832                	mv	a6,a2
   1b866:	87b6                	mv	a5,a3
   1b868:	1c069263          	bnez	a3,1ba2c <__umoddi3+0x1cc>
   1b86c:	0001f737          	lui	a4,0x1f
   1b870:	3b470713          	addi	a4,a4,948 # 1f3b4 <__clz_tab>
   1b874:	0ac5f563          	bgeu	a1,a2,1b91e <__umoddi3+0xbe>
   1b878:	66c1                	lui	a3,0x10
   1b87a:	08d67b63          	bgeu	a2,a3,1b910 <__umoddi3+0xb0>
   1b87e:	0ff00693          	li	a3,255
   1b882:	00c6f363          	bgeu	a3,a2,1b888 <__umoddi3+0x28>
   1b886:	47a1                	li	a5,8
   1b888:	00f656b3          	srl	a3,a2,a5
   1b88c:	9736                	add	a4,a4,a3
   1b88e:	00074703          	lbu	a4,0(a4)
   1b892:	97ba                	add	a5,a5,a4
   1b894:	02000713          	li	a4,32
   1b898:	40f708b3          	sub	a7,a4,a5
   1b89c:	00f70b63          	beq	a4,a5,1b8b2 <__umoddi3+0x52>
   1b8a0:	011315b3          	sll	a1,t1,a7
   1b8a4:	00fed7b3          	srl	a5,t4,a5
   1b8a8:	01161833          	sll	a6,a2,a7
   1b8ac:	8ddd                	or	a1,a1,a5
   1b8ae:	011e9533          	sll	a0,t4,a7
   1b8b2:	01085693          	srli	a3,a6,0x10
   1b8b6:	02d5f7b3          	remu	a5,a1,a3
   1b8ba:	01081613          	slli	a2,a6,0x10
   1b8be:	8241                	srli	a2,a2,0x10
   1b8c0:	01055713          	srli	a4,a0,0x10
   1b8c4:	02d5d5b3          	divu	a1,a1,a3
   1b8c8:	07c2                	slli	a5,a5,0x10
   1b8ca:	8f5d                	or	a4,a4,a5
   1b8cc:	02b605b3          	mul	a1,a2,a1
   1b8d0:	00b77863          	bgeu	a4,a1,1b8e0 <__umoddi3+0x80>
   1b8d4:	9742                	add	a4,a4,a6
   1b8d6:	01076563          	bltu	a4,a6,1b8e0 <__umoddi3+0x80>
   1b8da:	00b77363          	bgeu	a4,a1,1b8e0 <__umoddi3+0x80>
   1b8de:	9742                	add	a4,a4,a6
   1b8e0:	8f0d                	sub	a4,a4,a1
   1b8e2:	02d777b3          	remu	a5,a4,a3
   1b8e6:	0542                	slli	a0,a0,0x10
   1b8e8:	8141                	srli	a0,a0,0x10
   1b8ea:	02d75733          	divu	a4,a4,a3
   1b8ee:	07c2                	slli	a5,a5,0x10
   1b8f0:	8d5d                	or	a0,a0,a5
   1b8f2:	02e60733          	mul	a4,a2,a4
   1b8f6:	00e57863          	bgeu	a0,a4,1b906 <__umoddi3+0xa6>
   1b8fa:	9542                	add	a0,a0,a6
   1b8fc:	01056563          	bltu	a0,a6,1b906 <__umoddi3+0xa6>
   1b900:	00e57363          	bgeu	a0,a4,1b906 <__umoddi3+0xa6>
   1b904:	9542                	add	a0,a0,a6
   1b906:	8d19                	sub	a0,a0,a4
   1b908:	01155533          	srl	a0,a0,a7
   1b90c:	4581                	li	a1,0
   1b90e:	8082                	ret
   1b910:	010006b7          	lui	a3,0x1000
   1b914:	47c1                	li	a5,16
   1b916:	f6d669e3          	bltu	a2,a3,1b888 <__umoddi3+0x28>
   1b91a:	47e1                	li	a5,24
   1b91c:	b7b5                	j	1b888 <__umoddi3+0x28>
   1b91e:	e601                	bnez	a2,1b926 <__umoddi3+0xc6>
   1b920:	4685                	li	a3,1
   1b922:	02c6d833          	divu	a6,a3,a2
   1b926:	66c1                	lui	a3,0x10
   1b928:	0ed87b63          	bgeu	a6,a3,1ba1e <__umoddi3+0x1be>
   1b92c:	0ff00693          	li	a3,255
   1b930:	0106f363          	bgeu	a3,a6,1b936 <__umoddi3+0xd6>
   1b934:	47a1                	li	a5,8
   1b936:	00f856b3          	srl	a3,a6,a5
   1b93a:	9736                	add	a4,a4,a3
   1b93c:	00074603          	lbu	a2,0(a4)
   1b940:	410305b3          	sub	a1,t1,a6
   1b944:	963e                	add	a2,a2,a5
   1b946:	02000793          	li	a5,32
   1b94a:	40c788b3          	sub	a7,a5,a2
   1b94e:	06c78a63          	beq	a5,a2,1b9c2 <__umoddi3+0x162>
   1b952:	01181833          	sll	a6,a6,a7
   1b956:	00c357b3          	srl	a5,t1,a2
   1b95a:	011315b3          	sll	a1,t1,a7
   1b95e:	01085313          	srli	t1,a6,0x10
   1b962:	00ced633          	srl	a2,t4,a2
   1b966:	8e4d                	or	a2,a2,a1
   1b968:	01081593          	slli	a1,a6,0x10
   1b96c:	81c1                	srli	a1,a1,0x10
   1b96e:	011e9533          	sll	a0,t4,a7
   1b972:	0267d6b3          	divu	a3,a5,t1
   1b976:	0267f733          	remu	a4,a5,t1
   1b97a:	01065793          	srli	a5,a2,0x10
   1b97e:	02d586b3          	mul	a3,a1,a3
   1b982:	0742                	slli	a4,a4,0x10
   1b984:	8f5d                	or	a4,a4,a5
   1b986:	00d77863          	bgeu	a4,a3,1b996 <__umoddi3+0x136>
   1b98a:	9742                	add	a4,a4,a6
   1b98c:	01076563          	bltu	a4,a6,1b996 <__umoddi3+0x136>
   1b990:	00d77363          	bgeu	a4,a3,1b996 <__umoddi3+0x136>
   1b994:	9742                	add	a4,a4,a6
   1b996:	40d706b3          	sub	a3,a4,a3
   1b99a:	0266f733          	remu	a4,a3,t1
   1b99e:	0642                	slli	a2,a2,0x10
   1b9a0:	8241                	srli	a2,a2,0x10
   1b9a2:	0266d6b3          	divu	a3,a3,t1
   1b9a6:	0742                	slli	a4,a4,0x10
   1b9a8:	02d586b3          	mul	a3,a1,a3
   1b9ac:	00c765b3          	or	a1,a4,a2
   1b9b0:	00d5f863          	bgeu	a1,a3,1b9c0 <__umoddi3+0x160>
   1b9b4:	95c2                	add	a1,a1,a6
   1b9b6:	0105e563          	bltu	a1,a6,1b9c0 <__umoddi3+0x160>
   1b9ba:	00d5f363          	bgeu	a1,a3,1b9c0 <__umoddi3+0x160>
   1b9be:	95c2                	add	a1,a1,a6
   1b9c0:	8d95                	sub	a1,a1,a3
   1b9c2:	01085693          	srli	a3,a6,0x10
   1b9c6:	02d5f733          	remu	a4,a1,a3
   1b9ca:	01081793          	slli	a5,a6,0x10
   1b9ce:	83c1                	srli	a5,a5,0x10
   1b9d0:	01055613          	srli	a2,a0,0x10
   1b9d4:	02d5d5b3          	divu	a1,a1,a3
   1b9d8:	0742                	slli	a4,a4,0x10
   1b9da:	8f51                	or	a4,a4,a2
   1b9dc:	02b785b3          	mul	a1,a5,a1
   1b9e0:	00b77863          	bgeu	a4,a1,1b9f0 <__umoddi3+0x190>
   1b9e4:	9742                	add	a4,a4,a6
   1b9e6:	01076563          	bltu	a4,a6,1b9f0 <__umoddi3+0x190>
   1b9ea:	00b77363          	bgeu	a4,a1,1b9f0 <__umoddi3+0x190>
   1b9ee:	9742                	add	a4,a4,a6
   1b9f0:	40b705b3          	sub	a1,a4,a1
   1b9f4:	02d5f733          	remu	a4,a1,a3
   1b9f8:	0542                	slli	a0,a0,0x10
   1b9fa:	8141                	srli	a0,a0,0x10
   1b9fc:	02d5d5b3          	divu	a1,a1,a3
   1ba00:	02b785b3          	mul	a1,a5,a1
   1ba04:	01071793          	slli	a5,a4,0x10
   1ba08:	8d5d                	or	a0,a0,a5
   1ba0a:	00b57863          	bgeu	a0,a1,1ba1a <__umoddi3+0x1ba>
   1ba0e:	9542                	add	a0,a0,a6
   1ba10:	01056563          	bltu	a0,a6,1ba1a <__umoddi3+0x1ba>
   1ba14:	00b57363          	bgeu	a0,a1,1ba1a <__umoddi3+0x1ba>
   1ba18:	9542                	add	a0,a0,a6
   1ba1a:	8d0d                	sub	a0,a0,a1
   1ba1c:	b5f5                	j	1b908 <__umoddi3+0xa8>
   1ba1e:	010006b7          	lui	a3,0x1000
   1ba22:	47c1                	li	a5,16
   1ba24:	f0d869e3          	bltu	a6,a3,1b936 <__umoddi3+0xd6>
   1ba28:	47e1                	li	a5,24
   1ba2a:	b731                	j	1b936 <__umoddi3+0xd6>
   1ba2c:	eed5e1e3          	bltu	a1,a3,1b90e <__umoddi3+0xae>
   1ba30:	67c1                	lui	a5,0x10
   1ba32:	04f6f463          	bgeu	a3,a5,1ba7a <__umoddi3+0x21a>
   1ba36:	0ff00893          	li	a7,255
   1ba3a:	00d8b7b3          	sltu	a5,a7,a3
   1ba3e:	078e                	slli	a5,a5,0x3
   1ba40:	0001f737          	lui	a4,0x1f
   1ba44:	00f6d833          	srl	a6,a3,a5
   1ba48:	3b470713          	addi	a4,a4,948 # 1f3b4 <__clz_tab>
   1ba4c:	9742                	add	a4,a4,a6
   1ba4e:	00074883          	lbu	a7,0(a4)
   1ba52:	98be                	add	a7,a7,a5
   1ba54:	02000793          	li	a5,32
   1ba58:	41178833          	sub	a6,a5,a7
   1ba5c:	03179663          	bne	a5,a7,1ba88 <__umoddi3+0x228>
   1ba60:	0066e463          	bltu	a3,t1,1ba68 <__umoddi3+0x208>
   1ba64:	eacee5e3          	bltu	t4,a2,1b90e <__umoddi3+0xae>
   1ba68:	40ce8533          	sub	a0,t4,a2
   1ba6c:	40d305b3          	sub	a1,t1,a3
   1ba70:	00aebeb3          	sltu	t4,t4,a0
   1ba74:	41d585b3          	sub	a1,a1,t4
   1ba78:	bd59                	j	1b90e <__umoddi3+0xae>
   1ba7a:	01000737          	lui	a4,0x1000
   1ba7e:	47c1                	li	a5,16
   1ba80:	fce6e0e3          	bltu	a3,a4,1ba40 <__umoddi3+0x1e0>
   1ba84:	47e1                	li	a5,24
   1ba86:	bf6d                	j	1ba40 <__umoddi3+0x1e0>
   1ba88:	011657b3          	srl	a5,a2,a7
   1ba8c:	010696b3          	sll	a3,a3,a6
   1ba90:	00d7ee33          	or	t3,a5,a3
   1ba94:	01135f33          	srl	t5,t1,a7
   1ba98:	011ed7b3          	srl	a5,t4,a7
   1ba9c:	010e9533          	sll	a0,t4,a6
   1baa0:	010e5e93          	srli	t4,t3,0x10
   1baa4:	010315b3          	sll	a1,t1,a6
   1baa8:	03df5333          	divu	t1,t5,t4
   1baac:	8fcd                	or	a5,a5,a1
   1baae:	010e1593          	slli	a1,t3,0x10
   1bab2:	81c1                	srli	a1,a1,0x10
   1bab4:	0107d713          	srli	a4,a5,0x10
   1bab8:	01061633          	sll	a2,a2,a6
   1babc:	03df76b3          	remu	a3,t5,t4
   1bac0:	02658f33          	mul	t5,a1,t1
   1bac4:	06c2                	slli	a3,a3,0x10
   1bac6:	8f55                	or	a4,a4,a3
   1bac8:	869a                	mv	a3,t1
   1baca:	01e77c63          	bgeu	a4,t5,1bae2 <__umoddi3+0x282>
   1bace:	9772                	add	a4,a4,t3
   1bad0:	fff30693          	addi	a3,t1,-1
   1bad4:	01c76763          	bltu	a4,t3,1bae2 <__umoddi3+0x282>
   1bad8:	01e77563          	bgeu	a4,t5,1bae2 <__umoddi3+0x282>
   1badc:	ffe30693          	addi	a3,t1,-2
   1bae0:	9772                	add	a4,a4,t3
   1bae2:	41e70733          	sub	a4,a4,t5
   1bae6:	03d77333          	remu	t1,a4,t4
   1baea:	07c2                	slli	a5,a5,0x10
   1baec:	83c1                	srli	a5,a5,0x10
   1baee:	03d75733          	divu	a4,a4,t4
   1baf2:	0342                	slli	t1,t1,0x10
   1baf4:	00f36333          	or	t1,t1,a5
   1baf8:	02e585b3          	mul	a1,a1,a4
   1bafc:	87ba                	mv	a5,a4
   1bafe:	00b37c63          	bgeu	t1,a1,1bb16 <__umoddi3+0x2b6>
   1bb02:	9372                	add	t1,t1,t3
   1bb04:	fff70793          	addi	a5,a4,-1 # ffffff <__BSS_END__+0xfdf0d7>
   1bb08:	01c36763          	bltu	t1,t3,1bb16 <__umoddi3+0x2b6>
   1bb0c:	00b37563          	bgeu	t1,a1,1bb16 <__umoddi3+0x2b6>
   1bb10:	ffe70793          	addi	a5,a4,-2
   1bb14:	9372                	add	t1,t1,t3
   1bb16:	06c2                	slli	a3,a3,0x10
   1bb18:	6f41                	lui	t5,0x10
   1bb1a:	8edd                	or	a3,a3,a5
   1bb1c:	40b305b3          	sub	a1,t1,a1
   1bb20:	ffff0313          	addi	t1,t5,-1 # ffff <register_fini-0x75>
   1bb24:	0066feb3          	and	t4,a3,t1
   1bb28:	01065713          	srli	a4,a2,0x10
   1bb2c:	82c1                	srli	a3,a3,0x10
   1bb2e:	00667333          	and	t1,a2,t1
   1bb32:	026e87b3          	mul	a5,t4,t1
   1bb36:	02668333          	mul	t1,a3,t1
   1bb3a:	02ee8eb3          	mul	t4,t4,a4
   1bb3e:	02e686b3          	mul	a3,a3,a4
   1bb42:	9e9a                	add	t4,t4,t1
   1bb44:	0107d713          	srli	a4,a5,0x10
   1bb48:	9776                	add	a4,a4,t4
   1bb4a:	00677363          	bgeu	a4,t1,1bb50 <__umoddi3+0x2f0>
   1bb4e:	96fa                	add	a3,a3,t5
   1bb50:	01075313          	srli	t1,a4,0x10
   1bb54:	969a                	add	a3,a3,t1
   1bb56:	6341                	lui	t1,0x10
   1bb58:	137d                	addi	t1,t1,-1
   1bb5a:	00677733          	and	a4,a4,t1
   1bb5e:	0742                	slli	a4,a4,0x10
   1bb60:	0067f7b3          	and	a5,a5,t1
   1bb64:	97ba                	add	a5,a5,a4
   1bb66:	00d5e663          	bltu	a1,a3,1bb72 <__umoddi3+0x312>
   1bb6a:	00d59b63          	bne	a1,a3,1bb80 <__umoddi3+0x320>
   1bb6e:	00f57963          	bgeu	a0,a5,1bb80 <__umoddi3+0x320>
   1bb72:	40c78633          	sub	a2,a5,a2
   1bb76:	00c7b7b3          	sltu	a5,a5,a2
   1bb7a:	97f2                	add	a5,a5,t3
   1bb7c:	8e9d                	sub	a3,a3,a5
   1bb7e:	87b2                	mv	a5,a2
   1bb80:	40f507b3          	sub	a5,a0,a5
   1bb84:	00f53533          	sltu	a0,a0,a5
   1bb88:	8d95                	sub	a1,a1,a3
   1bb8a:	8d89                	sub	a1,a1,a0
   1bb8c:	011598b3          	sll	a7,a1,a7
   1bb90:	0107d533          	srl	a0,a5,a6
   1bb94:	00a8e533          	or	a0,a7,a0
   1bb98:	0105d5b3          	srl	a1,a1,a6
   1bb9c:	bb8d                	j	1b90e <__umoddi3+0xae>

0001bb9e <__divdf3>:
   1bb9e:	7179                	addi	sp,sp,-48
   1bba0:	d04a                	sw	s2,32(sp)
   1bba2:	0145d913          	srli	s2,a1,0x14
   1bba6:	d226                	sw	s1,36(sp)
   1bba8:	ce4e                	sw	s3,28(sp)
   1bbaa:	cc52                	sw	s4,24(sp)
   1bbac:	c85a                	sw	s6,16(sp)
   1bbae:	c462                	sw	s8,8(sp)
   1bbb0:	00c59493          	slli	s1,a1,0xc
   1bbb4:	d606                	sw	ra,44(sp)
   1bbb6:	d422                	sw	s0,40(sp)
   1bbb8:	ca56                	sw	s5,20(sp)
   1bbba:	c65e                	sw	s7,12(sp)
   1bbbc:	7ff97913          	andi	s2,s2,2047
   1bbc0:	8a2a                	mv	s4,a0
   1bbc2:	8b32                	mv	s6,a2
   1bbc4:	8c36                	mv	s8,a3
   1bbc6:	80b1                	srli	s1,s1,0xc
   1bbc8:	01f5d993          	srli	s3,a1,0x1f
   1bbcc:	08090363          	beqz	s2,1bc52 <__divdf3+0xb4>
   1bbd0:	7ff00793          	li	a5,2047
   1bbd4:	0cf90963          	beq	s2,a5,1bca6 <__divdf3+0x108>
   1bbd8:	01d55a93          	srli	s5,a0,0x1d
   1bbdc:	048e                	slli	s1,s1,0x3
   1bbde:	009ae4b3          	or	s1,s5,s1
   1bbe2:	00800ab7          	lui	s5,0x800
   1bbe6:	0154eab3          	or	s5,s1,s5
   1bbea:	00351413          	slli	s0,a0,0x3
   1bbee:	c0190913          	addi	s2,s2,-1023
   1bbf2:	4b81                	li	s7,0
   1bbf4:	00cc1513          	slli	a0,s8,0xc
   1bbf8:	00c55493          	srli	s1,a0,0xc
   1bbfc:	014c5513          	srli	a0,s8,0x14
   1bc00:	7ff57593          	andi	a1,a0,2047
   1bc04:	01fc5c13          	srli	s8,s8,0x1f
   1bc08:	c1f1                	beqz	a1,1bccc <__divdf3+0x12e>
   1bc0a:	7ff00793          	li	a5,2047
   1bc0e:	10f58a63          	beq	a1,a5,1bd22 <__divdf3+0x184>
   1bc12:	00349513          	slli	a0,s1,0x3
   1bc16:	01db5793          	srli	a5,s6,0x1d
   1bc1a:	8d5d                	or	a0,a0,a5
   1bc1c:	008004b7          	lui	s1,0x800
   1bc20:	8cc9                	or	s1,s1,a0
   1bc22:	003b1f93          	slli	t6,s6,0x3
   1bc26:	c0158513          	addi	a0,a1,-1023
   1bc2a:	4781                	li	a5,0
   1bc2c:	002b9713          	slli	a4,s7,0x2
   1bc30:	8f5d                	or	a4,a4,a5
   1bc32:	177d                	addi	a4,a4,-1
   1bc34:	4639                	li	a2,14
   1bc36:	0189c6b3          	xor	a3,s3,s8
   1bc3a:	40a905b3          	sub	a1,s2,a0
   1bc3e:	10e66463          	bltu	a2,a4,1bd46 <__divdf3+0x1a8>
   1bc42:	0001f637          	lui	a2,0x1f
   1bc46:	070a                	slli	a4,a4,0x2
   1bc48:	30060613          	addi	a2,a2,768 # 1f300 <zeroes.0+0x10>
   1bc4c:	9732                	add	a4,a4,a2
   1bc4e:	4318                	lw	a4,0(a4)
   1bc50:	8702                	jr	a4
   1bc52:	00a4eab3          	or	s5,s1,a0
   1bc56:	060a8263          	beqz	s5,1bcba <__divdf3+0x11c>
   1bc5a:	c89d                	beqz	s1,1bc90 <__divdf3+0xf2>
   1bc5c:	8526                	mv	a0,s1
   1bc5e:	1d1020ef          	jal	ra,1e62e <__clzsi2>
   1bc62:	ff550793          	addi	a5,a0,-11
   1bc66:	4771                	li	a4,28
   1bc68:	02f74963          	blt	a4,a5,1bc9a <__divdf3+0xfc>
   1bc6c:	4af5                	li	s5,29
   1bc6e:	ff850413          	addi	s0,a0,-8
   1bc72:	40fa8ab3          	sub	s5,s5,a5
   1bc76:	008494b3          	sll	s1,s1,s0
   1bc7a:	015a5ab3          	srl	s5,s4,s5
   1bc7e:	009aeab3          	or	s5,s5,s1
   1bc82:	008a1433          	sll	s0,s4,s0
   1bc86:	c0d00593          	li	a1,-1011
   1bc8a:	40a58933          	sub	s2,a1,a0
   1bc8e:	b795                	j	1bbf2 <__divdf3+0x54>
   1bc90:	19f020ef          	jal	ra,1e62e <__clzsi2>
   1bc94:	02050513          	addi	a0,a0,32
   1bc98:	b7e9                	j	1bc62 <__divdf3+0xc4>
   1bc9a:	fd850493          	addi	s1,a0,-40
   1bc9e:	009a1ab3          	sll	s5,s4,s1
   1bca2:	4401                	li	s0,0
   1bca4:	b7cd                	j	1bc86 <__divdf3+0xe8>
   1bca6:	00a4eab3          	or	s5,s1,a0
   1bcaa:	000a8c63          	beqz	s5,1bcc2 <__divdf3+0x124>
   1bcae:	842a                	mv	s0,a0
   1bcb0:	8aa6                	mv	s5,s1
   1bcb2:	7ff00913          	li	s2,2047
   1bcb6:	4b8d                	li	s7,3
   1bcb8:	bf35                	j	1bbf4 <__divdf3+0x56>
   1bcba:	4401                	li	s0,0
   1bcbc:	4901                	li	s2,0
   1bcbe:	4b85                	li	s7,1
   1bcc0:	bf15                	j	1bbf4 <__divdf3+0x56>
   1bcc2:	4401                	li	s0,0
   1bcc4:	7ff00913          	li	s2,2047
   1bcc8:	4b89                	li	s7,2
   1bcca:	b72d                	j	1bbf4 <__divdf3+0x56>
   1bccc:	0164efb3          	or	t6,s1,s6
   1bcd0:	060f8263          	beqz	t6,1bd34 <__divdf3+0x196>
   1bcd4:	c89d                	beqz	s1,1bd0a <__divdf3+0x16c>
   1bcd6:	8526                	mv	a0,s1
   1bcd8:	157020ef          	jal	ra,1e62e <__clzsi2>
   1bcdc:	85aa                	mv	a1,a0
   1bcde:	ff558793          	addi	a5,a1,-11
   1bce2:	4771                	li	a4,28
   1bce4:	02f74963          	blt	a4,a5,1bd16 <__divdf3+0x178>
   1bce8:	46f5                	li	a3,29
   1bcea:	ff858f93          	addi	t6,a1,-8
   1bcee:	8e9d                	sub	a3,a3,a5
   1bcf0:	01f49533          	sll	a0,s1,t6
   1bcf4:	00db56b3          	srl	a3,s6,a3
   1bcf8:	00a6e4b3          	or	s1,a3,a0
   1bcfc:	01fb1fb3          	sll	t6,s6,t6
   1bd00:	c0d00693          	li	a3,-1011
   1bd04:	40b68533          	sub	a0,a3,a1
   1bd08:	b70d                	j	1bc2a <__divdf3+0x8c>
   1bd0a:	855a                	mv	a0,s6
   1bd0c:	123020ef          	jal	ra,1e62e <__clzsi2>
   1bd10:	02050593          	addi	a1,a0,32
   1bd14:	b7e9                	j	1bcde <__divdf3+0x140>
   1bd16:	fd858513          	addi	a0,a1,-40
   1bd1a:	00ab14b3          	sll	s1,s6,a0
   1bd1e:	4f81                	li	t6,0
   1bd20:	b7c5                	j	1bd00 <__divdf3+0x162>
   1bd22:	0164efb3          	or	t6,s1,s6
   1bd26:	000f8b63          	beqz	t6,1bd3c <__divdf3+0x19e>
   1bd2a:	8fda                	mv	t6,s6
   1bd2c:	7ff00513          	li	a0,2047
   1bd30:	478d                	li	a5,3
   1bd32:	bded                	j	1bc2c <__divdf3+0x8e>
   1bd34:	4481                	li	s1,0
   1bd36:	4501                	li	a0,0
   1bd38:	4785                	li	a5,1
   1bd3a:	bdcd                	j	1bc2c <__divdf3+0x8e>
   1bd3c:	4481                	li	s1,0
   1bd3e:	7ff00513          	li	a0,2047
   1bd42:	4789                	li	a5,2
   1bd44:	b5e5                	j	1bc2c <__divdf3+0x8e>
   1bd46:	0154e663          	bltu	s1,s5,1bd52 <__divdf3+0x1b4>
   1bd4a:	2a9a9663          	bne	s5,s1,1bff6 <__divdf3+0x458>
   1bd4e:	2bf46463          	bltu	s0,t6,1bff6 <__divdf3+0x458>
   1bd52:	01fa9613          	slli	a2,s5,0x1f
   1bd56:	00145713          	srli	a4,s0,0x1
   1bd5a:	01f41793          	slli	a5,s0,0x1f
   1bd5e:	001ada93          	srli	s5,s5,0x1
   1bd62:	00e66433          	or	s0,a2,a4
   1bd66:	00849513          	slli	a0,s1,0x8
   1bd6a:	018fd893          	srli	a7,t6,0x18
   1bd6e:	00a8e8b3          	or	a7,a7,a0
   1bd72:	8141                	srli	a0,a0,0x10
   1bd74:	02aade33          	divu	t3,s5,a0
   1bd78:	01089e93          	slli	t4,a7,0x10
   1bd7c:	010ede93          	srli	t4,t4,0x10
   1bd80:	01045713          	srli	a4,s0,0x10
   1bd84:	008f9313          	slli	t1,t6,0x8
   1bd88:	02aafab3          	remu	s5,s5,a0
   1bd8c:	8672                	mv	a2,t3
   1bd8e:	03ce8833          	mul	a6,t4,t3
   1bd92:	0ac2                	slli	s5,s5,0x10
   1bd94:	01576733          	or	a4,a4,s5
   1bd98:	01077c63          	bgeu	a4,a6,1bdb0 <__divdf3+0x212>
   1bd9c:	9746                	add	a4,a4,a7
   1bd9e:	fffe0613          	addi	a2,t3,-1
   1bda2:	01176763          	bltu	a4,a7,1bdb0 <__divdf3+0x212>
   1bda6:	01077563          	bgeu	a4,a6,1bdb0 <__divdf3+0x212>
   1bdaa:	ffee0613          	addi	a2,t3,-2
   1bdae:	9746                	add	a4,a4,a7
   1bdb0:	41070733          	sub	a4,a4,a6
   1bdb4:	02a75e33          	divu	t3,a4,a0
   1bdb8:	0442                	slli	s0,s0,0x10
   1bdba:	8041                	srli	s0,s0,0x10
   1bdbc:	02a77733          	remu	a4,a4,a0
   1bdc0:	82f2                	mv	t0,t3
   1bdc2:	03ce8833          	mul	a6,t4,t3
   1bdc6:	0742                	slli	a4,a4,0x10
   1bdc8:	8f41                	or	a4,a4,s0
   1bdca:	01077c63          	bgeu	a4,a6,1bde2 <__divdf3+0x244>
   1bdce:	9746                	add	a4,a4,a7
   1bdd0:	fffe0293          	addi	t0,t3,-1
   1bdd4:	01176763          	bltu	a4,a7,1bde2 <__divdf3+0x244>
   1bdd8:	01077563          	bgeu	a4,a6,1bde2 <__divdf3+0x244>
   1bddc:	ffee0293          	addi	t0,t3,-2
   1bde0:	9746                	add	a4,a4,a7
   1bde2:	41070433          	sub	s0,a4,a6
   1bde6:	0642                	slli	a2,a2,0x10
   1bde8:	6841                	lui	a6,0x10
   1bdea:	005662b3          	or	t0,a2,t0
   1bdee:	fff80e13          	addi	t3,a6,-1 # ffff <register_fini-0x75>
   1bdf2:	0102d613          	srli	a2,t0,0x10
   1bdf6:	01c2f733          	and	a4,t0,t3
   1bdfa:	01035f13          	srli	t5,t1,0x10
   1bdfe:	01c37e33          	and	t3,t1,t3
   1be02:	02ee03b3          	mul	t2,t3,a4
   1be06:	03c604b3          	mul	s1,a2,t3
   1be0a:	02ef0733          	mul	a4,t5,a4
   1be0e:	03e60fb3          	mul	t6,a2,t5
   1be12:	00970633          	add	a2,a4,s1
   1be16:	0103d713          	srli	a4,t2,0x10
   1be1a:	9732                	add	a4,a4,a2
   1be1c:	00977363          	bgeu	a4,s1,1be22 <__divdf3+0x284>
   1be20:	9fc2                	add	t6,t6,a6
   1be22:	01075613          	srli	a2,a4,0x10
   1be26:	967e                	add	a2,a2,t6
   1be28:	6fc1                	lui	t6,0x10
   1be2a:	1ffd                	addi	t6,t6,-1
   1be2c:	01f77833          	and	a6,a4,t6
   1be30:	0842                	slli	a6,a6,0x10
   1be32:	01f3f3b3          	and	t2,t2,t6
   1be36:	981e                	add	a6,a6,t2
   1be38:	00c46763          	bltu	s0,a2,1be46 <__divdf3+0x2a8>
   1be3c:	8496                	mv	s1,t0
   1be3e:	02c41e63          	bne	s0,a2,1be7a <__divdf3+0x2dc>
   1be42:	0307fc63          	bgeu	a5,a6,1be7a <__divdf3+0x2dc>
   1be46:	979a                	add	a5,a5,t1
   1be48:	0067b733          	sltu	a4,a5,t1
   1be4c:	9746                	add	a4,a4,a7
   1be4e:	943a                	add	s0,s0,a4
   1be50:	fff28493          	addi	s1,t0,-1
   1be54:	0088e663          	bltu	a7,s0,1be60 <__divdf3+0x2c2>
   1be58:	02889163          	bne	a7,s0,1be7a <__divdf3+0x2dc>
   1be5c:	0067ef63          	bltu	a5,t1,1be7a <__divdf3+0x2dc>
   1be60:	00c46663          	bltu	s0,a2,1be6c <__divdf3+0x2ce>
   1be64:	00861b63          	bne	a2,s0,1be7a <__divdf3+0x2dc>
   1be68:	0107f963          	bgeu	a5,a6,1be7a <__divdf3+0x2dc>
   1be6c:	979a                	add	a5,a5,t1
   1be6e:	0067b733          	sltu	a4,a5,t1
   1be72:	9746                	add	a4,a4,a7
   1be74:	ffe28493          	addi	s1,t0,-2
   1be78:	943a                	add	s0,s0,a4
   1be7a:	41078833          	sub	a6,a5,a6
   1be7e:	8c11                	sub	s0,s0,a2
   1be80:	0107b7b3          	sltu	a5,a5,a6
   1be84:	8c1d                	sub	s0,s0,a5
   1be86:	5ffd                	li	t6,-1
   1be88:	0e888763          	beq	a7,s0,1bf76 <__divdf3+0x3d8>
   1be8c:	02a45fb3          	divu	t6,s0,a0
   1be90:	01085713          	srli	a4,a6,0x10
   1be94:	02a47433          	remu	s0,s0,a0
   1be98:	867e                	mv	a2,t6
   1be9a:	03fe87b3          	mul	a5,t4,t6
   1be9e:	0442                	slli	s0,s0,0x10
   1bea0:	8c59                	or	s0,s0,a4
   1bea2:	00f47c63          	bgeu	s0,a5,1beba <__divdf3+0x31c>
   1bea6:	9446                	add	s0,s0,a7
   1bea8:	ffff8613          	addi	a2,t6,-1 # ffff <register_fini-0x75>
   1beac:	01146763          	bltu	s0,a7,1beba <__divdf3+0x31c>
   1beb0:	00f47563          	bgeu	s0,a5,1beba <__divdf3+0x31c>
   1beb4:	ffef8613          	addi	a2,t6,-2
   1beb8:	9446                	add	s0,s0,a7
   1beba:	8c1d                	sub	s0,s0,a5
   1bebc:	02a45733          	divu	a4,s0,a0
   1bec0:	0842                	slli	a6,a6,0x10
   1bec2:	01085813          	srli	a6,a6,0x10
   1bec6:	02a47433          	remu	s0,s0,a0
   1beca:	87ba                	mv	a5,a4
   1becc:	02ee8eb3          	mul	t4,t4,a4
   1bed0:	0442                	slli	s0,s0,0x10
   1bed2:	00886433          	or	s0,a6,s0
   1bed6:	01d47c63          	bgeu	s0,t4,1beee <__divdf3+0x350>
   1beda:	9446                	add	s0,s0,a7
   1bedc:	fff70793          	addi	a5,a4,-1
   1bee0:	01146763          	bltu	s0,a7,1beee <__divdf3+0x350>
   1bee4:	01d47563          	bgeu	s0,t4,1beee <__divdf3+0x350>
   1bee8:	ffe70793          	addi	a5,a4,-2
   1beec:	9446                	add	s0,s0,a7
   1beee:	0642                	slli	a2,a2,0x10
   1bef0:	8e5d                	or	a2,a2,a5
   1bef2:	01061793          	slli	a5,a2,0x10
   1bef6:	83c1                	srli	a5,a5,0x10
   1bef8:	01065713          	srli	a4,a2,0x10
   1befc:	02ef0833          	mul	a6,t5,a4
   1bf00:	41d40433          	sub	s0,s0,t4
   1bf04:	02ff0f33          	mul	t5,t5,a5
   1bf08:	03c78eb3          	mul	t4,a5,t3
   1bf0c:	03c70e33          	mul	t3,a4,t3
   1bf10:	010ed793          	srli	a5,t4,0x10
   1bf14:	9f72                	add	t5,t5,t3
   1bf16:	97fa                	add	a5,a5,t5
   1bf18:	01c7f463          	bgeu	a5,t3,1bf20 <__divdf3+0x382>
   1bf1c:	6741                	lui	a4,0x10
   1bf1e:	983a                	add	a6,a6,a4
   1bf20:	0107d713          	srli	a4,a5,0x10
   1bf24:	9742                	add	a4,a4,a6
   1bf26:	6841                	lui	a6,0x10
   1bf28:	187d                	addi	a6,a6,-1
   1bf2a:	0107f533          	and	a0,a5,a6
   1bf2e:	0542                	slli	a0,a0,0x10
   1bf30:	010efeb3          	and	t4,t4,a6
   1bf34:	9576                	add	a0,a0,t4
   1bf36:	00e46663          	bltu	s0,a4,1bf42 <__divdf3+0x3a4>
   1bf3a:	18e41f63          	bne	s0,a4,1c0d8 <__divdf3+0x53a>
   1bf3e:	8fb2                	mv	t6,a2
   1bf40:	c91d                	beqz	a0,1bf76 <__divdf3+0x3d8>
   1bf42:	9446                	add	s0,s0,a7
   1bf44:	fff60f93          	addi	t6,a2,-1
   1bf48:	03146163          	bltu	s0,a7,1bf6a <__divdf3+0x3cc>
   1bf4c:	00e46663          	bltu	s0,a4,1bf58 <__divdf3+0x3ba>
   1bf50:	18e41363          	bne	s0,a4,1c0d6 <__divdf3+0x538>
   1bf54:	00a37d63          	bgeu	t1,a0,1bf6e <__divdf3+0x3d0>
   1bf58:	00131793          	slli	a5,t1,0x1
   1bf5c:	0067b333          	sltu	t1,a5,t1
   1bf60:	989a                	add	a7,a7,t1
   1bf62:	ffe60f93          	addi	t6,a2,-2
   1bf66:	9446                	add	s0,s0,a7
   1bf68:	833e                	mv	t1,a5
   1bf6a:	00e41463          	bne	s0,a4,1bf72 <__divdf3+0x3d4>
   1bf6e:	00650463          	beq	a0,t1,1bf76 <__divdf3+0x3d8>
   1bf72:	001fef93          	ori	t6,t6,1
   1bf76:	3ff58793          	addi	a5,a1,1023
   1bf7a:	0af05b63          	blez	a5,1c030 <__divdf3+0x492>
   1bf7e:	007ff713          	andi	a4,t6,7
   1bf82:	cf01                	beqz	a4,1bf9a <__divdf3+0x3fc>
   1bf84:	00fff713          	andi	a4,t6,15
   1bf88:	4611                	li	a2,4
   1bf8a:	00c70863          	beq	a4,a2,1bf9a <__divdf3+0x3fc>
   1bf8e:	004f8613          	addi	a2,t6,4
   1bf92:	01f63fb3          	sltu	t6,a2,t6
   1bf96:	94fe                	add	s1,s1,t6
   1bf98:	8fb2                	mv	t6,a2
   1bf9a:	01000737          	lui	a4,0x1000
   1bf9e:	8f65                	and	a4,a4,s1
   1bfa0:	c719                	beqz	a4,1bfae <__divdf3+0x410>
   1bfa2:	ff0007b7          	lui	a5,0xff000
   1bfa6:	17fd                	addi	a5,a5,-1
   1bfa8:	8cfd                	and	s1,s1,a5
   1bfaa:	40058793          	addi	a5,a1,1024
   1bfae:	7fe00713          	li	a4,2046
   1bfb2:	06f74263          	blt	a4,a5,1c016 <__divdf3+0x478>
   1bfb6:	003fdf93          	srli	t6,t6,0x3
   1bfba:	01d49713          	slli	a4,s1,0x1d
   1bfbe:	01f76733          	or	a4,a4,t6
   1bfc2:	0034d513          	srli	a0,s1,0x3
   1bfc6:	07d2                	slli	a5,a5,0x14
   1bfc8:	7ff00637          	lui	a2,0x7ff00
   1bfcc:	0532                	slli	a0,a0,0xc
   1bfce:	50b2                	lw	ra,44(sp)
   1bfd0:	5422                	lw	s0,40(sp)
   1bfd2:	8ff1                	and	a5,a5,a2
   1bfd4:	8131                	srli	a0,a0,0xc
   1bfd6:	8d5d                	or	a0,a0,a5
   1bfd8:	06fe                	slli	a3,a3,0x1f
   1bfda:	00d567b3          	or	a5,a0,a3
   1bfde:	5492                	lw	s1,36(sp)
   1bfe0:	5902                	lw	s2,32(sp)
   1bfe2:	49f2                	lw	s3,28(sp)
   1bfe4:	4a62                	lw	s4,24(sp)
   1bfe6:	4ad2                	lw	s5,20(sp)
   1bfe8:	4b42                	lw	s6,16(sp)
   1bfea:	4bb2                	lw	s7,12(sp)
   1bfec:	4c22                	lw	s8,8(sp)
   1bfee:	853a                	mv	a0,a4
   1bff0:	85be                	mv	a1,a5
   1bff2:	6145                	addi	sp,sp,48
   1bff4:	8082                	ret
   1bff6:	15fd                	addi	a1,a1,-1
   1bff8:	4781                	li	a5,0
   1bffa:	b3b5                	j	1bd66 <__divdf3+0x1c8>
   1bffc:	86ce                	mv	a3,s3
   1bffe:	84d6                	mv	s1,s5
   1c000:	8fa2                	mv	t6,s0
   1c002:	87de                	mv	a5,s7
   1c004:	470d                	li	a4,3
   1c006:	0ae78a63          	beq	a5,a4,1c0ba <__divdf3+0x51c>
   1c00a:	4705                	li	a4,1
   1c00c:	0ae78e63          	beq	a5,a4,1c0c8 <__divdf3+0x52a>
   1c010:	4709                	li	a4,2
   1c012:	f6e792e3          	bne	a5,a4,1bf76 <__divdf3+0x3d8>
   1c016:	4501                	li	a0,0
   1c018:	4701                	li	a4,0
   1c01a:	7ff00793          	li	a5,2047
   1c01e:	b765                	j	1bfc6 <__divdf3+0x428>
   1c020:	86e2                	mv	a3,s8
   1c022:	b7cd                	j	1c004 <__divdf3+0x466>
   1c024:	000804b7          	lui	s1,0x80
   1c028:	4f81                	li	t6,0
   1c02a:	4681                	li	a3,0
   1c02c:	478d                	li	a5,3
   1c02e:	bfd9                	j	1c004 <__divdf3+0x466>
   1c030:	4505                	li	a0,1
   1c032:	8d1d                	sub	a0,a0,a5
   1c034:	03800713          	li	a4,56
   1c038:	08a74863          	blt	a4,a0,1c0c8 <__divdf3+0x52a>
   1c03c:	477d                	li	a4,31
   1c03e:	04a74963          	blt	a4,a0,1c090 <__divdf3+0x4f2>
   1c042:	41e58593          	addi	a1,a1,1054
   1c046:	00b497b3          	sll	a5,s1,a1
   1c04a:	00afd733          	srl	a4,t6,a0
   1c04e:	00bf95b3          	sll	a1,t6,a1
   1c052:	8fd9                	or	a5,a5,a4
   1c054:	00b035b3          	snez	a1,a1
   1c058:	8fcd                	or	a5,a5,a1
   1c05a:	00a4d533          	srl	a0,s1,a0
   1c05e:	0077f713          	andi	a4,a5,7
   1c062:	cf01                	beqz	a4,1c07a <__divdf3+0x4dc>
   1c064:	00f7f713          	andi	a4,a5,15
   1c068:	4611                	li	a2,4
   1c06a:	00c70863          	beq	a4,a2,1c07a <__divdf3+0x4dc>
   1c06e:	00478713          	addi	a4,a5,4 # ff000004 <__BSS_END__+0xfefdf0dc>
   1c072:	00f737b3          	sltu	a5,a4,a5
   1c076:	953e                	add	a0,a0,a5
   1c078:	87ba                	mv	a5,a4
   1c07a:	00800737          	lui	a4,0x800
   1c07e:	8f69                	and	a4,a4,a0
   1c080:	e739                	bnez	a4,1c0ce <__divdf3+0x530>
   1c082:	01d51713          	slli	a4,a0,0x1d
   1c086:	838d                	srli	a5,a5,0x3
   1c088:	8f5d                	or	a4,a4,a5
   1c08a:	810d                	srli	a0,a0,0x3
   1c08c:	4781                	li	a5,0
   1c08e:	bf25                	j	1bfc6 <__divdf3+0x428>
   1c090:	5705                	li	a4,-31
   1c092:	40f707b3          	sub	a5,a4,a5
   1c096:	02000613          	li	a2,32
   1c09a:	00f4d7b3          	srl	a5,s1,a5
   1c09e:	4701                	li	a4,0
   1c0a0:	00c50663          	beq	a0,a2,1c0ac <__divdf3+0x50e>
   1c0a4:	43e58713          	addi	a4,a1,1086
   1c0a8:	00e49733          	sll	a4,s1,a4
   1c0ac:	01f76733          	or	a4,a4,t6
   1c0b0:	00e03733          	snez	a4,a4
   1c0b4:	8fd9                	or	a5,a5,a4
   1c0b6:	4501                	li	a0,0
   1c0b8:	b75d                	j	1c05e <__divdf3+0x4c0>
   1c0ba:	00080537          	lui	a0,0x80
   1c0be:	4701                	li	a4,0
   1c0c0:	7ff00793          	li	a5,2047
   1c0c4:	4681                	li	a3,0
   1c0c6:	b701                	j	1bfc6 <__divdf3+0x428>
   1c0c8:	4501                	li	a0,0
   1c0ca:	4701                	li	a4,0
   1c0cc:	b7c1                	j	1c08c <__divdf3+0x4ee>
   1c0ce:	4501                	li	a0,0
   1c0d0:	4701                	li	a4,0
   1c0d2:	4785                	li	a5,1
   1c0d4:	bdcd                	j	1bfc6 <__divdf3+0x428>
   1c0d6:	867e                	mv	a2,t6
   1c0d8:	8fb2                	mv	t6,a2
   1c0da:	bd61                	j	1bf72 <__divdf3+0x3d4>

0001c0dc <__muldf3>:
   1c0dc:	7179                	addi	sp,sp,-48
   1c0de:	ce4e                	sw	s3,28(sp)
   1c0e0:	0145d993          	srli	s3,a1,0x14
   1c0e4:	d422                	sw	s0,40(sp)
   1c0e6:	d226                	sw	s1,36(sp)
   1c0e8:	cc52                	sw	s4,24(sp)
   1c0ea:	ca56                	sw	s5,20(sp)
   1c0ec:	c65e                	sw	s7,12(sp)
   1c0ee:	00c59493          	slli	s1,a1,0xc
   1c0f2:	d606                	sw	ra,44(sp)
   1c0f4:	d04a                	sw	s2,32(sp)
   1c0f6:	c85a                	sw	s6,16(sp)
   1c0f8:	7ff9f993          	andi	s3,s3,2047
   1c0fc:	842a                	mv	s0,a0
   1c0fe:	8bb2                	mv	s7,a2
   1c100:	8ab6                	mv	s5,a3
   1c102:	80b1                	srli	s1,s1,0xc
   1c104:	01f5da13          	srli	s4,a1,0x1f
   1c108:	08098063          	beqz	s3,1c188 <__muldf3+0xac>
   1c10c:	7ff00793          	li	a5,2047
   1c110:	0cf98463          	beq	s3,a5,1c1d8 <__muldf3+0xfc>
   1c114:	01d55793          	srli	a5,a0,0x1d
   1c118:	048e                	slli	s1,s1,0x3
   1c11a:	8cdd                	or	s1,s1,a5
   1c11c:	008007b7          	lui	a5,0x800
   1c120:	8cdd                	or	s1,s1,a5
   1c122:	00351913          	slli	s2,a0,0x3
   1c126:	c0198993          	addi	s3,s3,-1023
   1c12a:	4b01                	li	s6,0
   1c12c:	014ad513          	srli	a0,s5,0x14
   1c130:	00ca9413          	slli	s0,s5,0xc
   1c134:	7ff57513          	andi	a0,a0,2047
   1c138:	8031                	srli	s0,s0,0xc
   1c13a:	01fada93          	srli	s5,s5,0x1f
   1c13e:	cd5d                	beqz	a0,1c1fc <__muldf3+0x120>
   1c140:	7ff00793          	li	a5,2047
   1c144:	10f50463          	beq	a0,a5,1c24c <__muldf3+0x170>
   1c148:	01dbd793          	srli	a5,s7,0x1d
   1c14c:	040e                	slli	s0,s0,0x3
   1c14e:	8c5d                	or	s0,s0,a5
   1c150:	008007b7          	lui	a5,0x800
   1c154:	8c5d                	or	s0,s0,a5
   1c156:	c0150513          	addi	a0,a0,-1023 # 7fc01 <__BSS_END__+0x5ecd9>
   1c15a:	003b9793          	slli	a5,s7,0x3
   1c15e:	4701                	li	a4,0
   1c160:	002b1693          	slli	a3,s6,0x2
   1c164:	8ed9                	or	a3,a3,a4
   1c166:	954e                	add	a0,a0,s3
   1c168:	16fd                	addi	a3,a3,-1
   1c16a:	4839                	li	a6,14
   1c16c:	015a4633          	xor	a2,s4,s5
   1c170:	00150593          	addi	a1,a0,1
   1c174:	0ed86d63          	bltu	a6,a3,1c26e <__muldf3+0x192>
   1c178:	0001f537          	lui	a0,0x1f
   1c17c:	068a                	slli	a3,a3,0x2
   1c17e:	33c50513          	addi	a0,a0,828 # 1f33c <zeroes.0+0x4c>
   1c182:	96aa                	add	a3,a3,a0
   1c184:	4294                	lw	a3,0(a3)
   1c186:	8682                	jr	a3
   1c188:	00a4e933          	or	s2,s1,a0
   1c18c:	04090f63          	beqz	s2,1c1ea <__muldf3+0x10e>
   1c190:	c88d                	beqz	s1,1c1c2 <__muldf3+0xe6>
   1c192:	8526                	mv	a0,s1
   1c194:	49a020ef          	jal	ra,1e62e <__clzsi2>
   1c198:	ff550713          	addi	a4,a0,-11
   1c19c:	47f1                	li	a5,28
   1c19e:	02e7c763          	blt	a5,a4,1c1cc <__muldf3+0xf0>
   1c1a2:	47f5                	li	a5,29
   1c1a4:	ff850913          	addi	s2,a0,-8
   1c1a8:	8f99                	sub	a5,a5,a4
   1c1aa:	012494b3          	sll	s1,s1,s2
   1c1ae:	00f457b3          	srl	a5,s0,a5
   1c1b2:	8cdd                	or	s1,s1,a5
   1c1b4:	01241933          	sll	s2,s0,s2
   1c1b8:	c0d00993          	li	s3,-1011
   1c1bc:	40a989b3          	sub	s3,s3,a0
   1c1c0:	b7ad                	j	1c12a <__muldf3+0x4e>
   1c1c2:	46c020ef          	jal	ra,1e62e <__clzsi2>
   1c1c6:	02050513          	addi	a0,a0,32
   1c1ca:	b7f9                	j	1c198 <__muldf3+0xbc>
   1c1cc:	fd850493          	addi	s1,a0,-40
   1c1d0:	009414b3          	sll	s1,s0,s1
   1c1d4:	4901                	li	s2,0
   1c1d6:	b7cd                	j	1c1b8 <__muldf3+0xdc>
   1c1d8:	00a4e933          	or	s2,s1,a0
   1c1dc:	00090b63          	beqz	s2,1c1f2 <__muldf3+0x116>
   1c1e0:	892a                	mv	s2,a0
   1c1e2:	7ff00993          	li	s3,2047
   1c1e6:	4b0d                	li	s6,3
   1c1e8:	b791                	j	1c12c <__muldf3+0x50>
   1c1ea:	4481                	li	s1,0
   1c1ec:	4981                	li	s3,0
   1c1ee:	4b05                	li	s6,1
   1c1f0:	bf35                	j	1c12c <__muldf3+0x50>
   1c1f2:	4481                	li	s1,0
   1c1f4:	7ff00993          	li	s3,2047
   1c1f8:	4b09                	li	s6,2
   1c1fa:	bf0d                	j	1c12c <__muldf3+0x50>
   1c1fc:	017467b3          	or	a5,s0,s7
   1c200:	cfb1                	beqz	a5,1c25c <__muldf3+0x180>
   1c202:	c80d                	beqz	s0,1c234 <__muldf3+0x158>
   1c204:	8522                	mv	a0,s0
   1c206:	428020ef          	jal	ra,1e62e <__clzsi2>
   1c20a:	ff550693          	addi	a3,a0,-11
   1c20e:	47f1                	li	a5,28
   1c210:	02d7c863          	blt	a5,a3,1c240 <__muldf3+0x164>
   1c214:	4775                	li	a4,29
   1c216:	ff850793          	addi	a5,a0,-8
   1c21a:	8f15                	sub	a4,a4,a3
   1c21c:	00f41433          	sll	s0,s0,a5
   1c220:	00ebd733          	srl	a4,s7,a4
   1c224:	8c59                	or	s0,s0,a4
   1c226:	00fb97b3          	sll	a5,s7,a5
   1c22a:	c0d00713          	li	a4,-1011
   1c22e:	40a70533          	sub	a0,a4,a0
   1c232:	b735                	j	1c15e <__muldf3+0x82>
   1c234:	855e                	mv	a0,s7
   1c236:	3f8020ef          	jal	ra,1e62e <__clzsi2>
   1c23a:	02050513          	addi	a0,a0,32
   1c23e:	b7f1                	j	1c20a <__muldf3+0x12e>
   1c240:	fd850413          	addi	s0,a0,-40
   1c244:	008b9433          	sll	s0,s7,s0
   1c248:	4781                	li	a5,0
   1c24a:	b7c5                	j	1c22a <__muldf3+0x14e>
   1c24c:	017467b3          	or	a5,s0,s7
   1c250:	cb91                	beqz	a5,1c264 <__muldf3+0x188>
   1c252:	87de                	mv	a5,s7
   1c254:	7ff00513          	li	a0,2047
   1c258:	470d                	li	a4,3
   1c25a:	b719                	j	1c160 <__muldf3+0x84>
   1c25c:	4401                	li	s0,0
   1c25e:	4501                	li	a0,0
   1c260:	4705                	li	a4,1
   1c262:	bdfd                	j	1c160 <__muldf3+0x84>
   1c264:	4401                	li	s0,0
   1c266:	7ff00513          	li	a0,2047
   1c26a:	4709                	li	a4,2
   1c26c:	bdd5                	j	1c160 <__muldf3+0x84>
   1c26e:	6f41                	lui	t5,0x10
   1c270:	ffff0e93          	addi	t4,t5,-1 # ffff <register_fini-0x75>
   1c274:	01095713          	srli	a4,s2,0x10
   1c278:	0107d893          	srli	a7,a5,0x10
   1c27c:	01d97933          	and	s2,s2,t4
   1c280:	01d7f7b3          	and	a5,a5,t4
   1c284:	03288833          	mul	a6,a7,s2
   1c288:	02f906b3          	mul	a3,s2,a5
   1c28c:	02f70fb3          	mul	t6,a4,a5
   1c290:	01f80333          	add	t1,a6,t6
   1c294:	0106d813          	srli	a6,a3,0x10
   1c298:	981a                	add	a6,a6,t1
   1c29a:	03170e33          	mul	t3,a4,a7
   1c29e:	01f87363          	bgeu	a6,t6,1c2a4 <__muldf3+0x1c8>
   1c2a2:	9e7a                	add	t3,t3,t5
   1c2a4:	01085393          	srli	t2,a6,0x10
   1c2a8:	01d87833          	and	a6,a6,t4
   1c2ac:	01d6f6b3          	and	a3,a3,t4
   1c2b0:	01045f13          	srli	t5,s0,0x10
   1c2b4:	01d472b3          	and	t0,s0,t4
   1c2b8:	0842                	slli	a6,a6,0x10
   1c2ba:	9836                	add	a6,a6,a3
   1c2bc:	02570eb3          	mul	t4,a4,t0
   1c2c0:	025906b3          	mul	a3,s2,t0
   1c2c4:	032f0933          	mul	s2,t5,s2
   1c2c8:	01d90333          	add	t1,s2,t4
   1c2cc:	0106d913          	srli	s2,a3,0x10
   1c2d0:	991a                	add	s2,s2,t1
   1c2d2:	03e70733          	mul	a4,a4,t5
   1c2d6:	01d97463          	bgeu	s2,t4,1c2de <__muldf3+0x202>
   1c2da:	6341                	lui	t1,0x10
   1c2dc:	971a                	add	a4,a4,t1
   1c2de:	01095e93          	srli	t4,s2,0x10
   1c2e2:	69c1                	lui	s3,0x10
   1c2e4:	9eba                	add	t4,t4,a4
   1c2e6:	fff98713          	addi	a4,s3,-1 # ffff <register_fini-0x75>
   1c2ea:	00e97933          	and	s2,s2,a4
   1c2ee:	8ef9                	and	a3,a3,a4
   1c2f0:	0104d413          	srli	s0,s1,0x10
   1c2f4:	0942                	slli	s2,s2,0x10
   1c2f6:	8cf9                	and	s1,s1,a4
   1c2f8:	02978733          	mul	a4,a5,s1
   1c2fc:	9936                	add	s2,s2,a3
   1c2fe:	93ca                	add	t2,t2,s2
   1c300:	02f40333          	mul	t1,s0,a5
   1c304:	029886b3          	mul	a3,a7,s1
   1c308:	028887b3          	mul	a5,a7,s0
   1c30c:	006688b3          	add	a7,a3,t1
   1c310:	01075693          	srli	a3,a4,0x10
   1c314:	96c6                	add	a3,a3,a7
   1c316:	0066f363          	bgeu	a3,t1,1c31c <__muldf3+0x240>
   1c31a:	97ce                	add	a5,a5,s3
   1c31c:	0106d893          	srli	a7,a3,0x10
   1c320:	69c1                	lui	s3,0x10
   1c322:	00f88fb3          	add	t6,a7,a5
   1c326:	fff98793          	addi	a5,s3,-1 # ffff <register_fini-0x75>
   1c32a:	029288b3          	mul	a7,t0,s1
   1c32e:	8efd                	and	a3,a3,a5
   1c330:	8f7d                	and	a4,a4,a5
   1c332:	06c2                	slli	a3,a3,0x10
   1c334:	96ba                	add	a3,a3,a4
   1c336:	025407b3          	mul	a5,s0,t0
   1c33a:	029f04b3          	mul	s1,t5,s1
   1c33e:	028f0333          	mul	t1,t5,s0
   1c342:	94be                	add	s1,s1,a5
   1c344:	0108d413          	srli	s0,a7,0x10
   1c348:	94a2                	add	s1,s1,s0
   1c34a:	00f4f363          	bgeu	s1,a5,1c350 <__muldf3+0x274>
   1c34e:	934e                	add	t1,t1,s3
   1c350:	67c1                	lui	a5,0x10
   1c352:	17fd                	addi	a5,a5,-1
   1c354:	00f4f733          	and	a4,s1,a5
   1c358:	00f8f8b3          	and	a7,a7,a5
   1c35c:	0742                	slli	a4,a4,0x10
   1c35e:	9e1e                	add	t3,t3,t2
   1c360:	9746                	add	a4,a4,a7
   1c362:	012e3933          	sltu	s2,t3,s2
   1c366:	9776                	add	a4,a4,t4
   1c368:	01270433          	add	s0,a4,s2
   1c36c:	9e36                	add	t3,t3,a3
   1c36e:	00de36b3          	sltu	a3,t3,a3
   1c372:	01f408b3          	add	a7,s0,t6
   1c376:	00d88f33          	add	t5,a7,a3
   1c37a:	01d73733          	sltu	a4,a4,t4
   1c37e:	01243433          	sltu	s0,s0,s2
   1c382:	8c59                	or	s0,s0,a4
   1c384:	80c1                	srli	s1,s1,0x10
   1c386:	01f8b8b3          	sltu	a7,a7,t6
   1c38a:	00df36b3          	sltu	a3,t5,a3
   1c38e:	9426                	add	s0,s0,s1
   1c390:	00d8e6b3          	or	a3,a7,a3
   1c394:	9436                	add	s0,s0,a3
   1c396:	941a                	add	s0,s0,t1
   1c398:	017f5793          	srli	a5,t5,0x17
   1c39c:	0426                	slli	s0,s0,0x9
   1c39e:	8c5d                	or	s0,s0,a5
   1c3a0:	009e1793          	slli	a5,t3,0x9
   1c3a4:	0107e7b3          	or	a5,a5,a6
   1c3a8:	00f037b3          	snez	a5,a5
   1c3ac:	017e5e13          	srli	t3,t3,0x17
   1c3b0:	009f1713          	slli	a4,t5,0x9
   1c3b4:	01c7e7b3          	or	a5,a5,t3
   1c3b8:	8fd9                	or	a5,a5,a4
   1c3ba:	01000737          	lui	a4,0x1000
   1c3be:	8f61                	and	a4,a4,s0
   1c3c0:	cb4d                	beqz	a4,1c472 <__muldf3+0x396>
   1c3c2:	0017d713          	srli	a4,a5,0x1
   1c3c6:	8b85                	andi	a5,a5,1
   1c3c8:	8fd9                	or	a5,a5,a4
   1c3ca:	01f41713          	slli	a4,s0,0x1f
   1c3ce:	8fd9                	or	a5,a5,a4
   1c3d0:	8005                	srli	s0,s0,0x1
   1c3d2:	3ff58693          	addi	a3,a1,1023
   1c3d6:	0ad05063          	blez	a3,1c476 <__muldf3+0x39a>
   1c3da:	0077f713          	andi	a4,a5,7
   1c3de:	cf01                	beqz	a4,1c3f6 <__muldf3+0x31a>
   1c3e0:	00f7f713          	andi	a4,a5,15
   1c3e4:	4511                	li	a0,4
   1c3e6:	00a70863          	beq	a4,a0,1c3f6 <__muldf3+0x31a>
   1c3ea:	00478713          	addi	a4,a5,4 # 10004 <register_fini-0x70>
   1c3ee:	00f737b3          	sltu	a5,a4,a5
   1c3f2:	943e                	add	s0,s0,a5
   1c3f4:	87ba                	mv	a5,a4
   1c3f6:	01000737          	lui	a4,0x1000
   1c3fa:	8f61                	and	a4,a4,s0
   1c3fc:	c719                	beqz	a4,1c40a <__muldf3+0x32e>
   1c3fe:	ff000737          	lui	a4,0xff000
   1c402:	177d                	addi	a4,a4,-1
   1c404:	8c79                	and	s0,s0,a4
   1c406:	40058693          	addi	a3,a1,1024
   1c40a:	7fe00713          	li	a4,2046
   1c40e:	0ed74e63          	blt	a4,a3,1c50a <__muldf3+0x42e>
   1c412:	0037d713          	srli	a4,a5,0x3
   1c416:	01d41793          	slli	a5,s0,0x1d
   1c41a:	8fd9                	or	a5,a5,a4
   1c41c:	800d                	srli	s0,s0,0x3
   1c41e:	01469713          	slli	a4,a3,0x14
   1c422:	0432                	slli	s0,s0,0xc
   1c424:	7ff006b7          	lui	a3,0x7ff00
   1c428:	8f75                	and	a4,a4,a3
   1c42a:	8031                	srli	s0,s0,0xc
   1c42c:	8c59                	or	s0,s0,a4
   1c42e:	067e                	slli	a2,a2,0x1f
   1c430:	50b2                	lw	ra,44(sp)
   1c432:	00c46733          	or	a4,s0,a2
   1c436:	5422                	lw	s0,40(sp)
   1c438:	5492                	lw	s1,36(sp)
   1c43a:	5902                	lw	s2,32(sp)
   1c43c:	49f2                	lw	s3,28(sp)
   1c43e:	4a62                	lw	s4,24(sp)
   1c440:	4ad2                	lw	s5,20(sp)
   1c442:	4b42                	lw	s6,16(sp)
   1c444:	4bb2                	lw	s7,12(sp)
   1c446:	853e                	mv	a0,a5
   1c448:	85ba                	mv	a1,a4
   1c44a:	6145                	addi	sp,sp,48
   1c44c:	8082                	ret
   1c44e:	8652                	mv	a2,s4
   1c450:	8426                	mv	s0,s1
   1c452:	87ca                	mv	a5,s2
   1c454:	875a                	mv	a4,s6
   1c456:	4689                	li	a3,2
   1c458:	0ad70963          	beq	a4,a3,1c50a <__muldf3+0x42e>
   1c45c:	468d                	li	a3,3
   1c45e:	08d70f63          	beq	a4,a3,1c4fc <__muldf3+0x420>
   1c462:	4685                	li	a3,1
   1c464:	f6d717e3          	bne	a4,a3,1c3d2 <__muldf3+0x2f6>
   1c468:	4401                	li	s0,0
   1c46a:	4781                	li	a5,0
   1c46c:	a09d                	j	1c4d2 <__muldf3+0x3f6>
   1c46e:	8656                	mv	a2,s5
   1c470:	b7dd                	j	1c456 <__muldf3+0x37a>
   1c472:	85aa                	mv	a1,a0
   1c474:	bfb9                	j	1c3d2 <__muldf3+0x2f6>
   1c476:	4505                	li	a0,1
   1c478:	8d15                	sub	a0,a0,a3
   1c47a:	03800713          	li	a4,56
   1c47e:	fea745e3          	blt	a4,a0,1c468 <__muldf3+0x38c>
   1c482:	477d                	li	a4,31
   1c484:	04a74963          	blt	a4,a0,1c4d6 <__muldf3+0x3fa>
   1c488:	41e58593          	addi	a1,a1,1054
   1c48c:	00b41733          	sll	a4,s0,a1
   1c490:	00a7d6b3          	srl	a3,a5,a0
   1c494:	00b797b3          	sll	a5,a5,a1
   1c498:	8f55                	or	a4,a4,a3
   1c49a:	00f037b3          	snez	a5,a5
   1c49e:	8fd9                	or	a5,a5,a4
   1c4a0:	00a45433          	srl	s0,s0,a0
   1c4a4:	0077f713          	andi	a4,a5,7
   1c4a8:	cf01                	beqz	a4,1c4c0 <__muldf3+0x3e4>
   1c4aa:	00f7f713          	andi	a4,a5,15
   1c4ae:	4691                	li	a3,4
   1c4b0:	00d70863          	beq	a4,a3,1c4c0 <__muldf3+0x3e4>
   1c4b4:	00478713          	addi	a4,a5,4
   1c4b8:	00f737b3          	sltu	a5,a4,a5
   1c4bc:	943e                	add	s0,s0,a5
   1c4be:	87ba                	mv	a5,a4
   1c4c0:	00800737          	lui	a4,0x800
   1c4c4:	8f61                	and	a4,a4,s0
   1c4c6:	e739                	bnez	a4,1c514 <__muldf3+0x438>
   1c4c8:	01d41713          	slli	a4,s0,0x1d
   1c4cc:	838d                	srli	a5,a5,0x3
   1c4ce:	8fd9                	or	a5,a5,a4
   1c4d0:	800d                	srli	s0,s0,0x3
   1c4d2:	4681                	li	a3,0
   1c4d4:	b7a9                	j	1c41e <__muldf3+0x342>
   1c4d6:	5705                	li	a4,-31
   1c4d8:	8f15                	sub	a4,a4,a3
   1c4da:	02000813          	li	a6,32
   1c4de:	00e45733          	srl	a4,s0,a4
   1c4e2:	4681                	li	a3,0
   1c4e4:	01050663          	beq	a0,a6,1c4f0 <__muldf3+0x414>
   1c4e8:	43e58593          	addi	a1,a1,1086
   1c4ec:	00b416b3          	sll	a3,s0,a1
   1c4f0:	8fd5                	or	a5,a5,a3
   1c4f2:	00f037b3          	snez	a5,a5
   1c4f6:	8fd9                	or	a5,a5,a4
   1c4f8:	4401                	li	s0,0
   1c4fa:	b76d                	j	1c4a4 <__muldf3+0x3c8>
   1c4fc:	00080437          	lui	s0,0x80
   1c500:	4781                	li	a5,0
   1c502:	7ff00693          	li	a3,2047
   1c506:	4601                	li	a2,0
   1c508:	bf19                	j	1c41e <__muldf3+0x342>
   1c50a:	4401                	li	s0,0
   1c50c:	4781                	li	a5,0
   1c50e:	7ff00693          	li	a3,2047
   1c512:	b731                	j	1c41e <__muldf3+0x342>
   1c514:	4401                	li	s0,0
   1c516:	4781                	li	a5,0
   1c518:	4685                	li	a3,1
   1c51a:	b711                	j	1c41e <__muldf3+0x342>

0001c51c <__eqtf2>:
   1c51c:	455c                	lw	a5,12(a0)
   1c51e:	0005af03          	lw	t5,0(a1)
   1c522:	0045af83          	lw	t6,4(a1)
   1c526:	0085a283          	lw	t0,8(a1)
   1c52a:	45cc                	lw	a1,12(a1)
   1c52c:	6721                	lui	a4,0x8
   1c52e:	0107d693          	srli	a3,a5,0x10
   1c532:	177d                	addi	a4,a4,-1
   1c534:	01079813          	slli	a6,a5,0x10
   1c538:	01059e93          	slli	t4,a1,0x10
   1c53c:	01f7d613          	srli	a2,a5,0x1f
   1c540:	8ef9                	and	a3,a3,a4
   1c542:	0105d793          	srli	a5,a1,0x10
   1c546:	00052883          	lw	a7,0(a0)
   1c54a:	00452303          	lw	t1,4(a0)
   1c54e:	00852e03          	lw	t3,8(a0)
   1c552:	1141                	addi	sp,sp,-16
   1c554:	01085813          	srli	a6,a6,0x10
   1c558:	010ede93          	srli	t4,t4,0x10
   1c55c:	8ff9                	and	a5,a5,a4
   1c55e:	81fd                	srli	a1,a1,0x1f
   1c560:	00e69d63          	bne	a3,a4,1c57a <__eqtf2+0x5e>
   1c564:	0068e733          	or	a4,a7,t1
   1c568:	01c76733          	or	a4,a4,t3
   1c56c:	01076733          	or	a4,a4,a6
   1c570:	4505                	li	a0,1
   1c572:	e721                	bnez	a4,1c5ba <__eqtf2+0x9e>
   1c574:	04d79363          	bne	a5,a3,1c5ba <__eqtf2+0x9e>
   1c578:	a019                	j	1c57e <__eqtf2+0x62>
   1c57a:	00e79a63          	bne	a5,a4,1c58e <__eqtf2+0x72>
   1c57e:	01ff6733          	or	a4,t5,t6
   1c582:	00576733          	or	a4,a4,t0
   1c586:	01d76733          	or	a4,a4,t4
   1c58a:	4505                	li	a0,1
   1c58c:	e71d                	bnez	a4,1c5ba <__eqtf2+0x9e>
   1c58e:	4505                	li	a0,1
   1c590:	02d79563          	bne	a5,a3,1c5ba <__eqtf2+0x9e>
   1c594:	03e89363          	bne	a7,t5,1c5ba <__eqtf2+0x9e>
   1c598:	03f31163          	bne	t1,t6,1c5ba <__eqtf2+0x9e>
   1c59c:	005e1f63          	bne	t3,t0,1c5ba <__eqtf2+0x9e>
   1c5a0:	01d81d63          	bne	a6,t4,1c5ba <__eqtf2+0x9e>
   1c5a4:	00b60d63          	beq	a2,a1,1c5be <__eqtf2+0xa2>
   1c5a8:	eb89                	bnez	a5,1c5ba <__eqtf2+0x9e>
   1c5aa:	0068e533          	or	a0,a7,t1
   1c5ae:	01c56533          	or	a0,a0,t3
   1c5b2:	01056533          	or	a0,a0,a6
   1c5b6:	00a03533          	snez	a0,a0
   1c5ba:	0141                	addi	sp,sp,16
   1c5bc:	8082                	ret
   1c5be:	4501                	li	a0,0
   1c5c0:	bfed                	j	1c5ba <__eqtf2+0x9e>

0001c5c2 <__getf2>:
   1c5c2:	00052f83          	lw	t6,0(a0)
   1c5c6:	00452803          	lw	a6,4(a0)
   1c5ca:	00852e03          	lw	t3,8(a0)
   1c5ce:	4548                	lw	a0,12(a0)
   1c5d0:	45d4                	lw	a3,12(a1)
   1c5d2:	67a1                	lui	a5,0x8
   1c5d4:	01055613          	srli	a2,a0,0x10
   1c5d8:	17fd                	addi	a5,a5,-1
   1c5da:	01069313          	slli	t1,a3,0x10
   1c5de:	0106d713          	srli	a4,a3,0x10
   1c5e2:	0005a283          	lw	t0,0(a1)
   1c5e6:	0045a883          	lw	a7,4(a1)
   1c5ea:	0085ae83          	lw	t4,8(a1)
   1c5ee:	8e7d                	and	a2,a2,a5
   1c5f0:	01051593          	slli	a1,a0,0x10
   1c5f4:	1141                	addi	sp,sp,-16
   1c5f6:	81c1                	srli	a1,a1,0x10
   1c5f8:	817d                	srli	a0,a0,0x1f
   1c5fa:	01035313          	srli	t1,t1,0x10
   1c5fe:	8f7d                	and	a4,a4,a5
   1c600:	82fd                	srli	a3,a3,0x1f
   1c602:	00f61a63          	bne	a2,a5,1c616 <__getf2+0x54>
   1c606:	01f867b3          	or	a5,a6,t6
   1c60a:	01c7e7b3          	or	a5,a5,t3
   1c60e:	8fcd                	or	a5,a5,a1
   1c610:	cfd1                	beqz	a5,1c6ac <__getf2+0xea>
   1c612:	5579                	li	a0,-2
   1c614:	a0b1                	j	1c660 <__getf2+0x9e>
   1c616:	00f71963          	bne	a4,a5,1c628 <__getf2+0x66>
   1c61a:	0112e7b3          	or	a5,t0,a7
   1c61e:	01d7e7b3          	or	a5,a5,t4
   1c622:	0067e7b3          	or	a5,a5,t1
   1c626:	f7f5                	bnez	a5,1c612 <__getf2+0x50>
   1c628:	e641                	bnez	a2,1c6b0 <__getf2+0xee>
   1c62a:	01f867b3          	or	a5,a6,t6
   1c62e:	01c7e7b3          	or	a5,a5,t3
   1c632:	8fcd                	or	a5,a5,a1
   1c634:	0017b793          	seqz	a5,a5
   1c638:	eb09                	bnez	a4,1c64a <__getf2+0x88>
   1c63a:	0112ef33          	or	t5,t0,a7
   1c63e:	01df6f33          	or	t5,t5,t4
   1c642:	006f6f33          	or	t5,t5,t1
   1c646:	040f0b63          	beqz	t5,1c69c <__getf2+0xda>
   1c64a:	eb81                	bnez	a5,1c65a <__getf2+0x98>
   1c64c:	00a69463          	bne	a3,a0,1c654 <__getf2+0x92>
   1c650:	00c75a63          	bge	a4,a2,1c664 <__getf2+0xa2>
   1c654:	c131                	beqz	a0,1c698 <__getf2+0xd6>
   1c656:	557d                	li	a0,-1
   1c658:	a021                	j	1c660 <__getf2+0x9e>
   1c65a:	557d                	li	a0,-1
   1c65c:	c291                	beqz	a3,1c660 <__getf2+0x9e>
   1c65e:	8536                	mv	a0,a3
   1c660:	0141                	addi	sp,sp,16
   1c662:	8082                	ret
   1c664:	00e65463          	bge	a2,a4,1c66c <__getf2+0xaa>
   1c668:	fd65                	bnez	a0,1c660 <__getf2+0x9e>
   1c66a:	b7f5                	j	1c656 <__getf2+0x94>
   1c66c:	feb364e3          	bltu	t1,a1,1c654 <__getf2+0x92>
   1c670:	02659863          	bne	a1,t1,1c6a0 <__getf2+0xde>
   1c674:	ffcee0e3          	bltu	t4,t3,1c654 <__getf2+0x92>
   1c678:	03de1763          	bne	t3,t4,1c6a6 <__getf2+0xe4>
   1c67c:	fd08ece3          	bltu	a7,a6,1c654 <__getf2+0x92>
   1c680:	01181463          	bne	a6,a7,1c688 <__getf2+0xc6>
   1c684:	fdf2e8e3          	bltu	t0,t6,1c654 <__getf2+0x92>
   1c688:	ff1860e3          	bltu	a6,a7,1c668 <__getf2+0xa6>
   1c68c:	01181463          	bne	a6,a7,1c694 <__getf2+0xd2>
   1c690:	fc5fece3          	bltu	t6,t0,1c668 <__getf2+0xa6>
   1c694:	4501                	li	a0,0
   1c696:	b7e9                	j	1c660 <__getf2+0x9e>
   1c698:	4505                	li	a0,1
   1c69a:	b7d9                	j	1c660 <__getf2+0x9e>
   1c69c:	ffe5                	bnez	a5,1c694 <__getf2+0xd2>
   1c69e:	bf5d                	j	1c654 <__getf2+0x92>
   1c6a0:	fc65e4e3          	bltu	a1,t1,1c668 <__getf2+0xa6>
   1c6a4:	bfc5                	j	1c694 <__getf2+0xd2>
   1c6a6:	fdde61e3          	bltu	t3,t4,1c668 <__getf2+0xa6>
   1c6aa:	b7ed                	j	1c694 <__getf2+0xd2>
   1c6ac:	f6c707e3          	beq	a4,a2,1c61a <__getf2+0x58>
   1c6b0:	ff51                	bnez	a4,1c64c <__getf2+0x8a>
   1c6b2:	4781                	li	a5,0
   1c6b4:	b759                	j	1c63a <__getf2+0x78>

0001c6b6 <__letf2>:
   1c6b6:	00052f83          	lw	t6,0(a0)
   1c6ba:	00452803          	lw	a6,4(a0)
   1c6be:	00852e03          	lw	t3,8(a0)
   1c6c2:	4548                	lw	a0,12(a0)
   1c6c4:	45d4                	lw	a3,12(a1)
   1c6c6:	67a1                	lui	a5,0x8
   1c6c8:	01055613          	srli	a2,a0,0x10
   1c6cc:	17fd                	addi	a5,a5,-1
   1c6ce:	01069313          	slli	t1,a3,0x10
   1c6d2:	0106d713          	srli	a4,a3,0x10
   1c6d6:	0005a283          	lw	t0,0(a1)
   1c6da:	0045a883          	lw	a7,4(a1)
   1c6de:	0085ae83          	lw	t4,8(a1)
   1c6e2:	8e7d                	and	a2,a2,a5
   1c6e4:	01051593          	slli	a1,a0,0x10
   1c6e8:	1141                	addi	sp,sp,-16
   1c6ea:	81c1                	srli	a1,a1,0x10
   1c6ec:	817d                	srli	a0,a0,0x1f
   1c6ee:	01035313          	srli	t1,t1,0x10
   1c6f2:	8f7d                	and	a4,a4,a5
   1c6f4:	82fd                	srli	a3,a3,0x1f
   1c6f6:	00f61a63          	bne	a2,a5,1c70a <__letf2+0x54>
   1c6fa:	01f867b3          	or	a5,a6,t6
   1c6fe:	01c7e7b3          	or	a5,a5,t3
   1c702:	8fcd                	or	a5,a5,a1
   1c704:	cfd1                	beqz	a5,1c7a0 <__letf2+0xea>
   1c706:	4509                	li	a0,2
   1c708:	a0b1                	j	1c754 <__letf2+0x9e>
   1c70a:	00f71963          	bne	a4,a5,1c71c <__letf2+0x66>
   1c70e:	0112e7b3          	or	a5,t0,a7
   1c712:	01d7e7b3          	or	a5,a5,t4
   1c716:	0067e7b3          	or	a5,a5,t1
   1c71a:	f7f5                	bnez	a5,1c706 <__letf2+0x50>
   1c71c:	e641                	bnez	a2,1c7a4 <__letf2+0xee>
   1c71e:	01f867b3          	or	a5,a6,t6
   1c722:	01c7e7b3          	or	a5,a5,t3
   1c726:	8fcd                	or	a5,a5,a1
   1c728:	0017b793          	seqz	a5,a5
   1c72c:	eb09                	bnez	a4,1c73e <__letf2+0x88>
   1c72e:	0112ef33          	or	t5,t0,a7
   1c732:	01df6f33          	or	t5,t5,t4
   1c736:	006f6f33          	or	t5,t5,t1
   1c73a:	040f0b63          	beqz	t5,1c790 <__letf2+0xda>
   1c73e:	eb81                	bnez	a5,1c74e <__letf2+0x98>
   1c740:	00a69463          	bne	a3,a0,1c748 <__letf2+0x92>
   1c744:	00c75a63          	bge	a4,a2,1c758 <__letf2+0xa2>
   1c748:	c131                	beqz	a0,1c78c <__letf2+0xd6>
   1c74a:	557d                	li	a0,-1
   1c74c:	a021                	j	1c754 <__letf2+0x9e>
   1c74e:	557d                	li	a0,-1
   1c750:	c291                	beqz	a3,1c754 <__letf2+0x9e>
   1c752:	8536                	mv	a0,a3
   1c754:	0141                	addi	sp,sp,16
   1c756:	8082                	ret
   1c758:	00e65463          	bge	a2,a4,1c760 <__letf2+0xaa>
   1c75c:	fd65                	bnez	a0,1c754 <__letf2+0x9e>
   1c75e:	b7f5                	j	1c74a <__letf2+0x94>
   1c760:	feb364e3          	bltu	t1,a1,1c748 <__letf2+0x92>
   1c764:	02659863          	bne	a1,t1,1c794 <__letf2+0xde>
   1c768:	ffcee0e3          	bltu	t4,t3,1c748 <__letf2+0x92>
   1c76c:	03de1763          	bne	t3,t4,1c79a <__letf2+0xe4>
   1c770:	fd08ece3          	bltu	a7,a6,1c748 <__letf2+0x92>
   1c774:	01181463          	bne	a6,a7,1c77c <__letf2+0xc6>
   1c778:	fdf2e8e3          	bltu	t0,t6,1c748 <__letf2+0x92>
   1c77c:	ff1860e3          	bltu	a6,a7,1c75c <__letf2+0xa6>
   1c780:	01181463          	bne	a6,a7,1c788 <__letf2+0xd2>
   1c784:	fc5fece3          	bltu	t6,t0,1c75c <__letf2+0xa6>
   1c788:	4501                	li	a0,0
   1c78a:	b7e9                	j	1c754 <__letf2+0x9e>
   1c78c:	4505                	li	a0,1
   1c78e:	b7d9                	j	1c754 <__letf2+0x9e>
   1c790:	ffe5                	bnez	a5,1c788 <__letf2+0xd2>
   1c792:	bf5d                	j	1c748 <__letf2+0x92>
   1c794:	fc65e4e3          	bltu	a1,t1,1c75c <__letf2+0xa6>
   1c798:	bfc5                	j	1c788 <__letf2+0xd2>
   1c79a:	fdde61e3          	bltu	t3,t4,1c75c <__letf2+0xa6>
   1c79e:	b7ed                	j	1c788 <__letf2+0xd2>
   1c7a0:	f6c707e3          	beq	a4,a2,1c70e <__letf2+0x58>
   1c7a4:	ff51                	bnez	a4,1c740 <__letf2+0x8a>
   1c7a6:	4781                	li	a5,0
   1c7a8:	b759                	j	1c72e <__letf2+0x78>

0001c7aa <__multf3>:
   1c7aa:	7131                	addi	sp,sp,-192
   1c7ac:	d94a                	sw	s2,176(sp)
   1c7ae:	00c5a903          	lw	s2,12(a1)
   1c7b2:	419c                	lw	a5,0(a1)
   1c7b4:	41d4                	lw	a3,4(a1)
   1c7b6:	c62a                	sw	a0,12(sp)
   1c7b8:	4588                	lw	a0,8(a1)
   1c7ba:	01091713          	slli	a4,s2,0x10
   1c7be:	d74e                	sw	s3,172(sp)
   1c7c0:	d552                	sw	s4,168(sp)
   1c7c2:	00c62983          	lw	s3,12(a2) # 7ff0000c <__BSS_END__+0x7fedf0e4>
   1c7c6:	00062a03          	lw	s4,0(a2)
   1c7ca:	d356                	sw	s5,164(sp)
   1c7cc:	d15a                	sw	s6,160(sp)
   1c7ce:	00862a83          	lw	s5,8(a2)
   1c7d2:	00462b03          	lw	s6,4(a2)
   1c7d6:	6621                	lui	a2,0x8
   1c7d8:	dd22                	sw	s0,184(sp)
   1c7da:	8341                	srli	a4,a4,0x10
   1c7dc:	01095413          	srli	s0,s2,0x10
   1c7e0:	167d                	addi	a2,a2,-1
   1c7e2:	d6ca                	sw	s2,108(sp)
   1c7e4:	df06                	sw	ra,188(sp)
   1c7e6:	db26                	sw	s1,180(sp)
   1c7e8:	cf5e                	sw	s7,156(sp)
   1c7ea:	cd62                	sw	s8,152(sp)
   1c7ec:	cb66                	sw	s9,148(sp)
   1c7ee:	c96a                	sw	s10,144(sp)
   1c7f0:	c76e                	sw	s11,140(sp)
   1c7f2:	d0be                	sw	a5,96(sp)
   1c7f4:	d2b6                	sw	a3,100(sp)
   1c7f6:	d4aa                	sw	a0,104(sp)
   1c7f8:	d83e                	sw	a5,48(sp)
   1c7fa:	da36                	sw	a3,52(sp)
   1c7fc:	dc2a                	sw	a0,56(sp)
   1c7fe:	de3a                	sw	a4,60(sp)
   1c800:	8c71                	and	s0,s0,a2
   1c802:	01f95913          	srli	s2,s2,0x1f
   1c806:	cc45                	beqz	s0,1c8be <__multf3+0x114>
   1c808:	16c40c63          	beq	s0,a2,1c980 <__multf3+0x1d6>
   1c80c:	67c1                	lui	a5,0x10
   1c80e:	8fd9                	or	a5,a5,a4
   1c810:	de3e                	sw	a5,60(sp)
   1c812:	1810                	addi	a2,sp,48
   1c814:	187c                	addi	a5,sp,60
   1c816:	4398                	lw	a4,0(a5)
   1c818:	ffc7a683          	lw	a3,-4(a5) # fffc <register_fini-0x78>
   1c81c:	17f1                	addi	a5,a5,-4
   1c81e:	070e                	slli	a4,a4,0x3
   1c820:	82f5                	srli	a3,a3,0x1d
   1c822:	8f55                	or	a4,a4,a3
   1c824:	c3d8                	sw	a4,4(a5)
   1c826:	fef618e3          	bne	a2,a5,1c816 <__multf3+0x6c>
   1c82a:	57c2                	lw	a5,48(sp)
   1c82c:	7571                	lui	a0,0xffffc
   1c82e:	0505                	addi	a0,a0,1
   1c830:	078e                	slli	a5,a5,0x3
   1c832:	d83e                	sw	a5,48(sp)
   1c834:	942a                	add	s0,s0,a0
   1c836:	4b81                	li	s7,0
   1c838:	01099513          	slli	a0,s3,0x10
   1c83c:	6721                	lui	a4,0x8
   1c83e:	0109d793          	srli	a5,s3,0x10
   1c842:	8141                	srli	a0,a0,0x10
   1c844:	177d                	addi	a4,a4,-1
   1c846:	d6ce                	sw	s3,108(sp)
   1c848:	d0d2                	sw	s4,96(sp)
   1c84a:	d2da                	sw	s6,100(sp)
   1c84c:	d4d6                	sw	s5,104(sp)
   1c84e:	c0d2                	sw	s4,64(sp)
   1c850:	c2da                	sw	s6,68(sp)
   1c852:	c4d6                	sw	s5,72(sp)
   1c854:	c6aa                	sw	a0,76(sp)
   1c856:	8ff9                	and	a5,a5,a4
   1c858:	01f9d993          	srli	s3,s3,0x1f
   1c85c:	12078d63          	beqz	a5,1c996 <__multf3+0x1ec>
   1c860:	1ee78f63          	beq	a5,a4,1ca5e <__multf3+0x2b4>
   1c864:	6ac1                	lui	s5,0x10
   1c866:	01556ab3          	or	s5,a0,s5
   1c86a:	c6d6                	sw	s5,76(sp)
   1c86c:	008c                	addi	a1,sp,64
   1c86e:	00f8                	addi	a4,sp,76
   1c870:	4314                	lw	a3,0(a4)
   1c872:	ffc72603          	lw	a2,-4(a4) # 7ffc <register_fini-0x8078>
   1c876:	1771                	addi	a4,a4,-4
   1c878:	068e                	slli	a3,a3,0x3
   1c87a:	8275                	srli	a2,a2,0x1d
   1c87c:	8ed1                	or	a3,a3,a2
   1c87e:	c354                	sw	a3,4(a4)
   1c880:	fee598e3          	bne	a1,a4,1c870 <__multf3+0xc6>
   1c884:	4706                	lw	a4,64(sp)
   1c886:	7571                	lui	a0,0xffffc
   1c888:	0505                	addi	a0,a0,1
   1c88a:	070e                	slli	a4,a4,0x3
   1c88c:	c0ba                	sw	a4,64(sp)
   1c88e:	97aa                	add	a5,a5,a0
   1c890:	4701                	li	a4,0
   1c892:	97a2                	add	a5,a5,s0
   1c894:	d03e                	sw	a5,32(sp)
   1c896:	0785                	addi	a5,a5,1
   1c898:	ce3e                	sw	a5,28(sp)
   1c89a:	002b9793          	slli	a5,s7,0x2
   1c89e:	013946b3          	xor	a3,s2,s3
   1c8a2:	8fd9                	or	a5,a5,a4
   1c8a4:	c836                	sw	a3,16(sp)
   1c8a6:	17fd                	addi	a5,a5,-1
   1c8a8:	46b9                	li	a3,14
   1c8aa:	1cf6e863          	bltu	a3,a5,1ca7a <__multf3+0x2d0>
   1c8ae:	0001f6b7          	lui	a3,0x1f
   1c8b2:	078a                	slli	a5,a5,0x2
   1c8b4:	37868693          	addi	a3,a3,888 # 1f378 <zeroes.0+0x88>
   1c8b8:	97b6                	add	a5,a5,a3
   1c8ba:	439c                	lw	a5,0(a5)
   1c8bc:	8782                	jr	a5
   1c8be:	00d7e633          	or	a2,a5,a3
   1c8c2:	8e49                	or	a2,a2,a0
   1c8c4:	8e59                	or	a2,a2,a4
   1c8c6:	c669                	beqz	a2,1c990 <__multf3+0x1e6>
   1c8c8:	cb39                	beqz	a4,1c91e <__multf3+0x174>
   1c8ca:	853a                	mv	a0,a4
   1c8cc:	563010ef          	jal	ra,1e62e <__clzsi2>
   1c8d0:	84aa                	mv	s1,a0
   1c8d2:	ff448713          	addi	a4,s1,-12 # 7fff4 <__BSS_END__+0x5f0cc>
   1c8d6:	40575613          	srai	a2,a4,0x5
   1c8da:	8b7d                	andi	a4,a4,31
   1c8dc:	c725                	beqz	a4,1c944 <__multf3+0x19a>
   1c8de:	57f1                	li	a5,-4
   1c8e0:	02f607b3          	mul	a5,a2,a5
   1c8e4:	02000513          	li	a0,32
   1c8e8:	03010893          	addi	a7,sp,48
   1c8ec:	8d19                	sub	a0,a0,a4
   1c8ee:	00261593          	slli	a1,a2,0x2
   1c8f2:	07b1                	addi	a5,a5,12
   1c8f4:	97c6                	add	a5,a5,a7
   1c8f6:	06f89663          	bne	a7,a5,1c962 <__multf3+0x1b8>
   1c8fa:	011c                	addi	a5,sp,128
   1c8fc:	95be                	add	a1,a1,a5
   1c8fe:	57c2                	lw	a5,48(sp)
   1c900:	167d                	addi	a2,a2,-1
   1c902:	00e79733          	sll	a4,a5,a4
   1c906:	fae5a823          	sw	a4,-80(a1)
   1c90a:	0605                	addi	a2,a2,1
   1c90c:	7471                	lui	s0,0xffffc
   1c90e:	060a                	slli	a2,a2,0x2
   1c910:	4581                	li	a1,0
   1c912:	1808                	addi	a0,sp,48
   1c914:	0445                	addi	s0,s0,17
   1c916:	9d5f30ef          	jal	ra,102ea <memset>
   1c91a:	8c05                	sub	s0,s0,s1
   1c91c:	bf29                	j	1c836 <__multf3+0x8c>
   1c91e:	c511                	beqz	a0,1c92a <__multf3+0x180>
   1c920:	50f010ef          	jal	ra,1e62e <__clzsi2>
   1c924:	02050493          	addi	s1,a0,32 # ffffc020 <__BSS_END__+0xfffdb0f8>
   1c928:	b76d                	j	1c8d2 <__multf3+0x128>
   1c92a:	c699                	beqz	a3,1c938 <__multf3+0x18e>
   1c92c:	8536                	mv	a0,a3
   1c92e:	501010ef          	jal	ra,1e62e <__clzsi2>
   1c932:	04050493          	addi	s1,a0,64
   1c936:	bf71                	j	1c8d2 <__multf3+0x128>
   1c938:	853e                	mv	a0,a5
   1c93a:	4f5010ef          	jal	ra,1e62e <__clzsi2>
   1c93e:	06050493          	addi	s1,a0,96
   1c942:	bf41                	j	1c8d2 <__multf3+0x128>
   1c944:	56f1                	li	a3,-4
   1c946:	02d606b3          	mul	a3,a2,a3
   1c94a:	187c                	addi	a5,sp,60
   1c94c:	470d                	li	a4,3
   1c94e:	00d785b3          	add	a1,a5,a3
   1c952:	418c                	lw	a1,0(a1)
   1c954:	177d                	addi	a4,a4,-1
   1c956:	17f1                	addi	a5,a5,-4
   1c958:	c3cc                	sw	a1,4(a5)
   1c95a:	fec75ae3          	bge	a4,a2,1c94e <__multf3+0x1a4>
   1c95e:	167d                	addi	a2,a2,-1
   1c960:	b76d                	j	1c90a <__multf3+0x160>
   1c962:	4394                	lw	a3,0(a5)
   1c964:	ffc7a803          	lw	a6,-4(a5)
   1c968:	00b78333          	add	t1,a5,a1
   1c96c:	00e696b3          	sll	a3,a3,a4
   1c970:	00a85833          	srl	a6,a6,a0
   1c974:	0106e6b3          	or	a3,a3,a6
   1c978:	00d32023          	sw	a3,0(t1) # 10000 <register_fini-0x74>
   1c97c:	17f1                	addi	a5,a5,-4
   1c97e:	bfa5                	j	1c8f6 <__multf3+0x14c>
   1c980:	8fd5                	or	a5,a5,a3
   1c982:	8fc9                	or	a5,a5,a0
   1c984:	8fd9                	or	a5,a5,a4
   1c986:	4b8d                	li	s7,3
   1c988:	ea0798e3          	bnez	a5,1c838 <__multf3+0x8e>
   1c98c:	4b89                	li	s7,2
   1c98e:	b56d                	j	1c838 <__multf3+0x8e>
   1c990:	4401                	li	s0,0
   1c992:	4b85                	li	s7,1
   1c994:	b555                	j	1c838 <__multf3+0x8e>
   1c996:	016a67b3          	or	a5,s4,s6
   1c99a:	0157e7b3          	or	a5,a5,s5
   1c99e:	8fc9                	or	a5,a5,a0
   1c9a0:	cbf1                	beqz	a5,1ca74 <__multf3+0x2ca>
   1c9a2:	c931                	beqz	a0,1c9f6 <__multf3+0x24c>
   1c9a4:	48b010ef          	jal	ra,1e62e <__clzsi2>
   1c9a8:	84aa                	mv	s1,a0
   1c9aa:	ff448713          	addi	a4,s1,-12
   1c9ae:	40575613          	srai	a2,a4,0x5
   1c9b2:	8b7d                	andi	a4,a4,31
   1c9b4:	c73d                	beqz	a4,1ca22 <__multf3+0x278>
   1c9b6:	57f1                	li	a5,-4
   1c9b8:	02f607b3          	mul	a5,a2,a5
   1c9bc:	02000513          	li	a0,32
   1c9c0:	04010893          	addi	a7,sp,64
   1c9c4:	8d19                	sub	a0,a0,a4
   1c9c6:	00261593          	slli	a1,a2,0x2
   1c9ca:	07b1                	addi	a5,a5,12
   1c9cc:	97c6                	add	a5,a5,a7
   1c9ce:	06f89963          	bne	a7,a5,1ca40 <__multf3+0x296>
   1c9d2:	011c                	addi	a5,sp,128
   1c9d4:	95be                	add	a1,a1,a5
   1c9d6:	4786                	lw	a5,64(sp)
   1c9d8:	167d                	addi	a2,a2,-1
   1c9da:	00e79733          	sll	a4,a5,a4
   1c9de:	fce5a023          	sw	a4,-64(a1)
   1c9e2:	0605                	addi	a2,a2,1
   1c9e4:	060a                	slli	a2,a2,0x2
   1c9e6:	4581                	li	a1,0
   1c9e8:	0088                	addi	a0,sp,64
   1c9ea:	901f30ef          	jal	ra,102ea <memset>
   1c9ee:	77f1                	lui	a5,0xffffc
   1c9f0:	07c5                	addi	a5,a5,17
   1c9f2:	8f85                	sub	a5,a5,s1
   1c9f4:	bd71                	j	1c890 <__multf3+0xe6>
   1c9f6:	000a8863          	beqz	s5,1ca06 <__multf3+0x25c>
   1c9fa:	8556                	mv	a0,s5
   1c9fc:	433010ef          	jal	ra,1e62e <__clzsi2>
   1ca00:	02050493          	addi	s1,a0,32
   1ca04:	b75d                	j	1c9aa <__multf3+0x200>
   1ca06:	000b0863          	beqz	s6,1ca16 <__multf3+0x26c>
   1ca0a:	855a                	mv	a0,s6
   1ca0c:	423010ef          	jal	ra,1e62e <__clzsi2>
   1ca10:	04050493          	addi	s1,a0,64
   1ca14:	bf59                	j	1c9aa <__multf3+0x200>
   1ca16:	8552                	mv	a0,s4
   1ca18:	417010ef          	jal	ra,1e62e <__clzsi2>
   1ca1c:	06050493          	addi	s1,a0,96
   1ca20:	b769                	j	1c9aa <__multf3+0x200>
   1ca22:	56f1                	li	a3,-4
   1ca24:	02d606b3          	mul	a3,a2,a3
   1ca28:	00fc                	addi	a5,sp,76
   1ca2a:	470d                	li	a4,3
   1ca2c:	00d785b3          	add	a1,a5,a3
   1ca30:	418c                	lw	a1,0(a1)
   1ca32:	177d                	addi	a4,a4,-1
   1ca34:	17f1                	addi	a5,a5,-4
   1ca36:	c3cc                	sw	a1,4(a5)
   1ca38:	fec75ae3          	bge	a4,a2,1ca2c <__multf3+0x282>
   1ca3c:	167d                	addi	a2,a2,-1
   1ca3e:	b755                	j	1c9e2 <__multf3+0x238>
   1ca40:	4394                	lw	a3,0(a5)
   1ca42:	ffc7a803          	lw	a6,-4(a5) # ffffbffc <__BSS_END__+0xfffdb0d4>
   1ca46:	00b78333          	add	t1,a5,a1
   1ca4a:	00e696b3          	sll	a3,a3,a4
   1ca4e:	00a85833          	srl	a6,a6,a0
   1ca52:	0106e6b3          	or	a3,a3,a6
   1ca56:	00d32023          	sw	a3,0(t1)
   1ca5a:	17f1                	addi	a5,a5,-4
   1ca5c:	bf8d                	j	1c9ce <__multf3+0x224>
   1ca5e:	016a6a33          	or	s4,s4,s6
   1ca62:	015a6ab3          	or	s5,s4,s5
   1ca66:	00aaeab3          	or	s5,s5,a0
   1ca6a:	470d                	li	a4,3
   1ca6c:	e20a93e3          	bnez	s5,1c892 <__multf3+0xe8>
   1ca70:	4709                	li	a4,2
   1ca72:	b505                	j	1c892 <__multf3+0xe8>
   1ca74:	4781                	li	a5,0
   1ca76:	4705                	li	a4,1
   1ca78:	bd29                	j	1c892 <__multf3+0xe8>
   1ca7a:	5742                	lw	a4,48(sp)
   1ca7c:	4e06                	lw	t3,64(sp)
   1ca7e:	6541                	lui	a0,0x10
   1ca80:	fff50693          	addi	a3,a0,-1 # ffff <register_fini-0x75>
   1ca84:	01075f93          	srli	t6,a4,0x10
   1ca88:	010e5a93          	srli	s5,t3,0x10
   1ca8c:	8f75                	and	a4,a4,a3
   1ca8e:	00de7e33          	and	t3,t3,a3
   1ca92:	02ea87b3          	mul	a5,s5,a4
   1ca96:	02ee0633          	mul	a2,t3,a4
   1ca9a:	03cf8833          	mul	a6,t6,t3
   1ca9e:	010785b3          	add	a1,a5,a6
   1caa2:	01065793          	srli	a5,a2,0x10
   1caa6:	97ae                	add	a5,a5,a1
   1caa8:	035f8bb3          	mul	s7,t6,s5
   1caac:	0107f363          	bgeu	a5,a6,1cab2 <__multf3+0x308>
   1cab0:	9baa                	add	s7,s7,a0
   1cab2:	4f16                	lw	t5,68(sp)
   1cab4:	0107d993          	srli	s3,a5,0x10
   1cab8:	8ff5                	and	a5,a5,a3
   1caba:	8e75                	and	a2,a2,a3
   1cabc:	07c2                	slli	a5,a5,0x10
   1cabe:	97b2                	add	a5,a5,a2
   1cac0:	010f5493          	srli	s1,t5,0x10
   1cac4:	00df7f33          	and	t5,t5,a3
   1cac8:	02ef06b3          	mul	a3,t5,a4
   1cacc:	d23e                	sw	a5,36(sp)
   1cace:	d0be                	sw	a5,96(sp)
   1cad0:	03ef8633          	mul	a2,t6,t5
   1cad4:	02e487b3          	mul	a5,s1,a4
   1cad8:	00c78533          	add	a0,a5,a2
   1cadc:	0106d793          	srli	a5,a3,0x10
   1cae0:	97aa                	add	a5,a5,a0
   1cae2:	029f8b33          	mul	s6,t6,s1
   1cae6:	00c7f463          	bgeu	a5,a2,1caee <__multf3+0x344>
   1caea:	6641                	lui	a2,0x10
   1caec:	9b32                	add	s6,s6,a2
   1caee:	6641                	lui	a2,0x10
   1caf0:	fff60593          	addi	a1,a2,-1 # ffff <register_fini-0x75>
   1caf4:	00b7f533          	and	a0,a5,a1
   1caf8:	0107d293          	srli	t0,a5,0x10
   1cafc:	57d2                	lw	a5,52(sp)
   1cafe:	8eed                	and	a3,a3,a1
   1cb00:	0542                	slli	a0,a0,0x10
   1cb02:	0107d913          	srli	s2,a5,0x10
   1cb06:	8dfd                	and	a1,a1,a5
   1cb08:	02ba87b3          	mul	a5,s5,a1
   1cb0c:	9536                	add	a0,a0,a3
   1cb0e:	99aa                	add	s3,s3,a0
   1cb10:	03c586b3          	mul	a3,a1,t3
   1cb14:	03c90333          	mul	t1,s2,t3
   1cb18:	00678833          	add	a6,a5,t1
   1cb1c:	0106d793          	srli	a5,a3,0x10
   1cb20:	97c2                	add	a5,a5,a6
   1cb22:	032a88b3          	mul	a7,s5,s2
   1cb26:	0067f363          	bgeu	a5,t1,1cb2c <__multf3+0x382>
   1cb2a:	98b2                	add	a7,a7,a2
   1cb2c:	0107da13          	srli	s4,a5,0x10
   1cb30:	9a46                	add	s4,s4,a7
   1cb32:	68c1                	lui	a7,0x10
   1cb34:	fff88613          	addi	a2,a7,-1 # ffff <register_fini-0x75>
   1cb38:	00c7f833          	and	a6,a5,a2
   1cb3c:	8ef1                	and	a3,a3,a2
   1cb3e:	0842                	slli	a6,a6,0x10
   1cb40:	03e58633          	mul	a2,a1,t5
   1cb44:	9836                	add	a6,a6,a3
   1cb46:	03e907b3          	mul	a5,s2,t5
   1cb4a:	01065e93          	srli	t4,a2,0x10
   1cb4e:	02b486b3          	mul	a3,s1,a1
   1cb52:	96be                	add	a3,a3,a5
   1cb54:	96f6                	add	a3,a3,t4
   1cb56:	03248333          	mul	t1,s1,s2
   1cb5a:	00f6f363          	bgeu	a3,a5,1cb60 <__multf3+0x3b6>
   1cb5e:	9346                	add	t1,t1,a7
   1cb60:	4ea6                	lw	t4,72(sp)
   1cb62:	0106d793          	srli	a5,a3,0x10
   1cb66:	979a                	add	a5,a5,t1
   1cb68:	6441                	lui	s0,0x10
   1cb6a:	d43e                	sw	a5,40(sp)
   1cb6c:	fff40793          	addi	a5,s0,-1 # ffff <register_fini-0x75>
   1cb70:	010ed393          	srli	t2,t4,0x10
   1cb74:	00fefeb3          	and	t4,t4,a5
   1cb78:	02e388b3          	mul	a7,t2,a4
   1cb7c:	8e7d                	and	a2,a2,a5
   1cb7e:	8efd                	and	a3,a3,a5
   1cb80:	06c2                	slli	a3,a3,0x10
   1cb82:	96b2                	add	a3,a3,a2
   1cb84:	02ee8333          	mul	t1,t4,a4
   1cb88:	03df8c33          	mul	s8,t6,t4
   1cb8c:	018887b3          	add	a5,a7,s8
   1cb90:	01035893          	srli	a7,t1,0x10
   1cb94:	98be                	add	a7,a7,a5
   1cb96:	027f8633          	mul	a2,t6,t2
   1cb9a:	0188f363          	bgeu	a7,s8,1cba0 <__multf3+0x3f6>
   1cb9e:	9622                	add	a2,a2,s0
   1cba0:	0108d793          	srli	a5,a7,0x10
   1cba4:	6cc1                	lui	s9,0x10
   1cba6:	97b2                	add	a5,a5,a2
   1cba8:	fffc8613          	addi	a2,s9,-1 # ffff <register_fini-0x75>
   1cbac:	d63e                	sw	a5,44(sp)
   1cbae:	00c8f7b3          	and	a5,a7,a2
   1cbb2:	58e2                	lw	a7,56(sp)
   1cbb4:	00c37333          	and	t1,t1,a2
   1cbb8:	07c2                	slli	a5,a5,0x10
   1cbba:	0108d413          	srli	s0,a7,0x10
   1cbbe:	00c8f633          	and	a2,a7,a2
   1cbc2:	03c608b3          	mul	a7,a2,t3
   1cbc6:	979a                	add	a5,a5,t1
   1cbc8:	03c40d33          	mul	s10,s0,t3
   1cbcc:	0108dd93          	srli	s11,a7,0x10
   1cbd0:	02ca8333          	mul	t1,s5,a2
   1cbd4:	936a                	add	t1,t1,s10
   1cbd6:	9d9a                	add	s11,s11,t1
   1cbd8:	028a8c33          	mul	s8,s5,s0
   1cbdc:	01adf363          	bgeu	s11,s10,1cbe2 <__multf3+0x438>
   1cbe0:	9c66                	add	s8,s8,s9
   1cbe2:	99de                	add	s3,s3,s7
   1cbe4:	00a9b533          	sltu	a0,s3,a0
   1cbe8:	010dd313          	srli	t1,s11,0x10
   1cbec:	92aa                	add	t0,t0,a0
   1cbee:	9b16                	add	s6,s6,t0
   1cbf0:	9c1a                	add	s8,s8,t1
   1cbf2:	01098333          	add	t1,s3,a6
   1cbf6:	01033833          	sltu	a6,t1,a6
   1cbfa:	6cc1                	lui	s9,0x10
   1cbfc:	ca1a                	sw	t1,20(sp)
   1cbfe:	d29a                	sw	t1,100(sp)
   1cc00:	014b0333          	add	t1,s6,s4
   1cc04:	010302b3          	add	t0,t1,a6
   1cc08:	fffc8d13          	addi	s10,s9,-1 # ffff <register_fini-0x75>
   1cc0c:	01433333          	sltu	t1,t1,s4
   1cc10:	0102b833          	sltu	a6,t0,a6
   1cc14:	01adfdb3          	and	s11,s11,s10
   1cc18:	00d289b3          	add	s3,t0,a3
   1cc1c:	01036833          	or	a6,t1,a6
   1cc20:	0dc2                	slli	s11,s11,0x10
   1cc22:	00ab3533          	sltu	a0,s6,a0
   1cc26:	01a8f8b3          	and	a7,a7,s10
   1cc2a:	98ee                	add	a7,a7,s11
   1cc2c:	00d9b6b3          	sltu	a3,s3,a3
   1cc30:	9542                	add	a0,a0,a6
   1cc32:	99be                	add	s3,s3,a5
   1cc34:	5822                	lw	a6,40(sp)
   1cc36:	01198333          	add	t1,s3,a7
   1cc3a:	011338b3          	sltu	a7,t1,a7
   1cc3e:	cc1a                	sw	t1,24(sp)
   1cc40:	d49a                	sw	t1,104(sp)
   1cc42:	5322                	lw	t1,40(sp)
   1cc44:	9542                	add	a0,a0,a6
   1cc46:	5832                	lw	a6,44(sp)
   1cc48:	00d50db3          	add	s11,a0,a3
   1cc4c:	00ddb6b3          	sltu	a3,s11,a3
   1cc50:	00653533          	sltu	a0,a0,t1
   1cc54:	00f9b7b3          	sltu	a5,s3,a5
   1cc58:	010d8bb3          	add	s7,s11,a6
   1cc5c:	8ec9                	or	a3,a3,a0
   1cc5e:	5532                	lw	a0,44(sp)
   1cc60:	00fb8833          	add	a6,s7,a5
   1cc64:	4336                	lw	t1,76(sp)
   1cc66:	018809b3          	add	s3,a6,s8
   1cc6a:	01198b33          	add	s6,s3,a7
   1cc6e:	00abbbb3          	sltu	s7,s7,a0
   1cc72:	00f837b3          	sltu	a5,a6,a5
   1cc76:	00fbe7b3          	or	a5,s7,a5
   1cc7a:	011b38b3          	sltu	a7,s6,a7
   1cc7e:	0189bc33          	sltu	s8,s3,s8
   1cc82:	96be                	add	a3,a3,a5
   1cc84:	01035293          	srli	t0,t1,0x10
   1cc88:	011c6a33          	or	s4,s8,a7
   1cc8c:	01a37333          	and	t1,t1,s10
   1cc90:	02e307b3          	mul	a5,t1,a4
   1cc94:	9a36                	add	s4,s4,a3
   1cc96:	02e28733          	mul	a4,t0,a4
   1cc9a:	0107d893          	srli	a7,a5,0x10
   1cc9e:	026f86b3          	mul	a3,t6,t1
   1cca2:	9736                	add	a4,a4,a3
   1cca4:	98ba                	add	a7,a7,a4
   1cca6:	025f8fb3          	mul	t6,t6,t0
   1ccaa:	00d8f363          	bgeu	a7,a3,1ccb0 <__multf3+0x506>
   1ccae:	9fe6                	add	t6,t6,s9
   1ccb0:	59f2                	lw	s3,60(sp)
   1ccb2:	66c1                	lui	a3,0x10
   1ccb4:	fff68513          	addi	a0,a3,-1 # ffff <register_fini-0x75>
   1ccb8:	0108d713          	srli	a4,a7,0x10
   1ccbc:	00a8f8b3          	and	a7,a7,a0
   1ccc0:	977e                	add	a4,a4,t6
   1ccc2:	8fe9                	and	a5,a5,a0
   1ccc4:	0109df93          	srli	t6,s3,0x10
   1ccc8:	08c2                	slli	a7,a7,0x10
   1ccca:	00a9f9b3          	and	s3,s3,a0
   1ccce:	8dba                	mv	s11,a4
   1ccd0:	98be                	add	a7,a7,a5
   1ccd2:	03fa8733          	mul	a4,s5,t6
   1ccd6:	03c987b3          	mul	a5,s3,t3
   1ccda:	033a8ab3          	mul	s5,s5,s3
   1ccde:	0107d813          	srli	a6,a5,0x10
   1cce2:	03cf8e33          	mul	t3,t6,t3
   1cce6:	9af2                	add	s5,s5,t3
   1cce8:	9ac2                	add	s5,s5,a6
   1ccea:	01caf363          	bgeu	s5,t3,1ccf0 <__multf3+0x546>
   1ccee:	9736                	add	a4,a4,a3
   1ccf0:	010ad693          	srli	a3,s5,0x10
   1ccf4:	9736                	add	a4,a4,a3
   1ccf6:	6bc1                	lui	s7,0x10
   1ccf8:	d43a                	sw	a4,40(sp)
   1ccfa:	fffb8713          	addi	a4,s7,-1 # ffff <register_fini-0x75>
   1ccfe:	00eaf833          	and	a6,s5,a4
   1cd02:	8ff9                	and	a5,a5,a4
   1cd04:	0842                	slli	a6,a6,0x10
   1cd06:	02be8733          	mul	a4,t4,a1
   1cd0a:	983e                	add	a6,a6,a5
   1cd0c:	03d906b3          	mul	a3,s2,t4
   1cd10:	01075513          	srli	a0,a4,0x10
   1cd14:	02b387b3          	mul	a5,t2,a1
   1cd18:	97b6                	add	a5,a5,a3
   1cd1a:	97aa                	add	a5,a5,a0
   1cd1c:	02790e33          	mul	t3,s2,t2
   1cd20:	00d7f363          	bgeu	a5,a3,1cd26 <__multf3+0x57c>
   1cd24:	9e5e                	add	t3,t3,s7
   1cd26:	0107d693          	srli	a3,a5,0x10
   1cd2a:	96f2                	add	a3,a3,t3
   1cd2c:	6bc1                	lui	s7,0x10
   1cd2e:	d636                	sw	a3,44(sp)
   1cd30:	fffb8693          	addi	a3,s7,-1 # ffff <register_fini-0x75>
   1cd34:	00d7f533          	and	a0,a5,a3
   1cd38:	8f75                	and	a4,a4,a3
   1cd3a:	0542                	slli	a0,a0,0x10
   1cd3c:	03e40e33          	mul	t3,s0,t5
   1cd40:	953a                	add	a0,a0,a4
   1cd42:	02c487b3          	mul	a5,s1,a2
   1cd46:	03e60733          	mul	a4,a2,t5
   1cd4a:	97f2                	add	a5,a5,t3
   1cd4c:	01075693          	srli	a3,a4,0x10
   1cd50:	97b6                	add	a5,a5,a3
   1cd52:	02848ab3          	mul	s5,s1,s0
   1cd56:	01c7f363          	bgeu	a5,t3,1cd5c <__multf3+0x5b2>
   1cd5a:	9ade                	add	s5,s5,s7
   1cd5c:	66c1                	lui	a3,0x10
   1cd5e:	fff68e13          	addi	t3,a3,-1 # ffff <register_fini-0x75>
   1cd62:	01c7f6b3          	and	a3,a5,t3
   1cd66:	0107db93          	srli	s7,a5,0x10
   1cd6a:	011b07b3          	add	a5,s6,a7
   1cd6e:	01c77733          	and	a4,a4,t3
   1cd72:	0117b8b3          	sltu	a7,a5,a7
   1cd76:	9a6e                	add	s4,s4,s11
   1cd78:	06c2                	slli	a3,a3,0x10
   1cd7a:	96ba                	add	a3,a3,a4
   1cd7c:	011a0d33          	add	s10,s4,a7
   1cd80:	5722                	lw	a4,40(sp)
   1cd82:	011d38b3          	sltu	a7,s10,a7
   1cd86:	01ba3a33          	sltu	s4,s4,s11
   1cd8a:	97c2                	add	a5,a5,a6
   1cd8c:	011a6a33          	or	s4,s4,a7
   1cd90:	58a2                	lw	a7,40(sp)
   1cd92:	0107b833          	sltu	a6,a5,a6
   1cd96:	00ed0b33          	add	s6,s10,a4
   1cd9a:	5732                	lw	a4,44(sp)
   1cd9c:	010b0cb3          	add	s9,s6,a6
   1cda0:	97aa                	add	a5,a5,a0
   1cda2:	011b3b33          	sltu	s6,s6,a7
   1cda6:	010cb833          	sltu	a6,s9,a6
   1cdaa:	00a7b533          	sltu	a0,a5,a0
   1cdae:	9766                	add	a4,a4,s9
   1cdb0:	010b6b33          	or	s6,s6,a6
   1cdb4:	5832                	lw	a6,44(sp)
   1cdb6:	00a70c33          	add	s8,a4,a0
   1cdba:	9bd6                	add	s7,s7,s5
   1cdbc:	97b6                	add	a5,a5,a3
   1cdbe:	00d7b6b3          	sltu	a3,a5,a3
   1cdc2:	017c0ab3          	add	s5,s8,s7
   1cdc6:	00da8e33          	add	t3,s5,a3
   1cdca:	01073733          	sltu	a4,a4,a6
   1cdce:	00ac3533          	sltu	a0,s8,a0
   1cdd2:	8f49                	or	a4,a4,a0
   1cdd4:	00de36b3          	sltu	a3,t3,a3
   1cdd8:	9a5a                	add	s4,s4,s6
   1cdda:	017abab3          	sltu	s5,s5,s7
   1cdde:	9a3a                	add	s4,s4,a4
   1cde0:	00daeab3          	or	s5,s5,a3
   1cde4:	02ce8833          	mul	a6,t4,a2
   1cde8:	015a06b3          	add	a3,s4,s5
   1cdec:	d6be                	sw	a5,108(sp)
   1cdee:	03d40a33          	mul	s4,s0,t4
   1cdf2:	01085513          	srli	a0,a6,0x10
   1cdf6:	02c38733          	mul	a4,t2,a2
   1cdfa:	9752                	add	a4,a4,s4
   1cdfc:	972a                	add	a4,a4,a0
   1cdfe:	028388b3          	mul	a7,t2,s0
   1ce02:	01477463          	bgeu	a4,s4,1ce0a <__multf3+0x660>
   1ce06:	6541                	lui	a0,0x10
   1ce08:	98aa                	add	a7,a7,a0
   1ce0a:	6a41                	lui	s4,0x10
   1ce0c:	01075513          	srli	a0,a4,0x10
   1ce10:	fffa0a93          	addi	s5,s4,-1 # ffff <register_fini-0x75>
   1ce14:	98aa                	add	a7,a7,a0
   1ce16:	01577533          	and	a0,a4,s5
   1ce1a:	01587833          	and	a6,a6,s5
   1ce1e:	0542                	slli	a0,a0,0x10
   1ce20:	02690ab3          	mul	s5,s2,t1
   1ce24:	9542                	add	a0,a0,a6
   1ce26:	02b30833          	mul	a6,t1,a1
   1ce2a:	02b285b3          	mul	a1,t0,a1
   1ce2e:	01085713          	srli	a4,a6,0x10
   1ce32:	95d6                	add	a1,a1,s5
   1ce34:	972e                	add	a4,a4,a1
   1ce36:	02590933          	mul	s2,s2,t0
   1ce3a:	01577363          	bgeu	a4,s5,1ce40 <__multf3+0x696>
   1ce3e:	9952                	add	s2,s2,s4
   1ce40:	6ac1                	lui	s5,0x10
   1ce42:	01075593          	srli	a1,a4,0x10
   1ce46:	fffa8a13          	addi	s4,s5,-1 # ffff <register_fini-0x75>
   1ce4a:	01487833          	and	a6,a6,s4
   1ce4e:	992e                	add	s2,s2,a1
   1ce50:	014775b3          	and	a1,a4,s4
   1ce54:	05c2                	slli	a1,a1,0x10
   1ce56:	03e98733          	mul	a4,s3,t5
   1ce5a:	95c2                	add	a1,a1,a6
   1ce5c:	03ef8f33          	mul	t5,t6,t5
   1ce60:	01075813          	srli	a6,a4,0x10
   1ce64:	03f48a33          	mul	s4,s1,t6
   1ce68:	033484b3          	mul	s1,s1,s3
   1ce6c:	94fa                	add	s1,s1,t5
   1ce6e:	94c2                	add	s1,s1,a6
   1ce70:	01e4f363          	bgeu	s1,t5,1ce76 <__multf3+0x6cc>
   1ce74:	9a56                	add	s4,s4,s5
   1ce76:	0104db13          	srli	s6,s1,0x10
   1ce7a:	9b52                	add	s6,s6,s4
   1ce7c:	6a41                	lui	s4,0x10
   1ce7e:	fffa0f13          	addi	t5,s4,-1 # ffff <register_fini-0x75>
   1ce82:	01e4f833          	and	a6,s1,t5
   1ce86:	01e77733          	and	a4,a4,t5
   1ce8a:	026404b3          	mul	s1,s0,t1
   1ce8e:	0842                	slli	a6,a6,0x10
   1ce90:	983a                	add	a6,a6,a4
   1ce92:	02660f33          	mul	t5,a2,t1
   1ce96:	02c28633          	mul	a2,t0,a2
   1ce9a:	010f5713          	srli	a4,t5,0x10
   1ce9e:	9626                	add	a2,a2,s1
   1cea0:	963a                	add	a2,a2,a4
   1cea2:	02540433          	mul	s0,s0,t0
   1cea6:	00967363          	bgeu	a2,s1,1ceac <__multf3+0x702>
   1ceaa:	9452                	add	s0,s0,s4
   1ceac:	6a41                	lui	s4,0x10
   1ceae:	01065713          	srli	a4,a2,0x10
   1ceb2:	fffa0493          	addi	s1,s4,-1 # ffff <register_fini-0x75>
   1ceb6:	943a                	add	s0,s0,a4
   1ceb8:	00967733          	and	a4,a2,s1
   1cebc:	009f7f33          	and	t5,t5,s1
   1cec0:	0742                	slli	a4,a4,0x10
   1cec2:	03f384b3          	mul	s1,t2,t6
   1cec6:	977a                	add	a4,a4,t5
   1cec8:	033383b3          	mul	t2,t2,s3
   1cecc:	03d98f33          	mul	t5,s3,t4
   1ced0:	03df8eb3          	mul	t4,t6,t4
   1ced4:	010f5613          	srli	a2,t5,0x10
   1ced8:	93f6                	add	t2,t2,t4
   1ceda:	961e                	add	a2,a2,t2
   1cedc:	01d67363          	bgeu	a2,t4,1cee2 <__multf3+0x738>
   1cee0:	94d2                	add	s1,s1,s4
   1cee2:	01065c13          	srli	s8,a2,0x10
   1cee6:	6cc1                	lui	s9,0x10
   1cee8:	9c26                	add	s8,s8,s1
   1ceea:	9e2a                	add	t3,t3,a0
   1ceec:	fffc8493          	addi	s1,s9,-1 # ffff <register_fini-0x75>
   1cef0:	00ae3533          	sltu	a0,t3,a0
   1cef4:	96c6                	add	a3,a3,a7
   1cef6:	8e65                	and	a2,a2,s1
   1cef8:	00a68d33          	add	s10,a3,a0
   1cefc:	009f7f33          	and	t5,t5,s1
   1cf00:	9e2e                	add	t3,t3,a1
   1cf02:	0642                	slli	a2,a2,0x10
   1cf04:	967a                	add	a2,a2,t5
   1cf06:	00be35b3          	sltu	a1,t3,a1
   1cf0a:	012d0f33          	add	t5,s10,s2
   1cf0e:	9e42                	add	t3,t3,a6
   1cf10:	00bf03b3          	add	t2,t5,a1
   1cf14:	01638eb3          	add	t4,t2,s6
   1cf18:	d8f2                	sw	t3,112(sp)
   1cf1a:	010e3e33          	sltu	t3,t3,a6
   1cf1e:	01ce8db3          	add	s11,t4,t3
   1cf22:	0116b6b3          	sltu	a3,a3,a7
   1cf26:	00ad3533          	sltu	a0,s10,a0
   1cf2a:	012f3933          	sltu	s2,t5,s2
   1cf2e:	00b3b5b3          	sltu	a1,t2,a1
   1cf32:	8d55                	or	a0,a0,a3
   1cf34:	00b965b3          	or	a1,s2,a1
   1cf38:	016ebeb3          	sltu	t4,t4,s6
   1cf3c:	01cdbe33          	sltu	t3,s11,t3
   1cf40:	952e                	add	a0,a0,a1
   1cf42:	01ceeeb3          	or	t4,t4,t3
   1cf46:	00ed8833          	add	a6,s11,a4
   1cf4a:	9576                	add	a0,a0,t4
   1cf4c:	00e83733          	sltu	a4,a6,a4
   1cf50:	9522                	add	a0,a0,s0
   1cf52:	00e506b3          	add	a3,a0,a4
   1cf56:	00853433          	sltu	s0,a0,s0
   1cf5a:	02698533          	mul	a0,s3,t1
   1cf5e:	9832                	add	a6,a6,a2
   1cf60:	00e6b733          	sltu	a4,a3,a4
   1cf64:	00c83633          	sltu	a2,a6,a2
   1cf68:	96e2                	add	a3,a3,s8
   1cf6a:	00c685b3          	add	a1,a3,a2
   1cf6e:	0186bc33          	sltu	s8,a3,s8
   1cf72:	00c5b633          	sltu	a2,a1,a2
   1cf76:	dac2                	sw	a6,116(sp)
   1cf78:	8f41                	or	a4,a4,s0
   1cf7a:	026f8333          	mul	t1,t6,t1
   1cf7e:	01055693          	srli	a3,a0,0x10
   1cf82:	00cc6633          	or	a2,s8,a2
   1cf86:	033289b3          	mul	s3,t0,s3
   1cf8a:	999a                	add	s3,s3,t1
   1cf8c:	03f28fb3          	mul	t6,t0,t6
   1cf90:	013682b3          	add	t0,a3,s3
   1cf94:	0062f363          	bgeu	t0,t1,1cf9a <__multf3+0x7f0>
   1cf98:	9fe6                	add	t6,t6,s9
   1cf9a:	0092f6b3          	and	a3,t0,s1
   1cf9e:	06c2                	slli	a3,a3,0x10
   1cfa0:	8ce9                	and	s1,s1,a0
   1cfa2:	0102d293          	srli	t0,t0,0x10
   1cfa6:	94b6                	add	s1,s1,a3
   1cfa8:	92ba                	add	t0,t0,a4
   1cfaa:	46d2                	lw	a3,20(sp)
   1cfac:	5712                	lw	a4,36(sp)
   1cfae:	95a6                	add	a1,a1,s1
   1cfb0:	0095b4b3          	sltu	s1,a1,s1
   1cfb4:	00d769b3          	or	s3,a4,a3
   1cfb8:	4762                	lw	a4,24(sp)
   1cfba:	92b2                	add	t0,t0,a2
   1cfbc:	92a6                	add	t0,t0,s1
   1cfbe:	013769b3          	or	s3,a4,s3
   1cfc2:	9f96                	add	t6,t6,t0
   1cfc4:	07b6                	slli	a5,a5,0xd
   1cfc6:	dcae                	sw	a1,120(sp)
   1cfc8:	defe                	sw	t6,124(sp)
   1cfca:	0137e7b3          	or	a5,a5,s3
   1cfce:	1098                	addi	a4,sp,96
   1cfd0:	188c                	addi	a1,sp,112
   1cfd2:	4754                	lw	a3,12(a4)
   1cfd4:	4b10                	lw	a2,16(a4)
   1cfd6:	82cd                	srli	a3,a3,0x13
   1cfd8:	0636                	slli	a2,a2,0xd
   1cfda:	8ed1                	or	a3,a3,a2
   1cfdc:	c314                	sw	a3,0(a4)
   1cfde:	0711                	addi	a4,a4,4
   1cfe0:	fee599e3          	bne	a1,a4,1cfd2 <__multf3+0x828>
   1cfe4:	56a6                	lw	a3,104(sp)
   1cfe6:	5706                	lw	a4,96(sp)
   1cfe8:	00f037b3          	snez	a5,a5
   1cfec:	ccb6                	sw	a3,88(sp)
   1cfee:	5696                	lw	a3,100(sp)
   1cff0:	8fd9                	or	a5,a5,a4
   1cff2:	5736                	lw	a4,108(sp)
   1cff4:	cab6                	sw	a3,84(sp)
   1cff6:	001006b7          	lui	a3,0x100
   1cffa:	ceba                	sw	a4,92(sp)
   1cffc:	c8be                	sw	a5,80(sp)
   1cffe:	8f75                	and	a4,a4,a3
   1d000:	12070c63          	beqz	a4,1d138 <__multf3+0x98e>
   1d004:	07fe                	slli	a5,a5,0x1f
   1d006:	0898                	addi	a4,sp,80
   1d008:	08ec                	addi	a1,sp,92
   1d00a:	4314                	lw	a3,0(a4)
   1d00c:	4350                	lw	a2,4(a4)
   1d00e:	8285                	srli	a3,a3,0x1
   1d010:	067e                	slli	a2,a2,0x1f
   1d012:	8ed1                	or	a3,a3,a2
   1d014:	c314                	sw	a3,0(a4)
   1d016:	0711                	addi	a4,a4,4
   1d018:	fee599e3          	bne	a1,a4,1d00a <__multf3+0x860>
   1d01c:	4776                	lw	a4,92(sp)
   1d01e:	00f037b3          	snez	a5,a5
   1d022:	8305                	srli	a4,a4,0x1
   1d024:	ceba                	sw	a4,92(sp)
   1d026:	4746                	lw	a4,80(sp)
   1d028:	8fd9                	or	a5,a5,a4
   1d02a:	c8be                	sw	a5,80(sp)
   1d02c:	4772                	lw	a4,28(sp)
   1d02e:	6791                	lui	a5,0x4
   1d030:	17fd                	addi	a5,a5,-1
   1d032:	97ba                	add	a5,a5,a4
   1d034:	10f05c63          	blez	a5,1d14c <__multf3+0x9a2>
   1d038:	4746                	lw	a4,80(sp)
   1d03a:	00777693          	andi	a3,a4,7
   1d03e:	ca85                	beqz	a3,1d06e <__multf3+0x8c4>
   1d040:	00f77693          	andi	a3,a4,15
   1d044:	4611                	li	a2,4
   1d046:	02c68463          	beq	a3,a2,1d06e <__multf3+0x8c4>
   1d04a:	46d6                	lw	a3,84(sp)
   1d04c:	0711                	addi	a4,a4,4
   1d04e:	4666                	lw	a2,88(sp)
   1d050:	c8ba                	sw	a4,80(sp)
   1d052:	00473713          	sltiu	a4,a4,4
   1d056:	96ba                	add	a3,a3,a4
   1d058:	45f6                	lw	a1,92(sp)
   1d05a:	00e6b733          	sltu	a4,a3,a4
   1d05e:	cab6                	sw	a3,84(sp)
   1d060:	00c706b3          	add	a3,a4,a2
   1d064:	ccb6                	sw	a3,88(sp)
   1d066:	00e6b6b3          	sltu	a3,a3,a4
   1d06a:	96ae                	add	a3,a3,a1
   1d06c:	ceb6                	sw	a3,92(sp)
   1d06e:	4776                	lw	a4,92(sp)
   1d070:	001006b7          	lui	a3,0x100
   1d074:	8ef9                	and	a3,a3,a4
   1d076:	ca89                	beqz	a3,1d088 <__multf3+0x8de>
   1d078:	fff007b7          	lui	a5,0xfff00
   1d07c:	17fd                	addi	a5,a5,-1
   1d07e:	8f7d                	and	a4,a4,a5
   1d080:	ceba                	sw	a4,92(sp)
   1d082:	4772                	lw	a4,28(sp)
   1d084:	6791                	lui	a5,0x4
   1d086:	97ba                	add	a5,a5,a4
   1d088:	0898                	addi	a4,sp,80
   1d08a:	08ec                	addi	a1,sp,92
   1d08c:	4314                	lw	a3,0(a4)
   1d08e:	4350                	lw	a2,4(a4)
   1d090:	828d                	srli	a3,a3,0x3
   1d092:	0676                	slli	a2,a2,0x1d
   1d094:	8ed1                	or	a3,a3,a2
   1d096:	c314                	sw	a3,0(a4)
   1d098:	0711                	addi	a4,a4,4
   1d09a:	feb719e3          	bne	a4,a1,1d08c <__multf3+0x8e2>
   1d09e:	6721                	lui	a4,0x8
   1d0a0:	ffe70693          	addi	a3,a4,-2 # 7ffe <register_fini-0x8076>
   1d0a4:	08f6cd63          	blt	a3,a5,1d13e <__multf3+0x994>
   1d0a8:	4776                	lw	a4,92(sp)
   1d0aa:	830d                	srli	a4,a4,0x3
   1d0ac:	ceba                	sw	a4,92(sp)
   1d0ae:	4776                	lw	a4,92(sp)
   1d0b0:	07c6                	slli	a5,a5,0x11
   1d0b2:	83c5                	srli	a5,a5,0x11
   1d0b4:	06e11623          	sh	a4,108(sp)
   1d0b8:	4742                	lw	a4,16(sp)
   1d0ba:	45c6                	lw	a1,80(sp)
   1d0bc:	4656                	lw	a2,84(sp)
   1d0be:	073e                	slli	a4,a4,0xf
   1d0c0:	8fd9                	or	a5,a5,a4
   1d0c2:	06f11723          	sh	a5,110(sp)
   1d0c6:	4732                	lw	a4,12(sp)
   1d0c8:	46e6                	lw	a3,88(sp)
   1d0ca:	57b6                	lw	a5,108(sp)
   1d0cc:	50fa                	lw	ra,188(sp)
   1d0ce:	546a                	lw	s0,184(sp)
   1d0d0:	c30c                	sw	a1,0(a4)
   1d0d2:	c350                	sw	a2,4(a4)
   1d0d4:	c714                	sw	a3,8(a4)
   1d0d6:	c75c                	sw	a5,12(a4)
   1d0d8:	54da                	lw	s1,180(sp)
   1d0da:	594a                	lw	s2,176(sp)
   1d0dc:	59ba                	lw	s3,172(sp)
   1d0de:	5a2a                	lw	s4,168(sp)
   1d0e0:	5a9a                	lw	s5,164(sp)
   1d0e2:	5b0a                	lw	s6,160(sp)
   1d0e4:	4bfa                	lw	s7,156(sp)
   1d0e6:	4c6a                	lw	s8,152(sp)
   1d0e8:	4cda                	lw	s9,148(sp)
   1d0ea:	4d4a                	lw	s10,144(sp)
   1d0ec:	4dba                	lw	s11,140(sp)
   1d0ee:	853a                	mv	a0,a4
   1d0f0:	6129                	addi	sp,sp,192
   1d0f2:	8082                	ret
   1d0f4:	c84a                	sw	s2,16(sp)
   1d0f6:	57c2                	lw	a5,48(sp)
   1d0f8:	c8be                	sw	a5,80(sp)
   1d0fa:	57d2                	lw	a5,52(sp)
   1d0fc:	cabe                	sw	a5,84(sp)
   1d0fe:	57e2                	lw	a5,56(sp)
   1d100:	ccbe                	sw	a5,88(sp)
   1d102:	57f2                	lw	a5,60(sp)
   1d104:	cebe                	sw	a5,92(sp)
   1d106:	4789                	li	a5,2
   1d108:	18fb8963          	beq	s7,a5,1d29a <__multf3+0xaf0>
   1d10c:	478d                	li	a5,3
   1d10e:	18fb8d63          	beq	s7,a5,1d2a8 <__multf3+0xafe>
   1d112:	4785                	li	a5,1
   1d114:	f0fb9ce3          	bne	s7,a5,1d02c <__multf3+0x882>
   1d118:	ce82                	sw	zero,92(sp)
   1d11a:	cc82                	sw	zero,88(sp)
   1d11c:	ca82                	sw	zero,84(sp)
   1d11e:	c882                	sw	zero,80(sp)
   1d120:	aaa1                	j	1d278 <__multf3+0xace>
   1d122:	c84e                	sw	s3,16(sp)
   1d124:	4786                	lw	a5,64(sp)
   1d126:	8bba                	mv	s7,a4
   1d128:	c8be                	sw	a5,80(sp)
   1d12a:	4796                	lw	a5,68(sp)
   1d12c:	cabe                	sw	a5,84(sp)
   1d12e:	47a6                	lw	a5,72(sp)
   1d130:	ccbe                	sw	a5,88(sp)
   1d132:	47b6                	lw	a5,76(sp)
   1d134:	cebe                	sw	a5,92(sp)
   1d136:	bfc1                	j	1d106 <__multf3+0x95c>
   1d138:	5782                	lw	a5,32(sp)
   1d13a:	ce3e                	sw	a5,28(sp)
   1d13c:	bdc5                	j	1d02c <__multf3+0x882>
   1d13e:	ce82                	sw	zero,92(sp)
   1d140:	cc82                	sw	zero,88(sp)
   1d142:	ca82                	sw	zero,84(sp)
   1d144:	c882                	sw	zero,80(sp)
   1d146:	fff70793          	addi	a5,a4,-1
   1d14a:	b795                	j	1d0ae <__multf3+0x904>
   1d14c:	4705                	li	a4,1
   1d14e:	40f707b3          	sub	a5,a4,a5
   1d152:	07400713          	li	a4,116
   1d156:	12f74363          	blt	a4,a5,1d27c <__multf3+0xad2>
   1d15a:	0884                	addi	s1,sp,80
   1d15c:	4057d513          	srai	a0,a5,0x5
   1d160:	86a6                	mv	a3,s1
   1d162:	4401                	li	s0,0
   1d164:	4701                	li	a4,0
   1d166:	02a71663          	bne	a4,a0,1d192 <__multf3+0x9e8>
   1d16a:	8bfd                	andi	a5,a5,31
   1d16c:	00251713          	slli	a4,a0,0x2
   1d170:	e795                	bnez	a5,1d19c <__multf3+0x9f2>
   1d172:	460d                	li	a2,3
   1d174:	87a6                	mv	a5,s1
   1d176:	4681                	li	a3,0
   1d178:	8e09                	sub	a2,a2,a0
   1d17a:	00e785b3          	add	a1,a5,a4
   1d17e:	418c                	lw	a1,0(a1)
   1d180:	0685                	addi	a3,a3,1
   1d182:	c38c                	sw	a1,0(a5)
   1d184:	0791                	addi	a5,a5,4
   1d186:	fed65ae3          	bge	a2,a3,1d17a <__multf3+0x9d0>
   1d18a:	4791                	li	a5,4
   1d18c:	40a78533          	sub	a0,a5,a0
   1d190:	a0a1                	j	1d1d8 <__multf3+0xa2e>
   1d192:	4290                	lw	a2,0(a3)
   1d194:	0705                	addi	a4,a4,1
   1d196:	0691                	addi	a3,a3,4
   1d198:	8c51                	or	s0,s0,a2
   1d19a:	b7f1                	j	1d166 <__multf3+0x9bc>
   1d19c:	58f1                	li	a7,-4
   1d19e:	031508b3          	mul	a7,a0,a7
   1d1a2:	0114                	addi	a3,sp,128
   1d1a4:	96ba                	add	a3,a3,a4
   1d1a6:	fd06a683          	lw	a3,-48(a3) # fffd0 <__BSS_END__+0xdf0a8>
   1d1aa:	02000593          	li	a1,32
   1d1ae:	8d9d                	sub	a1,a1,a5
   1d1b0:	00b696b3          	sll	a3,a3,a1
   1d1b4:	8c55                	or	s0,s0,a3
   1d1b6:	468d                	li	a3,3
   1d1b8:	9726                	add	a4,a4,s1
   1d1ba:	4801                	li	a6,0
   1d1bc:	8e89                	sub	a3,a3,a0
   1d1be:	06d84f63          	blt	a6,a3,1d23c <__multf3+0xa92>
   1d1c2:	4711                	li	a4,4
   1d1c4:	40a70533          	sub	a0,a4,a0
   1d1c8:	068a                	slli	a3,a3,0x2
   1d1ca:	0118                	addi	a4,sp,128
   1d1cc:	96ba                	add	a3,a3,a4
   1d1ce:	4776                	lw	a4,92(sp)
   1d1d0:	00f757b3          	srl	a5,a4,a5
   1d1d4:	fcf6a823          	sw	a5,-48(a3)
   1d1d8:	4911                	li	s2,4
   1d1da:	40a90633          	sub	a2,s2,a0
   1d1de:	050a                	slli	a0,a0,0x2
   1d1e0:	060a                	slli	a2,a2,0x2
   1d1e2:	4581                	li	a1,0
   1d1e4:	9526                	add	a0,a0,s1
   1d1e6:	904f30ef          	jal	ra,102ea <memset>
   1d1ea:	4746                	lw	a4,80(sp)
   1d1ec:	008037b3          	snez	a5,s0
   1d1f0:	8fd9                	or	a5,a5,a4
   1d1f2:	c8be                	sw	a5,80(sp)
   1d1f4:	0077f713          	andi	a4,a5,7
   1d1f8:	c71d                	beqz	a4,1d226 <__multf3+0xa7c>
   1d1fa:	00f7f713          	andi	a4,a5,15
   1d1fe:	03270463          	beq	a4,s2,1d226 <__multf3+0xa7c>
   1d202:	4756                	lw	a4,84(sp)
   1d204:	0791                	addi	a5,a5,4
   1d206:	46e6                	lw	a3,88(sp)
   1d208:	c8be                	sw	a5,80(sp)
   1d20a:	0047b793          	sltiu	a5,a5,4
   1d20e:	973e                	add	a4,a4,a5
   1d210:	4676                	lw	a2,92(sp)
   1d212:	00f737b3          	sltu	a5,a4,a5
   1d216:	caba                	sw	a4,84(sp)
   1d218:	00d78733          	add	a4,a5,a3
   1d21c:	ccba                	sw	a4,88(sp)
   1d21e:	00f73733          	sltu	a4,a4,a5
   1d222:	9732                	add	a4,a4,a2
   1d224:	ceba                	sw	a4,92(sp)
   1d226:	4776                	lw	a4,92(sp)
   1d228:	000807b7          	lui	a5,0x80
   1d22c:	8ff9                	and	a5,a5,a4
   1d22e:	c79d                	beqz	a5,1d25c <__multf3+0xab2>
   1d230:	ce82                	sw	zero,92(sp)
   1d232:	cc82                	sw	zero,88(sp)
   1d234:	ca82                	sw	zero,84(sp)
   1d236:	c882                	sw	zero,80(sp)
   1d238:	4785                	li	a5,1
   1d23a:	bd95                	j	1d0ae <__multf3+0x904>
   1d23c:	4310                	lw	a2,0(a4)
   1d23e:	00472303          	lw	t1,4(a4)
   1d242:	01170e33          	add	t3,a4,a7
   1d246:	00f65633          	srl	a2,a2,a5
   1d24a:	00b31333          	sll	t1,t1,a1
   1d24e:	00666633          	or	a2,a2,t1
   1d252:	00ce2023          	sw	a2,0(t3)
   1d256:	0805                	addi	a6,a6,1
   1d258:	0711                	addi	a4,a4,4
   1d25a:	b795                	j	1d1be <__multf3+0xa14>
   1d25c:	00c48693          	addi	a3,s1,12
   1d260:	409c                	lw	a5,0(s1)
   1d262:	40d8                	lw	a4,4(s1)
   1d264:	838d                	srli	a5,a5,0x3
   1d266:	0776                	slli	a4,a4,0x1d
   1d268:	8fd9                	or	a5,a5,a4
   1d26a:	c09c                	sw	a5,0(s1)
   1d26c:	0491                	addi	s1,s1,4
   1d26e:	fed499e3          	bne	s1,a3,1d260 <__multf3+0xab6>
   1d272:	47f6                	lw	a5,92(sp)
   1d274:	838d                	srli	a5,a5,0x3
   1d276:	cebe                	sw	a5,92(sp)
   1d278:	4781                	li	a5,0
   1d27a:	bd15                	j	1d0ae <__multf3+0x904>
   1d27c:	47d6                	lw	a5,84(sp)
   1d27e:	4746                	lw	a4,80(sp)
   1d280:	8f5d                	or	a4,a4,a5
   1d282:	47e6                	lw	a5,88(sp)
   1d284:	8f5d                	or	a4,a4,a5
   1d286:	47f6                	lw	a5,92(sp)
   1d288:	8f5d                	or	a4,a4,a5
   1d28a:	4781                	li	a5,0
   1d28c:	e20701e3          	beqz	a4,1d0ae <__multf3+0x904>
   1d290:	ce82                	sw	zero,92(sp)
   1d292:	cc82                	sw	zero,88(sp)
   1d294:	ca82                	sw	zero,84(sp)
   1d296:	c882                	sw	zero,80(sp)
   1d298:	bd19                	j	1d0ae <__multf3+0x904>
   1d29a:	67a1                	lui	a5,0x8
   1d29c:	ce82                	sw	zero,92(sp)
   1d29e:	cc82                	sw	zero,88(sp)
   1d2a0:	ca82                	sw	zero,84(sp)
   1d2a2:	c882                	sw	zero,80(sp)
   1d2a4:	17fd                	addi	a5,a5,-1
   1d2a6:	b521                	j	1d0ae <__multf3+0x904>
   1d2a8:	67a1                	lui	a5,0x8
   1d2aa:	cebe                	sw	a5,92(sp)
   1d2ac:	cc82                	sw	zero,88(sp)
   1d2ae:	ca82                	sw	zero,84(sp)
   1d2b0:	c882                	sw	zero,80(sp)
   1d2b2:	17fd                	addi	a5,a5,-1
   1d2b4:	c802                	sw	zero,16(sp)
   1d2b6:	bbe5                	j	1d0ae <__multf3+0x904>

0001d2b8 <__subtf3>:
   1d2b8:	7159                	addi	sp,sp,-112
   1d2ba:	459c                	lw	a5,8(a1)
   1d2bc:	cad6                	sw	s5,84(sp)
   1d2be:	00c5aa83          	lw	s5,12(a1)
   1d2c2:	4194                	lw	a3,0(a1)
   1d2c4:	41d8                	lw	a4,4(a1)
   1d2c6:	c8da                	sw	s6,80(sp)
   1d2c8:	c6de                	sw	s7,76(sp)
   1d2ca:	8b2a                	mv	s6,a0
   1d2cc:	dc3e                	sw	a5,56(sp)
   1d2ce:	cc3e                	sw	a5,24(sp)
   1d2d0:	00062803          	lw	a6,0(a2)
   1d2d4:	010a9793          	slli	a5,s5,0x10
   1d2d8:	4248                	lw	a0,4(a2)
   1d2da:	460c                	lw	a1,8(a2)
   1d2dc:	00c62b83          	lw	s7,12(a2)
   1d2e0:	d2a6                	sw	s1,100(sp)
   1d2e2:	83c1                	srli	a5,a5,0x10
   1d2e4:	001a9493          	slli	s1,s5,0x1
   1d2e8:	d836                	sw	a3,48(sp)
   1d2ea:	de56                	sw	s5,60(sp)
   1d2ec:	c836                	sw	a3,16(sp)
   1d2ee:	d686                	sw	ra,108(sp)
   1d2f0:	d4a2                	sw	s0,104(sp)
   1d2f2:	d0ca                	sw	s2,96(sp)
   1d2f4:	cece                	sw	s3,92(sp)
   1d2f6:	ccd2                	sw	s4,88(sp)
   1d2f8:	c4e2                	sw	s8,72(sp)
   1d2fa:	c2e6                	sw	s9,68(sp)
   1d2fc:	da3a                	sw	a4,52(sp)
   1d2fe:	ca3a                	sw	a4,20(sp)
   1d300:	ce3e                	sw	a5,28(sp)
   1d302:	80c5                	srli	s1,s1,0x11
   1d304:	01fada93          	srli	s5,s5,0x1f
   1d308:	01010893          	addi	a7,sp,16
   1d30c:	0874                	addi	a3,sp,28
   1d30e:	429c                	lw	a5,0(a3)
   1d310:	ffc6a703          	lw	a4,-4(a3)
   1d314:	16f1                	addi	a3,a3,-4
   1d316:	078e                	slli	a5,a5,0x3
   1d318:	8375                	srli	a4,a4,0x1d
   1d31a:	8fd9                	or	a5,a5,a4
   1d31c:	c2dc                	sw	a5,4(a3)
   1d31e:	fed898e3          	bne	a7,a3,1d30e <__subtf3+0x56>
   1d322:	4942                	lw	s2,16(sp)
   1d324:	010b9793          	slli	a5,s7,0x10
   1d328:	001b9c13          	slli	s8,s7,0x1
   1d32c:	090e                	slli	s2,s2,0x3
   1d32e:	83c1                	srli	a5,a5,0x10
   1d330:	da2a                	sw	a0,52(sp)
   1d332:	dc2e                	sw	a1,56(sp)
   1d334:	de5e                	sw	s7,60(sp)
   1d336:	d22a                	sw	a0,36(sp)
   1d338:	d42e                	sw	a1,40(sp)
   1d33a:	c84a                	sw	s2,16(sp)
   1d33c:	d842                	sw	a6,48(sp)
   1d33e:	d042                	sw	a6,32(sp)
   1d340:	d63e                	sw	a5,44(sp)
   1d342:	011c5c13          	srli	s8,s8,0x11
   1d346:	01fbdb93          	srli	s7,s7,0x1f
   1d34a:	1008                	addi	a0,sp,32
   1d34c:	106c                	addi	a1,sp,44
   1d34e:	419c                	lw	a5,0(a1)
   1d350:	ffc5a703          	lw	a4,-4(a1)
   1d354:	15f1                	addi	a1,a1,-4
   1d356:	078e                	slli	a5,a5,0x3
   1d358:	8375                	srli	a4,a4,0x1d
   1d35a:	8fd9                	or	a5,a5,a4
   1d35c:	c1dc                	sw	a5,4(a1)
   1d35e:	feb518e3          	bne	a0,a1,1d34e <__subtf3+0x96>
   1d362:	5402                	lw	s0,32(sp)
   1d364:	67a1                	lui	a5,0x8
   1d366:	17fd                	addi	a5,a5,-1
   1d368:	040e                	slli	s0,s0,0x3
   1d36a:	d022                	sw	s0,32(sp)
   1d36c:	00fc1963          	bne	s8,a5,1d37e <__subtf3+0xc6>
   1d370:	5722                	lw	a4,40(sp)
   1d372:	5792                	lw	a5,36(sp)
   1d374:	8fd9                	or	a5,a5,a4
   1d376:	5732                	lw	a4,44(sp)
   1d378:	8fd9                	or	a5,a5,a4
   1d37a:	8fc1                	or	a5,a5,s0
   1d37c:	e399                	bnez	a5,1d382 <__subtf3+0xca>
   1d37e:	001bcb93          	xori	s7,s7,1
   1d382:	41848833          	sub	a6,s1,s8
   1d386:	5f5b9963          	bne	s7,s5,1d978 <__subtf3+0x6c0>
   1d38a:	2d005a63          	blez	a6,1d65e <__subtf3+0x3a6>
   1d38e:	4bd2                	lw	s7,20(sp)
   1d390:	4a62                	lw	s4,24(sp)
   1d392:	49f2                	lw	s3,28(sp)
   1d394:	060c1c63          	bnez	s8,1d40c <__subtf3+0x154>
   1d398:	5612                	lw	a2,36(sp)
   1d39a:	5722                	lw	a4,40(sp)
   1d39c:	57b2                	lw	a5,44(sp)
   1d39e:	00e666b3          	or	a3,a2,a4
   1d3a2:	8edd                	or	a3,a3,a5
   1d3a4:	8ec1                	or	a3,a3,s0
   1d3a6:	e699                	bnez	a3,1d3b4 <__subtf3+0xfc>
   1d3a8:	d84a                	sw	s2,48(sp)
   1d3aa:	da5e                	sw	s7,52(sp)
   1d3ac:	dc52                	sw	s4,56(sp)
   1d3ae:	de4e                	sw	s3,60(sp)
   1d3b0:	84c2                	mv	s1,a6
   1d3b2:	a0ad                	j	1d41c <__subtf3+0x164>
   1d3b4:	fff80693          	addi	a3,a6,-1 # ffff <register_fini-0x75>
   1d3b8:	ee8d                	bnez	a3,1d3f2 <__subtf3+0x13a>
   1d3ba:	944a                	add	s0,s0,s2
   1d3bc:	01243933          	sltu	s2,s0,s2
   1d3c0:	965e                	add	a2,a2,s7
   1d3c2:	d822                	sw	s0,48(sp)
   1d3c4:	01260433          	add	s0,a2,s2
   1d3c8:	01243933          	sltu	s2,s0,s2
   1d3cc:	01763633          	sltu	a2,a2,s7
   1d3d0:	01266633          	or	a2,a2,s2
   1d3d4:	9752                	add	a4,a4,s4
   1d3d6:	00c706b3          	add	a3,a4,a2
   1d3da:	00c6b633          	sltu	a2,a3,a2
   1d3de:	01473733          	sltu	a4,a4,s4
   1d3e2:	8f51                	or	a4,a4,a2
   1d3e4:	97ce                	add	a5,a5,s3
   1d3e6:	973e                	add	a4,a4,a5
   1d3e8:	da22                	sw	s0,52(sp)
   1d3ea:	dc36                	sw	a3,56(sp)
   1d3ec:	de3a                	sw	a4,60(sp)
   1d3ee:	4485                	li	s1,1
   1d3f0:	aae5                	j	1d5e8 <__subtf3+0x330>
   1d3f2:	67a1                	lui	a5,0x8
   1d3f4:	17fd                	addi	a5,a5,-1
   1d3f6:	faf809e3          	beq	a6,a5,1d3a8 <__subtf3+0xf0>
   1d3fa:	07400793          	li	a5,116
   1d3fe:	10d7d763          	bge	a5,a3,1d50c <__subtf3+0x254>
   1d402:	d602                	sw	zero,44(sp)
   1d404:	d402                	sw	zero,40(sp)
   1d406:	d202                	sw	zero,36(sp)
   1d408:	4785                	li	a5,1
   1d40a:	aa79                	j	1d5a8 <__subtf3+0x2f0>
   1d40c:	67a1                	lui	a5,0x8
   1d40e:	17fd                	addi	a5,a5,-1
   1d410:	0ef49463          	bne	s1,a5,1d4f8 <__subtf3+0x240>
   1d414:	d84a                	sw	s2,48(sp)
   1d416:	da5e                	sw	s7,52(sp)
   1d418:	dc52                	sw	s4,56(sp)
   1d41a:	de4e                	sw	s3,60(sp)
   1d41c:	57c2                	lw	a5,48(sp)
   1d41e:	0077f713          	andi	a4,a5,7
   1d422:	cb05                	beqz	a4,1d452 <__subtf3+0x19a>
   1d424:	00f7f713          	andi	a4,a5,15
   1d428:	4691                	li	a3,4
   1d42a:	02d70463          	beq	a4,a3,1d452 <__subtf3+0x19a>
   1d42e:	5752                	lw	a4,52(sp)
   1d430:	0791                	addi	a5,a5,4
   1d432:	56e2                	lw	a3,56(sp)
   1d434:	d83e                	sw	a5,48(sp)
   1d436:	0047b793          	sltiu	a5,a5,4
   1d43a:	973e                	add	a4,a4,a5
   1d43c:	5672                	lw	a2,60(sp)
   1d43e:	00f737b3          	sltu	a5,a4,a5
   1d442:	da3a                	sw	a4,52(sp)
   1d444:	00d78733          	add	a4,a5,a3
   1d448:	dc3a                	sw	a4,56(sp)
   1d44a:	00f73733          	sltu	a4,a4,a5
   1d44e:	9732                	add	a4,a4,a2
   1d450:	de3a                	sw	a4,60(sp)
   1d452:	57f2                	lw	a5,60(sp)
   1d454:	00080737          	lui	a4,0x80
   1d458:	8f7d                	and	a4,a4,a5
   1d45a:	cb19                	beqz	a4,1d470 <__subtf3+0x1b8>
   1d45c:	6721                	lui	a4,0x8
   1d45e:	0485                	addi	s1,s1,1
   1d460:	177d                	addi	a4,a4,-1
   1d462:	4ae484e3          	beq	s1,a4,1e10a <__subtf3+0xe52>
   1d466:	fff80737          	lui	a4,0xfff80
   1d46a:	177d                	addi	a4,a4,-1
   1d46c:	8ff9                	and	a5,a5,a4
   1d46e:	de3e                	sw	a5,60(sp)
   1d470:	181c                	addi	a5,sp,48
   1d472:	1870                	addi	a2,sp,60
   1d474:	4398                	lw	a4,0(a5)
   1d476:	43d4                	lw	a3,4(a5)
   1d478:	830d                	srli	a4,a4,0x3
   1d47a:	06f6                	slli	a3,a3,0x1d
   1d47c:	8f55                	or	a4,a4,a3
   1d47e:	c398                	sw	a4,0(a5)
   1d480:	0791                	addi	a5,a5,4
   1d482:	fef619e3          	bne	a2,a5,1d474 <__subtf3+0x1bc>
   1d486:	57f2                	lw	a5,60(sp)
   1d488:	66a1                	lui	a3,0x8
   1d48a:	0037d713          	srli	a4,a5,0x3
   1d48e:	de3a                	sw	a4,60(sp)
   1d490:	fff68793          	addi	a5,a3,-1 # 7fff <register_fini-0x8075>
   1d494:	00f49e63          	bne	s1,a5,1d4b0 <__subtf3+0x1f8>
   1d498:	5652                	lw	a2,52(sp)
   1d49a:	57c2                	lw	a5,48(sp)
   1d49c:	8fd1                	or	a5,a5,a2
   1d49e:	5662                	lw	a2,56(sp)
   1d4a0:	8fd1                	or	a5,a5,a2
   1d4a2:	8fd9                	or	a5,a5,a4
   1d4a4:	c791                	beqz	a5,1d4b0 <__subtf3+0x1f8>
   1d4a6:	de36                	sw	a3,60(sp)
   1d4a8:	dc02                	sw	zero,56(sp)
   1d4aa:	da02                	sw	zero,52(sp)
   1d4ac:	d802                	sw	zero,48(sp)
   1d4ae:	4a81                	li	s5,0
   1d4b0:	57f2                	lw	a5,60(sp)
   1d4b2:	04c6                	slli	s1,s1,0x11
   1d4b4:	80c5                	srli	s1,s1,0x11
   1d4b6:	0abe                	slli	s5,s5,0xf
   1d4b8:	009aeab3          	or	s5,s5,s1
   1d4bc:	01511723          	sh	s5,14(sp)
   1d4c0:	00f11623          	sh	a5,12(sp)
   1d4c4:	5642                	lw	a2,48(sp)
   1d4c6:	56d2                	lw	a3,52(sp)
   1d4c8:	5762                	lw	a4,56(sp)
   1d4ca:	47b2                	lw	a5,12(sp)
   1d4cc:	50b6                	lw	ra,108(sp)
   1d4ce:	5426                	lw	s0,104(sp)
   1d4d0:	00cb2023          	sw	a2,0(s6)
   1d4d4:	00db2223          	sw	a3,4(s6)
   1d4d8:	00eb2423          	sw	a4,8(s6)
   1d4dc:	00fb2623          	sw	a5,12(s6)
   1d4e0:	5496                	lw	s1,100(sp)
   1d4e2:	5906                	lw	s2,96(sp)
   1d4e4:	49f6                	lw	s3,92(sp)
   1d4e6:	4a66                	lw	s4,88(sp)
   1d4e8:	4ad6                	lw	s5,84(sp)
   1d4ea:	4bb6                	lw	s7,76(sp)
   1d4ec:	4c26                	lw	s8,72(sp)
   1d4ee:	4c96                	lw	s9,68(sp)
   1d4f0:	855a                	mv	a0,s6
   1d4f2:	4b46                	lw	s6,80(sp)
   1d4f4:	6165                	addi	sp,sp,112
   1d4f6:	8082                	ret
   1d4f8:	57b2                	lw	a5,44(sp)
   1d4fa:	00080737          	lui	a4,0x80
   1d4fe:	8fd9                	or	a5,a5,a4
   1d500:	d63e                	sw	a5,44(sp)
   1d502:	07400793          	li	a5,116
   1d506:	ef07cee3          	blt	a5,a6,1d402 <__subtf3+0x14a>
   1d50a:	86c2                	mv	a3,a6
   1d50c:	4056d793          	srai	a5,a3,0x5
   1d510:	862e                	mv	a2,a1
   1d512:	4401                	li	s0,0
   1d514:	4701                	li	a4,0
   1d516:	02f71763          	bne	a4,a5,1d544 <__subtf3+0x28c>
   1d51a:	8afd                	andi	a3,a3,31
   1d51c:	00279613          	slli	a2,a5,0x2
   1d520:	ea8d                	bnez	a3,1d552 <__subtf3+0x29a>
   1d522:	468d                	li	a3,3
   1d524:	4701                	li	a4,0
   1d526:	8e9d                	sub	a3,a3,a5
   1d528:	00c58833          	add	a6,a1,a2
   1d52c:	00082803          	lw	a6,0(a6)
   1d530:	0705                	addi	a4,a4,1
   1d532:	0105a023          	sw	a6,0(a1)
   1d536:	0591                	addi	a1,a1,4
   1d538:	fee6d8e3          	bge	a3,a4,1d528 <__subtf3+0x270>
   1d53c:	4711                	li	a4,4
   1d53e:	40f707b3          	sub	a5,a4,a5
   1d542:	a0b9                	j	1d590 <__subtf3+0x2d8>
   1d544:	00062803          	lw	a6,0(a2)
   1d548:	0705                	addi	a4,a4,1
   1d54a:	0611                	addi	a2,a2,4
   1d54c:	01046433          	or	s0,s0,a6
   1d550:	b7d9                	j	1d516 <__subtf3+0x25e>
   1d552:	5371                	li	t1,-4
   1d554:	02678333          	mul	t1,a5,t1
   1d558:	0098                	addi	a4,sp,64
   1d55a:	9732                	add	a4,a4,a2
   1d55c:	fe072703          	lw	a4,-32(a4) # 7ffe0 <__BSS_END__+0x5f0b8>
   1d560:	02000813          	li	a6,32
   1d564:	40d80833          	sub	a6,a6,a3
   1d568:	01071733          	sll	a4,a4,a6
   1d56c:	8c59                	or	s0,s0,a4
   1d56e:	470d                	li	a4,3
   1d570:	962a                	add	a2,a2,a0
   1d572:	4881                	li	a7,0
   1d574:	8f1d                	sub	a4,a4,a5
   1d576:	0ce8c463          	blt	a7,a4,1d63e <__subtf3+0x386>
   1d57a:	4611                	li	a2,4
   1d57c:	40f607b3          	sub	a5,a2,a5
   1d580:	070a                	slli	a4,a4,0x2
   1d582:	0090                	addi	a2,sp,64
   1d584:	9732                	add	a4,a4,a2
   1d586:	5632                	lw	a2,44(sp)
   1d588:	00d656b3          	srl	a3,a2,a3
   1d58c:	fed72023          	sw	a3,-32(a4)
   1d590:	4611                	li	a2,4
   1d592:	8e1d                	sub	a2,a2,a5
   1d594:	078a                	slli	a5,a5,0x2
   1d596:	953e                	add	a0,a0,a5
   1d598:	060a                	slli	a2,a2,0x2
   1d59a:	4581                	li	a1,0
   1d59c:	d4ff20ef          	jal	ra,102ea <memset>
   1d5a0:	5702                	lw	a4,32(sp)
   1d5a2:	008037b3          	snez	a5,s0
   1d5a6:	8fd9                	or	a5,a5,a4
   1d5a8:	d03e                	sw	a5,32(sp)
   1d5aa:	5602                	lw	a2,32(sp)
   1d5ac:	56a2                	lw	a3,40(sp)
   1d5ae:	964a                	add	a2,a2,s2
   1d5b0:	01263933          	sltu	s2,a2,s2
   1d5b4:	d832                	sw	a2,48(sp)
   1d5b6:	5612                	lw	a2,36(sp)
   1d5b8:	965e                	add	a2,a2,s7
   1d5ba:	012607b3          	add	a5,a2,s2
   1d5be:	0127b933          	sltu	s2,a5,s2
   1d5c2:	01763633          	sltu	a2,a2,s7
   1d5c6:	01266633          	or	a2,a2,s2
   1d5ca:	da3e                	sw	a5,52(sp)
   1d5cc:	00da07b3          	add	a5,s4,a3
   1d5d0:	00c78733          	add	a4,a5,a2
   1d5d4:	dc3a                	sw	a4,56(sp)
   1d5d6:	0147b7b3          	sltu	a5,a5,s4
   1d5da:	00c73733          	sltu	a4,a4,a2
   1d5de:	8fd9                	or	a5,a5,a4
   1d5e0:	5732                	lw	a4,44(sp)
   1d5e2:	99ba                	add	s3,s3,a4
   1d5e4:	97ce                	add	a5,a5,s3
   1d5e6:	de3e                	sw	a5,60(sp)
   1d5e8:	57f2                	lw	a5,60(sp)
   1d5ea:	00080737          	lui	a4,0x80
   1d5ee:	8f7d                	and	a4,a4,a5
   1d5f0:	e20706e3          	beqz	a4,1d41c <__subtf3+0x164>
   1d5f4:	fff80737          	lui	a4,0xfff80
   1d5f8:	177d                	addi	a4,a4,-1
   1d5fa:	8ff9                	and	a5,a5,a4
   1d5fc:	de3e                	sw	a5,60(sp)
   1d5fe:	57c2                	lw	a5,48(sp)
   1d600:	0485                	addi	s1,s1,1
   1d602:	186c                	addi	a1,sp,60
   1d604:	01f79713          	slli	a4,a5,0x1f
   1d608:	181c                	addi	a5,sp,48
   1d60a:	4394                	lw	a3,0(a5)
   1d60c:	43d0                	lw	a2,4(a5)
   1d60e:	8285                	srli	a3,a3,0x1
   1d610:	067e                	slli	a2,a2,0x1f
   1d612:	8ed1                	or	a3,a3,a2
   1d614:	c394                	sw	a3,0(a5)
   1d616:	0791                	addi	a5,a5,4
   1d618:	fef599e3          	bne	a1,a5,1d60a <__subtf3+0x352>
   1d61c:	57f2                	lw	a5,60(sp)
   1d61e:	8385                	srli	a5,a5,0x1
   1d620:	de3e                	sw	a5,60(sp)
   1d622:	00e037b3          	snez	a5,a4
   1d626:	5742                	lw	a4,48(sp)
   1d628:	8fd9                	or	a5,a5,a4
   1d62a:	d83e                	sw	a5,48(sp)
   1d62c:	67a1                	lui	a5,0x8
   1d62e:	17fd                	addi	a5,a5,-1
   1d630:	def496e3          	bne	s1,a5,1d41c <__subtf3+0x164>
   1d634:	de02                	sw	zero,60(sp)
   1d636:	dc02                	sw	zero,56(sp)
   1d638:	da02                	sw	zero,52(sp)
   1d63a:	d802                	sw	zero,48(sp)
   1d63c:	b3c5                	j	1d41c <__subtf3+0x164>
   1d63e:	420c                	lw	a1,0(a2)
   1d640:	00462e03          	lw	t3,4(a2)
   1d644:	00660eb3          	add	t4,a2,t1
   1d648:	00d5d5b3          	srl	a1,a1,a3
   1d64c:	010e1e33          	sll	t3,t3,a6
   1d650:	01c5e5b3          	or	a1,a1,t3
   1d654:	00bea023          	sw	a1,0(t4)
   1d658:	0885                	addi	a7,a7,1
   1d65a:	0611                	addi	a2,a2,4
   1d65c:	bf29                	j	1d576 <__subtf3+0x2be>
   1d65e:	5992                	lw	s3,36(sp)
   1d660:	5a22                	lw	s4,40(sp)
   1d662:	5bb2                	lw	s7,44(sp)
   1d664:	1a080f63          	beqz	a6,1d822 <__subtf3+0x56a>
   1d668:	409c05b3          	sub	a1,s8,s1
   1d66c:	eca5                	bnez	s1,1d6e4 <__subtf3+0x42c>
   1d66e:	4752                	lw	a4,20(sp)
   1d670:	47e2                	lw	a5,24(sp)
   1d672:	4572                	lw	a0,28(sp)
   1d674:	00f76633          	or	a2,a4,a5
   1d678:	8e49                	or	a2,a2,a0
   1d67a:	01266633          	or	a2,a2,s2
   1d67e:	e619                	bnez	a2,1d68c <__subtf3+0x3d4>
   1d680:	d822                	sw	s0,48(sp)
   1d682:	da4e                	sw	s3,52(sp)
   1d684:	dc52                	sw	s4,56(sp)
   1d686:	de5e                	sw	s7,60(sp)
   1d688:	84ae                	mv	s1,a1
   1d68a:	bb49                	j	1d41c <__subtf3+0x164>
   1d68c:	fff58613          	addi	a2,a1,-1
   1d690:	ee0d                	bnez	a2,1d6ca <__subtf3+0x412>
   1d692:	9922                	add	s2,s2,s0
   1d694:	974e                	add	a4,a4,s3
   1d696:	00893433          	sltu	s0,s2,s0
   1d69a:	d84a                	sw	s2,48(sp)
   1d69c:	00870933          	add	s2,a4,s0
   1d6a0:	00893433          	sltu	s0,s2,s0
   1d6a4:	01373733          	sltu	a4,a4,s3
   1d6a8:	008769b3          	or	s3,a4,s0
   1d6ac:	97d2                	add	a5,a5,s4
   1d6ae:	01378733          	add	a4,a5,s3
   1d6b2:	013739b3          	sltu	s3,a4,s3
   1d6b6:	0147b7b3          	sltu	a5,a5,s4
   1d6ba:	0137e7b3          	or	a5,a5,s3
   1d6be:	9baa                	add	s7,s7,a0
   1d6c0:	9bbe                	add	s7,s7,a5
   1d6c2:	da4a                	sw	s2,52(sp)
   1d6c4:	dc3a                	sw	a4,56(sp)
   1d6c6:	de5e                	sw	s7,60(sp)
   1d6c8:	b31d                	j	1d3ee <__subtf3+0x136>
   1d6ca:	67a1                	lui	a5,0x8
   1d6cc:	17fd                	addi	a5,a5,-1
   1d6ce:	faf589e3          	beq	a1,a5,1d680 <__subtf3+0x3c8>
   1d6d2:	07400793          	li	a5,116
   1d6d6:	02c7db63          	bge	a5,a2,1d70c <__subtf3+0x454>
   1d6da:	ce02                	sw	zero,28(sp)
   1d6dc:	cc02                	sw	zero,24(sp)
   1d6de:	ca02                	sw	zero,20(sp)
   1d6e0:	4785                	li	a5,1
   1d6e2:	a8f1                	j	1d7be <__subtf3+0x506>
   1d6e4:	67a1                	lui	a5,0x8
   1d6e6:	17fd                	addi	a5,a5,-1
   1d6e8:	00fc1863          	bne	s8,a5,1d6f8 <__subtf3+0x440>
   1d6ec:	d822                	sw	s0,48(sp)
   1d6ee:	da4e                	sw	s3,52(sp)
   1d6f0:	dc52                	sw	s4,56(sp)
   1d6f2:	de5e                	sw	s7,60(sp)
   1d6f4:	84e2                	mv	s1,s8
   1d6f6:	b31d                	j	1d41c <__subtf3+0x164>
   1d6f8:	47f2                	lw	a5,28(sp)
   1d6fa:	00080737          	lui	a4,0x80
   1d6fe:	8fd9                	or	a5,a5,a4
   1d700:	ce3e                	sw	a5,28(sp)
   1d702:	07400793          	li	a5,116
   1d706:	fcb7cae3          	blt	a5,a1,1d6da <__subtf3+0x422>
   1d70a:	862e                	mv	a2,a1
   1d70c:	02000793          	li	a5,32
   1d710:	02f647b3          	div	a5,a2,a5
   1d714:	85b6                	mv	a1,a3
   1d716:	4481                	li	s1,0
   1d718:	4701                	li	a4,0
   1d71a:	02f74a63          	blt	a4,a5,1d74e <__subtf3+0x496>
   1d71e:	85be                	mv	a1,a5
   1d720:	0007d363          	bgez	a5,1d726 <__subtf3+0x46e>
   1d724:	4581                	li	a1,0
   1d726:	01f67513          	andi	a0,a2,31
   1d72a:	00279713          	slli	a4,a5,0x2
   1d72e:	e50d                	bnez	a0,1d758 <__subtf3+0x4a0>
   1d730:	458d                	li	a1,3
   1d732:	4601                	li	a2,0
   1d734:	8d9d                	sub	a1,a1,a5
   1d736:	00e68533          	add	a0,a3,a4
   1d73a:	4108                	lw	a0,0(a0)
   1d73c:	0605                	addi	a2,a2,1
   1d73e:	c288                	sw	a0,0(a3)
   1d740:	0691                	addi	a3,a3,4
   1d742:	fec5dae3          	bge	a1,a2,1d736 <__subtf3+0x47e>
   1d746:	4511                	li	a0,4
   1d748:	40f507b3          	sub	a5,a0,a5
   1d74c:	a881                	j	1d79c <__subtf3+0x4e4>
   1d74e:	4188                	lw	a0,0(a1)
   1d750:	0705                	addi	a4,a4,1
   1d752:	0591                	addi	a1,a1,4
   1d754:	8cc9                	or	s1,s1,a0
   1d756:	b7d1                	j	1d71a <__subtf3+0x462>
   1d758:	02000513          	li	a0,32
   1d75c:	02a66633          	rem	a2,a2,a0
   1d760:	5371                	li	t1,-4
   1d762:	0094                	addi	a3,sp,64
   1d764:	058a                	slli	a1,a1,0x2
   1d766:	95b6                	add	a1,a1,a3
   1d768:	fd05a683          	lw	a3,-48(a1)
   1d76c:	4801                	li	a6,0
   1d76e:	02678333          	mul	t1,a5,t1
   1d772:	8d11                	sub	a0,a0,a2
   1d774:	00a696b3          	sll	a3,a3,a0
   1d778:	8cd5                	or	s1,s1,a3
   1d77a:	00e886b3          	add	a3,a7,a4
   1d77e:	470d                	li	a4,3
   1d780:	8f1d                	sub	a4,a4,a5
   1d782:	08e84063          	blt	a6,a4,1d802 <__subtf3+0x54a>
   1d786:	0094                	addi	a3,sp,64
   1d788:	070a                	slli	a4,a4,0x2
   1d78a:	9736                	add	a4,a4,a3
   1d78c:	46f2                	lw	a3,28(sp)
   1d78e:	4511                	li	a0,4
   1d790:	40f507b3          	sub	a5,a0,a5
   1d794:	00c6d633          	srl	a2,a3,a2
   1d798:	fcc72823          	sw	a2,-48(a4) # 7ffd0 <__BSS_END__+0x5f0a8>
   1d79c:	4711                	li	a4,4
   1d79e:	4601                	li	a2,0
   1d7a0:	00f74563          	blt	a4,a5,1d7aa <__subtf3+0x4f2>
   1d7a4:	8f1d                	sub	a4,a4,a5
   1d7a6:	00271613          	slli	a2,a4,0x2
   1d7aa:	078a                	slli	a5,a5,0x2
   1d7ac:	00f88533          	add	a0,a7,a5
   1d7b0:	4581                	li	a1,0
   1d7b2:	b39f20ef          	jal	ra,102ea <memset>
   1d7b6:	4742                	lw	a4,16(sp)
   1d7b8:	009037b3          	snez	a5,s1
   1d7bc:	8fd9                	or	a5,a5,a4
   1d7be:	c83e                	sw	a5,16(sp)
   1d7c0:	47c2                	lw	a5,16(sp)
   1d7c2:	4752                	lw	a4,20(sp)
   1d7c4:	84e2                	mv	s1,s8
   1d7c6:	97a2                	add	a5,a5,s0
   1d7c8:	974e                	add	a4,a4,s3
   1d7ca:	0087b433          	sltu	s0,a5,s0
   1d7ce:	d83e                	sw	a5,48(sp)
   1d7d0:	008707b3          	add	a5,a4,s0
   1d7d4:	0087b433          	sltu	s0,a5,s0
   1d7d8:	da3e                	sw	a5,52(sp)
   1d7da:	47e2                	lw	a5,24(sp)
   1d7dc:	013739b3          	sltu	s3,a4,s3
   1d7e0:	0089e9b3          	or	s3,s3,s0
   1d7e4:	97d2                	add	a5,a5,s4
   1d7e6:	01378733          	add	a4,a5,s3
   1d7ea:	0147b7b3          	sltu	a5,a5,s4
   1d7ee:	4a72                	lw	s4,28(sp)
   1d7f0:	013739b3          	sltu	s3,a4,s3
   1d7f4:	0137e7b3          	or	a5,a5,s3
   1d7f8:	9bd2                	add	s7,s7,s4
   1d7fa:	9bbe                	add	s7,s7,a5
   1d7fc:	dc3a                	sw	a4,56(sp)
   1d7fe:	de5e                	sw	s7,60(sp)
   1d800:	b3e5                	j	1d5e8 <__subtf3+0x330>
   1d802:	428c                	lw	a1,0(a3)
   1d804:	0046ae03          	lw	t3,4(a3)
   1d808:	00668eb3          	add	t4,a3,t1
   1d80c:	00c5d5b3          	srl	a1,a1,a2
   1d810:	00ae1e33          	sll	t3,t3,a0
   1d814:	01c5e5b3          	or	a1,a1,t3
   1d818:	00bea023          	sw	a1,0(t4)
   1d81c:	0805                	addi	a6,a6,1
   1d81e:	0691                	addi	a3,a3,4
   1d820:	b78d                	j	1d782 <__subtf3+0x4ca>
   1d822:	6821                	lui	a6,0x8
   1d824:	00148693          	addi	a3,s1,1
   1d828:	ffe80893          	addi	a7,a6,-2 # 7ffe <register_fini-0x8076>
   1d82c:	0116f8b3          	and	a7,a3,a7
   1d830:	4752                	lw	a4,20(sp)
   1d832:	4562                	lw	a0,24(sp)
   1d834:	45f2                	lw	a1,28(sp)
   1d836:	181c                	addi	a5,sp,48
   1d838:	1870                	addi	a2,sp,60
   1d83a:	0c089c63          	bnez	a7,1d912 <__subtf3+0x65a>
   1d83e:	00a766b3          	or	a3,a4,a0
   1d842:	8ecd                	or	a3,a3,a1
   1d844:	0126e6b3          	or	a3,a3,s2
   1d848:	e8bd                	bnez	s1,1d8be <__subtf3+0x606>
   1d84a:	e691                	bnez	a3,1d856 <__subtf3+0x59e>
   1d84c:	d822                	sw	s0,48(sp)
   1d84e:	da4e                	sw	s3,52(sp)
   1d850:	dc52                	sw	s4,56(sp)
   1d852:	de5e                	sw	s7,60(sp)
   1d854:	b6e1                	j	1d41c <__subtf3+0x164>
   1d856:	0149e7b3          	or	a5,s3,s4
   1d85a:	0177e7b3          	or	a5,a5,s7
   1d85e:	8fc1                	or	a5,a5,s0
   1d860:	e791                	bnez	a5,1d86c <__subtf3+0x5b4>
   1d862:	d84a                	sw	s2,48(sp)
   1d864:	da3a                	sw	a4,52(sp)
   1d866:	dc2a                	sw	a0,56(sp)
   1d868:	de2e                	sw	a1,60(sp)
   1d86a:	be4d                	j	1d41c <__subtf3+0x164>
   1d86c:	944a                	add	s0,s0,s2
   1d86e:	01243933          	sltu	s2,s0,s2
   1d872:	99ba                	add	s3,s3,a4
   1d874:	d822                	sw	s0,48(sp)
   1d876:	01298433          	add	s0,s3,s2
   1d87a:	01243933          	sltu	s2,s0,s2
   1d87e:	00e9b9b3          	sltu	s3,s3,a4
   1d882:	0129e9b3          	or	s3,s3,s2
   1d886:	9a2a                	add	s4,s4,a0
   1d888:	013a07b3          	add	a5,s4,s3
   1d88c:	0137b9b3          	sltu	s3,a5,s3
   1d890:	00aa3a33          	sltu	s4,s4,a0
   1d894:	013a6a33          	or	s4,s4,s3
   1d898:	9bae                	add	s7,s7,a1
   1d89a:	dc3e                	sw	a5,56(sp)
   1d89c:	9a5e                	add	s4,s4,s7
   1d89e:	000807b7          	lui	a5,0x80
   1d8a2:	da22                	sw	s0,52(sp)
   1d8a4:	00fa77b3          	and	a5,s4,a5
   1d8a8:	e399                	bnez	a5,1d8ae <__subtf3+0x5f6>
   1d8aa:	de52                	sw	s4,60(sp)
   1d8ac:	be85                	j	1d41c <__subtf3+0x164>
   1d8ae:	fff807b7          	lui	a5,0xfff80
   1d8b2:	17fd                	addi	a5,a5,-1
   1d8b4:	00fa7a33          	and	s4,s4,a5
   1d8b8:	de52                	sw	s4,60(sp)
   1d8ba:	4485                	li	s1,1
   1d8bc:	b685                	j	1d41c <__subtf3+0x164>
   1d8be:	ea81                	bnez	a3,1d8ce <__subtf3+0x616>
   1d8c0:	d822                	sw	s0,48(sp)
   1d8c2:	da4e                	sw	s3,52(sp)
   1d8c4:	dc52                	sw	s4,56(sp)
   1d8c6:	de5e                	sw	s7,60(sp)
   1d8c8:	fff80493          	addi	s1,a6,-1
   1d8cc:	be81                	j	1d41c <__subtf3+0x164>
   1d8ce:	0149ea33          	or	s4,s3,s4
   1d8d2:	017a6bb3          	or	s7,s4,s7
   1d8d6:	008be433          	or	s0,s7,s0
   1d8da:	e411                	bnez	s0,1d8e6 <__subtf3+0x62e>
   1d8dc:	d84a                	sw	s2,48(sp)
   1d8de:	da3a                	sw	a4,52(sp)
   1d8e0:	dc2a                	sw	a0,56(sp)
   1d8e2:	de2e                	sw	a1,60(sp)
   1d8e4:	b7d5                	j	1d8c8 <__subtf3+0x610>
   1d8e6:	de42                	sw	a6,60(sp)
   1d8e8:	dc02                	sw	zero,56(sp)
   1d8ea:	da02                	sw	zero,52(sp)
   1d8ec:	d802                	sw	zero,48(sp)
   1d8ee:	8732                	mv	a4,a2
   1d8f0:	4314                	lw	a3,0(a4)
   1d8f2:	ffc72603          	lw	a2,-4(a4)
   1d8f6:	1771                	addi	a4,a4,-4
   1d8f8:	068e                	slli	a3,a3,0x3
   1d8fa:	8275                	srli	a2,a2,0x1d
   1d8fc:	8ed1                	or	a3,a3,a2
   1d8fe:	c354                	sw	a3,4(a4)
   1d900:	fee798e3          	bne	a5,a4,1d8f0 <__subtf3+0x638>
   1d904:	57c2                	lw	a5,48(sp)
   1d906:	64a1                	lui	s1,0x8
   1d908:	4a81                	li	s5,0
   1d90a:	078e                	slli	a5,a5,0x3
   1d90c:	d83e                	sw	a5,48(sp)
   1d90e:	14fd                	addi	s1,s1,-1
   1d910:	b631                	j	1d41c <__subtf3+0x164>
   1d912:	944a                	add	s0,s0,s2
   1d914:	99ba                	add	s3,s3,a4
   1d916:	01243933          	sltu	s2,s0,s2
   1d91a:	d822                	sw	s0,48(sp)
   1d91c:	01298433          	add	s0,s3,s2
   1d920:	01243933          	sltu	s2,s0,s2
   1d924:	00e9b9b3          	sltu	s3,s3,a4
   1d928:	0129e933          	or	s2,s3,s2
   1d92c:	01450733          	add	a4,a0,s4
   1d930:	01270833          	add	a6,a4,s2
   1d934:	00a73a33          	sltu	s4,a4,a0
   1d938:	01283733          	sltu	a4,a6,s2
   1d93c:	00ea6733          	or	a4,s4,a4
   1d940:	9bae                	add	s7,s7,a1
   1d942:	9bba                	add	s7,s7,a4
   1d944:	da22                	sw	s0,52(sp)
   1d946:	dc42                	sw	a6,56(sp)
   1d948:	de5e                	sw	s7,60(sp)
   1d94a:	4398                	lw	a4,0(a5)
   1d94c:	43cc                	lw	a1,4(a5)
   1d94e:	8305                	srli	a4,a4,0x1
   1d950:	05fe                	slli	a1,a1,0x1f
   1d952:	8f4d                	or	a4,a4,a1
   1d954:	c398                	sw	a4,0(a5)
   1d956:	0791                	addi	a5,a5,4
   1d958:	fef619e3          	bne	a2,a5,1d94a <__subtf3+0x692>
   1d95c:	67a1                	lui	a5,0x8
   1d95e:	17fd                	addi	a5,a5,-1
   1d960:	00f68763          	beq	a3,a5,1d96e <__subtf3+0x6b6>
   1d964:	57f2                	lw	a5,60(sp)
   1d966:	8385                	srli	a5,a5,0x1
   1d968:	de3e                	sw	a5,60(sp)
   1d96a:	84b6                	mv	s1,a3
   1d96c:	bc45                	j	1d41c <__subtf3+0x164>
   1d96e:	de02                	sw	zero,60(sp)
   1d970:	dc02                	sw	zero,56(sp)
   1d972:	da02                	sw	zero,52(sp)
   1d974:	d802                	sw	zero,48(sp)
   1d976:	bfd5                	j	1d96a <__subtf3+0x6b2>
   1d978:	1d005f63          	blez	a6,1db56 <__subtf3+0x89e>
   1d97c:	49d2                	lw	s3,20(sp)
   1d97e:	4a62                	lw	s4,24(sp)
   1d980:	4bf2                	lw	s7,28(sp)
   1d982:	080c1563          	bnez	s8,1da0c <__subtf3+0x754>
   1d986:	5892                	lw	a7,36(sp)
   1d988:	56a2                	lw	a3,40(sp)
   1d98a:	57b2                	lw	a5,44(sp)
   1d98c:	00d8e733          	or	a4,a7,a3
   1d990:	8f5d                	or	a4,a4,a5
   1d992:	8f41                	or	a4,a4,s0
   1d994:	e711                	bnez	a4,1d9a0 <__subtf3+0x6e8>
   1d996:	d84a                	sw	s2,48(sp)
   1d998:	da4e                	sw	s3,52(sp)
   1d99a:	dc52                	sw	s4,56(sp)
   1d99c:	de5e                	sw	s7,60(sp)
   1d99e:	bc09                	j	1d3b0 <__subtf3+0xf8>
   1d9a0:	fff80713          	addi	a4,a6,-1
   1d9a4:	e739                	bnez	a4,1d9f2 <__subtf3+0x73a>
   1d9a6:	40890433          	sub	s0,s2,s0
   1d9aa:	411985b3          	sub	a1,s3,a7
   1d9ae:	00893633          	sltu	a2,s2,s0
   1d9b2:	00b9b533          	sltu	a0,s3,a1
   1d9b6:	8d91                	sub	a1,a1,a2
   1d9b8:	4601                	li	a2,0
   1d9ba:	00897663          	bgeu	s2,s0,1d9c6 <__subtf3+0x70e>
   1d9be:	41388633          	sub	a2,a7,s3
   1d9c2:	00163613          	seqz	a2,a2
   1d9c6:	8e49                	or	a2,a2,a0
   1d9c8:	40da0533          	sub	a0,s4,a3
   1d9cc:	00aa3833          	sltu	a6,s4,a0
   1d9d0:	8d11                	sub	a0,a0,a2
   1d9d2:	c609                	beqz	a2,1d9dc <__subtf3+0x724>
   1d9d4:	41468733          	sub	a4,a3,s4
   1d9d8:	00173713          	seqz	a4,a4
   1d9dc:	40fb87b3          	sub	a5,s7,a5
   1d9e0:	01076733          	or	a4,a4,a6
   1d9e4:	8f99                	sub	a5,a5,a4
   1d9e6:	de3e                	sw	a5,60(sp)
   1d9e8:	dc2a                	sw	a0,56(sp)
   1d9ea:	da2e                	sw	a1,52(sp)
   1d9ec:	d822                	sw	s0,48(sp)
   1d9ee:	4485                	li	s1,1
   1d9f0:	aa05                	j	1db20 <__subtf3+0x868>
   1d9f2:	67a1                	lui	a5,0x8
   1d9f4:	17fd                	addi	a5,a5,-1
   1d9f6:	faf800e3          	beq	a6,a5,1d996 <__subtf3+0x6de>
   1d9fa:	07400793          	li	a5,116
   1d9fe:	02e7d763          	bge	a5,a4,1da2c <__subtf3+0x774>
   1da02:	d602                	sw	zero,44(sp)
   1da04:	d402                	sw	zero,40(sp)
   1da06:	d202                	sw	zero,36(sp)
   1da08:	4785                	li	a5,1
   1da0a:	a0c1                	j	1daca <__subtf3+0x812>
   1da0c:	67a1                	lui	a5,0x8
   1da0e:	17fd                	addi	a5,a5,-1
   1da10:	00f49463          	bne	s1,a5,1da18 <__subtf3+0x760>
   1da14:	d84a                	sw	s2,48(sp)
   1da16:	bd25                	j	1d84e <__subtf3+0x596>
   1da18:	57b2                	lw	a5,44(sp)
   1da1a:	00080737          	lui	a4,0x80
   1da1e:	8fd9                	or	a5,a5,a4
   1da20:	d63e                	sw	a5,44(sp)
   1da22:	07400793          	li	a5,116
   1da26:	fd07cee3          	blt	a5,a6,1da02 <__subtf3+0x74a>
   1da2a:	8742                	mv	a4,a6
   1da2c:	40575793          	srai	a5,a4,0x5
   1da30:	862e                	mv	a2,a1
   1da32:	4401                	li	s0,0
   1da34:	4681                	li	a3,0
   1da36:	02f69863          	bne	a3,a5,1da66 <__subtf3+0x7ae>
   1da3a:	01f77613          	andi	a2,a4,31
   1da3e:	00279713          	slli	a4,a5,0x2
   1da42:	ea0d                	bnez	a2,1da74 <__subtf3+0x7bc>
   1da44:	460d                	li	a2,3
   1da46:	4681                	li	a3,0
   1da48:	8e1d                	sub	a2,a2,a5
   1da4a:	00e58833          	add	a6,a1,a4
   1da4e:	00082803          	lw	a6,0(a6)
   1da52:	0685                	addi	a3,a3,1
   1da54:	0105a023          	sw	a6,0(a1)
   1da58:	0591                	addi	a1,a1,4
   1da5a:	fed658e3          	bge	a2,a3,1da4a <__subtf3+0x792>
   1da5e:	4711                	li	a4,4
   1da60:	40f707b3          	sub	a5,a4,a5
   1da64:	a0b9                	j	1dab2 <__subtf3+0x7fa>
   1da66:	00062803          	lw	a6,0(a2)
   1da6a:	0685                	addi	a3,a3,1
   1da6c:	0611                	addi	a2,a2,4
   1da6e:	01046433          	or	s0,s0,a6
   1da72:	b7d1                	j	1da36 <__subtf3+0x77e>
   1da74:	5371                	li	t1,-4
   1da76:	02678333          	mul	t1,a5,t1
   1da7a:	0094                	addi	a3,sp,64
   1da7c:	96ba                	add	a3,a3,a4
   1da7e:	fe06a683          	lw	a3,-32(a3)
   1da82:	02000813          	li	a6,32
   1da86:	40c80833          	sub	a6,a6,a2
   1da8a:	010696b3          	sll	a3,a3,a6
   1da8e:	8c55                	or	s0,s0,a3
   1da90:	468d                	li	a3,3
   1da92:	972a                	add	a4,a4,a0
   1da94:	4881                	li	a7,0
   1da96:	8e9d                	sub	a3,a3,a5
   1da98:	08d8cf63          	blt	a7,a3,1db36 <__subtf3+0x87e>
   1da9c:	4711                	li	a4,4
   1da9e:	40f707b3          	sub	a5,a4,a5
   1daa2:	068a                	slli	a3,a3,0x2
   1daa4:	0098                	addi	a4,sp,64
   1daa6:	96ba                	add	a3,a3,a4
   1daa8:	5732                	lw	a4,44(sp)
   1daaa:	00c75733          	srl	a4,a4,a2
   1daae:	fee6a023          	sw	a4,-32(a3)
   1dab2:	4611                	li	a2,4
   1dab4:	8e1d                	sub	a2,a2,a5
   1dab6:	078a                	slli	a5,a5,0x2
   1dab8:	953e                	add	a0,a0,a5
   1daba:	060a                	slli	a2,a2,0x2
   1dabc:	4581                	li	a1,0
   1dabe:	82df20ef          	jal	ra,102ea <memset>
   1dac2:	5702                	lw	a4,32(sp)
   1dac4:	008037b3          	snez	a5,s0
   1dac8:	8fd9                	or	a5,a5,a4
   1daca:	d03e                	sw	a5,32(sp)
   1dacc:	5702                	lw	a4,32(sp)
   1dace:	5592                	lw	a1,36(sp)
   1dad0:	4681                	li	a3,0
   1dad2:	40e90733          	sub	a4,s2,a4
   1dad6:	40b987b3          	sub	a5,s3,a1
   1dada:	00e93633          	sltu	a2,s2,a4
   1dade:	00f9b533          	sltu	a0,s3,a5
   1dae2:	40c78633          	sub	a2,a5,a2
   1dae6:	00e97663          	bgeu	s2,a4,1daf2 <__subtf3+0x83a>
   1daea:	413586b3          	sub	a3,a1,s3
   1daee:	0016b693          	seqz	a3,a3
   1daf2:	5822                	lw	a6,40(sp)
   1daf4:	8ec9                	or	a3,a3,a0
   1daf6:	4501                	li	a0,0
   1daf8:	410a05b3          	sub	a1,s4,a6
   1dafc:	00ba38b3          	sltu	a7,s4,a1
   1db00:	8d95                	sub	a1,a1,a3
   1db02:	c689                	beqz	a3,1db0c <__subtf3+0x854>
   1db04:	41480833          	sub	a6,a6,s4
   1db08:	00183513          	seqz	a0,a6
   1db0c:	57b2                	lw	a5,44(sp)
   1db0e:	01156533          	or	a0,a0,a7
   1db12:	dc2e                	sw	a1,56(sp)
   1db14:	40fb87b3          	sub	a5,s7,a5
   1db18:	8f89                	sub	a5,a5,a0
   1db1a:	de3e                	sw	a5,60(sp)
   1db1c:	da32                	sw	a2,52(sp)
   1db1e:	d83a                	sw	a4,48(sp)
   1db20:	57f2                	lw	a5,60(sp)
   1db22:	00080737          	lui	a4,0x80
   1db26:	00e7f6b3          	and	a3,a5,a4
   1db2a:	8e0689e3          	beqz	a3,1d41c <__subtf3+0x164>
   1db2e:	177d                	addi	a4,a4,-1
   1db30:	8ff9                	and	a5,a5,a4
   1db32:	de3e                	sw	a5,60(sp)
   1db34:	a929                	j	1df4e <__subtf3+0xc96>
   1db36:	430c                	lw	a1,0(a4)
   1db38:	00472e03          	lw	t3,4(a4) # 80004 <__BSS_END__+0x5f0dc>
   1db3c:	00670eb3          	add	t4,a4,t1
   1db40:	00c5d5b3          	srl	a1,a1,a2
   1db44:	010e1e33          	sll	t3,t3,a6
   1db48:	01c5e5b3          	or	a1,a1,t3
   1db4c:	00bea023          	sw	a1,0(t4)
   1db50:	0885                	addi	a7,a7,1
   1db52:	0711                	addi	a4,a4,4
   1db54:	b791                	j	1da98 <__subtf3+0x7e0>
   1db56:	5992                	lw	s3,36(sp)
   1db58:	5a22                	lw	s4,40(sp)
   1db5a:	5cb2                	lw	s9,44(sp)
   1db5c:	1e080a63          	beqz	a6,1dd50 <__subtf3+0xa98>
   1db60:	409c05b3          	sub	a1,s8,s1
   1db64:	e4d1                	bnez	s1,1dbf0 <__subtf3+0x938>
   1db66:	4552                	lw	a0,20(sp)
   1db68:	4762                	lw	a4,24(sp)
   1db6a:	4672                	lw	a2,28(sp)
   1db6c:	00e567b3          	or	a5,a0,a4
   1db70:	8fd1                	or	a5,a5,a2
   1db72:	0127e7b3          	or	a5,a5,s2
   1db76:	eb81                	bnez	a5,1db86 <__subtf3+0x8ce>
   1db78:	d822                	sw	s0,48(sp)
   1db7a:	da4e                	sw	s3,52(sp)
   1db7c:	dc52                	sw	s4,56(sp)
   1db7e:	de66                	sw	s9,60(sp)
   1db80:	84ae                	mv	s1,a1
   1db82:	8ade                	mv	s5,s7
   1db84:	b861                	j	1d41c <__subtf3+0x164>
   1db86:	fff58793          	addi	a5,a1,-1
   1db8a:	eba9                	bnez	a5,1dbdc <__subtf3+0x924>
   1db8c:	41240933          	sub	s2,s0,s2
   1db90:	40a985b3          	sub	a1,s3,a0
   1db94:	012436b3          	sltu	a3,s0,s2
   1db98:	00b9b833          	sltu	a6,s3,a1
   1db9c:	8d95                	sub	a1,a1,a3
   1db9e:	4681                	li	a3,0
   1dba0:	01247663          	bgeu	s0,s2,1dbac <__subtf3+0x8f4>
   1dba4:	413506b3          	sub	a3,a0,s3
   1dba8:	0016b693          	seqz	a3,a3
   1dbac:	0106e6b3          	or	a3,a3,a6
   1dbb0:	40ea0533          	sub	a0,s4,a4
   1dbb4:	00aa3833          	sltu	a6,s4,a0
   1dbb8:	8d15                	sub	a0,a0,a3
   1dbba:	c689                	beqz	a3,1dbc4 <__subtf3+0x90c>
   1dbbc:	414707b3          	sub	a5,a4,s4
   1dbc0:	0017b793          	seqz	a5,a5
   1dbc4:	40cc8cb3          	sub	s9,s9,a2
   1dbc8:	0107e7b3          	or	a5,a5,a6
   1dbcc:	40fc8cb3          	sub	s9,s9,a5
   1dbd0:	de66                	sw	s9,60(sp)
   1dbd2:	dc2a                	sw	a0,56(sp)
   1dbd4:	da2e                	sw	a1,52(sp)
   1dbd6:	d84a                	sw	s2,48(sp)
   1dbd8:	8ade                	mv	s5,s7
   1dbda:	bd11                	j	1d9ee <__subtf3+0x736>
   1dbdc:	6721                	lui	a4,0x8
   1dbde:	177d                	addi	a4,a4,-1
   1dbe0:	f8e58ce3          	beq	a1,a4,1db78 <__subtf3+0x8c0>
   1dbe4:	07400713          	li	a4,116
   1dbe8:	14f74f63          	blt	a4,a5,1dd46 <__subtf3+0xa8e>
   1dbec:	85be                	mv	a1,a5
   1dbee:	a025                	j	1dc16 <__subtf3+0x95e>
   1dbf0:	67a1                	lui	a5,0x8
   1dbf2:	17fd                	addi	a5,a5,-1
   1dbf4:	00fc1863          	bne	s8,a5,1dc04 <__subtf3+0x94c>
   1dbf8:	d822                	sw	s0,48(sp)
   1dbfa:	da4e                	sw	s3,52(sp)
   1dbfc:	dc52                	sw	s4,56(sp)
   1dbfe:	de66                	sw	s9,60(sp)
   1dc00:	84e2                	mv	s1,s8
   1dc02:	b741                	j	1db82 <__subtf3+0x8ca>
   1dc04:	47f2                	lw	a5,28(sp)
   1dc06:	00080737          	lui	a4,0x80
   1dc0a:	8fd9                	or	a5,a5,a4
   1dc0c:	ce3e                	sw	a5,28(sp)
   1dc0e:	07400793          	li	a5,116
   1dc12:	12b7ca63          	blt	a5,a1,1dd46 <__subtf3+0xa8e>
   1dc16:	02000713          	li	a4,32
   1dc1a:	02e5c733          	div	a4,a1,a4
   1dc1e:	8636                	mv	a2,a3
   1dc20:	4481                	li	s1,0
   1dc22:	4781                	li	a5,0
   1dc24:	02e7ca63          	blt	a5,a4,1dc58 <__subtf3+0x9a0>
   1dc28:	863a                	mv	a2,a4
   1dc2a:	00075363          	bgez	a4,1dc30 <__subtf3+0x978>
   1dc2e:	4601                	li	a2,0
   1dc30:	01f5f513          	andi	a0,a1,31
   1dc34:	00271793          	slli	a5,a4,0x2
   1dc38:	e50d                	bnez	a0,1dc62 <__subtf3+0x9aa>
   1dc3a:	458d                	li	a1,3
   1dc3c:	4601                	li	a2,0
   1dc3e:	8d99                	sub	a1,a1,a4
   1dc40:	00f68533          	add	a0,a3,a5
   1dc44:	4108                	lw	a0,0(a0)
   1dc46:	0605                	addi	a2,a2,1
   1dc48:	c288                	sw	a0,0(a3)
   1dc4a:	0691                	addi	a3,a3,4
   1dc4c:	fec5dae3          	bge	a1,a2,1dc40 <__subtf3+0x988>
   1dc50:	4511                	li	a0,4
   1dc52:	40e50733          	sub	a4,a0,a4
   1dc56:	a881                	j	1dca6 <__subtf3+0x9ee>
   1dc58:	4208                	lw	a0,0(a2)
   1dc5a:	0785                	addi	a5,a5,1
   1dc5c:	0611                	addi	a2,a2,4
   1dc5e:	8cc9                	or	s1,s1,a0
   1dc60:	b7d1                	j	1dc24 <__subtf3+0x96c>
   1dc62:	02000513          	li	a0,32
   1dc66:	02a5e5b3          	rem	a1,a1,a0
   1dc6a:	5371                	li	t1,-4
   1dc6c:	0094                	addi	a3,sp,64
   1dc6e:	060a                	slli	a2,a2,0x2
   1dc70:	9636                	add	a2,a2,a3
   1dc72:	fd062683          	lw	a3,-48(a2)
   1dc76:	4801                	li	a6,0
   1dc78:	02670333          	mul	t1,a4,t1
   1dc7c:	8d0d                	sub	a0,a0,a1
   1dc7e:	00a696b3          	sll	a3,a3,a0
   1dc82:	8cd5                	or	s1,s1,a3
   1dc84:	00f886b3          	add	a3,a7,a5
   1dc88:	478d                	li	a5,3
   1dc8a:	8f99                	sub	a5,a5,a4
   1dc8c:	08f84d63          	blt	a6,a5,1dd26 <__subtf3+0xa6e>
   1dc90:	0094                	addi	a3,sp,64
   1dc92:	078a                	slli	a5,a5,0x2
   1dc94:	97b6                	add	a5,a5,a3
   1dc96:	46f2                	lw	a3,28(sp)
   1dc98:	4511                	li	a0,4
   1dc9a:	40e50733          	sub	a4,a0,a4
   1dc9e:	00b6d5b3          	srl	a1,a3,a1
   1dca2:	fcb7a823          	sw	a1,-48(a5) # 7fd0 <register_fini-0x80a4>
   1dca6:	4791                	li	a5,4
   1dca8:	4601                	li	a2,0
   1dcaa:	00e7c563          	blt	a5,a4,1dcb4 <__subtf3+0x9fc>
   1dcae:	8f99                	sub	a5,a5,a4
   1dcb0:	00279613          	slli	a2,a5,0x2
   1dcb4:	070a                	slli	a4,a4,0x2
   1dcb6:	00e88533          	add	a0,a7,a4
   1dcba:	4581                	li	a1,0
   1dcbc:	e2ef20ef          	jal	ra,102ea <memset>
   1dcc0:	4742                	lw	a4,16(sp)
   1dcc2:	009037b3          	snez	a5,s1
   1dcc6:	8fd9                	or	a5,a5,a4
   1dcc8:	c83e                	sw	a5,16(sp)
   1dcca:	4742                	lw	a4,16(sp)
   1dccc:	4652                	lw	a2,20(sp)
   1dcce:	40e40733          	sub	a4,s0,a4
   1dcd2:	40c987b3          	sub	a5,s3,a2
   1dcd6:	00e436b3          	sltu	a3,s0,a4
   1dcda:	00f9b5b3          	sltu	a1,s3,a5
   1dcde:	8f95                	sub	a5,a5,a3
   1dce0:	4681                	li	a3,0
   1dce2:	00e47663          	bgeu	s0,a4,1dcee <__subtf3+0xa36>
   1dce6:	413606b3          	sub	a3,a2,s3
   1dcea:	0016b693          	seqz	a3,a3
   1dcee:	4862                	lw	a6,24(sp)
   1dcf0:	8ecd                	or	a3,a3,a1
   1dcf2:	4501                	li	a0,0
   1dcf4:	410a0633          	sub	a2,s4,a6
   1dcf8:	00ca38b3          	sltu	a7,s4,a2
   1dcfc:	40d605b3          	sub	a1,a2,a3
   1dd00:	c689                	beqz	a3,1dd0a <__subtf3+0xa52>
   1dd02:	41480833          	sub	a6,a6,s4
   1dd06:	00183513          	seqz	a0,a6
   1dd0a:	4672                	lw	a2,28(sp)
   1dd0c:	01156533          	or	a0,a0,a7
   1dd10:	dc2e                	sw	a1,56(sp)
   1dd12:	40cc8cb3          	sub	s9,s9,a2
   1dd16:	40ac8cb3          	sub	s9,s9,a0
   1dd1a:	de66                	sw	s9,60(sp)
   1dd1c:	da3e                	sw	a5,52(sp)
   1dd1e:	d83a                	sw	a4,48(sp)
   1dd20:	84e2                	mv	s1,s8
   1dd22:	8ade                	mv	s5,s7
   1dd24:	bbf5                	j	1db20 <__subtf3+0x868>
   1dd26:	4290                	lw	a2,0(a3)
   1dd28:	0046ae03          	lw	t3,4(a3)
   1dd2c:	00668eb3          	add	t4,a3,t1
   1dd30:	00b65633          	srl	a2,a2,a1
   1dd34:	00ae1e33          	sll	t3,t3,a0
   1dd38:	01c66633          	or	a2,a2,t3
   1dd3c:	00cea023          	sw	a2,0(t4)
   1dd40:	0805                	addi	a6,a6,1
   1dd42:	0691                	addi	a3,a3,4
   1dd44:	b7a1                	j	1dc8c <__subtf3+0x9d4>
   1dd46:	ce02                	sw	zero,28(sp)
   1dd48:	cc02                	sw	zero,24(sp)
   1dd4a:	ca02                	sw	zero,20(sp)
   1dd4c:	4785                	li	a5,1
   1dd4e:	bfad                	j	1dcc8 <__subtf3+0xa10>
   1dd50:	6521                	lui	a0,0x8
   1dd52:	ffe50713          	addi	a4,a0,-2 # 7ffe <register_fini-0x8076>
   1dd56:	00148793          	addi	a5,s1,1 # 8001 <register_fini-0x8073>
   1dd5a:	8ff9                	and	a5,a5,a4
   1dd5c:	46e2                	lw	a3,24(sp)
   1dd5e:	4752                	lw	a4,20(sp)
   1dd60:	4672                	lw	a2,28(sp)
   1dd62:	14079963          	bnez	a5,1deb4 <__subtf3+0xbfc>
   1dd66:	0149e7b3          	or	a5,s3,s4
   1dd6a:	00d765b3          	or	a1,a4,a3
   1dd6e:	0197e7b3          	or	a5,a5,s9
   1dd72:	8dd1                	or	a1,a1,a2
   1dd74:	8fc1                	or	a5,a5,s0
   1dd76:	0125e5b3          	or	a1,a1,s2
   1dd7a:	e8f1                	bnez	s1,1de4e <__subtf3+0xb96>
   1dd7c:	ed81                	bnez	a1,1dd94 <__subtf3+0xadc>
   1dd7e:	d822                	sw	s0,48(sp)
   1dd80:	da4e                	sw	s3,52(sp)
   1dd82:	dc52                	sw	s4,56(sp)
   1dd84:	de66                	sw	s9,60(sp)
   1dd86:	8ade                	mv	s5,s7
   1dd88:	e8079a63          	bnez	a5,1d41c <__subtf3+0x164>
   1dd8c:	4481                	li	s1,0
   1dd8e:	4a81                	li	s5,0
   1dd90:	e8cff06f          	j	1d41c <__subtf3+0x164>
   1dd94:	e799                	bnez	a5,1dda2 <__subtf3+0xaea>
   1dd96:	d84a                	sw	s2,48(sp)
   1dd98:	da3a                	sw	a4,52(sp)
   1dd9a:	dc36                	sw	a3,56(sp)
   1dd9c:	de32                	sw	a2,60(sp)
   1dd9e:	e7eff06f          	j	1d41c <__subtf3+0x164>
   1dda2:	408905b3          	sub	a1,s2,s0
   1dda6:	41370333          	sub	t1,a4,s3
   1ddaa:	00b93833          	sltu	a6,s2,a1
   1ddae:	006737b3          	sltu	a5,a4,t1
   1ddb2:	41030833          	sub	a6,t1,a6
   1ddb6:	4501                	li	a0,0
   1ddb8:	00b97463          	bgeu	s2,a1,1ddc0 <__subtf3+0xb08>
   1ddbc:	00133513          	seqz	a0,t1
   1ddc0:	414688b3          	sub	a7,a3,s4
   1ddc4:	8d5d                	or	a0,a0,a5
   1ddc6:	0116bf33          	sltu	t5,a3,a7
   1ddca:	40a88eb3          	sub	t4,a7,a0
   1ddce:	4e01                	li	t3,0
   1ddd0:	c119                	beqz	a0,1ddd6 <__subtf3+0xb1e>
   1ddd2:	0018be13          	seqz	t3,a7
   1ddd6:	419607b3          	sub	a5,a2,s9
   1ddda:	01ee6e33          	or	t3,t3,t5
   1ddde:	41c787b3          	sub	a5,a5,t3
   1dde2:	00080537          	lui	a0,0x80
   1dde6:	de3e                	sw	a5,60(sp)
   1dde8:	dc76                	sw	t4,56(sp)
   1ddea:	da42                	sw	a6,52(sp)
   1ddec:	d82e                	sw	a1,48(sp)
   1ddee:	8d7d                	and	a0,a0,a5
   1ddf0:	c539                	beqz	a0,1de3e <__subtf3+0xb86>
   1ddf2:	41240933          	sub	s2,s0,s2
   1ddf6:	40e98733          	sub	a4,s3,a4
   1ddfa:	012437b3          	sltu	a5,s0,s2
   1ddfe:	00e9b9b3          	sltu	s3,s3,a4
   1de02:	8f1d                	sub	a4,a4,a5
   1de04:	4781                	li	a5,0
   1de06:	01247463          	bgeu	s0,s2,1de0e <__subtf3+0xb56>
   1de0a:	00133793          	seqz	a5,t1
   1de0e:	40da06b3          	sub	a3,s4,a3
   1de12:	0137e9b3          	or	s3,a5,s3
   1de16:	00da3a33          	sltu	s4,s4,a3
   1de1a:	4581                	li	a1,0
   1de1c:	413686b3          	sub	a3,a3,s3
   1de20:	00098463          	beqz	s3,1de28 <__subtf3+0xb70>
   1de24:	0018b593          	seqz	a1,a7
   1de28:	40cc8633          	sub	a2,s9,a2
   1de2c:	0145e5b3          	or	a1,a1,s4
   1de30:	40b605b3          	sub	a1,a2,a1
   1de34:	de2e                	sw	a1,60(sp)
   1de36:	dc36                	sw	a3,56(sp)
   1de38:	da3a                	sw	a4,52(sp)
   1de3a:	d84a                	sw	s2,48(sp)
   1de3c:	b399                	j	1db82 <__subtf3+0x8ca>
   1de3e:	0105e5b3          	or	a1,a1,a6
   1de42:	01d5e5b3          	or	a1,a1,t4
   1de46:	8ddd                	or	a1,a1,a5
   1de48:	d1b1                	beqz	a1,1dd8c <__subtf3+0xad4>
   1de4a:	dd2ff06f          	j	1d41c <__subtf3+0x164>
   1de4e:	03010813          	addi	a6,sp,48
   1de52:	e99d                	bnez	a1,1de88 <__subtf3+0xbd0>
   1de54:	e38d                	bnez	a5,1de76 <__subtf3+0xbbe>
   1de56:	de2a                	sw	a0,60(sp)
   1de58:	dc02                	sw	zero,56(sp)
   1de5a:	da02                	sw	zero,52(sp)
   1de5c:	d802                	sw	zero,48(sp)
   1de5e:	187c                	addi	a5,sp,60
   1de60:	4398                	lw	a4,0(a5)
   1de62:	ffc7a683          	lw	a3,-4(a5)
   1de66:	17f1                	addi	a5,a5,-4
   1de68:	070e                	slli	a4,a4,0x3
   1de6a:	82f5                	srli	a3,a3,0x1d
   1de6c:	8f55                	or	a4,a4,a3
   1de6e:	c3d8                	sw	a4,4(a5)
   1de70:	fef818e3          	bne	a6,a5,1de60 <__subtf3+0xba8>
   1de74:	bc41                	j	1d904 <__subtf3+0x64c>
   1de76:	d822                	sw	s0,48(sp)
   1de78:	da4e                	sw	s3,52(sp)
   1de7a:	dc52                	sw	s4,56(sp)
   1de7c:	de66                	sw	s9,60(sp)
   1de7e:	8ade                	mv	s5,s7
   1de80:	fff50493          	addi	s1,a0,-1 # 7ffff <__BSS_END__+0x5f0d7>
   1de84:	d98ff06f          	j	1d41c <__subtf3+0x164>
   1de88:	e791                	bnez	a5,1de94 <__subtf3+0xbdc>
   1de8a:	d84a                	sw	s2,48(sp)
   1de8c:	da3a                	sw	a4,52(sp)
   1de8e:	dc36                	sw	a3,56(sp)
   1de90:	de32                	sw	a2,60(sp)
   1de92:	b7fd                	j	1de80 <__subtf3+0xbc8>
   1de94:	de2a                	sw	a0,60(sp)
   1de96:	dc02                	sw	zero,56(sp)
   1de98:	da02                	sw	zero,52(sp)
   1de9a:	d802                	sw	zero,48(sp)
   1de9c:	187c                	addi	a5,sp,60
   1de9e:	4398                	lw	a4,0(a5)
   1dea0:	ffc7a683          	lw	a3,-4(a5)
   1dea4:	17f1                	addi	a5,a5,-4
   1dea6:	070e                	slli	a4,a4,0x3
   1dea8:	82f5                	srli	a3,a3,0x1d
   1deaa:	8f55                	or	a4,a4,a3
   1deac:	c3d8                	sw	a4,4(a5)
   1deae:	fef818e3          	bne	a6,a5,1de9e <__subtf3+0xbe6>
   1deb2:	bc89                	j	1d904 <__subtf3+0x64c>
   1deb4:	408905b3          	sub	a1,s2,s0
   1deb8:	41370e33          	sub	t3,a4,s3
   1debc:	00b938b3          	sltu	a7,s2,a1
   1dec0:	01c737b3          	sltu	a5,a4,t3
   1dec4:	411e08b3          	sub	a7,t3,a7
   1dec8:	4501                	li	a0,0
   1deca:	00b97463          	bgeu	s2,a1,1ded2 <__subtf3+0xc1a>
   1dece:	001e3513          	seqz	a0,t3
   1ded2:	41468333          	sub	t1,a3,s4
   1ded6:	8d5d                	or	a0,a0,a5
   1ded8:	0066bfb3          	sltu	t6,a3,t1
   1dedc:	40a30f33          	sub	t5,t1,a0
   1dee0:	4e81                	li	t4,0
   1dee2:	c119                	beqz	a0,1dee8 <__subtf3+0xc30>
   1dee4:	00133e93          	seqz	t4,t1
   1dee8:	419607b3          	sub	a5,a2,s9
   1deec:	01feeeb3          	or	t4,t4,t6
   1def0:	41d787b3          	sub	a5,a5,t4
   1def4:	00080537          	lui	a0,0x80
   1def8:	de3e                	sw	a5,60(sp)
   1defa:	dc7a                	sw	t5,56(sp)
   1defc:	da46                	sw	a7,52(sp)
   1defe:	d82e                	sw	a1,48(sp)
   1df00:	8d7d                	and	a0,a0,a5
   1df02:	c56d                	beqz	a0,1dfec <__subtf3+0xd34>
   1df04:	41240933          	sub	s2,s0,s2
   1df08:	40e98733          	sub	a4,s3,a4
   1df0c:	012437b3          	sltu	a5,s0,s2
   1df10:	00e9b9b3          	sltu	s3,s3,a4
   1df14:	8f1d                	sub	a4,a4,a5
   1df16:	4781                	li	a5,0
   1df18:	01247463          	bgeu	s0,s2,1df20 <__subtf3+0xc68>
   1df1c:	001e3793          	seqz	a5,t3
   1df20:	0137e9b3          	or	s3,a5,s3
   1df24:	40da06b3          	sub	a3,s4,a3
   1df28:	00da37b3          	sltu	a5,s4,a3
   1df2c:	413686b3          	sub	a3,a3,s3
   1df30:	00098463          	beqz	s3,1df38 <__subtf3+0xc80>
   1df34:	00133813          	seqz	a6,t1
   1df38:	40cc8633          	sub	a2,s9,a2
   1df3c:	00f867b3          	or	a5,a6,a5
   1df40:	40f607b3          	sub	a5,a2,a5
   1df44:	de3e                	sw	a5,60(sp)
   1df46:	dc36                	sw	a3,56(sp)
   1df48:	da3a                	sw	a4,52(sp)
   1df4a:	d84a                	sw	s2,48(sp)
   1df4c:	8ade                	mv	s5,s7
   1df4e:	5572                	lw	a0,60(sp)
   1df50:	c555                	beqz	a0,1dffc <__subtf3+0xd44>
   1df52:	2df1                	jal	1e62e <__clzsi2>
   1df54:	ff450413          	addi	s0,a0,-12 # 7fff4 <__BSS_END__+0x5f0cc>
   1df58:	02000793          	li	a5,32
   1df5c:	01f47713          	andi	a4,s0,31
   1df60:	02f44633          	div	a2,s0,a5
   1df64:	cf4d                	beqz	a4,1e01e <__subtf3+0xd66>
   1df66:	03010893          	addi	a7,sp,48
   1df6a:	00261593          	slli	a1,a2,0x2
   1df6e:	02f46533          	rem	a0,s0,a5
   1df72:	40a78733          	sub	a4,a5,a0
   1df76:	57f1                	li	a5,-4
   1df78:	02f607b3          	mul	a5,a2,a5
   1df7c:	07b1                	addi	a5,a5,12
   1df7e:	97c6                	add	a5,a5,a7
   1df80:	0af89e63          	bne	a7,a5,1e03c <__subtf3+0xd84>
   1df84:	009c                	addi	a5,sp,64
   1df86:	95be                	add	a1,a1,a5
   1df88:	57c2                	lw	a5,48(sp)
   1df8a:	167d                	addi	a2,a2,-1
   1df8c:	00a797b3          	sll	a5,a5,a0
   1df90:	fef5a823          	sw	a5,-16(a1)
   1df94:	0605                	addi	a2,a2,1
   1df96:	060a                	slli	a2,a2,0x2
   1df98:	4581                	li	a1,0
   1df9a:	1808                	addi	a0,sp,48
   1df9c:	b4ef20ef          	jal	ra,102ea <memset>
   1dfa0:	14944c63          	blt	s0,s1,1e0f8 <__subtf3+0xe40>
   1dfa4:	8c05                	sub	s0,s0,s1
   1dfa6:	0405                	addi	s0,s0,1
   1dfa8:	02000793          	li	a5,32
   1dfac:	02f447b3          	div	a5,s0,a5
   1dfb0:	1810                	addi	a2,sp,48
   1dfb2:	86b2                	mv	a3,a2
   1dfb4:	4901                	li	s2,0
   1dfb6:	4701                	li	a4,0
   1dfb8:	0af74163          	blt	a4,a5,1e05a <__subtf3+0xda2>
   1dfbc:	873e                	mv	a4,a5
   1dfbe:	0007d363          	bgez	a5,1dfc4 <__subtf3+0xd0c>
   1dfc2:	4701                	li	a4,0
   1dfc4:	01f47593          	andi	a1,s0,31
   1dfc8:	00279693          	slli	a3,a5,0x2
   1dfcc:	edc9                	bnez	a1,1e066 <__subtf3+0xdae>
   1dfce:	458d                	li	a1,3
   1dfd0:	4701                	li	a4,0
   1dfd2:	8d9d                	sub	a1,a1,a5
   1dfd4:	00d60533          	add	a0,a2,a3
   1dfd8:	4108                	lw	a0,0(a0)
   1dfda:	0705                	addi	a4,a4,1
   1dfdc:	c208                	sw	a0,0(a2)
   1dfde:	0611                	addi	a2,a2,4
   1dfe0:	fee5dae3          	bge	a1,a4,1dfd4 <__subtf3+0xd1c>
   1dfe4:	4511                	li	a0,4
   1dfe6:	40f507b3          	sub	a5,a0,a5
   1dfea:	a0c9                	j	1e0ac <__subtf3+0xdf4>
   1dfec:	0115e5b3          	or	a1,a1,a7
   1dff0:	01e5e5b3          	or	a1,a1,t5
   1dff4:	8ddd                	or	a1,a1,a5
   1dff6:	d8058be3          	beqz	a1,1dd8c <__subtf3+0xad4>
   1dffa:	bf91                	j	1df4e <__subtf3+0xc96>
   1dffc:	5562                	lw	a0,56(sp)
   1dffe:	c509                	beqz	a0,1e008 <__subtf3+0xd50>
   1e000:	253d                	jal	1e62e <__clzsi2>
   1e002:	02050513          	addi	a0,a0,32
   1e006:	b7b9                	j	1df54 <__subtf3+0xc9c>
   1e008:	5552                	lw	a0,52(sp)
   1e00a:	c509                	beqz	a0,1e014 <__subtf3+0xd5c>
   1e00c:	250d                	jal	1e62e <__clzsi2>
   1e00e:	04050513          	addi	a0,a0,64
   1e012:	b789                	j	1df54 <__subtf3+0xc9c>
   1e014:	5542                	lw	a0,48(sp)
   1e016:	2d21                	jal	1e62e <__clzsi2>
   1e018:	06050513          	addi	a0,a0,96
   1e01c:	bf25                	j	1df54 <__subtf3+0xc9c>
   1e01e:	56f1                	li	a3,-4
   1e020:	02d606b3          	mul	a3,a2,a3
   1e024:	187c                	addi	a5,sp,60
   1e026:	470d                	li	a4,3
   1e028:	00d785b3          	add	a1,a5,a3
   1e02c:	418c                	lw	a1,0(a1)
   1e02e:	177d                	addi	a4,a4,-1
   1e030:	17f1                	addi	a5,a5,-4
   1e032:	c3cc                	sw	a1,4(a5)
   1e034:	fec75ae3          	bge	a4,a2,1e028 <__subtf3+0xd70>
   1e038:	167d                	addi	a2,a2,-1
   1e03a:	bfa9                	j	1df94 <__subtf3+0xcdc>
   1e03c:	4394                	lw	a3,0(a5)
   1e03e:	ffc7a803          	lw	a6,-4(a5)
   1e042:	00b78333          	add	t1,a5,a1
   1e046:	00a696b3          	sll	a3,a3,a0
   1e04a:	00e85833          	srl	a6,a6,a4
   1e04e:	0106e6b3          	or	a3,a3,a6
   1e052:	00d32023          	sw	a3,0(t1)
   1e056:	17f1                	addi	a5,a5,-4
   1e058:	b725                	j	1df80 <__subtf3+0xcc8>
   1e05a:	428c                	lw	a1,0(a3)
   1e05c:	0705                	addi	a4,a4,1
   1e05e:	0691                	addi	a3,a3,4
   1e060:	00b96933          	or	s2,s2,a1
   1e064:	bf91                	j	1dfb8 <__subtf3+0xd00>
   1e066:	02000613          	li	a2,32
   1e06a:	02c46433          	rem	s0,s0,a2
   1e06e:	5871                	li	a6,-4
   1e070:	070a                	slli	a4,a4,0x2
   1e072:	008c                	addi	a1,sp,64
   1e074:	972e                	add	a4,a4,a1
   1e076:	ff072703          	lw	a4,-16(a4) # 7fff0 <__BSS_END__+0x5f0c8>
   1e07a:	4501                	li	a0,0
   1e07c:	03078833          	mul	a6,a5,a6
   1e080:	8e01                	sub	a2,a2,s0
   1e082:	00c71733          	sll	a4,a4,a2
   1e086:	00e96933          	or	s2,s2,a4
   1e08a:	1818                	addi	a4,sp,48
   1e08c:	96ba                	add	a3,a3,a4
   1e08e:	470d                	li	a4,3
   1e090:	8f1d                	sub	a4,a4,a5
   1e092:	04e54363          	blt	a0,a4,1e0d8 <__subtf3+0xe20>
   1e096:	54f2                	lw	s1,60(sp)
   1e098:	070a                	slli	a4,a4,0x2
   1e09a:	0094                	addi	a3,sp,64
   1e09c:	4511                	li	a0,4
   1e09e:	9736                	add	a4,a4,a3
   1e0a0:	0084d433          	srl	s0,s1,s0
   1e0a4:	40f507b3          	sub	a5,a0,a5
   1e0a8:	fe872823          	sw	s0,-16(a4)
   1e0ac:	4711                	li	a4,4
   1e0ae:	4601                	li	a2,0
   1e0b0:	00f74563          	blt	a4,a5,1e0ba <__subtf3+0xe02>
   1e0b4:	8f1d                	sub	a4,a4,a5
   1e0b6:	00271613          	slli	a2,a4,0x2
   1e0ba:	00279513          	slli	a0,a5,0x2
   1e0be:	181c                	addi	a5,sp,48
   1e0c0:	953e                	add	a0,a0,a5
   1e0c2:	4581                	li	a1,0
   1e0c4:	a26f20ef          	jal	ra,102ea <memset>
   1e0c8:	5742                	lw	a4,48(sp)
   1e0ca:	012037b3          	snez	a5,s2
   1e0ce:	4481                	li	s1,0
   1e0d0:	8fd9                	or	a5,a5,a4
   1e0d2:	d83e                	sw	a5,48(sp)
   1e0d4:	b48ff06f          	j	1d41c <__subtf3+0x164>
   1e0d8:	428c                	lw	a1,0(a3)
   1e0da:	0046a883          	lw	a7,4(a3)
   1e0de:	01068333          	add	t1,a3,a6
   1e0e2:	0085d5b3          	srl	a1,a1,s0
   1e0e6:	00c898b3          	sll	a7,a7,a2
   1e0ea:	0115e5b3          	or	a1,a1,a7
   1e0ee:	00b32023          	sw	a1,0(t1)
   1e0f2:	0505                	addi	a0,a0,1
   1e0f4:	0691                	addi	a3,a3,4
   1e0f6:	bf71                	j	1e092 <__subtf3+0xdda>
   1e0f8:	57f2                	lw	a5,60(sp)
   1e0fa:	fff80737          	lui	a4,0xfff80
   1e0fe:	177d                	addi	a4,a4,-1
   1e100:	8ff9                	and	a5,a5,a4
   1e102:	8c81                	sub	s1,s1,s0
   1e104:	de3e                	sw	a5,60(sp)
   1e106:	b16ff06f          	j	1d41c <__subtf3+0x164>
   1e10a:	de02                	sw	zero,60(sp)
   1e10c:	dc02                	sw	zero,56(sp)
   1e10e:	da02                	sw	zero,52(sp)
   1e110:	d802                	sw	zero,48(sp)
   1e112:	b5eff06f          	j	1d470 <__subtf3+0x1b8>

0001e116 <__fixtfsi>:
   1e116:	451c                	lw	a5,8(a0)
   1e118:	4158                	lw	a4,4(a0)
   1e11a:	4554                	lw	a3,12(a0)
   1e11c:	4110                	lw	a2,0(a0)
   1e11e:	1101                	addi	sp,sp,-32
   1e120:	c23a                	sw	a4,4(sp)
   1e122:	c43e                	sw	a5,8(sp)
   1e124:	cc3e                	sw	a5,24(sp)
   1e126:	6711                	lui	a4,0x4
   1e128:	00169793          	slli	a5,a3,0x1
   1e12c:	0117d593          	srli	a1,a5,0x11
   1e130:	c032                	sw	a2,0(sp)
   1e132:	c636                	sw	a3,12(sp)
   1e134:	c832                	sw	a2,16(sp)
   1e136:	ffe70793          	addi	a5,a4,-2 # 3ffe <register_fini-0xc076>
   1e13a:	4501                	li	a0,0
   1e13c:	00b7dd63          	bge	a5,a1,1e156 <__fixtfsi+0x40>
   1e140:	01d70793          	addi	a5,a4,29
   1e144:	01f6d813          	srli	a6,a3,0x1f
   1e148:	00b7d963          	bge	a5,a1,1e15a <__fixtfsi+0x44>
   1e14c:	80000537          	lui	a0,0x80000
   1e150:	fff54513          	not	a0,a0
   1e154:	9542                	add	a0,a0,a6
   1e156:	6105                	addi	sp,sp,32
   1e158:	8082                	ret
   1e15a:	06c2                	slli	a3,a3,0x10
   1e15c:	67c1                	lui	a5,0x10
   1e15e:	82c1                	srli	a3,a3,0x10
   1e160:	8edd                	or	a3,a3,a5
   1e162:	06f70793          	addi	a5,a4,111
   1e166:	8f8d                	sub	a5,a5,a1
   1e168:	4057d713          	srai	a4,a5,0x5
   1e16c:	ce36                	sw	a3,28(sp)
   1e16e:	8bfd                	andi	a5,a5,31
   1e170:	cf8d                	beqz	a5,1e1aa <__fixtfsi+0x94>
   1e172:	02000513          	li	a0,32
   1e176:	ffe70893          	addi	a7,a4,-2
   1e17a:	8d1d                	sub	a0,a0,a5
   1e17c:	070a                	slli	a4,a4,0x2
   1e17e:	02010e13          	addi	t3,sp,32
   1e182:	00a69533          	sll	a0,a3,a0
   1e186:	4301                	li	t1,0
   1e188:	4581                	li	a1,0
   1e18a:	0018b893          	seqz	a7,a7
   1e18e:	9772                	add	a4,a4,t3
   1e190:	0315c963          	blt	a1,a7,1e1c2 <__fixtfsi+0xac>
   1e194:	00030363          	beqz	t1,1e19a <__fixtfsi+0x84>
   1e198:	c832                	sw	a2,16(sp)
   1e19a:	058a                	slli	a1,a1,0x2
   1e19c:	1018                	addi	a4,sp,32
   1e19e:	95ba                	add	a1,a1,a4
   1e1a0:	00f6d6b3          	srl	a3,a3,a5
   1e1a4:	fed5a823          	sw	a3,-16(a1)
   1e1a8:	a039                	j	1e1b6 <__fixtfsi+0xa0>
   1e1aa:	101c                	addi	a5,sp,32
   1e1ac:	070a                	slli	a4,a4,0x2
   1e1ae:	973e                	add	a4,a4,a5
   1e1b0:	ff072783          	lw	a5,-16(a4)
   1e1b4:	c83e                	sw	a5,16(sp)
   1e1b6:	4542                	lw	a0,16(sp)
   1e1b8:	f8080fe3          	beqz	a6,1e156 <__fixtfsi+0x40>
   1e1bc:	40a00533          	neg	a0,a0
   1e1c0:	bf59                	j	1e156 <__fixtfsi+0x40>
   1e1c2:	ff072603          	lw	a2,-16(a4)
   1e1c6:	4305                	li	t1,1
   1e1c8:	4585                	li	a1,1
   1e1ca:	00f65633          	srl	a2,a2,a5
   1e1ce:	8e49                	or	a2,a2,a0
   1e1d0:	b7c1                	j	1e190 <__fixtfsi+0x7a>

0001e1d2 <__floatsitf>:
   1e1d2:	7139                	addi	sp,sp,-64
   1e1d4:	da26                	sw	s1,52(sp)
   1e1d6:	de06                	sw	ra,60(sp)
   1e1d8:	dc22                	sw	s0,56(sp)
   1e1da:	d84a                	sw	s2,48(sp)
   1e1dc:	d64e                	sw	s3,44(sp)
   1e1de:	84aa                	mv	s1,a0
   1e1e0:	c9dd                	beqz	a1,1e296 <__floatsitf+0xc4>
   1e1e2:	41f5d793          	srai	a5,a1,0x1f
   1e1e6:	00b7c433          	xor	s0,a5,a1
   1e1ea:	8c1d                	sub	s0,s0,a5
   1e1ec:	8522                	mv	a0,s0
   1e1ee:	01f5d913          	srli	s2,a1,0x1f
   1e1f2:	2935                	jal	1e62e <__clzsi2>
   1e1f4:	05150593          	addi	a1,a0,81 # 80000051 <__BSS_END__+0x7ffdf129>
   1e1f8:	6991                	lui	s3,0x4
   1e1fa:	09f9                	addi	s3,s3,30
   1e1fc:	4055d793          	srai	a5,a1,0x5
   1e200:	c822                	sw	s0,16(sp)
   1e202:	ca02                	sw	zero,20(sp)
   1e204:	cc02                	sw	zero,24(sp)
   1e206:	ce02                	sw	zero,28(sp)
   1e208:	89fd                	andi	a1,a1,31
   1e20a:	40a989b3          	sub	s3,s3,a0
   1e20e:	c585                	beqz	a1,1e236 <__floatsitf+0x64>
   1e210:	4709                	li	a4,2
   1e212:	08e79063          	bne	a5,a4,1e292 <__floatsitf+0xc0>
   1e216:	02000713          	li	a4,32
   1e21a:	8f0d                	sub	a4,a4,a1
   1e21c:	00e45733          	srl	a4,s0,a4
   1e220:	ce3a                	sw	a4,28(sp)
   1e222:	fff78613          	addi	a2,a5,-1 # ffff <register_fini-0x75>
   1e226:	1018                	addi	a4,sp,32
   1e228:	078a                	slli	a5,a5,0x2
   1e22a:	97ba                	add	a5,a5,a4
   1e22c:	00b41433          	sll	s0,s0,a1
   1e230:	fe87a823          	sw	s0,-16(a5)
   1e234:	a839                	j	1e252 <__floatsitf+0x80>
   1e236:	470d                	li	a4,3
   1e238:	8f1d                	sub	a4,a4,a5
   1e23a:	070a                	slli	a4,a4,0x2
   1e23c:	1014                	addi	a3,sp,32
   1e23e:	9736                	add	a4,a4,a3
   1e240:	ff072703          	lw	a4,-16(a4)
   1e244:	4609                	li	a2,2
   1e246:	ce3a                	sw	a4,28(sp)
   1e248:	4709                	li	a4,2
   1e24a:	00e79463          	bne	a5,a4,1e252 <__floatsitf+0x80>
   1e24e:	cc22                	sw	s0,24(sp)
   1e250:	4605                	li	a2,1
   1e252:	0605                	addi	a2,a2,1
   1e254:	4581                	li	a1,0
   1e256:	060a                	slli	a2,a2,0x2
   1e258:	0808                	addi	a0,sp,16
   1e25a:	890f20ef          	jal	ra,102ea <memset>
   1e25e:	85ca                	mv	a1,s2
   1e260:	47f2                	lw	a5,28(sp)
   1e262:	00f59413          	slli	s0,a1,0xf
   1e266:	01346433          	or	s0,s0,s3
   1e26a:	00811723          	sh	s0,14(sp)
   1e26e:	00f11623          	sh	a5,12(sp)
   1e272:	4642                	lw	a2,16(sp)
   1e274:	46d2                	lw	a3,20(sp)
   1e276:	4762                	lw	a4,24(sp)
   1e278:	47b2                	lw	a5,12(sp)
   1e27a:	50f2                	lw	ra,60(sp)
   1e27c:	5462                	lw	s0,56(sp)
   1e27e:	c090                	sw	a2,0(s1)
   1e280:	c0d4                	sw	a3,4(s1)
   1e282:	c498                	sw	a4,8(s1)
   1e284:	c4dc                	sw	a5,12(s1)
   1e286:	5942                	lw	s2,48(sp)
   1e288:	59b2                	lw	s3,44(sp)
   1e28a:	8526                	mv	a0,s1
   1e28c:	54d2                	lw	s1,52(sp)
   1e28e:	6121                	addi	sp,sp,64
   1e290:	8082                	ret
   1e292:	478d                	li	a5,3
   1e294:	b779                	j	1e222 <__floatsitf+0x50>
   1e296:	ce02                	sw	zero,28(sp)
   1e298:	cc02                	sw	zero,24(sp)
   1e29a:	ca02                	sw	zero,20(sp)
   1e29c:	c802                	sw	zero,16(sp)
   1e29e:	4981                	li	s3,0
   1e2a0:	b7c1                	j	1e260 <__floatsitf+0x8e>

0001e2a2 <__extenddftf2>:
   1e2a2:	01465793          	srli	a5,a2,0x14
   1e2a6:	00c61713          	slli	a4,a2,0xc
   1e2aa:	7ff7f793          	andi	a5,a5,2047
   1e2ae:	7139                	addi	sp,sp,-64
   1e2b0:	8331                	srli	a4,a4,0xc
   1e2b2:	00178693          	addi	a3,a5,1
   1e2b6:	dc22                	sw	s0,56(sp)
   1e2b8:	da26                	sw	s1,52(sp)
   1e2ba:	d84a                	sw	s2,48(sp)
   1e2bc:	de06                	sw	ra,60(sp)
   1e2be:	d64e                	sw	s3,44(sp)
   1e2c0:	c82e                	sw	a1,16(sp)
   1e2c2:	ca3a                	sw	a4,20(sp)
   1e2c4:	ce02                	sw	zero,28(sp)
   1e2c6:	cc02                	sw	zero,24(sp)
   1e2c8:	7fe6f693          	andi	a3,a3,2046
   1e2cc:	892a                	mv	s2,a0
   1e2ce:	842e                	mv	s0,a1
   1e2d0:	01f65493          	srli	s1,a2,0x1f
   1e2d4:	cea1                	beqz	a3,1e32c <__extenddftf2+0x8a>
   1e2d6:	6691                	lui	a3,0x4
   1e2d8:	c0068693          	addi	a3,a3,-1024 # 3c00 <register_fini-0xc474>
   1e2dc:	97b6                	add	a5,a5,a3
   1e2de:	0045d513          	srli	a0,a1,0x4
   1e2e2:	00475693          	srli	a3,a4,0x4
   1e2e6:	0772                	slli	a4,a4,0x1c
   1e2e8:	8f49                	or	a4,a4,a0
   1e2ea:	01c59413          	slli	s0,a1,0x1c
   1e2ee:	ce36                	sw	a3,28(sp)
   1e2f0:	cc3a                	sw	a4,24(sp)
   1e2f2:	ca22                	sw	s0,20(sp)
   1e2f4:	c802                	sw	zero,16(sp)
   1e2f6:	45f2                	lw	a1,28(sp)
   1e2f8:	04be                	slli	s1,s1,0xf
   1e2fa:	8fc5                	or	a5,a5,s1
   1e2fc:	00b11623          	sh	a1,12(sp)
   1e300:	00f11723          	sh	a5,14(sp)
   1e304:	4642                	lw	a2,16(sp)
   1e306:	46d2                	lw	a3,20(sp)
   1e308:	4762                	lw	a4,24(sp)
   1e30a:	47b2                	lw	a5,12(sp)
   1e30c:	50f2                	lw	ra,60(sp)
   1e30e:	5462                	lw	s0,56(sp)
   1e310:	00c92023          	sw	a2,0(s2)
   1e314:	00d92223          	sw	a3,4(s2)
   1e318:	00e92423          	sw	a4,8(s2)
   1e31c:	00f92623          	sw	a5,12(s2)
   1e320:	54d2                	lw	s1,52(sp)
   1e322:	59b2                	lw	s3,44(sp)
   1e324:	854a                	mv	a0,s2
   1e326:	5942                	lw	s2,48(sp)
   1e328:	6121                	addi	sp,sp,64
   1e32a:	8082                	ret
   1e32c:	00b76533          	or	a0,a4,a1
   1e330:	efd9                	bnez	a5,1e3ce <__extenddftf2+0x12c>
   1e332:	d171                	beqz	a0,1e2f6 <__extenddftf2+0x54>
   1e334:	c321                	beqz	a4,1e374 <__extenddftf2+0xd2>
   1e336:	853a                	mv	a0,a4
   1e338:	2cdd                	jal	1e62e <__clzsi2>
   1e33a:	89aa                	mv	s3,a0
   1e33c:	03198593          	addi	a1,s3,49 # 4031 <register_fini-0xc043>
   1e340:	4055d613          	srai	a2,a1,0x5
   1e344:	89fd                	andi	a1,a1,31
   1e346:	c99d                	beqz	a1,1e37c <__extenddftf2+0xda>
   1e348:	5771                	li	a4,-4
   1e34a:	02e60733          	mul	a4,a2,a4
   1e34e:	02000513          	li	a0,32
   1e352:	01010893          	addi	a7,sp,16
   1e356:	8d0d                	sub	a0,a0,a1
   1e358:	00261693          	slli	a3,a2,0x2
   1e35c:	0731                	addi	a4,a4,12
   1e35e:	9746                	add	a4,a4,a7
   1e360:	04e89863          	bne	a7,a4,1e3b0 <__extenddftf2+0x10e>
   1e364:	101c                	addi	a5,sp,32
   1e366:	96be                	add	a3,a3,a5
   1e368:	00b415b3          	sll	a1,s0,a1
   1e36c:	167d                	addi	a2,a2,-1
   1e36e:	feb6a823          	sw	a1,-16(a3)
   1e372:	a01d                	j	1e398 <__extenddftf2+0xf6>
   1e374:	2c6d                	jal	1e62e <__clzsi2>
   1e376:	02050993          	addi	s3,a0,32
   1e37a:	b7c9                	j	1e33c <__extenddftf2+0x9a>
   1e37c:	56f1                	li	a3,-4
   1e37e:	02d606b3          	mul	a3,a2,a3
   1e382:	087c                	addi	a5,sp,28
   1e384:	470d                	li	a4,3
   1e386:	00d785b3          	add	a1,a5,a3
   1e38a:	418c                	lw	a1,0(a1)
   1e38c:	177d                	addi	a4,a4,-1
   1e38e:	17f1                	addi	a5,a5,-4
   1e390:	c3cc                	sw	a1,4(a5)
   1e392:	fec75ae3          	bge	a4,a2,1e386 <__extenddftf2+0xe4>
   1e396:	167d                	addi	a2,a2,-1
   1e398:	0605                	addi	a2,a2,1
   1e39a:	060a                	slli	a2,a2,0x2
   1e39c:	4581                	li	a1,0
   1e39e:	0808                	addi	a0,sp,16
   1e3a0:	f4bf10ef          	jal	ra,102ea <memset>
   1e3a4:	6791                	lui	a5,0x4
   1e3a6:	c0c78793          	addi	a5,a5,-1012 # 3c0c <register_fini-0xc468>
   1e3aa:	413787b3          	sub	a5,a5,s3
   1e3ae:	b7a1                	j	1e2f6 <__extenddftf2+0x54>
   1e3b0:	431c                	lw	a5,0(a4)
   1e3b2:	ffc72803          	lw	a6,-4(a4)
   1e3b6:	00d70333          	add	t1,a4,a3
   1e3ba:	00b797b3          	sll	a5,a5,a1
   1e3be:	00a85833          	srl	a6,a6,a0
   1e3c2:	0107e7b3          	or	a5,a5,a6
   1e3c6:	00f32023          	sw	a5,0(t1)
   1e3ca:	1771                	addi	a4,a4,-4
   1e3cc:	bf51                	j	1e360 <__extenddftf2+0xbe>
   1e3ce:	67a1                	lui	a5,0x8
   1e3d0:	cd19                	beqz	a0,1e3ee <__extenddftf2+0x14c>
   1e3d2:	01c71793          	slli	a5,a4,0x1c
   1e3d6:	0045d693          	srli	a3,a1,0x4
   1e3da:	8fd5                	or	a5,a5,a3
   1e3dc:	cc3e                	sw	a5,24(sp)
   1e3de:	8311                	srli	a4,a4,0x4
   1e3e0:	67a1                	lui	a5,0x8
   1e3e2:	01c59413          	slli	s0,a1,0x1c
   1e3e6:	8f5d                	or	a4,a4,a5
   1e3e8:	ca22                	sw	s0,20(sp)
   1e3ea:	c802                	sw	zero,16(sp)
   1e3ec:	ce3a                	sw	a4,28(sp)
   1e3ee:	17fd                	addi	a5,a5,-1
   1e3f0:	b719                	j	1e2f6 <__extenddftf2+0x54>

0001e3f2 <__trunctfdf2>:
   1e3f2:	7179                	addi	sp,sp,-48
   1e3f4:	451c                	lw	a5,8(a0)
   1e3f6:	d422                	sw	s0,40(sp)
   1e3f8:	4540                	lw	s0,12(a0)
   1e3fa:	4158                	lw	a4,4(a0)
   1e3fc:	4114                	lw	a3,0(a0)
   1e3fe:	c43e                	sw	a5,8(sp)
   1e400:	cc3e                	sw	a5,24(sp)
   1e402:	01041793          	slli	a5,s0,0x10
   1e406:	c23a                	sw	a4,4(sp)
   1e408:	ca3a                	sw	a4,20(sp)
   1e40a:	83c1                	srli	a5,a5,0x10
   1e40c:	00141713          	slli	a4,s0,0x1
   1e410:	c622                	sw	s0,12(sp)
   1e412:	d606                	sw	ra,44(sp)
   1e414:	d226                	sw	s1,36(sp)
   1e416:	c036                	sw	a3,0(sp)
   1e418:	c836                	sw	a3,16(sp)
   1e41a:	ce3e                	sw	a5,28(sp)
   1e41c:	8345                	srli	a4,a4,0x11
   1e41e:	807d                	srli	s0,s0,0x1f
   1e420:	0808                	addi	a0,sp,16
   1e422:	0870                	addi	a2,sp,28
   1e424:	421c                	lw	a5,0(a2)
   1e426:	ffc62683          	lw	a3,-4(a2)
   1e42a:	1671                	addi	a2,a2,-4
   1e42c:	078e                	slli	a5,a5,0x3
   1e42e:	82f5                	srli	a3,a3,0x1d
   1e430:	8fd5                	or	a5,a5,a3
   1e432:	c25c                	sw	a5,4(a2)
   1e434:	fec518e3          	bne	a0,a2,1e424 <__trunctfdf2+0x32>
   1e438:	46c2                	lw	a3,16(sp)
   1e43a:	00170793          	addi	a5,a4,1
   1e43e:	00369593          	slli	a1,a3,0x3
   1e442:	66a1                	lui	a3,0x8
   1e444:	16f9                	addi	a3,a3,-2
   1e446:	c82e                	sw	a1,16(sp)
   1e448:	8ff5                	and	a5,a5,a3
   1e44a:	12078f63          	beqz	a5,1e588 <__trunctfdf2+0x196>
   1e44e:	77f1                	lui	a5,0xffffc
   1e450:	40078793          	addi	a5,a5,1024 # ffffc400 <__BSS_END__+0xfffdb4d8>
   1e454:	973e                	add	a4,a4,a5
   1e456:	7fe00793          	li	a5,2046
   1e45a:	16e7c363          	blt	a5,a4,1e5c0 <__trunctfdf2+0x1ce>
   1e45e:	04e05663          	blez	a4,1e4aa <__trunctfdf2+0xb8>
   1e462:	4562                	lw	a0,24(sp)
   1e464:	4672                	lw	a2,28(sp)
   1e466:	47d2                	lw	a5,20(sp)
   1e468:	01c55693          	srli	a3,a0,0x1c
   1e46c:	0612                	slli	a2,a2,0x4
   1e46e:	8e55                	or	a2,a2,a3
   1e470:	00479693          	slli	a3,a5,0x4
   1e474:	8ecd                	or	a3,a3,a1
   1e476:	83f1                	srli	a5,a5,0x1c
   1e478:	0512                	slli	a0,a0,0x4
   1e47a:	00d036b3          	snez	a3,a3
   1e47e:	8fc9                	or	a5,a5,a0
   1e480:	8edd                	or	a3,a3,a5
   1e482:	ca32                	sw	a2,20(sp)
   1e484:	c836                	sw	a3,16(sp)
   1e486:	46c2                	lw	a3,16(sp)
   1e488:	47d2                	lw	a5,20(sp)
   1e48a:	0076f613          	andi	a2,a3,7
   1e48e:	12060d63          	beqz	a2,1e5c8 <__trunctfdf2+0x1d6>
   1e492:	00f6f613          	andi	a2,a3,15
   1e496:	4591                	li	a1,4
   1e498:	12b60863          	beq	a2,a1,1e5c8 <__trunctfdf2+0x1d6>
   1e49c:	00468613          	addi	a2,a3,4 # 8004 <register_fini-0x8070>
   1e4a0:	00d636b3          	sltu	a3,a2,a3
   1e4a4:	97b6                	add	a5,a5,a3
   1e4a6:	86b2                	mv	a3,a2
   1e4a8:	a205                	j	1e5c8 <__trunctfdf2+0x1d6>
   1e4aa:	fcc00793          	li	a5,-52
   1e4ae:	00f75763          	bge	a4,a5,1e4bc <__trunctfdf2+0xca>
   1e4b2:	ca02                	sw	zero,20(sp)
   1e4b4:	4785                	li	a5,1
   1e4b6:	c83e                	sw	a5,16(sp)
   1e4b8:	4701                	li	a4,0
   1e4ba:	b7f1                	j	1e486 <__trunctfdf2+0x94>
   1e4bc:	47f2                	lw	a5,28(sp)
   1e4be:	000808b7          	lui	a7,0x80
   1e4c2:	85aa                	mv	a1,a0
   1e4c4:	00f8e8b3          	or	a7,a7,a5
   1e4c8:	03d00793          	li	a5,61
   1e4cc:	40e78733          	sub	a4,a5,a4
   1e4d0:	ce46                	sw	a7,28(sp)
   1e4d2:	40575793          	srai	a5,a4,0x5
   1e4d6:	4681                	li	a3,0
   1e4d8:	4481                	li	s1,0
   1e4da:	0005a803          	lw	a6,0(a1)
   1e4de:	0685                	addi	a3,a3,1
   1e4e0:	0591                	addi	a1,a1,4
   1e4e2:	0104e4b3          	or	s1,s1,a6
   1e4e6:	fed79ae3          	bne	a5,a3,1e4da <__trunctfdf2+0xe8>
   1e4ea:	8b7d                	andi	a4,a4,31
   1e4ec:	00279693          	slli	a3,a5,0x2
   1e4f0:	e30d                	bnez	a4,1e512 <__trunctfdf2+0x120>
   1e4f2:	458d                	li	a1,3
   1e4f4:	8d9d                	sub	a1,a1,a5
   1e4f6:	00d60833          	add	a6,a2,a3
   1e4fa:	00082803          	lw	a6,0(a6)
   1e4fe:	0705                	addi	a4,a4,1
   1e500:	01062023          	sw	a6,0(a2)
   1e504:	0611                	addi	a2,a2,4
   1e506:	fee5d8e3          	bge	a1,a4,1e4f6 <__trunctfdf2+0x104>
   1e50a:	4711                	li	a4,4
   1e50c:	40f707b3          	sub	a5,a4,a5
   1e510:	a83d                	j	1e54e <__trunctfdf2+0x15c>
   1e512:	5e71                	li	t3,-4
   1e514:	03c78e33          	mul	t3,a5,t3
   1e518:	1010                	addi	a2,sp,32
   1e51a:	9636                	add	a2,a2,a3
   1e51c:	ff062603          	lw	a2,-16(a2)
   1e520:	02000813          	li	a6,32
   1e524:	40e80833          	sub	a6,a6,a4
   1e528:	01061633          	sll	a2,a2,a6
   1e52c:	8cd1                	or	s1,s1,a2
   1e52e:	460d                	li	a2,3
   1e530:	96aa                	add	a3,a3,a0
   1e532:	4301                	li	t1,0
   1e534:	8e1d                	sub	a2,a2,a5
   1e536:	02c34963          	blt	t1,a2,1e568 <__trunctfdf2+0x176>
   1e53a:	4691                	li	a3,4
   1e53c:	40f687b3          	sub	a5,a3,a5
   1e540:	060a                	slli	a2,a2,0x2
   1e542:	1014                	addi	a3,sp,32
   1e544:	9636                	add	a2,a2,a3
   1e546:	00e8d733          	srl	a4,a7,a4
   1e54a:	fee62823          	sw	a4,-16(a2)
   1e54e:	4611                	li	a2,4
   1e550:	8e1d                	sub	a2,a2,a5
   1e552:	078a                	slli	a5,a5,0x2
   1e554:	953e                	add	a0,a0,a5
   1e556:	060a                	slli	a2,a2,0x2
   1e558:	4581                	li	a1,0
   1e55a:	d91f10ef          	jal	ra,102ea <memset>
   1e55e:	4742                	lw	a4,16(sp)
   1e560:	009037b3          	snez	a5,s1
   1e564:	8fd9                	or	a5,a5,a4
   1e566:	bf81                	j	1e4b6 <__trunctfdf2+0xc4>
   1e568:	428c                	lw	a1,0(a3)
   1e56a:	0046ae83          	lw	t4,4(a3)
   1e56e:	01c68f33          	add	t5,a3,t3
   1e572:	00e5d5b3          	srl	a1,a1,a4
   1e576:	010e9eb3          	sll	t4,t4,a6
   1e57a:	01d5e5b3          	or	a1,a1,t4
   1e57e:	00bf2023          	sw	a1,0(t5)
   1e582:	0305                	addi	t1,t1,1
   1e584:	0691                	addi	a3,a3,4
   1e586:	bf45                	j	1e536 <__trunctfdf2+0x144>
   1e588:	4652                	lw	a2,20(sp)
   1e58a:	47e2                	lw	a5,24(sp)
   1e58c:	4572                	lw	a0,28(sp)
   1e58e:	00f666b3          	or	a3,a2,a5
   1e592:	8ec9                	or	a3,a3,a0
   1e594:	8ecd                	or	a3,a3,a1
   1e596:	e709                	bnez	a4,1e5a0 <__trunctfdf2+0x1ae>
   1e598:	00d036b3          	snez	a3,a3
   1e59c:	4781                	li	a5,0
   1e59e:	b5f5                	j	1e48a <__trunctfdf2+0x98>
   1e5a0:	c2d1                	beqz	a3,1e624 <__trunctfdf2+0x232>
   1e5a2:	01c65693          	srli	a3,a2,0x1c
   1e5a6:	0512                	slli	a0,a0,0x4
   1e5a8:	00479613          	slli	a2,a5,0x4
   1e5ac:	83f1                	srli	a5,a5,0x1c
   1e5ae:	00400737          	lui	a4,0x400
   1e5b2:	8ed1                	or	a3,a3,a2
   1e5b4:	8fc9                	or	a5,a5,a0
   1e5b6:	8fd9                	or	a5,a5,a4
   1e5b8:	9ae1                	andi	a3,a3,-8
   1e5ba:	7ff00713          	li	a4,2047
   1e5be:	b5f1                	j	1e48a <__trunctfdf2+0x98>
   1e5c0:	4781                	li	a5,0
   1e5c2:	4681                	li	a3,0
   1e5c4:	7ff00713          	li	a4,2047
   1e5c8:	00800637          	lui	a2,0x800
   1e5cc:	8e7d                	and	a2,a2,a5
   1e5ce:	ca11                	beqz	a2,1e5e2 <__trunctfdf2+0x1f0>
   1e5d0:	0705                	addi	a4,a4,1
   1e5d2:	7ff00613          	li	a2,2047
   1e5d6:	04c70963          	beq	a4,a2,1e628 <__trunctfdf2+0x236>
   1e5da:	ff800637          	lui	a2,0xff800
   1e5de:	167d                	addi	a2,a2,-1
   1e5e0:	8ff1                	and	a5,a5,a2
   1e5e2:	01d79613          	slli	a2,a5,0x1d
   1e5e6:	828d                	srli	a3,a3,0x3
   1e5e8:	8ed1                	or	a3,a3,a2
   1e5ea:	7ff00613          	li	a2,2047
   1e5ee:	838d                	srli	a5,a5,0x3
   1e5f0:	00c71963          	bne	a4,a2,1e602 <__trunctfdf2+0x210>
   1e5f4:	8edd                	or	a3,a3,a5
   1e5f6:	4781                	li	a5,0
   1e5f8:	c689                	beqz	a3,1e602 <__trunctfdf2+0x210>
   1e5fa:	000807b7          	lui	a5,0x80
   1e5fe:	4681                	li	a3,0
   1e600:	4401                	li	s0,0
   1e602:	0752                	slli	a4,a4,0x14
   1e604:	7ff00637          	lui	a2,0x7ff00
   1e608:	07b2                	slli	a5,a5,0xc
   1e60a:	8f71                	and	a4,a4,a2
   1e60c:	83b1                	srli	a5,a5,0xc
   1e60e:	047e                	slli	s0,s0,0x1f
   1e610:	8fd9                	or	a5,a5,a4
   1e612:	50b2                	lw	ra,44(sp)
   1e614:	0087e733          	or	a4,a5,s0
   1e618:	5422                	lw	s0,40(sp)
   1e61a:	5492                	lw	s1,36(sp)
   1e61c:	8536                	mv	a0,a3
   1e61e:	85ba                	mv	a1,a4
   1e620:	6145                	addi	sp,sp,48
   1e622:	8082                	ret
   1e624:	4781                	li	a5,0
   1e626:	bf79                	j	1e5c4 <__trunctfdf2+0x1d2>
   1e628:	4781                	li	a5,0
   1e62a:	4681                	li	a3,0
   1e62c:	bf5d                	j	1e5e2 <__trunctfdf2+0x1f0>

0001e62e <__clzsi2>:
   1e62e:	67c1                	lui	a5,0x10
   1e630:	02f57663          	bgeu	a0,a5,1e65c <__clzsi2+0x2e>
   1e634:	0ff00793          	li	a5,255
   1e638:	00a7b7b3          	sltu	a5,a5,a0
   1e63c:	078e                	slli	a5,a5,0x3
   1e63e:	0001f737          	lui	a4,0x1f
   1e642:	02000693          	li	a3,32
   1e646:	8e9d                	sub	a3,a3,a5
   1e648:	00f55533          	srl	a0,a0,a5
   1e64c:	3b470793          	addi	a5,a4,948 # 1f3b4 <__clz_tab>
   1e650:	953e                	add	a0,a0,a5
   1e652:	00054503          	lbu	a0,0(a0)
   1e656:	40a68533          	sub	a0,a3,a0
   1e65a:	8082                	ret
   1e65c:	01000737          	lui	a4,0x1000
   1e660:	47c1                	li	a5,16
   1e662:	fce56ee3          	bltu	a0,a4,1e63e <__clzsi2+0x10>
   1e666:	47e1                	li	a5,24
   1e668:	bfd9                	j	1e63e <__clzsi2+0x10>
