
bubble_32:     file format elf32-littleriscv


Disassembly of section .text:

00010074 <register_fini>:
   10074:	00000793          	li	a5,0
   10078:	c791                	beqz	a5,10084 <register_fini+0x10>
   1007a:	654d                	lui	a0,0x13
   1007c:	a5c50513          	addi	a0,a0,-1444 # 12a5c <__libc_fini_array>
   10080:	3730906f          	j	19bf2 <atexit>
   10084:	8082                	ret

00010086 <_start>:
   10086:	00011197          	auipc	gp,0x11
   1008a:	c7a18193          	addi	gp,gp,-902 # 20d00 <__global_pointer$>
   1008e:	1cc18513          	addi	a0,gp,460 # 20ecc <_PathLocale>
   10092:	22818613          	addi	a2,gp,552 # 20f28 <__BSS_END__>
   10096:	8e09                	sub	a2,a2,a0
   10098:	4581                	li	a1,0
   1009a:	2c81                	jal	102ea <memset>
   1009c:	0000a517          	auipc	a0,0xa
   100a0:	b5650513          	addi	a0,a0,-1194 # 19bf2 <atexit>
   100a4:	c519                	beqz	a0,100b2 <_start+0x2c>
   100a6:	00003517          	auipc	a0,0x3
   100aa:	9b650513          	addi	a0,a0,-1610 # 12a5c <__libc_fini_array>
   100ae:	345090ef          	jal	ra,19bf2 <atexit>
   100b2:	22d9                	jal	10278 <__libc_init_array>
   100b4:	4502                	lw	a0,0(sp)
   100b6:	004c                	addi	a1,sp,4
   100b8:	4601                	li	a2,0
   100ba:	2891                	jal	1010e <main>
   100bc:	aa79                	j	1025a <exit>

000100be <__do_global_dtors_aux>:
   100be:	1e41c703          	lbu	a4,484(gp) # 20ee4 <completed.1>
   100c2:	e71d                	bnez	a4,100f0 <__do_global_dtors_aux+0x32>
   100c4:	1141                	addi	sp,sp,-16
   100c6:	c422                	sw	s0,8(sp)
   100c8:	843e                	mv	s0,a5
   100ca:	c606                	sw	ra,12(sp)
   100cc:	00000793          	li	a5,0
   100d0:	cb89                	beqz	a5,100e2 <__do_global_dtors_aux+0x24>
   100d2:	00020537          	lui	a0,0x20
   100d6:	4b450513          	addi	a0,a0,1204 # 204b4 <__EH_FRAME_BEGIN__>
   100da:	00000097          	auipc	ra,0x0
   100de:	000000e7          	jalr	zero # 0 <register_fini-0x10074>
   100e2:	4785                	li	a5,1
   100e4:	40b2                	lw	ra,12(sp)
   100e6:	1ef18223          	sb	a5,484(gp) # 20ee4 <completed.1>
   100ea:	4422                	lw	s0,8(sp)
   100ec:	0141                	addi	sp,sp,16
   100ee:	8082                	ret
   100f0:	8082                	ret

000100f2 <frame_dummy>:
   100f2:	00000793          	li	a5,0
   100f6:	cb99                	beqz	a5,1010c <frame_dummy+0x1a>
   100f8:	00020537          	lui	a0,0x20
   100fc:	1e818593          	addi	a1,gp,488 # 20ee8 <object.0>
   10100:	4b450513          	addi	a0,a0,1204 # 204b4 <__EH_FRAME_BEGIN__>
   10104:	00000317          	auipc	t1,0x0
   10108:	00000067          	jr	zero # 0 <register_fini-0x10074>
   1010c:	8082                	ret

0001010e <main>:
   1010e:	715d                	addi	sp,sp,-80
   10110:	c686                	sw	ra,76(sp)
   10112:	c4a2                	sw	s0,72(sp)
   10114:	0880                	addi	s0,sp,80
   10116:	67f9                	lui	a5,0x1e
   10118:	69478793          	addi	a5,a5,1684 # 1e694 <__clzsi2+0x66>
   1011c:	0007ae03          	lw	t3,0(a5)
   10120:	0047a303          	lw	t1,4(a5)
   10124:	0087a883          	lw	a7,8(a5)
   10128:	00c7a803          	lw	a6,12(a5)
   1012c:	4b88                	lw	a0,16(a5)
   1012e:	4bcc                	lw	a1,20(a5)
   10130:	4f90                	lw	a2,24(a5)
   10132:	4fd4                	lw	a3,28(a5)
   10134:	5398                	lw	a4,32(a5)
   10136:	53dc                	lw	a5,36(a5)
   10138:	fbc42e23          	sw	t3,-68(s0)
   1013c:	fc642023          	sw	t1,-64(s0)
   10140:	fd142223          	sw	a7,-60(s0)
   10144:	fd042423          	sw	a6,-56(s0)
   10148:	fca42623          	sw	a0,-52(s0)
   1014c:	fcb42823          	sw	a1,-48(s0)
   10150:	fcc42a23          	sw	a2,-44(s0)
   10154:	fcd42c23          	sw	a3,-40(s0)
   10158:	fce42e23          	sw	a4,-36(s0)
   1015c:	fef42023          	sw	a5,-32(s0)
   10160:	4785                	li	a5,1
   10162:	fef42623          	sw	a5,-20(s0)
   10166:	a045                	j	10206 <main+0xf8>
   10168:	fe042423          	sw	zero,-24(s0)
   1016c:	a8bd                	j	101ea <main+0xdc>
   1016e:	fe842783          	lw	a5,-24(s0)
   10172:	078a                	slli	a5,a5,0x2
   10174:	ff040713          	addi	a4,s0,-16
   10178:	97ba                	add	a5,a5,a4
   1017a:	fcc7a703          	lw	a4,-52(a5)
   1017e:	fe842783          	lw	a5,-24(s0)
   10182:	0785                	addi	a5,a5,1
   10184:	078a                	slli	a5,a5,0x2
   10186:	ff040693          	addi	a3,s0,-16
   1018a:	97b6                	add	a5,a5,a3
   1018c:	fcc7a783          	lw	a5,-52(a5)
   10190:	04e7d863          	bge	a5,a4,101e0 <main+0xd2>
   10194:	fe842783          	lw	a5,-24(s0)
   10198:	078a                	slli	a5,a5,0x2
   1019a:	ff040713          	addi	a4,s0,-16
   1019e:	97ba                	add	a5,a5,a4
   101a0:	fcc7a783          	lw	a5,-52(a5)
   101a4:	fef42223          	sw	a5,-28(s0)
   101a8:	fe842783          	lw	a5,-24(s0)
   101ac:	0785                	addi	a5,a5,1
   101ae:	078a                	slli	a5,a5,0x2
   101b0:	ff040713          	addi	a4,s0,-16
   101b4:	97ba                	add	a5,a5,a4
   101b6:	fcc7a703          	lw	a4,-52(a5)
   101ba:	fe842783          	lw	a5,-24(s0)
   101be:	078a                	slli	a5,a5,0x2
   101c0:	ff040693          	addi	a3,s0,-16
   101c4:	97b6                	add	a5,a5,a3
   101c6:	fce7a623          	sw	a4,-52(a5)
   101ca:	fe842783          	lw	a5,-24(s0)
   101ce:	0785                	addi	a5,a5,1
   101d0:	078a                	slli	a5,a5,0x2
   101d2:	ff040713          	addi	a4,s0,-16
   101d6:	97ba                	add	a5,a5,a4
   101d8:	fe442703          	lw	a4,-28(s0)
   101dc:	fce7a623          	sw	a4,-52(a5)
   101e0:	fe842783          	lw	a5,-24(s0)
   101e4:	0785                	addi	a5,a5,1
   101e6:	fef42423          	sw	a5,-24(s0)
   101ea:	4725                	li	a4,9
   101ec:	fec42783          	lw	a5,-20(s0)
   101f0:	40f707b3          	sub	a5,a4,a5
   101f4:	fe842703          	lw	a4,-24(s0)
   101f8:	f6e7dbe3          	bge	a5,a4,1016e <main+0x60>
   101fc:	fec42783          	lw	a5,-20(s0)
   10200:	0785                	addi	a5,a5,1
   10202:	fef42623          	sw	a5,-20(s0)
   10206:	fec42703          	lw	a4,-20(s0)
   1020a:	47a5                	li	a5,9
   1020c:	f4e7dee3          	bge	a5,a4,10168 <main+0x5a>
   10210:	67f9                	lui	a5,0x1e
   10212:	67078513          	addi	a0,a5,1648 # 1e670 <__clzsi2+0x42>
   10216:	2e29                	jal	10530 <puts>
   10218:	fe042623          	sw	zero,-20(s0)
   1021c:	a01d                	j	10242 <main+0x134>
   1021e:	fec42783          	lw	a5,-20(s0)
   10222:	078a                	slli	a5,a5,0x2
   10224:	ff040713          	addi	a4,s0,-16
   10228:	97ba                	add	a5,a5,a4
   1022a:	fcc7a783          	lw	a5,-52(a5)
   1022e:	85be                	mv	a1,a5
   10230:	67f9                	lui	a5,0x1e
   10232:	68c78513          	addi	a0,a5,1676 # 1e68c <__clzsi2+0x5e>
   10236:	2ab5                	jal	103b2 <printf>
   10238:	fec42783          	lw	a5,-20(s0)
   1023c:	0785                	addi	a5,a5,1
   1023e:	fef42623          	sw	a5,-20(s0)
   10242:	fec42703          	lw	a4,-20(s0)
   10246:	47a5                	li	a5,9
   10248:	fce7dbe3          	bge	a5,a4,1021e <main+0x110>
   1024c:	4529                	li	a0,10
   1024e:	2a49                	jal	103e0 <putchar>
   10250:	0001                	nop
   10252:	40b6                	lw	ra,76(sp)
   10254:	4426                	lw	s0,72(sp)
   10256:	6161                	addi	sp,sp,80
   10258:	8082                	ret

0001025a <exit>:
   1025a:	1141                	addi	sp,sp,-16
   1025c:	4581                	li	a1,0
   1025e:	c422                	sw	s0,8(sp)
   10260:	c606                	sw	ra,12(sp)
   10262:	842a                	mv	s0,a0
   10264:	296020ef          	jal	ra,124fa <__call_exitprocs>
   10268:	1b81a503          	lw	a0,440(gp) # 20eb8 <_global_impure_ptr>
   1026c:	5d5c                	lw	a5,60(a0)
   1026e:	c391                	beqz	a5,10272 <exit+0x18>
   10270:	9782                	jalr	a5
   10272:	8522                	mv	a0,s0
   10274:	0a00b0ef          	jal	ra,1b314 <_exit>

00010278 <__libc_init_array>:
   10278:	1141                	addi	sp,sp,-16
   1027a:	c422                	sw	s0,8(sp)
   1027c:	c04a                	sw	s2,0(sp)
   1027e:	00020437          	lui	s0,0x20
   10282:	00020937          	lui	s2,0x20
   10286:	4f440793          	addi	a5,s0,1268 # 204f4 <__init_array_start>
   1028a:	4f490913          	addi	s2,s2,1268 # 204f4 <__init_array_start>
   1028e:	40f90933          	sub	s2,s2,a5
   10292:	c606                	sw	ra,12(sp)
   10294:	c226                	sw	s1,4(sp)
   10296:	40295913          	srai	s2,s2,0x2
   1029a:	00090b63          	beqz	s2,102b0 <__libc_init_array+0x38>
   1029e:	4f440413          	addi	s0,s0,1268
   102a2:	4481                	li	s1,0
   102a4:	401c                	lw	a5,0(s0)
   102a6:	0485                	addi	s1,s1,1
   102a8:	0411                	addi	s0,s0,4
   102aa:	9782                	jalr	a5
   102ac:	fe991ce3          	bne	s2,s1,102a4 <__libc_init_array+0x2c>
   102b0:	00020437          	lui	s0,0x20
   102b4:	00020937          	lui	s2,0x20
   102b8:	4f440793          	addi	a5,s0,1268 # 204f4 <__init_array_start>
   102bc:	4fc90913          	addi	s2,s2,1276 # 204fc <__do_global_dtors_aux_fini_array_entry>
   102c0:	40f90933          	sub	s2,s2,a5
   102c4:	40295913          	srai	s2,s2,0x2
   102c8:	00090b63          	beqz	s2,102de <__libc_init_array+0x66>
   102cc:	4f440413          	addi	s0,s0,1268
   102d0:	4481                	li	s1,0
   102d2:	401c                	lw	a5,0(s0)
   102d4:	0485                	addi	s1,s1,1
   102d6:	0411                	addi	s0,s0,4
   102d8:	9782                	jalr	a5
   102da:	fe991ce3          	bne	s2,s1,102d2 <__libc_init_array+0x5a>
   102de:	40b2                	lw	ra,12(sp)
   102e0:	4422                	lw	s0,8(sp)
   102e2:	4492                	lw	s1,4(sp)
   102e4:	4902                	lw	s2,0(sp)
   102e6:	0141                	addi	sp,sp,16
   102e8:	8082                	ret

000102ea <memset>:
   102ea:	433d                	li	t1,15
   102ec:	872a                	mv	a4,a0
   102ee:	02c37363          	bgeu	t1,a2,10314 <memset+0x2a>
   102f2:	00f77793          	andi	a5,a4,15
   102f6:	efbd                	bnez	a5,10374 <memset+0x8a>
   102f8:	e5ad                	bnez	a1,10362 <memset+0x78>
   102fa:	ff067693          	andi	a3,a2,-16
   102fe:	8a3d                	andi	a2,a2,15
   10300:	96ba                	add	a3,a3,a4
   10302:	c30c                	sw	a1,0(a4)
   10304:	c34c                	sw	a1,4(a4)
   10306:	c70c                	sw	a1,8(a4)
   10308:	c74c                	sw	a1,12(a4)
   1030a:	0741                	addi	a4,a4,16
   1030c:	fed76be3          	bltu	a4,a3,10302 <memset+0x18>
   10310:	e211                	bnez	a2,10314 <memset+0x2a>
   10312:	8082                	ret
   10314:	40c306b3          	sub	a3,t1,a2
   10318:	068a                	slli	a3,a3,0x2
   1031a:	00000297          	auipc	t0,0x0
   1031e:	9696                	add	a3,a3,t0
   10320:	00a68067          	jr	10(a3)
   10324:	00b70723          	sb	a1,14(a4)
   10328:	00b706a3          	sb	a1,13(a4)
   1032c:	00b70623          	sb	a1,12(a4)
   10330:	00b705a3          	sb	a1,11(a4)
   10334:	00b70523          	sb	a1,10(a4)
   10338:	00b704a3          	sb	a1,9(a4)
   1033c:	00b70423          	sb	a1,8(a4)
   10340:	00b703a3          	sb	a1,7(a4)
   10344:	00b70323          	sb	a1,6(a4)
   10348:	00b702a3          	sb	a1,5(a4)
   1034c:	00b70223          	sb	a1,4(a4)
   10350:	00b701a3          	sb	a1,3(a4)
   10354:	00b70123          	sb	a1,2(a4)
   10358:	00b700a3          	sb	a1,1(a4)
   1035c:	00b70023          	sb	a1,0(a4)
   10360:	8082                	ret
   10362:	0ff5f593          	andi	a1,a1,255
   10366:	00859693          	slli	a3,a1,0x8
   1036a:	8dd5                	or	a1,a1,a3
   1036c:	01059693          	slli	a3,a1,0x10
   10370:	8dd5                	or	a1,a1,a3
   10372:	b761                	j	102fa <memset+0x10>
   10374:	00279693          	slli	a3,a5,0x2
   10378:	00000297          	auipc	t0,0x0
   1037c:	9696                	add	a3,a3,t0
   1037e:	8286                	mv	t0,ra
   10380:	fa8680e7          	jalr	-88(a3)
   10384:	8096                	mv	ra,t0
   10386:	17c1                	addi	a5,a5,-16
   10388:	8f1d                	sub	a4,a4,a5
   1038a:	963e                	add	a2,a2,a5
   1038c:	f8c374e3          	bgeu	t1,a2,10314 <memset+0x2a>
   10390:	b7a5                	j	102f8 <memset+0xe>

00010392 <_printf_r>:
   10392:	7139                	addi	sp,sp,-64
   10394:	d432                	sw	a2,40(sp)
   10396:	d636                	sw	a3,44(sp)
   10398:	d83a                	sw	a4,48(sp)
   1039a:	da3e                	sw	a5,52(sp)
   1039c:	dc42                	sw	a6,56(sp)
   1039e:	de46                	sw	a7,60(sp)
   103a0:	862e                	mv	a2,a1
   103a2:	450c                	lw	a1,8(a0)
   103a4:	1034                	addi	a3,sp,40
   103a6:	ce06                	sw	ra,28(sp)
   103a8:	c636                	sw	a3,12(sp)
   103aa:	2ac5                	jal	1059a <_vfprintf_r>
   103ac:	40f2                	lw	ra,28(sp)
   103ae:	6121                	addi	sp,sp,64
   103b0:	8082                	ret

000103b2 <printf>:
   103b2:	1c01a303          	lw	t1,448(gp) # 20ec0 <_impure_ptr>
   103b6:	7139                	addi	sp,sp,-64
   103b8:	d432                	sw	a2,40(sp)
   103ba:	d636                	sw	a3,44(sp)
   103bc:	d22e                	sw	a1,36(sp)
   103be:	d83a                	sw	a4,48(sp)
   103c0:	da3e                	sw	a5,52(sp)
   103c2:	dc42                	sw	a6,56(sp)
   103c4:	de46                	sw	a7,60(sp)
   103c6:	00832583          	lw	a1,8(t1) # 1010c <frame_dummy+0x1a>
   103ca:	1054                	addi	a3,sp,36
   103cc:	862a                	mv	a2,a0
   103ce:	851a                	mv	a0,t1
   103d0:	ce06                	sw	ra,28(sp)
   103d2:	c636                	sw	a3,12(sp)
   103d4:	22d9                	jal	1059a <_vfprintf_r>
   103d6:	40f2                	lw	ra,28(sp)
   103d8:	6121                	addi	sp,sp,64
   103da:	8082                	ret

000103dc <_putchar_r>:
   103dc:	4510                	lw	a2,8(a0)
   103de:	a039                	j	103ec <_putc_r>

000103e0 <putchar>:
   103e0:	1c01a783          	lw	a5,448(gp) # 20ec0 <_impure_ptr>
   103e4:	85aa                	mv	a1,a0
   103e6:	4790                	lw	a2,8(a5)
   103e8:	853e                	mv	a0,a5
   103ea:	a009                	j	103ec <_putc_r>

000103ec <_putc_r>:
   103ec:	1101                	addi	sp,sp,-32
   103ee:	cc4a                	sw	s2,24(sp)
   103f0:	ce06                	sw	ra,28(sp)
   103f2:	892a                	mv	s2,a0
   103f4:	c119                	beqz	a0,103fa <_putc_r+0xe>
   103f6:	5d1c                	lw	a5,56(a0)
   103f8:	cb95                	beqz	a5,1042c <_putc_r+0x40>
   103fa:	461c                	lw	a5,8(a2)
   103fc:	17fd                	addi	a5,a5,-1
   103fe:	c61c                	sw	a5,8(a2)
   10400:	0007da63          	bgez	a5,10414 <_putc_r+0x28>
   10404:	4e18                	lw	a4,24(a2)
   10406:	02e7ca63          	blt	a5,a4,1043a <_putc_r+0x4e>
   1040a:	0ff5f793          	andi	a5,a1,255
   1040e:	4729                	li	a4,10
   10410:	02e78563          	beq	a5,a4,1043a <_putc_r+0x4e>
   10414:	421c                	lw	a5,0(a2)
   10416:	0ff5f513          	andi	a0,a1,255
   1041a:	00178713          	addi	a4,a5,1
   1041e:	c218                	sw	a4,0(a2)
   10420:	00b78023          	sb	a1,0(a5)
   10424:	40f2                	lw	ra,28(sp)
   10426:	4962                	lw	s2,24(sp)
   10428:	6105                	addi	sp,sp,32
   1042a:	8082                	ret
   1042c:	c632                	sw	a2,12(sp)
   1042e:	c42e                	sw	a1,8(sp)
   10430:	604020ef          	jal	ra,12a34 <__sinit>
   10434:	4632                	lw	a2,12(sp)
   10436:	45a2                	lw	a1,8(sp)
   10438:	b7c9                	j	103fa <_putc_r+0xe>
   1043a:	40f2                	lw	ra,28(sp)
   1043c:	854a                	mv	a0,s2
   1043e:	4962                	lw	s2,24(sp)
   10440:	6105                	addi	sp,sp,32
   10442:	6c90106f          	j	1230a <__swbuf_r>

00010446 <putc>:
   10446:	1141                	addi	sp,sp,-16
   10448:	c04a                	sw	s2,0(sp)
   1044a:	1c01a903          	lw	s2,448(gp) # 20ec0 <_impure_ptr>
   1044e:	c422                	sw	s0,8(sp)
   10450:	c226                	sw	s1,4(sp)
   10452:	c606                	sw	ra,12(sp)
   10454:	84aa                	mv	s1,a0
   10456:	842e                	mv	s0,a1
   10458:	00090563          	beqz	s2,10462 <putc+0x1c>
   1045c:	03892783          	lw	a5,56(s2)
   10460:	cf85                	beqz	a5,10498 <putc+0x52>
   10462:	441c                	lw	a5,8(s0)
   10464:	17fd                	addi	a5,a5,-1
   10466:	c41c                	sw	a5,8(s0)
   10468:	0007da63          	bgez	a5,1047c <putc+0x36>
   1046c:	4c18                	lw	a4,24(s0)
   1046e:	02e7c963          	blt	a5,a4,104a0 <putc+0x5a>
   10472:	0ff4f793          	andi	a5,s1,255
   10476:	4729                	li	a4,10
   10478:	02e78463          	beq	a5,a4,104a0 <putc+0x5a>
   1047c:	401c                	lw	a5,0(s0)
   1047e:	0ff4f513          	andi	a0,s1,255
   10482:	00178713          	addi	a4,a5,1
   10486:	c018                	sw	a4,0(s0)
   10488:	00978023          	sb	s1,0(a5)
   1048c:	40b2                	lw	ra,12(sp)
   1048e:	4422                	lw	s0,8(sp)
   10490:	4492                	lw	s1,4(sp)
   10492:	4902                	lw	s2,0(sp)
   10494:	0141                	addi	sp,sp,16
   10496:	8082                	ret
   10498:	854a                	mv	a0,s2
   1049a:	59a020ef          	jal	ra,12a34 <__sinit>
   1049e:	b7d1                	j	10462 <putc+0x1c>
   104a0:	8622                	mv	a2,s0
   104a2:	4422                	lw	s0,8(sp)
   104a4:	40b2                	lw	ra,12(sp)
   104a6:	85a6                	mv	a1,s1
   104a8:	854a                	mv	a0,s2
   104aa:	4492                	lw	s1,4(sp)
   104ac:	4902                	lw	s2,0(sp)
   104ae:	0141                	addi	sp,sp,16
   104b0:	65b0106f          	j	1230a <__swbuf_r>

000104b4 <_puts_r>:
   104b4:	7139                	addi	sp,sp,-64
   104b6:	dc22                	sw	s0,56(sp)
   104b8:	842a                	mv	s0,a0
   104ba:	852e                	mv	a0,a1
   104bc:	da26                	sw	s1,52(sp)
   104be:	de06                	sw	ra,60(sp)
   104c0:	84ae                	mv	s1,a1
   104c2:	289d                	jal	10538 <strlen>
   104c4:	67f9                	lui	a5,0x1e
   104c6:	6bc78793          	addi	a5,a5,1724 # 1e6bc <__clzsi2+0x8e>
   104ca:	d43e                	sw	a5,40(sp)
   104cc:	4785                	li	a5,1
   104ce:	d63e                	sw	a5,44(sp)
   104d0:	5c18                	lw	a4,56(s0)
   104d2:	101c                	addi	a5,sp,32
   104d4:	00150693          	addi	a3,a0,1
   104d8:	ca3e                	sw	a5,20(sp)
   104da:	4789                	li	a5,2
   104dc:	d026                	sw	s1,32(sp)
   104de:	d22a                	sw	a0,36(sp)
   104e0:	ce36                	sw	a3,28(sp)
   104e2:	cc3e                	sw	a5,24(sp)
   104e4:	440c                	lw	a1,8(s0)
   104e6:	cf1d                	beqz	a4,10524 <_puts_r+0x70>
   104e8:	00c59783          	lh	a5,12(a1)
   104ec:	01279713          	slli	a4,a5,0x12
   104f0:	00074b63          	bltz	a4,10506 <_puts_r+0x52>
   104f4:	51f8                	lw	a4,100(a1)
   104f6:	6689                	lui	a3,0x2
   104f8:	8fd5                	or	a5,a5,a3
   104fa:	76f9                	lui	a3,0xffffe
   104fc:	16fd                	addi	a3,a3,-1
   104fe:	8f75                	and	a4,a4,a3
   10500:	00f59623          	sh	a5,12(a1)
   10504:	d1f8                	sw	a4,100(a1)
   10506:	0850                	addi	a2,sp,20
   10508:	8522                	mv	a0,s0
   1050a:	081020ef          	jal	ra,12d8a <__sfvwrite_r>
   1050e:	50f2                	lw	ra,60(sp)
   10510:	5462                	lw	s0,56(sp)
   10512:	00a03533          	snez	a0,a0
   10516:	40a00533          	neg	a0,a0
   1051a:	54d2                	lw	s1,52(sp)
   1051c:	00a56513          	ori	a0,a0,10
   10520:	6121                	addi	sp,sp,64
   10522:	8082                	ret
   10524:	8522                	mv	a0,s0
   10526:	c62e                	sw	a1,12(sp)
   10528:	50c020ef          	jal	ra,12a34 <__sinit>
   1052c:	45b2                	lw	a1,12(sp)
   1052e:	bf6d                	j	104e8 <_puts_r+0x34>

00010530 <puts>:
   10530:	85aa                	mv	a1,a0
   10532:	1c01a503          	lw	a0,448(gp) # 20ec0 <_impure_ptr>
   10536:	bfbd                	j	104b4 <_puts_r>

00010538 <strlen>:
   10538:	00357793          	andi	a5,a0,3
   1053c:	872a                	mv	a4,a0
   1053e:	ef95                	bnez	a5,1057a <strlen+0x42>
   10540:	7f7f86b7          	lui	a3,0x7f7f8
   10544:	f7f68693          	addi	a3,a3,-129 # 7f7f7f7f <__BSS_END__+0x7f7d7057>
   10548:	55fd                	li	a1,-1
   1054a:	4310                	lw	a2,0(a4)
   1054c:	0711                	addi	a4,a4,4
   1054e:	00d677b3          	and	a5,a2,a3
   10552:	97b6                	add	a5,a5,a3
   10554:	8fd1                	or	a5,a5,a2
   10556:	8fd5                	or	a5,a5,a3
   10558:	feb789e3          	beq	a5,a1,1054a <strlen+0x12>
   1055c:	ffc74683          	lbu	a3,-4(a4)
   10560:	ffd74603          	lbu	a2,-3(a4)
   10564:	ffe74783          	lbu	a5,-2(a4)
   10568:	8f09                	sub	a4,a4,a0
   1056a:	c68d                	beqz	a3,10594 <strlen+0x5c>
   1056c:	c20d                	beqz	a2,1058e <strlen+0x56>
   1056e:	00f03533          	snez	a0,a5
   10572:	953a                	add	a0,a0,a4
   10574:	1579                	addi	a0,a0,-2
   10576:	8082                	ret
   10578:	d6e1                	beqz	a3,10540 <strlen+0x8>
   1057a:	00074783          	lbu	a5,0(a4)
   1057e:	0705                	addi	a4,a4,1
   10580:	00377693          	andi	a3,a4,3
   10584:	fbf5                	bnez	a5,10578 <strlen+0x40>
   10586:	8f09                	sub	a4,a4,a0
   10588:	fff70513          	addi	a0,a4,-1
   1058c:	8082                	ret
   1058e:	ffd70513          	addi	a0,a4,-3
   10592:	8082                	ret
   10594:	ffc70513          	addi	a0,a4,-4
   10598:	8082                	ret

0001059a <_vfprintf_r>:
   1059a:	7141                	addi	sp,sp,-496
   1059c:	1e112623          	sw	ra,492(sp)
   105a0:	1f212023          	sw	s2,480(sp)
   105a4:	1d812423          	sw	s8,456(sp)
   105a8:	1da12023          	sw	s10,448(sp)
   105ac:	8c2e                	mv	s8,a1
   105ae:	8932                	mv	s2,a2
   105b0:	ca36                	sw	a3,20(sp)
   105b2:	1e812423          	sw	s0,488(sp)
   105b6:	1e912223          	sw	s1,484(sp)
   105ba:	1d312e23          	sw	s3,476(sp)
   105be:	1d412c23          	sw	s4,472(sp)
   105c2:	1d512a23          	sw	s5,468(sp)
   105c6:	1d612823          	sw	s6,464(sp)
   105ca:	1d712623          	sw	s7,460(sp)
   105ce:	1d912223          	sw	s9,452(sp)
   105d2:	1bb12e23          	sw	s11,444(sp)
   105d6:	8d2a                	mv	s10,a0
   105d8:	3e9040ef          	jal	ra,151c0 <_localeconv_r>
   105dc:	411c                	lw	a5,0(a0)
   105de:	853e                	mv	a0,a5
   105e0:	d83e                	sw	a5,48(sp)
   105e2:	3f99                	jal	10538 <strlen>
   105e4:	d62a                	sw	a0,44(sp)
   105e6:	d982                	sw	zero,240(sp)
   105e8:	db82                	sw	zero,244(sp)
   105ea:	dd82                	sw	zero,248(sp)
   105ec:	df82                	sw	zero,252(sp)
   105ee:	000d0663          	beqz	s10,105fa <_vfprintf_r+0x60>
   105f2:	038d2783          	lw	a5,56(s10)
   105f6:	64078e63          	beqz	a5,10c52 <_vfprintf_r+0x6b8>
   105fa:	00cc1683          	lh	a3,12(s8)
   105fe:	6609                	lui	a2,0x2
   10600:	01069793          	slli	a5,a3,0x10
   10604:	83c1                	srli	a5,a5,0x10
   10606:	00c7f5b3          	and	a1,a5,a2
   1060a:	e185                	bnez	a1,1062a <_vfprintf_r+0x90>
   1060c:	064c2583          	lw	a1,100(s8)
   10610:	00c6e7b3          	or	a5,a3,a2
   10614:	07c2                	slli	a5,a5,0x10
   10616:	76f9                	lui	a3,0xffffe
   10618:	87c1                	srai	a5,a5,0x10
   1061a:	16fd                	addi	a3,a3,-1
   1061c:	8eed                	and	a3,a3,a1
   1061e:	00fc1623          	sh	a5,12(s8)
   10622:	07c2                	slli	a5,a5,0x10
   10624:	06dc2223          	sw	a3,100(s8)
   10628:	83c1                	srli	a5,a5,0x10
   1062a:	0087f693          	andi	a3,a5,8
   1062e:	22068263          	beqz	a3,10852 <_vfprintf_r+0x2b8>
   10632:	010c2683          	lw	a3,16(s8)
   10636:	20068e63          	beqz	a3,10852 <_vfprintf_r+0x2b8>
   1063a:	8be9                	andi	a5,a5,26
   1063c:	46a9                	li	a3,10
   1063e:	22d78763          	beq	a5,a3,1086c <_vfprintf_r+0x2d2>
   10642:	027c                	addi	a5,sp,268
   10644:	d3be                	sw	a5,228(sp)
   10646:	88be                	mv	a7,a5
   10648:	67f9                	lui	a5,0x1e
   1064a:	70478793          	addi	a5,a5,1796 # 1e704 <__clzsi2+0xd6>
   1064e:	cc3e                	sw	a5,24(sp)
   10650:	0001f7b7          	lui	a5,0x1f
   10654:	88078793          	addi	a5,a5,-1920 # 1e880 <zeroes.0>
   10658:	8b4a                	mv	s6,s2
   1065a:	c43e                	sw	a5,8(sp)
   1065c:	000b4783          	lbu	a5,0(s6)
   10660:	d782                	sw	zero,236(sp)
   10662:	d582                	sw	zero,232(sp)
   10664:	d002                	sw	zero,32(sp)
   10666:	da02                	sw	zero,52(sp)
   10668:	dc02                	sw	zero,56(sp)
   1066a:	de02                	sw	zero,60(sp)
   1066c:	c482                	sw	zero,72(sp)
   1066e:	c682                	sw	zero,76(sp)
   10670:	c602                	sw	zero,12(sp)
   10672:	18078863          	beqz	a5,10802 <_vfprintf_r+0x268>
   10676:	845a                	mv	s0,s6
   10678:	02500713          	li	a4,37
   1067c:	22e78d63          	beq	a5,a4,108b6 <_vfprintf_r+0x31c>
   10680:	00144783          	lbu	a5,1(s0)
   10684:	0405                	addi	s0,s0,1
   10686:	fbfd                	bnez	a5,1067c <_vfprintf_r+0xe2>
   10688:	416404b3          	sub	s1,s0,s6
   1068c:	17640b63          	beq	s0,s6,10802 <_vfprintf_r+0x268>
   10690:	573e                	lw	a4,236(sp)
   10692:	57ae                	lw	a5,232(sp)
   10694:	0168a023          	sw	s6,0(a7)
   10698:	9726                	add	a4,a4,s1
   1069a:	0785                	addi	a5,a5,1
   1069c:	0098a223          	sw	s1,4(a7)
   106a0:	d7ba                	sw	a4,236(sp)
   106a2:	d5be                	sw	a5,232(sp)
   106a4:	471d                	li	a4,7
   106a6:	08a1                	addi	a7,a7,8
   106a8:	20f74e63          	blt	a4,a5,108c4 <_vfprintf_r+0x32a>
   106ac:	4732                	lw	a4,12(sp)
   106ae:	00044783          	lbu	a5,0(s0)
   106b2:	9726                	add	a4,a4,s1
   106b4:	c63a                	sw	a4,12(sp)
   106b6:	14078663          	beqz	a5,10802 <_vfprintf_r+0x268>
   106ba:	00144483          	lbu	s1,1(s0)
   106be:	0c0103a3          	sb	zero,199(sp)
   106c2:	0405                	addi	s0,s0,1
   106c4:	5dfd                	li	s11,-1
   106c6:	4981                	li	s3,0
   106c8:	4a01                	li	s4,0
   106ca:	05a00913          	li	s2,90
   106ce:	4aa5                	li	s5,9
   106d0:	02a00b93          	li	s7,42
   106d4:	8cc6                	mv	s9,a7
   106d6:	0405                	addi	s0,s0,1
   106d8:	fe048793          	addi	a5,s1,-32
   106dc:	02f96b63          	bltu	s2,a5,10712 <_vfprintf_r+0x178>
   106e0:	4762                	lw	a4,24(sp)
   106e2:	078a                	slli	a5,a5,0x2
   106e4:	97ba                	add	a5,a5,a4
   106e6:	439c                	lw	a5,0(a5)
   106e8:	8782                	jr	a5
   106ea:	4981                	li	s3,0
   106ec:	fd048693          	addi	a3,s1,-48
   106f0:	00044483          	lbu	s1,0(s0)
   106f4:	00299793          	slli	a5,s3,0x2
   106f8:	97ce                	add	a5,a5,s3
   106fa:	0786                	slli	a5,a5,0x1
   106fc:	00f689b3          	add	s3,a3,a5
   10700:	fd048693          	addi	a3,s1,-48
   10704:	0405                	addi	s0,s0,1
   10706:	fedaf5e3          	bgeu	s5,a3,106f0 <_vfprintf_r+0x156>
   1070a:	fe048793          	addi	a5,s1,-32
   1070e:	fcf979e3          	bgeu	s2,a5,106e0 <_vfprintf_r+0x146>
   10712:	88e6                	mv	a7,s9
   10714:	c4fd                	beqz	s1,10802 <_vfprintf_r+0x268>
   10716:	14910623          	sb	s1,332(sp)
   1071a:	0c0103a3          	sb	zero,199(sp)
   1071e:	4a85                	li	s5,1
   10720:	4c85                	li	s9,1
   10722:	14c10b13          	addi	s6,sp,332
   10726:	c802                	sw	zero,16(sp)
   10728:	4d81                	li	s11,0
   1072a:	d402                	sw	zero,40(sp)
   1072c:	d202                	sw	zero,36(sp)
   1072e:	ce02                	sw	zero,28(sp)
   10730:	002a7b93          	andi	s7,s4,2
   10734:	000b8363          	beqz	s7,1073a <_vfprintf_r+0x1a0>
   10738:	0a89                	addi	s5,s5,2
   1073a:	084a7913          	andi	s2,s4,132
   1073e:	57be                	lw	a5,236(sp)
   10740:	00091663          	bnez	s2,1074c <_vfprintf_r+0x1b2>
   10744:	415986b3          	sub	a3,s3,s5
   10748:	22d04be3          	bgtz	a3,1117e <_vfprintf_r+0xbe4>
   1074c:	0c714703          	lbu	a4,199(sp)
   10750:	c30d                	beqz	a4,10772 <_vfprintf_r+0x1d8>
   10752:	572e                	lw	a4,232(sp)
   10754:	0c710693          	addi	a3,sp,199
   10758:	00d8a023          	sw	a3,0(a7)
   1075c:	0785                	addi	a5,a5,1
   1075e:	4685                	li	a3,1
   10760:	0705                	addi	a4,a4,1
   10762:	00d8a223          	sw	a3,4(a7)
   10766:	d7be                	sw	a5,236(sp)
   10768:	d5ba                	sw	a4,232(sp)
   1076a:	469d                	li	a3,7
   1076c:	08a1                	addi	a7,a7,8
   1076e:	36e6cf63          	blt	a3,a4,10aec <_vfprintf_r+0x552>
   10772:	020b8163          	beqz	s7,10794 <_vfprintf_r+0x1fa>
   10776:	572e                	lw	a4,232(sp)
   10778:	01b4                	addi	a3,sp,200
   1077a:	00d8a023          	sw	a3,0(a7)
   1077e:	0789                	addi	a5,a5,2
   10780:	4689                	li	a3,2
   10782:	0705                	addi	a4,a4,1
   10784:	00d8a223          	sw	a3,4(a7)
   10788:	d7be                	sw	a5,236(sp)
   1078a:	d5ba                	sw	a4,232(sp)
   1078c:	469d                	li	a3,7
   1078e:	08a1                	addi	a7,a7,8
   10790:	28e6c3e3          	blt	a3,a4,11216 <_vfprintf_r+0xc7c>
   10794:	08000713          	li	a4,128
   10798:	0ce908e3          	beq	s2,a4,11068 <_vfprintf_r+0xace>
   1079c:	419d8db3          	sub	s11,s11,s9
   107a0:	15b044e3          	bgtz	s11,110e8 <_vfprintf_r+0xb4e>
   107a4:	100a7713          	andi	a4,s4,256
   107a8:	7e071b63          	bnez	a4,10f9e <_vfprintf_r+0xa04>
   107ac:	572e                	lw	a4,232(sp)
   107ae:	97e6                	add	a5,a5,s9
   107b0:	0168a023          	sw	s6,0(a7)
   107b4:	0705                	addi	a4,a4,1
   107b6:	0198a223          	sw	s9,4(a7)
   107ba:	d7be                	sw	a5,236(sp)
   107bc:	d5ba                	sw	a4,232(sp)
   107be:	469d                	li	a3,7
   107c0:	3ee6cf63          	blt	a3,a4,10bbe <_vfprintf_r+0x624>
   107c4:	08a1                	addi	a7,a7,8
   107c6:	004a7a13          	andi	s4,s4,4
   107ca:	000a0663          	beqz	s4,107d6 <_vfprintf_r+0x23c>
   107ce:	415984b3          	sub	s1,s3,s5
   107d2:	40904163          	bgtz	s1,10bd4 <_vfprintf_r+0x63a>
   107d6:	0159d363          	bge	s3,s5,107dc <_vfprintf_r+0x242>
   107da:	89d6                	mv	s3,s5
   107dc:	4732                	lw	a4,12(sp)
   107de:	974e                	add	a4,a4,s3
   107e0:	c63a                	sw	a4,12(sp)
   107e2:	16079ee3          	bnez	a5,1115e <_vfprintf_r+0xbc4>
   107e6:	47c2                	lw	a5,16(sp)
   107e8:	d582                	sw	zero,232(sp)
   107ea:	c789                	beqz	a5,107f4 <_vfprintf_r+0x25a>
   107ec:	45c2                	lw	a1,16(sp)
   107ee:	856a                	mv	a0,s10
   107f0:	36e020ef          	jal	ra,12b5e <_free_r>
   107f4:	10c10893          	addi	a7,sp,268
   107f8:	8b22                	mv	s6,s0
   107fa:	000b4783          	lbu	a5,0(s6)
   107fe:	e6079ce3          	bnez	a5,10676 <_vfprintf_r+0xdc>
   10802:	57be                	lw	a5,236(sp)
   10804:	c399                	beqz	a5,1080a <_vfprintf_r+0x270>
   10806:	2c20106f          	j	11ac8 <_vfprintf_r+0x152e>
   1080a:	00cc5783          	lhu	a5,12(s8)
   1080e:	0407f793          	andi	a5,a5,64
   10812:	c399                	beqz	a5,10818 <_vfprintf_r+0x27e>
   10814:	7880106f          	j	11f9c <_vfprintf_r+0x1a02>
   10818:	1ec12083          	lw	ra,492(sp)
   1081c:	1e812403          	lw	s0,488(sp)
   10820:	4532                	lw	a0,12(sp)
   10822:	1e412483          	lw	s1,484(sp)
   10826:	1e012903          	lw	s2,480(sp)
   1082a:	1dc12983          	lw	s3,476(sp)
   1082e:	1d812a03          	lw	s4,472(sp)
   10832:	1d412a83          	lw	s5,468(sp)
   10836:	1d012b03          	lw	s6,464(sp)
   1083a:	1cc12b83          	lw	s7,460(sp)
   1083e:	1c812c03          	lw	s8,456(sp)
   10842:	1c412c83          	lw	s9,452(sp)
   10846:	1c012d03          	lw	s10,448(sp)
   1084a:	1bc12d83          	lw	s11,444(sp)
   1084e:	617d                	addi	sp,sp,496
   10850:	8082                	ret
   10852:	85e2                	mv	a1,s8
   10854:	856a                	mv	a0,s10
   10856:	3b1010ef          	jal	ra,12406 <__swsetup_r>
   1085a:	c119                	beqz	a0,10860 <_vfprintf_r+0x2c6>
   1085c:	7400106f          	j	11f9c <_vfprintf_r+0x1a02>
   10860:	00cc5783          	lhu	a5,12(s8)
   10864:	46a9                	li	a3,10
   10866:	8be9                	andi	a5,a5,26
   10868:	dcd79de3          	bne	a5,a3,10642 <_vfprintf_r+0xa8>
   1086c:	00ec1783          	lh	a5,14(s8)
   10870:	dc07c9e3          	bltz	a5,10642 <_vfprintf_r+0xa8>
   10874:	46d2                	lw	a3,20(sp)
   10876:	864a                	mv	a2,s2
   10878:	85e2                	mv	a1,s8
   1087a:	856a                	mv	a0,s10
   1087c:	1fd010ef          	jal	ra,12278 <__sbprintf>
   10880:	c62a                	sw	a0,12(sp)
   10882:	bf59                	j	10818 <_vfprintf_r+0x27e>
   10884:	856a                	mv	a0,s10
   10886:	13b040ef          	jal	ra,151c0 <_localeconv_r>
   1088a:	415c                	lw	a5,4(a0)
   1088c:	853e                	mv	a0,a5
   1088e:	c6be                	sw	a5,76(sp)
   10890:	3165                	jal	10538 <strlen>
   10892:	87aa                	mv	a5,a0
   10894:	856a                	mv	a0,s10
   10896:	84be                	mv	s1,a5
   10898:	c4be                	sw	a5,72(sp)
   1089a:	127040ef          	jal	ra,151c0 <_localeconv_r>
   1089e:	451c                	lw	a5,8(a0)
   108a0:	de3e                	sw	a5,60(sp)
   108a2:	38049be3          	bnez	s1,11438 <_vfprintf_r+0xe9e>
   108a6:	00044483          	lbu	s1,0(s0)
   108aa:	b535                	j	106d6 <_vfprintf_r+0x13c>
   108ac:	00044483          	lbu	s1,0(s0)
   108b0:	020a6a13          	ori	s4,s4,32
   108b4:	b50d                	j	106d6 <_vfprintf_r+0x13c>
   108b6:	416404b3          	sub	s1,s0,s6
   108ba:	dd641be3          	bne	s0,s6,10690 <_vfprintf_r+0xf6>
   108be:	00044783          	lbu	a5,0(s0)
   108c2:	bbd5                	j	106b6 <_vfprintf_r+0x11c>
   108c4:	11d0                	addi	a2,sp,228
   108c6:	85e2                	mv	a1,s8
   108c8:	856a                	mv	a0,s10
   108ca:	4c4080ef          	jal	ra,18d8e <__sprint_r>
   108ce:	fd15                	bnez	a0,1080a <_vfprintf_r+0x270>
   108d0:	10c10893          	addi	a7,sp,268
   108d4:	bbe1                	j	106ac <_vfprintf_r+0x112>
   108d6:	008a7793          	andi	a5,s4,8
   108da:	88e6                	mv	a7,s9
   108dc:	38079ae3          	bnez	a5,11470 <_vfprintf_r+0xed6>
   108e0:	47d2                	lw	a5,20(sp)
   108e2:	1908                	addi	a0,sp,176
   108e4:	c866                	sw	s9,16(sp)
   108e6:	079d                	addi	a5,a5,7
   108e8:	9be1                	andi	a5,a5,-8
   108ea:	438c                	lw	a1,0(a5)
   108ec:	43d0                	lw	a2,4(a5)
   108ee:	07a1                	addi	a5,a5,8
   108f0:	ca3e                	sw	a5,20(sp)
   108f2:	1b10d0ef          	jal	ra,1e2a2 <__extenddftf2>
   108f6:	57ca                	lw	a5,176(sp)
   108f8:	48c2                	lw	a7,16(sp)
   108fa:	d9be                	sw	a5,240(sp)
   108fc:	57da                	lw	a5,180(sp)
   108fe:	dbbe                	sw	a5,244(sp)
   10900:	57ea                	lw	a5,184(sp)
   10902:	ddbe                	sw	a5,248(sp)
   10904:	57fa                	lw	a5,188(sp)
   10906:	dfbe                	sw	a5,252(sp)
   10908:	1988                	addi	a0,sp,240
   1090a:	c846                	sw	a7,16(sp)
   1090c:	065040ef          	jal	ra,15170 <_ldcheck>
   10910:	c7aa                	sw	a0,204(sp)
   10912:	4789                	li	a5,2
   10914:	48c2                	lw	a7,16(sp)
   10916:	62f50be3          	beq	a0,a5,1174c <_vfprintf_r+0x11b2>
   1091a:	4785                	li	a5,1
   1091c:	74f50de3          	beq	a0,a5,11876 <_vfprintf_r+0x12dc>
   10920:	06100793          	li	a5,97
   10924:	00f49463          	bne	s1,a5,1092c <_vfprintf_r+0x392>
   10928:	68e0106f          	j	11fb6 <_vfprintf_r+0x1a1c>
   1092c:	04100793          	li	a5,65
   10930:	00f49463          	bne	s1,a5,10938 <_vfprintf_r+0x39e>
   10934:	1bc0106f          	j	11af0 <_vfprintf_r+0x1556>
   10938:	fdf4f713          	andi	a4,s1,-33
   1093c:	57fd                	li	a5,-1
   1093e:	d43a                	sw	a4,40(sp)
   10940:	00fd9463          	bne	s11,a5,10948 <_vfprintf_r+0x3ae>
   10944:	76c0106f          	j	120b0 <_vfprintf_r+0x1b16>
   10948:	04700793          	li	a5,71
   1094c:	00f71463          	bne	a4,a5,10954 <_vfprintf_r+0x3ba>
   10950:	7520106f          	j	120a2 <_vfprintf_r+0x1b08>
   10954:	5bfe                	lw	s7,252(sp)
   10956:	c8d2                	sw	s4,80(sp)
   10958:	5e4e                	lw	t3,240(sp)
   1095a:	5ede                	lw	t4,244(sp)
   1095c:	5f6e                	lw	t5,248(sp)
   1095e:	100a6793          	ori	a5,s4,256
   10962:	000bd463          	bgez	s7,1096a <_vfprintf_r+0x3d0>
   10966:	4400106f          	j	11da6 <_vfprintf_r+0x180c>
   1096a:	cc82                	sw	zero,88(sp)
   1096c:	8a3e                	mv	s4,a5
   1096e:	c802                	sw	zero,16(sp)
   10970:	5722                	lw	a4,40(sp)
   10972:	04600793          	li	a5,70
   10976:	00f71463          	bne	a4,a5,1097e <_vfprintf_r+0x3e4>
   1097a:	45a0106f          	j	11dd4 <_vfprintf_r+0x183a>
   1097e:	04500793          	li	a5,69
   10982:	c0c6                	sw	a7,64(sp)
   10984:	00f71463          	bne	a4,a5,1098c <_vfprintf_r+0x3f2>
   10988:	6d40106f          	j	1205c <_vfprintf_r+0x1ac2>
   1098c:	0b010a93          	addi	s5,sp,176
   10990:	099c                	addi	a5,sp,208
   10992:	01f8                	addi	a4,sp,204
   10994:	0dc10813          	addi	a6,sp,220
   10998:	86ee                	mv	a3,s11
   1099a:	4609                	li	a2,2
   1099c:	85d6                	mv	a1,s5
   1099e:	856a                	mv	a0,s10
   109a0:	d972                	sw	t3,176(sp)
   109a2:	d272                	sw	t3,36(sp)
   109a4:	db76                	sw	t4,180(sp)
   109a6:	d076                	sw	t4,32(sp)
   109a8:	dd7a                	sw	t5,184(sp)
   109aa:	ce7a                	sw	t5,28(sp)
   109ac:	df5e                	sw	s7,188(sp)
   109ae:	1f1030ef          	jal	ra,1439e <_ldtoa_r>
   109b2:	5722                	lw	a4,40(sp)
   109b4:	04700793          	li	a5,71
   109b8:	4f72                	lw	t5,28(sp)
   109ba:	5e82                	lw	t4,32(sp)
   109bc:	5e12                	lw	t3,36(sp)
   109be:	4886                	lw	a7,64(sp)
   109c0:	8b2a                	mv	s6,a0
   109c2:	00f70463          	beq	a4,a5,109ca <_vfprintf_r+0x430>
   109c6:	08f0106f          	j	12254 <_vfprintf_r+0x1cba>
   109ca:	47c6                	lw	a5,80(sp)
   109cc:	8b85                	andi	a5,a5,1
   109ce:	c399                	beqz	a5,109d4 <_vfprintf_r+0x43a>
   109d0:	6c80106f          	j	12098 <_vfprintf_r+0x1afe>
   109d4:	46fe                	lw	a3,220(sp)
   109d6:	416687b3          	sub	a5,a3,s6
   109da:	d03e                	sw	a5,32(sp)
   109dc:	473e                	lw	a4,204(sp)
   109de:	04700793          	li	a5,71
   109e2:	ce3a                	sw	a4,28(sp)
   109e4:	5722                	lw	a4,40(sp)
   109e6:	00f71463          	bne	a4,a5,109ee <_vfprintf_r+0x454>
   109ea:	3500106f          	j	11d3a <_vfprintf_r+0x17a0>
   109ee:	5722                	lw	a4,40(sp)
   109f0:	04600793          	li	a5,70
   109f4:	00f71463          	bne	a4,a5,109fc <_vfprintf_r+0x462>
   109f8:	5440106f          	j	11f3c <_vfprintf_r+0x19a2>
   109fc:	47f2                	lw	a5,28(sp)
   109fe:	55a2                	lw	a1,40(sp)
   10a00:	04100613          	li	a2,65
   10a04:	17fd                	addi	a5,a5,-1
   10a06:	c7be                	sw	a5,204(sp)
   10a08:	0ff4f713          	andi	a4,s1,255
   10a0c:	4681                	li	a3,0
   10a0e:	00c59663          	bne	a1,a2,10a1a <_vfprintf_r+0x480>
   10a12:	073d                	addi	a4,a4,15
   10a14:	0ff77713          	andi	a4,a4,255
   10a18:	4685                	li	a3,1
   10a1a:	0ce10a23          	sb	a4,212(sp)
   10a1e:	02b00713          	li	a4,43
   10a22:	0007d763          	bgez	a5,10a30 <_vfprintf_r+0x496>
   10a26:	4772                	lw	a4,28(sp)
   10a28:	4785                	li	a5,1
   10a2a:	8f99                	sub	a5,a5,a4
   10a2c:	02d00713          	li	a4,45
   10a30:	0ce10aa3          	sb	a4,213(sp)
   10a34:	4725                	li	a4,9
   10a36:	00f74463          	blt	a4,a5,10a3e <_vfprintf_r+0x4a4>
   10a3a:	6e40106f          	j	1211e <_vfprintf_r+0x1b84>
   10a3e:	0e310513          	addi	a0,sp,227
   10a42:	85aa                	mv	a1,a0
   10a44:	46a9                	li	a3,10
   10a46:	06300e13          	li	t3,99
   10a4a:	02d7e733          	rem	a4,a5,a3
   10a4e:	862e                	mv	a2,a1
   10a50:	883e                	mv	a6,a5
   10a52:	15fd                	addi	a1,a1,-1
   10a54:	03070713          	addi	a4,a4,48
   10a58:	fee60fa3          	sb	a4,-1(a2) # 1fff <register_fini-0xe075>
   10a5c:	02d7c7b3          	div	a5,a5,a3
   10a60:	ff0e45e3          	blt	t3,a6,10a4a <_vfprintf_r+0x4b0>
   10a64:	03078793          	addi	a5,a5,48
   10a68:	0ff7f693          	andi	a3,a5,255
   10a6c:	fed58fa3          	sb	a3,-1(a1)
   10a70:	ffe60793          	addi	a5,a2,-2
   10a74:	00a7e463          	bltu	a5,a0,10a7c <_vfprintf_r+0x4e2>
   10a78:	7d40106f          	j	1224c <_vfprintf_r+0x1cb2>
   10a7c:	0d610713          	addi	a4,sp,214
   10a80:	a019                	j	10a86 <_vfprintf_r+0x4ec>
   10a82:	0007c683          	lbu	a3,0(a5)
   10a86:	00d70023          	sb	a3,0(a4)
   10a8a:	0785                	addi	a5,a5,1
   10a8c:	0705                	addi	a4,a4,1
   10a8e:	fea79ae3          	bne	a5,a0,10a82 <_vfprintf_r+0x4e8>
   10a92:	0e510793          	addi	a5,sp,229
   10a96:	0d610713          	addi	a4,sp,214
   10a9a:	8f91                	sub	a5,a5,a2
   10a9c:	97ba                	add	a5,a5,a4
   10a9e:	09d8                	addi	a4,sp,212
   10aa0:	8f99                	sub	a5,a5,a4
   10aa2:	dc3e                	sw	a5,56(sp)
   10aa4:	56e2                	lw	a3,56(sp)
   10aa6:	5702                	lw	a4,32(sp)
   10aa8:	4785                	li	a5,1
   10aaa:	00e68cb3          	add	s9,a3,a4
   10aae:	00e7c463          	blt	a5,a4,10ab6 <_vfprintf_r+0x51c>
   10ab2:	7400106f          	j	121f2 <_vfprintf_r+0x1c58>
   10ab6:	57b2                	lw	a5,44(sp)
   10ab8:	9cbe                	add	s9,s9,a5
   10aba:	47c6                	lw	a5,80(sp)
   10abc:	fffcca93          	not	s5,s9
   10ac0:	41fada93          	srai	s5,s5,0x1f
   10ac4:	bff7fa13          	andi	s4,a5,-1025
   10ac8:	100a6a13          	ori	s4,s4,256
   10acc:	015cfab3          	and	s5,s9,s5
   10ad0:	d402                	sw	zero,40(sp)
   10ad2:	d202                	sw	zero,36(sp)
   10ad4:	ce02                	sw	zero,28(sp)
   10ad6:	47e6                	lw	a5,88(sp)
   10ad8:	e399                	bnez	a5,10ade <_vfprintf_r+0x544>
   10ada:	2780106f          	j	11d52 <_vfprintf_r+0x17b8>
   10ade:	02d00793          	li	a5,45
   10ae2:	0cf103a3          	sb	a5,199(sp)
   10ae6:	4d81                	li	s11,0
   10ae8:	0a85                	addi	s5,s5,1
   10aea:	b199                	j	10730 <_vfprintf_r+0x196>
   10aec:	11d0                	addi	a2,sp,228
   10aee:	85e2                	mv	a1,s8
   10af0:	856a                	mv	a0,s10
   10af2:	29c080ef          	jal	ra,18d8e <__sprint_r>
   10af6:	66051b63          	bnez	a0,1116c <_vfprintf_r+0xbd2>
   10afa:	57be                	lw	a5,236(sp)
   10afc:	10c10893          	addi	a7,sp,268
   10b00:	b98d                	j	10772 <_vfprintf_r+0x1d8>
   10b02:	572e                	lw	a4,232(sp)
   10b04:	00178c93          	addi	s9,a5,1
   10b08:	5782                	lw	a5,32(sp)
   10b0a:	4685                	li	a3,1
   10b0c:	0168a023          	sw	s6,0(a7)
   10b10:	00170493          	addi	s1,a4,1
   10b14:	00888913          	addi	s2,a7,8
   10b18:	00f6dce3          	bge	a3,a5,11330 <_vfprintf_r+0xd96>
   10b1c:	4785                	li	a5,1
   10b1e:	00f8a223          	sw	a5,4(a7)
   10b22:	d7e6                	sw	s9,236(sp)
   10b24:	d5a6                	sw	s1,232(sp)
   10b26:	479d                	li	a5,7
   10b28:	2c97c4e3          	blt	a5,s1,115f0 <_vfprintf_r+0x1056>
   10b2c:	57b2                	lw	a5,44(sp)
   10b2e:	5742                	lw	a4,48(sp)
   10b30:	0485                	addi	s1,s1,1
   10b32:	9cbe                	add	s9,s9,a5
   10b34:	00f92223          	sw	a5,4(s2)
   10b38:	00e92023          	sw	a4,0(s2)
   10b3c:	d7e6                	sw	s9,236(sp)
   10b3e:	d5a6                	sw	s1,232(sp)
   10b40:	479d                	li	a5,7
   10b42:	0921                	addi	s2,s2,8
   10b44:	2c97c3e3          	blt	a5,s1,1160a <_vfprintf_r+0x1070>
   10b48:	57ce                	lw	a5,240(sp)
   10b4a:	00148693          	addi	a3,s1,1
   10b4e:	110c                	addi	a1,sp,160
   10b50:	d93e                	sw	a5,176(sp)
   10b52:	57de                	lw	a5,244(sp)
   10b54:	1908                	addi	a0,sp,176
   10b56:	ce36                	sw	a3,28(sp)
   10b58:	db3e                	sw	a5,180(sp)
   10b5a:	57ee                	lw	a5,248(sp)
   10b5c:	d102                	sw	zero,160(sp)
   10b5e:	d302                	sw	zero,164(sp)
   10b60:	dd3e                	sw	a5,184(sp)
   10b62:	57fe                	lw	a5,252(sp)
   10b64:	d502                	sw	zero,168(sp)
   10b66:	d702                	sw	zero,172(sp)
   10b68:	df3e                	sw	a5,188(sp)
   10b6a:	1b30b0ef          	jal	ra,1c51c <__eqtf2>
   10b6e:	46f2                	lw	a3,28(sp)
   10b70:	5782                	lw	a5,32(sp)
   10b72:	00890893          	addi	a7,s2,8
   10b76:	8736                	mv	a4,a3
   10b78:	fff78d93          	addi	s11,a5,-1
   10b7c:	7c050863          	beqz	a0,1134c <_vfprintf_r+0xdb2>
   10b80:	001b0813          	addi	a6,s6,1
   10b84:	9cee                	add	s9,s9,s11
   10b86:	01092023          	sw	a6,0(s2)
   10b8a:	01b92223          	sw	s11,4(s2)
   10b8e:	d7e6                	sw	s9,236(sp)
   10b90:	d5b6                	sw	a3,232(sp)
   10b92:	479d                	li	a5,7
   10b94:	12d7cae3          	blt	a5,a3,114c8 <_vfprintf_r+0xf2e>
   10b98:	01090793          	addi	a5,s2,16
   10b9c:	00248713          	addi	a4,s1,2
   10ba0:	8946                	mv	s2,a7
   10ba2:	88be                	mv	a7,a5
   10ba4:	5662                	lw	a2,56(sp)
   10ba6:	09d4                	addi	a3,sp,212
   10ba8:	00d92023          	sw	a3,0(s2)
   10bac:	019607b3          	add	a5,a2,s9
   10bb0:	00c92223          	sw	a2,4(s2)
   10bb4:	d7be                	sw	a5,236(sp)
   10bb6:	d5ba                	sw	a4,232(sp)
   10bb8:	469d                	li	a3,7
   10bba:	c0e6d6e3          	bge	a3,a4,107c6 <_vfprintf_r+0x22c>
   10bbe:	11d0                	addi	a2,sp,228
   10bc0:	85e2                	mv	a1,s8
   10bc2:	856a                	mv	a0,s10
   10bc4:	1ca080ef          	jal	ra,18d8e <__sprint_r>
   10bc8:	5a051263          	bnez	a0,1116c <_vfprintf_r+0xbd2>
   10bcc:	57be                	lw	a5,236(sp)
   10bce:	10c10893          	addi	a7,sp,268
   10bd2:	bed5                	j	107c6 <_vfprintf_r+0x22c>
   10bd4:	46c1                	li	a3,16
   10bd6:	572e                	lw	a4,232(sp)
   10bd8:	0096c463          	blt	a3,s1,10be0 <_vfprintf_r+0x646>
   10bdc:	3c80106f          	j	11fa4 <_vfprintf_r+0x1a0a>
   10be0:	0001f6b7          	lui	a3,0x1f
   10be4:	87068e93          	addi	t4,a3,-1936 # 1e870 <blanks.1>
   10be8:	4941                	li	s2,16
   10bea:	4a1d                	li	s4,7
   10bec:	8b76                	mv	s6,t4
   10bee:	a021                	j	10bf6 <_vfprintf_r+0x65c>
   10bf0:	14c1                	addi	s1,s1,-16
   10bf2:	02995b63          	bge	s2,s1,10c28 <_vfprintf_r+0x68e>
   10bf6:	07c1                	addi	a5,a5,16
   10bf8:	0705                	addi	a4,a4,1
   10bfa:	0168a023          	sw	s6,0(a7)
   10bfe:	0128a223          	sw	s2,4(a7)
   10c02:	d7be                	sw	a5,236(sp)
   10c04:	d5ba                	sw	a4,232(sp)
   10c06:	08a1                	addi	a7,a7,8
   10c08:	feea54e3          	bge	s4,a4,10bf0 <_vfprintf_r+0x656>
   10c0c:	11d0                	addi	a2,sp,228
   10c0e:	85e2                	mv	a1,s8
   10c10:	856a                	mv	a0,s10
   10c12:	17c080ef          	jal	ra,18d8e <__sprint_r>
   10c16:	54051b63          	bnez	a0,1116c <_vfprintf_r+0xbd2>
   10c1a:	14c1                	addi	s1,s1,-16
   10c1c:	57be                	lw	a5,236(sp)
   10c1e:	572e                	lw	a4,232(sp)
   10c20:	10c10893          	addi	a7,sp,268
   10c24:	fc9949e3          	blt	s2,s1,10bf6 <_vfprintf_r+0x65c>
   10c28:	8eda                	mv	t4,s6
   10c2a:	97a6                	add	a5,a5,s1
   10c2c:	0705                	addi	a4,a4,1
   10c2e:	01d8a023          	sw	t4,0(a7)
   10c32:	0098a223          	sw	s1,4(a7)
   10c36:	d7be                	sw	a5,236(sp)
   10c38:	d5ba                	sw	a4,232(sp)
   10c3a:	469d                	li	a3,7
   10c3c:	b8e6dde3          	bge	a3,a4,107d6 <_vfprintf_r+0x23c>
   10c40:	11d0                	addi	a2,sp,228
   10c42:	85e2                	mv	a1,s8
   10c44:	856a                	mv	a0,s10
   10c46:	148080ef          	jal	ra,18d8e <__sprint_r>
   10c4a:	52051163          	bnez	a0,1116c <_vfprintf_r+0xbd2>
   10c4e:	57be                	lw	a5,236(sp)
   10c50:	b659                	j	107d6 <_vfprintf_r+0x23c>
   10c52:	856a                	mv	a0,s10
   10c54:	5e1010ef          	jal	ra,12a34 <__sinit>
   10c58:	b24d                	j	105fa <_vfprintf_r+0x60>
   10c5a:	4752                	lw	a4,20(sp)
   10c5c:	88e6                	mv	a7,s9
   10c5e:	0c0103a3          	sb	zero,199(sp)
   10c62:	431c                	lw	a5,0(a4)
   10c64:	0711                	addi	a4,a4,4
   10c66:	ca3a                	sw	a4,20(sp)
   10c68:	14f10623          	sb	a5,332(sp)
   10c6c:	4a85                	li	s5,1
   10c6e:	4c85                	li	s9,1
   10c70:	14c10b13          	addi	s6,sp,332
   10c74:	bc4d                	j	10726 <_vfprintf_r+0x18c>
   10c76:	47d2                	lw	a5,20(sp)
   10c78:	0c0103a3          	sb	zero,199(sp)
   10c7c:	88e6                	mv	a7,s9
   10c7e:	0007ab03          	lw	s6,0(a5)
   10c82:	00478913          	addi	s2,a5,4
   10c86:	0e0b0ce3          	beqz	s6,1157e <_vfprintf_r+0xfe4>
   10c8a:	57fd                	li	a5,-1
   10c8c:	34fd8fe3          	beq	s11,a5,117ea <_vfprintf_r+0x1250>
   10c90:	866e                	mv	a2,s11
   10c92:	4581                	li	a1,0
   10c94:	855a                	mv	a0,s6
   10c96:	ca66                	sw	s9,20(sp)
   10c98:	55f040ef          	jal	ra,159f6 <memchr>
   10c9c:	c82a                	sw	a0,16(sp)
   10c9e:	48d2                	lw	a7,20(sp)
   10ca0:	e119                	bnez	a0,10ca6 <_vfprintf_r+0x70c>
   10ca2:	22a0106f          	j	11ecc <_vfprintf_r+0x1932>
   10ca6:	47c2                	lw	a5,16(sp)
   10ca8:	ca4a                	sw	s2,20(sp)
   10caa:	c802                	sw	zero,16(sp)
   10cac:	41678cb3          	sub	s9,a5,s6
   10cb0:	0c714783          	lbu	a5,199(sp)
   10cb4:	fffcca93          	not	s5,s9
   10cb8:	41fada93          	srai	s5,s5,0x1f
   10cbc:	d402                	sw	zero,40(sp)
   10cbe:	d202                	sw	zero,36(sp)
   10cc0:	ce02                	sw	zero,28(sp)
   10cc2:	015cfab3          	and	s5,s9,s5
   10cc6:	4d81                	li	s11,0
   10cc8:	a60784e3          	beqz	a5,10730 <_vfprintf_r+0x196>
   10ccc:	0a85                	addi	s5,s5,1
   10cce:	b48d                	j	10730 <_vfprintf_r+0x196>
   10cd0:	00044483          	lbu	s1,0(s0)
   10cd4:	06800793          	li	a5,104
   10cd8:	08f48ce3          	beq	s1,a5,11570 <_vfprintf_r+0xfd6>
   10cdc:	040a6a13          	ori	s4,s4,64
   10ce0:	badd                	j	106d6 <_vfprintf_r+0x13c>
   10ce2:	46d2                	lw	a3,20(sp)
   10ce4:	020a7793          	andi	a5,s4,32
   10ce8:	88e6                	mv	a7,s9
   10cea:	4298                	lw	a4,0(a3)
   10cec:	0691                	addi	a3,a3,4
   10cee:	ca36                	sw	a3,20(sp)
   10cf0:	76079163          	bnez	a5,11452 <_vfprintf_r+0xeb8>
   10cf4:	010a7793          	andi	a5,s4,16
   10cf8:	2a0793e3          	bnez	a5,1179e <_vfprintf_r+0x1204>
   10cfc:	040a7793          	andi	a5,s4,64
   10d00:	56079be3          	bnez	a5,11a76 <_vfprintf_r+0x14dc>
   10d04:	200a7a13          	andi	s4,s4,512
   10d08:	280a0be3          	beqz	s4,1179e <_vfprintf_r+0x1204>
   10d0c:	47b2                	lw	a5,12(sp)
   10d0e:	8b22                	mv	s6,s0
   10d10:	00f70023          	sb	a5,0(a4)
   10d14:	b4dd                	j	107fa <_vfprintf_r+0x260>
   10d16:	00044483          	lbu	s1,0(s0)
   10d1a:	06c00793          	li	a5,108
   10d1e:	02f481e3          	beq	s1,a5,11540 <_vfprintf_r+0xfa6>
   10d22:	010a6a13          	ori	s4,s4,16
   10d26:	ba45                	j	106d6 <_vfprintf_r+0x13c>
   10d28:	4752                	lw	a4,20(sp)
   10d2a:	77e1                	lui	a5,0xffff8
   10d2c:	8307c793          	xori	a5,a5,-2000
   10d30:	0cf11423          	sh	a5,200(sp)
   10d34:	00470793          	addi	a5,a4,4
   10d38:	88e6                	mv	a7,s9
   10d3a:	ca3e                	sw	a5,20(sp)
   10d3c:	00072c83          	lw	s9,0(a4)
   10d40:	67f9                	lui	a5,0x1e
   10d42:	6d078793          	addi	a5,a5,1744 # 1e6d0 <__clzsi2+0xa2>
   10d46:	da3e                	sw	a5,52(sp)
   10d48:	4901                	li	s2,0
   10d4a:	002a6b93          	ori	s7,s4,2
   10d4e:	4789                	li	a5,2
   10d50:	07800493          	li	s1,120
   10d54:	0c0103a3          	sb	zero,199(sp)
   10d58:	56fd                	li	a3,-1
   10d5a:	1add8363          	beq	s11,a3,10f00 <_vfprintf_r+0x966>
   10d5e:	012ce6b3          	or	a3,s9,s2
   10d62:	f7fbfa13          	andi	s4,s7,-129
   10d66:	18069c63          	bnez	a3,10efe <_vfprintf_r+0x964>
   10d6a:	1e0d9663          	bnez	s11,10f56 <_vfprintf_r+0x9bc>
   10d6e:	ebf9                	bnez	a5,10e44 <_vfprintf_r+0x8aa>
   10d70:	001bfc93          	andi	s9,s7,1
   10d74:	1b010b13          	addi	s6,sp,432
   10d78:	6a0c9963          	bnez	s9,1142a <_vfprintf_r+0xe90>
   10d7c:	0c714783          	lbu	a5,199(sp)
   10d80:	8aee                	mv	s5,s11
   10d82:	019dd363          	bge	s11,s9,10d88 <_vfprintf_r+0x7ee>
   10d86:	8ae6                	mv	s5,s9
   10d88:	c802                	sw	zero,16(sp)
   10d8a:	d402                	sw	zero,40(sp)
   10d8c:	d202                	sw	zero,36(sp)
   10d8e:	ce02                	sw	zero,28(sp)
   10d90:	ff95                	bnez	a5,10ccc <_vfprintf_r+0x732>
   10d92:	ba79                	j	10730 <_vfprintf_r+0x196>
   10d94:	88e6                	mv	a7,s9
   10d96:	010a6a13          	ori	s4,s4,16
   10d9a:	020a7793          	andi	a5,s4,32
   10d9e:	5e078c63          	beqz	a5,11396 <_vfprintf_r+0xdfc>
   10da2:	47d2                	lw	a5,20(sp)
   10da4:	00778b13          	addi	s6,a5,7
   10da8:	ff8b7b13          	andi	s6,s6,-8
   10dac:	000b2c83          	lw	s9,0(s6)
   10db0:	004b2903          	lw	s2,4(s6)
   10db4:	008b0793          	addi	a5,s6,8
   10db8:	ca3e                	sw	a5,20(sp)
   10dba:	bffa7b93          	andi	s7,s4,-1025
   10dbe:	4781                	li	a5,0
   10dc0:	bf51                	j	10d54 <_vfprintf_r+0x7ba>
   10dc2:	88e6                	mv	a7,s9
   10dc4:	010a6b93          	ori	s7,s4,16
   10dc8:	020bf793          	andi	a5,s7,32
   10dcc:	62078763          	beqz	a5,113fa <_vfprintf_r+0xe60>
   10dd0:	47d2                	lw	a5,20(sp)
   10dd2:	00778b13          	addi	s6,a5,7
   10dd6:	ff8b7b13          	andi	s6,s6,-8
   10dda:	008b0793          	addi	a5,s6,8
   10dde:	ca3e                	sw	a5,20(sp)
   10de0:	000b2c83          	lw	s9,0(s6)
   10de4:	004b2903          	lw	s2,4(s6)
   10de8:	4785                	li	a5,1
   10dea:	b7ad                	j	10d54 <_vfprintf_r+0x7ba>
   10dec:	00044483          	lbu	s1,0(s0)
   10df0:	080a6a13          	ori	s4,s4,128
   10df4:	b0cd                	j	106d6 <_vfprintf_r+0x13c>
   10df6:	00044483          	lbu	s1,0(s0)
   10dfa:	008a6a13          	ori	s4,s4,8
   10dfe:	b8e1                	j	106d6 <_vfprintf_r+0x13c>
   10e00:	88e6                	mv	a7,s9
   10e02:	010a6a13          	ori	s4,s4,16
   10e06:	020a7793          	andi	a5,s4,32
   10e0a:	5a078663          	beqz	a5,113b6 <_vfprintf_r+0xe1c>
   10e0e:	47d2                	lw	a5,20(sp)
   10e10:	00778b13          	addi	s6,a5,7
   10e14:	ff8b7b13          	andi	s6,s6,-8
   10e18:	004b2783          	lw	a5,4(s6)
   10e1c:	000b2c83          	lw	s9,0(s6)
   10e20:	008b0713          	addi	a4,s6,8
   10e24:	ca3a                	sw	a4,20(sp)
   10e26:	893e                	mv	s2,a5
   10e28:	5a07ca63          	bltz	a5,113dc <_vfprintf_r+0xe42>
   10e2c:	57fd                	li	a5,-1
   10e2e:	8bd2                	mv	s7,s4
   10e30:	00fd8f63          	beq	s11,a5,10e4e <_vfprintf_r+0x8b4>
   10e34:	012ce7b3          	or	a5,s9,s2
   10e38:	f7fa7b93          	andi	s7,s4,-129
   10e3c:	eb89                	bnez	a5,10e4e <_vfprintf_r+0x8b4>
   10e3e:	000d9d63          	bnez	s11,10e58 <_vfprintf_r+0x8be>
   10e42:	8a5e                	mv	s4,s7
   10e44:	4d81                	li	s11,0
   10e46:	4c81                	li	s9,0
   10e48:	1b010b13          	addi	s6,sp,432
   10e4c:	bf05                	j	10d7c <_vfprintf_r+0x7e2>
   10e4e:	7c091b63          	bnez	s2,11624 <_vfprintf_r+0x108a>
   10e52:	47a5                	li	a5,9
   10e54:	7d97e863          	bltu	a5,s9,11624 <_vfprintf_r+0x108a>
   10e58:	030c8c93          	addi	s9,s9,48
   10e5c:	1b9107a3          	sb	s9,431(sp)
   10e60:	8a5e                	mv	s4,s7
   10e62:	4c85                	li	s9,1
   10e64:	1af10b13          	addi	s6,sp,431
   10e68:	bf11                	j	10d7c <_vfprintf_r+0x7e2>
   10e6a:	47d2                	lw	a5,20(sp)
   10e6c:	00044483          	lbu	s1,0(s0)
   10e70:	0007a983          	lw	s3,0(a5)
   10e74:	0791                	addi	a5,a5,4
   10e76:	ca3e                	sw	a5,20(sp)
   10e78:	8409dfe3          	bgez	s3,106d6 <_vfprintf_r+0x13c>
   10e7c:	413009b3          	neg	s3,s3
   10e80:	004a6a13          	ori	s4,s4,4
   10e84:	b889                	j	106d6 <_vfprintf_r+0x13c>
   10e86:	00044483          	lbu	s1,0(s0)
   10e8a:	001a6a13          	ori	s4,s4,1
   10e8e:	b0a1                	j	106d6 <_vfprintf_r+0x13c>
   10e90:	0c714783          	lbu	a5,199(sp)
   10e94:	00044483          	lbu	s1,0(s0)
   10e98:	82079fe3          	bnez	a5,106d6 <_vfprintf_r+0x13c>
   10e9c:	02000793          	li	a5,32
   10ea0:	0cf103a3          	sb	a5,199(sp)
   10ea4:	833ff06f          	j	106d6 <_vfprintf_r+0x13c>
   10ea8:	00044483          	lbu	s1,0(s0)
   10eac:	004a6a13          	ori	s4,s4,4
   10eb0:	827ff06f          	j	106d6 <_vfprintf_r+0x13c>
   10eb4:	02b00793          	li	a5,43
   10eb8:	00044483          	lbu	s1,0(s0)
   10ebc:	0cf103a3          	sb	a5,199(sp)
   10ec0:	817ff06f          	j	106d6 <_vfprintf_r+0x13c>
   10ec4:	00044483          	lbu	s1,0(s0)
   10ec8:	00140713          	addi	a4,s0,1
   10ecc:	01749463          	bne	s1,s7,10ed4 <_vfprintf_r+0x93a>
   10ed0:	35c0106f          	j	1222c <_vfprintf_r+0x1c92>
   10ed4:	fd048693          	addi	a3,s1,-48
   10ed8:	843a                	mv	s0,a4
   10eda:	4d81                	li	s11,0
   10edc:	fedaee63          	bltu	s5,a3,106d8 <_vfprintf_r+0x13e>
   10ee0:	00044483          	lbu	s1,0(s0)
   10ee4:	002d9793          	slli	a5,s11,0x2
   10ee8:	97ee                	add	a5,a5,s11
   10eea:	0786                	slli	a5,a5,0x1
   10eec:	00d78db3          	add	s11,a5,a3
   10ef0:	fd048693          	addi	a3,s1,-48
   10ef4:	0405                	addi	s0,s0,1
   10ef6:	fedaf5e3          	bgeu	s5,a3,10ee0 <_vfprintf_r+0x946>
   10efa:	fdeff06f          	j	106d8 <_vfprintf_r+0x13e>
   10efe:	8bd2                	mv	s7,s4
   10f00:	4685                	li	a3,1
   10f02:	f4d786e3          	beq	a5,a3,10e4e <_vfprintf_r+0x8b4>
   10f06:	4689                	li	a3,2
   10f08:	06d78063          	beq	a5,a3,10f68 <_vfprintf_r+0x9ce>
   10f0c:	1b010b13          	addi	s6,sp,432
   10f10:	01d91713          	slli	a4,s2,0x1d
   10f14:	007cf793          	andi	a5,s9,7
   10f18:	003cdc93          	srli	s9,s9,0x3
   10f1c:	03078793          	addi	a5,a5,48
   10f20:	01976cb3          	or	s9,a4,s9
   10f24:	00395913          	srli	s2,s2,0x3
   10f28:	fefb0fa3          	sb	a5,-1(s6)
   10f2c:	012ce733          	or	a4,s9,s2
   10f30:	865a                	mv	a2,s6
   10f32:	1b7d                	addi	s6,s6,-1
   10f34:	ff71                	bnez	a4,10f10 <_vfprintf_r+0x976>
   10f36:	001bf693          	andi	a3,s7,1
   10f3a:	cea9                	beqz	a3,10f94 <_vfprintf_r+0x9fa>
   10f3c:	03000693          	li	a3,48
   10f40:	04d78a63          	beq	a5,a3,10f94 <_vfprintf_r+0x9fa>
   10f44:	1679                	addi	a2,a2,-2
   10f46:	1b1c                	addi	a5,sp,432
   10f48:	fedb0fa3          	sb	a3,-1(s6)
   10f4c:	40c78cb3          	sub	s9,a5,a2
   10f50:	8a5e                	mv	s4,s7
   10f52:	8b32                	mv	s6,a2
   10f54:	b525                	j	10d7c <_vfprintf_r+0x7e2>
   10f56:	4705                	li	a4,1
   10f58:	00e79463          	bne	a5,a4,10f60 <_vfprintf_r+0x9c6>
   10f5c:	0540106f          	j	11fb0 <_vfprintf_r+0x1a16>
   10f60:	4709                	li	a4,2
   10f62:	8bd2                	mv	s7,s4
   10f64:	fae794e3          	bne	a5,a4,10f0c <_vfprintf_r+0x972>
   10f68:	56d2                	lw	a3,52(sp)
   10f6a:	1b010b13          	addi	s6,sp,432
   10f6e:	00fcf793          	andi	a5,s9,15
   10f72:	97b6                	add	a5,a5,a3
   10f74:	0007c703          	lbu	a4,0(a5)
   10f78:	004cdc93          	srli	s9,s9,0x4
   10f7c:	01c91793          	slli	a5,s2,0x1c
   10f80:	0197ecb3          	or	s9,a5,s9
   10f84:	00495913          	srli	s2,s2,0x4
   10f88:	feeb0fa3          	sb	a4,-1(s6)
   10f8c:	012ce7b3          	or	a5,s9,s2
   10f90:	1b7d                	addi	s6,s6,-1
   10f92:	fff1                	bnez	a5,10f6e <_vfprintf_r+0x9d4>
   10f94:	1b1c                	addi	a5,sp,432
   10f96:	41678cb3          	sub	s9,a5,s6
   10f9a:	8a5e                	mv	s4,s7
   10f9c:	b3c5                	j	10d7c <_vfprintf_r+0x7e2>
   10f9e:	06500713          	li	a4,101
   10fa2:	b69750e3          	bge	a4,s1,10b02 <_vfprintf_r+0x568>
   10fa6:	574e                	lw	a4,240(sp)
   10fa8:	110c                	addi	a1,sp,160
   10faa:	1908                	addi	a0,sp,176
   10fac:	d93a                	sw	a4,176(sp)
   10fae:	575e                	lw	a4,244(sp)
   10fb0:	c2c6                	sw	a7,68(sp)
   10fb2:	c0be                	sw	a5,64(sp)
   10fb4:	db3a                	sw	a4,180(sp)
   10fb6:	576e                	lw	a4,248(sp)
   10fb8:	d102                	sw	zero,160(sp)
   10fba:	d302                	sw	zero,164(sp)
   10fbc:	dd3a                	sw	a4,184(sp)
   10fbe:	577e                	lw	a4,252(sp)
   10fc0:	d502                	sw	zero,168(sp)
   10fc2:	d702                	sw	zero,172(sp)
   10fc4:	df3a                	sw	a4,188(sp)
   10fc6:	5560b0ef          	jal	ra,1c51c <__eqtf2>
   10fca:	4786                	lw	a5,64(sp)
   10fcc:	4896                	lw	a7,68(sp)
   10fce:	24051f63          	bnez	a0,1122c <_vfprintf_r+0xc92>
   10fd2:	572e                	lw	a4,232(sp)
   10fd4:	66f9                	lui	a3,0x1e
   10fd6:	70068693          	addi	a3,a3,1792 # 1e700 <__clzsi2+0xd2>
   10fda:	00d8a023          	sw	a3,0(a7)
   10fde:	0785                	addi	a5,a5,1
   10fe0:	4685                	li	a3,1
   10fe2:	0705                	addi	a4,a4,1
   10fe4:	00d8a223          	sw	a3,4(a7)
   10fe8:	d7be                	sw	a5,236(sp)
   10fea:	d5ba                	sw	a4,232(sp)
   10fec:	469d                	li	a3,7
   10fee:	08a1                	addi	a7,a7,8
   10ff0:	72e6c363          	blt	a3,a4,11716 <_vfprintf_r+0x117c>
   10ff4:	473e                	lw	a4,204(sp)
   10ff6:	5682                	lw	a3,32(sp)
   10ff8:	42d75263          	bge	a4,a3,1141c <_vfprintf_r+0xe82>
   10ffc:	5742                	lw	a4,48(sp)
   10ffe:	56b2                	lw	a3,44(sp)
   11000:	08a1                	addi	a7,a7,8
   11002:	fee8ac23          	sw	a4,-8(a7)
   11006:	572e                	lw	a4,232(sp)
   11008:	97b6                	add	a5,a5,a3
   1100a:	fed8ae23          	sw	a3,-4(a7)
   1100e:	0705                	addi	a4,a4,1
   11010:	d7be                	sw	a5,236(sp)
   11012:	d5ba                	sw	a4,232(sp)
   11014:	469d                	li	a3,7
   11016:	52e6cc63          	blt	a3,a4,1154e <_vfprintf_r+0xfb4>
   1101a:	5702                	lw	a4,32(sp)
   1101c:	fff70493          	addi	s1,a4,-1
   11020:	fa905363          	blez	s1,107c6 <_vfprintf_r+0x22c>
   11024:	46c1                	li	a3,16
   11026:	572e                	lw	a4,232(sp)
   11028:	7096d263          	bge	a3,s1,1172c <_vfprintf_r+0x1192>
   1102c:	4941                	li	s2,16
   1102e:	4c9d                	li	s9,7
   11030:	a021                	j	11038 <_vfprintf_r+0xa9e>
   11032:	14c1                	addi	s1,s1,-16
   11034:	6e995c63          	bge	s2,s1,1172c <_vfprintf_r+0x1192>
   11038:	46a2                	lw	a3,8(sp)
   1103a:	07c1                	addi	a5,a5,16
   1103c:	0705                	addi	a4,a4,1
   1103e:	00d8a023          	sw	a3,0(a7)
   11042:	0128a223          	sw	s2,4(a7)
   11046:	d7be                	sw	a5,236(sp)
   11048:	d5ba                	sw	a4,232(sp)
   1104a:	08a1                	addi	a7,a7,8
   1104c:	feecd3e3          	bge	s9,a4,11032 <_vfprintf_r+0xa98>
   11050:	11d0                	addi	a2,sp,228
   11052:	85e2                	mv	a1,s8
   11054:	856a                	mv	a0,s10
   11056:	539070ef          	jal	ra,18d8e <__sprint_r>
   1105a:	10051963          	bnez	a0,1116c <_vfprintf_r+0xbd2>
   1105e:	57be                	lw	a5,236(sp)
   11060:	572e                	lw	a4,232(sp)
   11062:	10c10893          	addi	a7,sp,268
   11066:	b7f1                	j	11032 <_vfprintf_r+0xa98>
   11068:	41598933          	sub	s2,s3,s5
   1106c:	f3205863          	blez	s2,1079c <_vfprintf_r+0x202>
   11070:	4641                	li	a2,16
   11072:	572e                	lw	a4,232(sp)
   11074:	05265263          	bge	a2,s2,110b8 <_vfprintf_r+0xb1e>
   11078:	4e41                	li	t3,16
   1107a:	4b9d                	li	s7,7
   1107c:	a021                	j	11084 <_vfprintf_r+0xaea>
   1107e:	1941                	addi	s2,s2,-16
   11080:	032e5c63          	bge	t3,s2,110b8 <_vfprintf_r+0xb1e>
   11084:	46a2                	lw	a3,8(sp)
   11086:	07c1                	addi	a5,a5,16
   11088:	0705                	addi	a4,a4,1
   1108a:	00d8a023          	sw	a3,0(a7)
   1108e:	01c8a223          	sw	t3,4(a7)
   11092:	d7be                	sw	a5,236(sp)
   11094:	d5ba                	sw	a4,232(sp)
   11096:	08a1                	addi	a7,a7,8
   11098:	feebd3e3          	bge	s7,a4,1107e <_vfprintf_r+0xae4>
   1109c:	11d0                	addi	a2,sp,228
   1109e:	85e2                	mv	a1,s8
   110a0:	856a                	mv	a0,s10
   110a2:	4ed070ef          	jal	ra,18d8e <__sprint_r>
   110a6:	e179                	bnez	a0,1116c <_vfprintf_r+0xbd2>
   110a8:	4e41                	li	t3,16
   110aa:	1941                	addi	s2,s2,-16
   110ac:	57be                	lw	a5,236(sp)
   110ae:	572e                	lw	a4,232(sp)
   110b0:	10c10893          	addi	a7,sp,268
   110b4:	fd2e48e3          	blt	t3,s2,11084 <_vfprintf_r+0xaea>
   110b8:	46a2                	lw	a3,8(sp)
   110ba:	97ca                	add	a5,a5,s2
   110bc:	0705                	addi	a4,a4,1
   110be:	00d8a023          	sw	a3,0(a7)
   110c2:	0128a223          	sw	s2,4(a7)
   110c6:	d7be                	sw	a5,236(sp)
   110c8:	d5ba                	sw	a4,232(sp)
   110ca:	469d                	li	a3,7
   110cc:	08a1                	addi	a7,a7,8
   110ce:	ece6d763          	bge	a3,a4,1079c <_vfprintf_r+0x202>
   110d2:	11d0                	addi	a2,sp,228
   110d4:	85e2                	mv	a1,s8
   110d6:	856a                	mv	a0,s10
   110d8:	4b7070ef          	jal	ra,18d8e <__sprint_r>
   110dc:	e941                	bnez	a0,1116c <_vfprintf_r+0xbd2>
   110de:	57be                	lw	a5,236(sp)
   110e0:	10c10893          	addi	a7,sp,268
   110e4:	eb8ff06f          	j	1079c <_vfprintf_r+0x202>
   110e8:	4641                	li	a2,16
   110ea:	572e                	lw	a4,232(sp)
   110ec:	05b65163          	bge	a2,s11,1112e <_vfprintf_r+0xb94>
   110f0:	4bc1                	li	s7,16
   110f2:	491d                	li	s2,7
   110f4:	a021                	j	110fc <_vfprintf_r+0xb62>
   110f6:	1dc1                	addi	s11,s11,-16
   110f8:	03bbdb63          	bge	s7,s11,1112e <_vfprintf_r+0xb94>
   110fc:	46a2                	lw	a3,8(sp)
   110fe:	07c1                	addi	a5,a5,16
   11100:	0705                	addi	a4,a4,1
   11102:	00d8a023          	sw	a3,0(a7)
   11106:	0178a223          	sw	s7,4(a7)
   1110a:	d7be                	sw	a5,236(sp)
   1110c:	d5ba                	sw	a4,232(sp)
   1110e:	08a1                	addi	a7,a7,8
   11110:	fee953e3          	bge	s2,a4,110f6 <_vfprintf_r+0xb5c>
   11114:	11d0                	addi	a2,sp,228
   11116:	85e2                	mv	a1,s8
   11118:	856a                	mv	a0,s10
   1111a:	475070ef          	jal	ra,18d8e <__sprint_r>
   1111e:	e539                	bnez	a0,1116c <_vfprintf_r+0xbd2>
   11120:	1dc1                	addi	s11,s11,-16
   11122:	57be                	lw	a5,236(sp)
   11124:	572e                	lw	a4,232(sp)
   11126:	10c10893          	addi	a7,sp,268
   1112a:	fdbbc9e3          	blt	s7,s11,110fc <_vfprintf_r+0xb62>
   1112e:	46a2                	lw	a3,8(sp)
   11130:	97ee                	add	a5,a5,s11
   11132:	0705                	addi	a4,a4,1
   11134:	00d8a023          	sw	a3,0(a7)
   11138:	01b8a223          	sw	s11,4(a7)
   1113c:	d7be                	sw	a5,236(sp)
   1113e:	d5ba                	sw	a4,232(sp)
   11140:	469d                	li	a3,7
   11142:	08a1                	addi	a7,a7,8
   11144:	e6e6d063          	bge	a3,a4,107a4 <_vfprintf_r+0x20a>
   11148:	11d0                	addi	a2,sp,228
   1114a:	85e2                	mv	a1,s8
   1114c:	856a                	mv	a0,s10
   1114e:	441070ef          	jal	ra,18d8e <__sprint_r>
   11152:	ed09                	bnez	a0,1116c <_vfprintf_r+0xbd2>
   11154:	57be                	lw	a5,236(sp)
   11156:	10c10893          	addi	a7,sp,268
   1115a:	e4aff06f          	j	107a4 <_vfprintf_r+0x20a>
   1115e:	11d0                	addi	a2,sp,228
   11160:	85e2                	mv	a1,s8
   11162:	856a                	mv	a0,s10
   11164:	42b070ef          	jal	ra,18d8e <__sprint_r>
   11168:	e6050f63          	beqz	a0,107e6 <_vfprintf_r+0x24c>
   1116c:	4bc2                	lw	s7,16(sp)
   1116e:	e80b8e63          	beqz	s7,1080a <_vfprintf_r+0x270>
   11172:	85de                	mv	a1,s7
   11174:	856a                	mv	a0,s10
   11176:	1e9010ef          	jal	ra,12b5e <_free_r>
   1117a:	e90ff06f          	j	1080a <_vfprintf_r+0x270>
   1117e:	4641                	li	a2,16
   11180:	572e                	lw	a4,232(sp)
   11182:	52d65fe3          	bge	a2,a3,11ec0 <_vfprintf_r+0x1926>
   11186:	0001f637          	lui	a2,0x1f
   1118a:	87060e93          	addi	t4,a2,-1936 # 1e870 <blanks.1>
   1118e:	c0a2                	sw	s0,64(sp)
   11190:	c2a6                	sw	s1,68(sp)
   11192:	846a                	mv	s0,s10
   11194:	84e2                	mv	s1,s8
   11196:	4e41                	li	t3,16
   11198:	429d                	li	t0,7
   1119a:	8c36                	mv	s8,a3
   1119c:	8d76                	mv	s10,t4
   1119e:	a021                	j	111a6 <_vfprintf_r+0xc0c>
   111a0:	1c41                	addi	s8,s8,-16
   111a2:	038e5d63          	bge	t3,s8,111dc <_vfprintf_r+0xc42>
   111a6:	07c1                	addi	a5,a5,16
   111a8:	0705                	addi	a4,a4,1
   111aa:	01a8a023          	sw	s10,0(a7)
   111ae:	01c8a223          	sw	t3,4(a7)
   111b2:	d7be                	sw	a5,236(sp)
   111b4:	d5ba                	sw	a4,232(sp)
   111b6:	08a1                	addi	a7,a7,8
   111b8:	fee2d4e3          	bge	t0,a4,111a0 <_vfprintf_r+0xc06>
   111bc:	11d0                	addi	a2,sp,228
   111be:	85a6                	mv	a1,s1
   111c0:	8522                	mv	a0,s0
   111c2:	3cd070ef          	jal	ra,18d8e <__sprint_r>
   111c6:	52051a63          	bnez	a0,116fa <_vfprintf_r+0x1160>
   111ca:	4e41                	li	t3,16
   111cc:	1c41                	addi	s8,s8,-16
   111ce:	57be                	lw	a5,236(sp)
   111d0:	572e                	lw	a4,232(sp)
   111d2:	10c10893          	addi	a7,sp,268
   111d6:	429d                	li	t0,7
   111d8:	fd8e47e3          	blt	t3,s8,111a6 <_vfprintf_r+0xc0c>
   111dc:	86e2                	mv	a3,s8
   111de:	8eea                	mv	t4,s10
   111e0:	8c26                	mv	s8,s1
   111e2:	8d22                	mv	s10,s0
   111e4:	4496                	lw	s1,68(sp)
   111e6:	4406                	lw	s0,64(sp)
   111e8:	97b6                	add	a5,a5,a3
   111ea:	0705                	addi	a4,a4,1
   111ec:	00d8a223          	sw	a3,4(a7)
   111f0:	01d8a023          	sw	t4,0(a7)
   111f4:	d7be                	sw	a5,236(sp)
   111f6:	d5ba                	sw	a4,232(sp)
   111f8:	469d                	li	a3,7
   111fa:	08a1                	addi	a7,a7,8
   111fc:	d4e6d863          	bge	a3,a4,1074c <_vfprintf_r+0x1b2>
   11200:	11d0                	addi	a2,sp,228
   11202:	85e2                	mv	a1,s8
   11204:	856a                	mv	a0,s10
   11206:	389070ef          	jal	ra,18d8e <__sprint_r>
   1120a:	f12d                	bnez	a0,1116c <_vfprintf_r+0xbd2>
   1120c:	57be                	lw	a5,236(sp)
   1120e:	10c10893          	addi	a7,sp,268
   11212:	d3aff06f          	j	1074c <_vfprintf_r+0x1b2>
   11216:	11d0                	addi	a2,sp,228
   11218:	85e2                	mv	a1,s8
   1121a:	856a                	mv	a0,s10
   1121c:	373070ef          	jal	ra,18d8e <__sprint_r>
   11220:	f531                	bnez	a0,1116c <_vfprintf_r+0xbd2>
   11222:	57be                	lw	a5,236(sp)
   11224:	10c10893          	addi	a7,sp,268
   11228:	d6cff06f          	j	10794 <_vfprintf_r+0x1fa>
   1122c:	463e                	lw	a2,204(sp)
   1122e:	46c05e63          	blez	a2,116aa <_vfprintf_r+0x1110>
   11232:	4772                	lw	a4,28(sp)
   11234:	5682                	lw	a3,32(sp)
   11236:	84ba                	mv	s1,a4
   11238:	26e6c563          	blt	a3,a4,114a2 <_vfprintf_r+0xf08>
   1123c:	00905f63          	blez	s1,1125a <_vfprintf_r+0xcc0>
   11240:	572e                	lw	a4,232(sp)
   11242:	97a6                	add	a5,a5,s1
   11244:	0168a023          	sw	s6,0(a7)
   11248:	0705                	addi	a4,a4,1
   1124a:	0098a223          	sw	s1,4(a7)
   1124e:	d7be                	sw	a5,236(sp)
   11250:	d5ba                	sw	a4,232(sp)
   11252:	469d                	li	a3,7
   11254:	08a1                	addi	a7,a7,8
   11256:	7ee6c663          	blt	a3,a4,11a42 <_vfprintf_r+0x14a8>
   1125a:	fff4c713          	not	a4,s1
   1125e:	877d                	srai	a4,a4,0x1f
   11260:	8cf9                	and	s1,s1,a4
   11262:	4772                	lw	a4,28(sp)
   11264:	409704b3          	sub	s1,a4,s1
   11268:	32904663          	bgtz	s1,11594 <_vfprintf_r+0xffa>
   1126c:	46f2                	lw	a3,28(sp)
   1126e:	400a7713          	andi	a4,s4,1024
   11272:	00db0db3          	add	s11,s6,a3
   11276:	64071563          	bnez	a4,118c0 <_vfprintf_r+0x1326>
   1127a:	44be                	lw	s1,204(sp)
   1127c:	5702                	lw	a4,32(sp)
   1127e:	00e4c663          	blt	s1,a4,1128a <_vfprintf_r+0xcf0>
   11282:	001a7713          	andi	a4,s4,1
   11286:	7c070c63          	beqz	a4,11a5e <_vfprintf_r+0x14c4>
   1128a:	5742                	lw	a4,48(sp)
   1128c:	56b2                	lw	a3,44(sp)
   1128e:	461d                	li	a2,7
   11290:	00e8a023          	sw	a4,0(a7)
   11294:	572e                	lw	a4,232(sp)
   11296:	97b6                	add	a5,a5,a3
   11298:	00d8a223          	sw	a3,4(a7)
   1129c:	0705                	addi	a4,a4,1
   1129e:	d7be                	sw	a5,236(sp)
   112a0:	d5ba                	sw	a4,232(sp)
   112a2:	08a1                	addi	a7,a7,8
   112a4:	40e641e3          	blt	a2,a4,11ea6 <_vfprintf_r+0x190c>
   112a8:	5682                	lw	a3,32(sp)
   112aa:	00db0733          	add	a4,s6,a3
   112ae:	409684b3          	sub	s1,a3,s1
   112b2:	41b70733          	sub	a4,a4,s11
   112b6:	8926                	mv	s2,s1
   112b8:	00975363          	bge	a4,s1,112be <_vfprintf_r+0xd24>
   112bc:	893a                	mv	s2,a4
   112be:	01205f63          	blez	s2,112dc <_vfprintf_r+0xd42>
   112c2:	572e                	lw	a4,232(sp)
   112c4:	97ca                	add	a5,a5,s2
   112c6:	01b8a023          	sw	s11,0(a7)
   112ca:	0705                	addi	a4,a4,1
   112cc:	0128a223          	sw	s2,4(a7)
   112d0:	d7be                	sw	a5,236(sp)
   112d2:	d5ba                	sw	a4,232(sp)
   112d4:	469d                	li	a3,7
   112d6:	08a1                	addi	a7,a7,8
   112d8:	40e6c8e3          	blt	a3,a4,11ee8 <_vfprintf_r+0x194e>
   112dc:	fff94713          	not	a4,s2
   112e0:	877d                	srai	a4,a4,0x1f
   112e2:	00e97733          	and	a4,s2,a4
   112e6:	8c99                	sub	s1,s1,a4
   112e8:	cc905f63          	blez	s1,107c6 <_vfprintf_r+0x22c>
   112ec:	46c1                	li	a3,16
   112ee:	572e                	lw	a4,232(sp)
   112f0:	4296de63          	bge	a3,s1,1172c <_vfprintf_r+0x1192>
   112f4:	4941                	li	s2,16
   112f6:	4c9d                	li	s9,7
   112f8:	a021                	j	11300 <_vfprintf_r+0xd66>
   112fa:	14c1                	addi	s1,s1,-16
   112fc:	42995863          	bge	s2,s1,1172c <_vfprintf_r+0x1192>
   11300:	46a2                	lw	a3,8(sp)
   11302:	07c1                	addi	a5,a5,16
   11304:	0705                	addi	a4,a4,1
   11306:	00d8a023          	sw	a3,0(a7)
   1130a:	0128a223          	sw	s2,4(a7)
   1130e:	d7be                	sw	a5,236(sp)
   11310:	d5ba                	sw	a4,232(sp)
   11312:	08a1                	addi	a7,a7,8
   11314:	feecd3e3          	bge	s9,a4,112fa <_vfprintf_r+0xd60>
   11318:	11d0                	addi	a2,sp,228
   1131a:	85e2                	mv	a1,s8
   1131c:	856a                	mv	a0,s10
   1131e:	271070ef          	jal	ra,18d8e <__sprint_r>
   11322:	e40515e3          	bnez	a0,1116c <_vfprintf_r+0xbd2>
   11326:	57be                	lw	a5,236(sp)
   11328:	572e                	lw	a4,232(sp)
   1132a:	10c10893          	addi	a7,sp,268
   1132e:	b7f1                	j	112fa <_vfprintf_r+0xd60>
   11330:	001a7793          	andi	a5,s4,1
   11334:	fe079463          	bnez	a5,10b1c <_vfprintf_r+0x582>
   11338:	00d8a223          	sw	a3,4(a7)
   1133c:	d7e6                	sw	s9,236(sp)
   1133e:	d5a6                	sw	s1,232(sp)
   11340:	479d                	li	a5,7
   11342:	1897c363          	blt	a5,s1,114c8 <_vfprintf_r+0xf2e>
   11346:	0709                	addi	a4,a4,2
   11348:	08c1                	addi	a7,a7,16
   1134a:	b8a9                	j	10ba4 <_vfprintf_r+0x60a>
   1134c:	85b05ce3          	blez	s11,10ba4 <_vfprintf_r+0x60a>
   11350:	4641                	li	a2,16
   11352:	6db65ae3          	bge	a2,s11,12226 <_vfprintf_r+0x1c8c>
   11356:	4741                	li	a4,16
   11358:	4b1d                	li	s6,7
   1135a:	84b6                	mv	s1,a3
   1135c:	a029                	j	11366 <_vfprintf_r+0xdcc>
   1135e:	1dc1                	addi	s11,s11,-16
   11360:	15b75563          	bge	a4,s11,114aa <_vfprintf_r+0xf10>
   11364:	0485                	addi	s1,s1,1
   11366:	47a2                	lw	a5,8(sp)
   11368:	0cc1                	addi	s9,s9,16
   1136a:	00e92223          	sw	a4,4(s2)
   1136e:	00f92023          	sw	a5,0(s2)
   11372:	d7e6                	sw	s9,236(sp)
   11374:	d5a6                	sw	s1,232(sp)
   11376:	0921                	addi	s2,s2,8
   11378:	fe9b53e3          	bge	s6,s1,1135e <_vfprintf_r+0xdc4>
   1137c:	11d0                	addi	a2,sp,228
   1137e:	85e2                	mv	a1,s8
   11380:	856a                	mv	a0,s10
   11382:	20d070ef          	jal	ra,18d8e <__sprint_r>
   11386:	de0513e3          	bnez	a0,1116c <_vfprintf_r+0xbd2>
   1138a:	5cbe                	lw	s9,236(sp)
   1138c:	54ae                	lw	s1,232(sp)
   1138e:	10c10913          	addi	s2,sp,268
   11392:	4741                	li	a4,16
   11394:	b7e9                	j	1135e <_vfprintf_r+0xdc4>
   11396:	46d2                	lw	a3,20(sp)
   11398:	010a7793          	andi	a5,s4,16
   1139c:	00468713          	addi	a4,a3,4
   113a0:	e7f5                	bnez	a5,1148c <_vfprintf_r+0xef2>
   113a2:	040a7793          	andi	a5,s4,64
   113a6:	48078663          	beqz	a5,11832 <_vfprintf_r+0x1298>
   113aa:	47d2                	lw	a5,20(sp)
   113ac:	4901                	li	s2,0
   113ae:	ca3a                	sw	a4,20(sp)
   113b0:	0007dc83          	lhu	s9,0(a5)
   113b4:	b419                	j	10dba <_vfprintf_r+0x820>
   113b6:	46d2                	lw	a3,20(sp)
   113b8:	010a7793          	andi	a5,s4,16
   113bc:	00468713          	addi	a4,a3,4
   113c0:	e3cd                	bnez	a5,11462 <_vfprintf_r+0xec8>
   113c2:	040a7793          	andi	a5,s4,64
   113c6:	48078163          	beqz	a5,11848 <_vfprintf_r+0x12ae>
   113ca:	47d2                	lw	a5,20(sp)
   113cc:	ca3a                	sw	a4,20(sp)
   113ce:	00079c83          	lh	s9,0(a5)
   113d2:	41fcd913          	srai	s2,s9,0x1f
   113d6:	87ca                	mv	a5,s2
   113d8:	a407dae3          	bgez	a5,10e2c <_vfprintf_r+0x892>
   113dc:	019037b3          	snez	a5,s9
   113e0:	41200933          	neg	s2,s2
   113e4:	40f90933          	sub	s2,s2,a5
   113e8:	02d00793          	li	a5,45
   113ec:	0cf103a3          	sb	a5,199(sp)
   113f0:	41900cb3          	neg	s9,s9
   113f4:	8bd2                	mv	s7,s4
   113f6:	4785                	li	a5,1
   113f8:	b285                	j	10d58 <_vfprintf_r+0x7be>
   113fa:	4752                	lw	a4,20(sp)
   113fc:	010bf793          	andi	a5,s7,16
   11400:	00470693          	addi	a3,a4,4
   11404:	ebc9                	bnez	a5,11496 <_vfprintf_r+0xefc>
   11406:	040bf793          	andi	a5,s7,64
   1140a:	40078863          	beqz	a5,1181a <_vfprintf_r+0x1280>
   1140e:	47d2                	lw	a5,20(sp)
   11410:	4901                	li	s2,0
   11412:	ca36                	sw	a3,20(sp)
   11414:	0007dc83          	lhu	s9,0(a5)
   11418:	4785                	li	a5,1
   1141a:	ba2d                	j	10d54 <_vfprintf_r+0x7ba>
   1141c:	001a7713          	andi	a4,s4,1
   11420:	ba070363          	beqz	a4,107c6 <_vfprintf_r+0x22c>
   11424:	bee1                	j	10ffc <_vfprintf_r+0xa62>
   11426:	88e6                	mv	a7,s9
   11428:	baf9                	j	10e06 <_vfprintf_r+0x86c>
   1142a:	03000793          	li	a5,48
   1142e:	1af107a3          	sb	a5,431(sp)
   11432:	1af10b13          	addi	s6,sp,431
   11436:	b299                	j	10d7c <_vfprintf_r+0x7e2>
   11438:	57f2                	lw	a5,60(sp)
   1143a:	00044483          	lbu	s1,0(s0)
   1143e:	a8078c63          	beqz	a5,106d6 <_vfprintf_r+0x13c>
   11442:	0007c783          	lbu	a5,0(a5)
   11446:	a8078863          	beqz	a5,106d6 <_vfprintf_r+0x13c>
   1144a:	400a6a13          	ori	s4,s4,1024
   1144e:	a88ff06f          	j	106d6 <_vfprintf_r+0x13c>
   11452:	46b2                	lw	a3,12(sp)
   11454:	8b22                	mv	s6,s0
   11456:	41f6d793          	srai	a5,a3,0x1f
   1145a:	c314                	sw	a3,0(a4)
   1145c:	c35c                	sw	a5,4(a4)
   1145e:	b9cff06f          	j	107fa <_vfprintf_r+0x260>
   11462:	0006ac83          	lw	s9,0(a3)
   11466:	ca3a                	sw	a4,20(sp)
   11468:	41fcd913          	srai	s2,s9,0x1f
   1146c:	87ca                	mv	a5,s2
   1146e:	ba6d                	j	10e28 <_vfprintf_r+0x88e>
   11470:	4752                	lw	a4,20(sp)
   11472:	431c                	lw	a5,0(a4)
   11474:	0711                	addi	a4,a4,4
   11476:	ca3a                	sw	a4,20(sp)
   11478:	4390                	lw	a2,0(a5)
   1147a:	43d4                	lw	a3,4(a5)
   1147c:	4798                	lw	a4,8(a5)
   1147e:	47dc                	lw	a5,12(a5)
   11480:	d9b2                	sw	a2,240(sp)
   11482:	dbb6                	sw	a3,244(sp)
   11484:	ddba                	sw	a4,248(sp)
   11486:	dfbe                	sw	a5,252(sp)
   11488:	c80ff06f          	j	10908 <_vfprintf_r+0x36e>
   1148c:	0006ac83          	lw	s9,0(a3)
   11490:	4901                	li	s2,0
   11492:	ca3a                	sw	a4,20(sp)
   11494:	b21d                	j	10dba <_vfprintf_r+0x820>
   11496:	00072c83          	lw	s9,0(a4)
   1149a:	4901                	li	s2,0
   1149c:	ca36                	sw	a3,20(sp)
   1149e:	4785                	li	a5,1
   114a0:	b855                	j	10d54 <_vfprintf_r+0x7ba>
   114a2:	84b6                	mv	s1,a3
   114a4:	d8904ee3          	bgtz	s1,11240 <_vfprintf_r+0xca6>
   114a8:	bb4d                	j	1125a <_vfprintf_r+0xcc0>
   114aa:	00148713          	addi	a4,s1,1
   114ae:	00890693          	addi	a3,s2,8
   114b2:	47a2                	lw	a5,8(sp)
   114b4:	9cee                	add	s9,s9,s11
   114b6:	01b92223          	sw	s11,4(s2)
   114ba:	00f92023          	sw	a5,0(s2)
   114be:	d7e6                	sw	s9,236(sp)
   114c0:	d5ba                	sw	a4,232(sp)
   114c2:	479d                	li	a5,7
   114c4:	54e7d963          	bge	a5,a4,11a16 <_vfprintf_r+0x147c>
   114c8:	11d0                	addi	a2,sp,228
   114ca:	85e2                	mv	a1,s8
   114cc:	856a                	mv	a0,s10
   114ce:	0c1070ef          	jal	ra,18d8e <__sprint_r>
   114d2:	c8051de3          	bnez	a0,1116c <_vfprintf_r+0xbd2>
   114d6:	572e                	lw	a4,232(sp)
   114d8:	5cbe                	lw	s9,236(sp)
   114da:	11410893          	addi	a7,sp,276
   114de:	0705                	addi	a4,a4,1
   114e0:	10c10913          	addi	s2,sp,268
   114e4:	ec0ff06f          	j	10ba4 <_vfprintf_r+0x60a>
   114e8:	88e6                	mv	a7,s9
   114ea:	8bd2                	mv	s7,s4
   114ec:	b8f1                	j	10dc8 <_vfprintf_r+0x82e>
   114ee:	67f9                	lui	a5,0x1e
   114f0:	6d078793          	addi	a5,a5,1744 # 1e6d0 <__clzsi2+0xa2>
   114f4:	88e6                	mv	a7,s9
   114f6:	da3e                	sw	a5,52(sp)
   114f8:	020a7793          	andi	a5,s4,32
   114fc:	cff1                	beqz	a5,115d8 <_vfprintf_r+0x103e>
   114fe:	47d2                	lw	a5,20(sp)
   11500:	00778b13          	addi	s6,a5,7
   11504:	ff8b7b13          	andi	s6,s6,-8
   11508:	000b2c83          	lw	s9,0(s6)
   1150c:	004b2903          	lw	s2,4(s6)
   11510:	008b0793          	addi	a5,s6,8
   11514:	ca3e                	sw	a5,20(sp)
   11516:	001a7793          	andi	a5,s4,1
   1151a:	cf81                	beqz	a5,11532 <_vfprintf_r+0xf98>
   1151c:	012ce7b3          	or	a5,s9,s2
   11520:	cb89                	beqz	a5,11532 <_vfprintf_r+0xf98>
   11522:	03000793          	li	a5,48
   11526:	0cf10423          	sb	a5,200(sp)
   1152a:	0c9104a3          	sb	s1,201(sp)
   1152e:	002a6a13          	ori	s4,s4,2
   11532:	bffa7b93          	andi	s7,s4,-1025
   11536:	4789                	li	a5,2
   11538:	81dff06f          	j	10d54 <_vfprintf_r+0x7ba>
   1153c:	88e6                	mv	a7,s9
   1153e:	b8b1                	j	10d9a <_vfprintf_r+0x800>
   11540:	00144483          	lbu	s1,1(s0)
   11544:	020a6a13          	ori	s4,s4,32
   11548:	0405                	addi	s0,s0,1
   1154a:	98cff06f          	j	106d6 <_vfprintf_r+0x13c>
   1154e:	11d0                	addi	a2,sp,228
   11550:	85e2                	mv	a1,s8
   11552:	856a                	mv	a0,s10
   11554:	03b070ef          	jal	ra,18d8e <__sprint_r>
   11558:	c0051ae3          	bnez	a0,1116c <_vfprintf_r+0xbd2>
   1155c:	57be                	lw	a5,236(sp)
   1155e:	10c10893          	addi	a7,sp,268
   11562:	bc65                	j	1101a <_vfprintf_r+0xa80>
   11564:	67f9                	lui	a5,0x1e
   11566:	6e478793          	addi	a5,a5,1764 # 1e6e4 <__clzsi2+0xb6>
   1156a:	88e6                	mv	a7,s9
   1156c:	da3e                	sw	a5,52(sp)
   1156e:	b769                	j	114f8 <_vfprintf_r+0xf5e>
   11570:	00144483          	lbu	s1,1(s0)
   11574:	200a6a13          	ori	s4,s4,512
   11578:	0405                	addi	s0,s0,1
   1157a:	95cff06f          	j	106d6 <_vfprintf_r+0x13c>
   1157e:	4799                	li	a5,6
   11580:	8cee                	mv	s9,s11
   11582:	4db7ec63          	bltu	a5,s11,11a5a <_vfprintf_r+0x14c0>
   11586:	6879                	lui	a6,0x1e
   11588:	8ae6                	mv	s5,s9
   1158a:	ca4a                	sw	s2,20(sp)
   1158c:	6f880b13          	addi	s6,a6,1784 # 1e6f8 <__clzsi2+0xca>
   11590:	996ff06f          	j	10726 <_vfprintf_r+0x18c>
   11594:	46c1                	li	a3,16
   11596:	572e                	lw	a4,232(sp)
   11598:	2e96dc63          	bge	a3,s1,11890 <_vfprintf_r+0x12f6>
   1159c:	4cc1                	li	s9,16
   1159e:	4d9d                	li	s11,7
   115a0:	a021                	j	115a8 <_vfprintf_r+0x100e>
   115a2:	14c1                	addi	s1,s1,-16
   115a4:	2e9cd663          	bge	s9,s1,11890 <_vfprintf_r+0x12f6>
   115a8:	46a2                	lw	a3,8(sp)
   115aa:	07c1                	addi	a5,a5,16
   115ac:	0705                	addi	a4,a4,1
   115ae:	00d8a023          	sw	a3,0(a7)
   115b2:	0198a223          	sw	s9,4(a7)
   115b6:	d7be                	sw	a5,236(sp)
   115b8:	d5ba                	sw	a4,232(sp)
   115ba:	08a1                	addi	a7,a7,8
   115bc:	feedd3e3          	bge	s11,a4,115a2 <_vfprintf_r+0x1008>
   115c0:	11d0                	addi	a2,sp,228
   115c2:	85e2                	mv	a1,s8
   115c4:	856a                	mv	a0,s10
   115c6:	7c8070ef          	jal	ra,18d8e <__sprint_r>
   115ca:	ba0511e3          	bnez	a0,1116c <_vfprintf_r+0xbd2>
   115ce:	57be                	lw	a5,236(sp)
   115d0:	572e                	lw	a4,232(sp)
   115d2:	10c10893          	addi	a7,sp,268
   115d6:	b7f1                	j	115a2 <_vfprintf_r+0x1008>
   115d8:	46d2                	lw	a3,20(sp)
   115da:	010a7793          	andi	a5,s4,16
   115de:	00468713          	addi	a4,a3,4
   115e2:	12078063          	beqz	a5,11702 <_vfprintf_r+0x1168>
   115e6:	0006ac83          	lw	s9,0(a3)
   115ea:	4901                	li	s2,0
   115ec:	ca3a                	sw	a4,20(sp)
   115ee:	b725                	j	11516 <_vfprintf_r+0xf7c>
   115f0:	11d0                	addi	a2,sp,228
   115f2:	85e2                	mv	a1,s8
   115f4:	856a                	mv	a0,s10
   115f6:	798070ef          	jal	ra,18d8e <__sprint_r>
   115fa:	b60519e3          	bnez	a0,1116c <_vfprintf_r+0xbd2>
   115fe:	5cbe                	lw	s9,236(sp)
   11600:	54ae                	lw	s1,232(sp)
   11602:	10c10913          	addi	s2,sp,268
   11606:	d26ff06f          	j	10b2c <_vfprintf_r+0x592>
   1160a:	11d0                	addi	a2,sp,228
   1160c:	85e2                	mv	a1,s8
   1160e:	856a                	mv	a0,s10
   11610:	77e070ef          	jal	ra,18d8e <__sprint_r>
   11614:	b4051ce3          	bnez	a0,1116c <_vfprintf_r+0xbd2>
   11618:	5cbe                	lw	s9,236(sp)
   1161a:	54ae                	lw	s1,232(sp)
   1161c:	10c10913          	addi	s2,sp,268
   11620:	d28ff06f          	j	10b48 <_vfprintf_r+0x5ae>
   11624:	1b010b13          	addi	s6,sp,432
   11628:	4781                	li	a5,0
   1162a:	c822                	sw	s0,16(sp)
   1162c:	ce26                	sw	s1,28(sp)
   1162e:	845a                	mv	s0,s6
   11630:	d24e                	sw	s3,36(sp)
   11632:	8b62                	mv	s6,s8
   11634:	84e6                	mv	s1,s9
   11636:	89ca                	mv	s3,s2
   11638:	5cf2                	lw	s9,60(sp)
   1163a:	400bfa13          	andi	s4,s7,1024
   1163e:	0ff00a93          	li	s5,255
   11642:	8c46                	mv	s8,a7
   11644:	893e                	mv	s2,a5
   11646:	a819                	j	1165c <_vfprintf_r+0x10c2>
   11648:	4629                	li	a2,10
   1164a:	4681                	li	a3,0
   1164c:	8526                	mv	a0,s1
   1164e:	85ce                	mv	a1,s3
   11650:	6b1090ef          	jal	ra,1b500 <__udivdi3>
   11654:	3a098d63          	beqz	s3,11a0e <_vfprintf_r+0x1474>
   11658:	84aa                	mv	s1,a0
   1165a:	89ae                	mv	s3,a1
   1165c:	4629                	li	a2,10
   1165e:	4681                	li	a3,0
   11660:	8526                	mv	a0,s1
   11662:	85ce                	mv	a1,s3
   11664:	1fc0a0ef          	jal	ra,1b860 <__umoddi3>
   11668:	03050513          	addi	a0,a0,48
   1166c:	fea40fa3          	sb	a0,-1(s0)
   11670:	0905                	addi	s2,s2,1
   11672:	147d                	addi	s0,s0,-1
   11674:	fc0a0ae3          	beqz	s4,11648 <_vfprintf_r+0x10ae>
   11678:	000cc683          	lbu	a3,0(s9)
   1167c:	fcd916e3          	bne	s2,a3,11648 <_vfprintf_r+0x10ae>
   11680:	fd5904e3          	beq	s2,s5,11648 <_vfprintf_r+0x10ae>
   11684:	36099163          	bnez	s3,119e6 <_vfprintf_r+0x144c>
   11688:	47a5                	li	a5,9
   1168a:	3497ee63          	bltu	a5,s1,119e6 <_vfprintf_r+0x144c>
   1168e:	88e2                	mv	a7,s8
   11690:	1b1c                	addi	a5,sp,432
   11692:	8c5a                	mv	s8,s6
   11694:	8b22                	mv	s6,s0
   11696:	de66                	sw	s9,60(sp)
   11698:	44f2                	lw	s1,28(sp)
   1169a:	5992                	lw	s3,36(sp)
   1169c:	4442                	lw	s0,16(sp)
   1169e:	d04a                	sw	s2,32(sp)
   116a0:	41678cb3          	sub	s9,a5,s6
   116a4:	8a5e                	mv	s4,s7
   116a6:	ed6ff06f          	j	10d7c <_vfprintf_r+0x7e2>
   116aa:	572e                	lw	a4,232(sp)
   116ac:	66f9                	lui	a3,0x1e
   116ae:	70068693          	addi	a3,a3,1792 # 1e700 <__clzsi2+0xd2>
   116b2:	00d8a023          	sw	a3,0(a7)
   116b6:	0785                	addi	a5,a5,1
   116b8:	4685                	li	a3,1
   116ba:	0705                	addi	a4,a4,1
   116bc:	00d8a223          	sw	a3,4(a7)
   116c0:	d7be                	sw	a5,236(sp)
   116c2:	d5ba                	sw	a4,232(sp)
   116c4:	469d                	li	a3,7
   116c6:	08a1                	addi	a7,a7,8
   116c8:	34e6cd63          	blt	a3,a4,11a22 <_vfprintf_r+0x1488>
   116cc:	ee71                	bnez	a2,117a8 <_vfprintf_r+0x120e>
   116ce:	5682                	lw	a3,32(sp)
   116d0:	001a7713          	andi	a4,s4,1
   116d4:	8f55                	or	a4,a4,a3
   116d6:	8e070863          	beqz	a4,107c6 <_vfprintf_r+0x22c>
   116da:	5742                	lw	a4,48(sp)
   116dc:	56b2                	lw	a3,44(sp)
   116de:	00e8a023          	sw	a4,0(a7)
   116e2:	572e                	lw	a4,232(sp)
   116e4:	97b6                	add	a5,a5,a3
   116e6:	00d8a223          	sw	a3,4(a7)
   116ea:	0705                	addi	a4,a4,1
   116ec:	d7be                	sw	a5,236(sp)
   116ee:	d5ba                	sw	a4,232(sp)
   116f0:	469d                	li	a3,7
   116f2:	3ee6c263          	blt	a3,a4,11ad6 <_vfprintf_r+0x153c>
   116f6:	08a1                	addi	a7,a7,8
   116f8:	a8c9                	j	117ca <_vfprintf_r+0x1230>
   116fa:	4bc2                	lw	s7,16(sp)
   116fc:	8d22                	mv	s10,s0
   116fe:	8c26                	mv	s8,s1
   11700:	b4bd                	j	1116e <_vfprintf_r+0xbd4>
   11702:	040a7793          	andi	a5,s4,64
   11706:	14078e63          	beqz	a5,11862 <_vfprintf_r+0x12c8>
   1170a:	47d2                	lw	a5,20(sp)
   1170c:	4901                	li	s2,0
   1170e:	ca3a                	sw	a4,20(sp)
   11710:	0007dc83          	lhu	s9,0(a5)
   11714:	b509                	j	11516 <_vfprintf_r+0xf7c>
   11716:	11d0                	addi	a2,sp,228
   11718:	85e2                	mv	a1,s8
   1171a:	856a                	mv	a0,s10
   1171c:	672070ef          	jal	ra,18d8e <__sprint_r>
   11720:	a40516e3          	bnez	a0,1116c <_vfprintf_r+0xbd2>
   11724:	57be                	lw	a5,236(sp)
   11726:	10c10893          	addi	a7,sp,268
   1172a:	b0e9                	j	10ff4 <_vfprintf_r+0xa5a>
   1172c:	46a2                	lw	a3,8(sp)
   1172e:	97a6                	add	a5,a5,s1
   11730:	0098a223          	sw	s1,4(a7)
   11734:	00d8a023          	sw	a3,0(a7)
   11738:	0705                	addi	a4,a4,1
   1173a:	d7be                	sw	a5,236(sp)
   1173c:	d5ba                	sw	a4,232(sp)
   1173e:	469d                	li	a3,7
   11740:	00e6c463          	blt	a3,a4,11748 <_vfprintf_r+0x11ae>
   11744:	880ff06f          	j	107c4 <_vfprintf_r+0x22a>
   11748:	c76ff06f          	j	10bbe <_vfprintf_r+0x624>
   1174c:	57ce                	lw	a5,240(sp)
   1174e:	110c                	addi	a1,sp,160
   11750:	1908                	addi	a0,sp,176
   11752:	d93e                	sw	a5,176(sp)
   11754:	57de                	lw	a5,244(sp)
   11756:	d102                	sw	zero,160(sp)
   11758:	d302                	sw	zero,164(sp)
   1175a:	db3e                	sw	a5,180(sp)
   1175c:	57ee                	lw	a5,248(sp)
   1175e:	d502                	sw	zero,168(sp)
   11760:	d702                	sw	zero,172(sp)
   11762:	dd3e                	sw	a5,184(sp)
   11764:	57fe                	lw	a5,252(sp)
   11766:	df3e                	sw	a5,188(sp)
   11768:	74f0a0ef          	jal	ra,1c6b6 <__letf2>
   1176c:	48c2                	lw	a7,16(sp)
   1176e:	72054763          	bltz	a0,11e9c <_vfprintf_r+0x1902>
   11772:	0c714783          	lbu	a5,199(sp)
   11776:	04700713          	li	a4,71
   1177a:	2c975063          	bge	a4,s1,11a3a <_vfprintf_r+0x14a0>
   1177e:	6879                	lui	a6,0x1e
   11780:	6c480b13          	addi	s6,a6,1732 # 1e6c4 <__clzsi2+0x96>
   11784:	c802                	sw	zero,16(sp)
   11786:	d402                	sw	zero,40(sp)
   11788:	d202                	sw	zero,36(sp)
   1178a:	ce02                	sw	zero,28(sp)
   1178c:	f7fa7a13          	andi	s4,s4,-129
   11790:	4a8d                	li	s5,3
   11792:	4c8d                	li	s9,3
   11794:	4d81                	li	s11,0
   11796:	d2079b63          	bnez	a5,10ccc <_vfprintf_r+0x732>
   1179a:	f97fe06f          	j	10730 <_vfprintf_r+0x196>
   1179e:	47b2                	lw	a5,12(sp)
   117a0:	8b22                	mv	s6,s0
   117a2:	c31c                	sw	a5,0(a4)
   117a4:	856ff06f          	j	107fa <_vfprintf_r+0x260>
   117a8:	5742                	lw	a4,48(sp)
   117aa:	56b2                	lw	a3,44(sp)
   117ac:	08a1                	addi	a7,a7,8
   117ae:	fee8ac23          	sw	a4,-8(a7)
   117b2:	572e                	lw	a4,232(sp)
   117b4:	97b6                	add	a5,a5,a3
   117b6:	fed8ae23          	sw	a3,-4(a7)
   117ba:	0705                	addi	a4,a4,1
   117bc:	d7be                	sw	a5,236(sp)
   117be:	d5ba                	sw	a4,232(sp)
   117c0:	469d                	li	a3,7
   117c2:	30e6ca63          	blt	a3,a4,11ad6 <_vfprintf_r+0x153c>
   117c6:	78064863          	bltz	a2,11f56 <_vfprintf_r+0x19bc>
   117ca:	5682                	lw	a3,32(sp)
   117cc:	0705                	addi	a4,a4,1
   117ce:	0168a023          	sw	s6,0(a7)
   117d2:	97b6                	add	a5,a5,a3
   117d4:	00d8a223          	sw	a3,4(a7)
   117d8:	d7be                	sw	a5,236(sp)
   117da:	d5ba                	sw	a4,232(sp)
   117dc:	469d                	li	a3,7
   117de:	00e6c463          	blt	a3,a4,117e6 <_vfprintf_r+0x124c>
   117e2:	fe3fe06f          	j	107c4 <_vfprintf_r+0x22a>
   117e6:	bd8ff06f          	j	10bbe <_vfprintf_r+0x624>
   117ea:	855a                	mv	a0,s6
   117ec:	c0e6                	sw	s9,64(sp)
   117ee:	d4bfe0ef          	jal	ra,10538 <strlen>
   117f2:	0c714783          	lbu	a5,199(sp)
   117f6:	fff54a93          	not	s5,a0
   117fa:	41fada93          	srai	s5,s5,0x1f
   117fe:	ca4a                	sw	s2,20(sp)
   11800:	c802                	sw	zero,16(sp)
   11802:	d402                	sw	zero,40(sp)
   11804:	d202                	sw	zero,36(sp)
   11806:	ce02                	sw	zero,28(sp)
   11808:	4886                	lw	a7,64(sp)
   1180a:	8caa                	mv	s9,a0
   1180c:	01557ab3          	and	s5,a0,s5
   11810:	4d81                	li	s11,0
   11812:	ca079d63          	bnez	a5,10ccc <_vfprintf_r+0x732>
   11816:	f1bfe06f          	j	10730 <_vfprintf_r+0x196>
   1181a:	200bf793          	andi	a5,s7,512
   1181e:	28078863          	beqz	a5,11aae <_vfprintf_r+0x1514>
   11822:	47d2                	lw	a5,20(sp)
   11824:	4901                	li	s2,0
   11826:	ca36                	sw	a3,20(sp)
   11828:	0007cc83          	lbu	s9,0(a5)
   1182c:	4785                	li	a5,1
   1182e:	d26ff06f          	j	10d54 <_vfprintf_r+0x7ba>
   11832:	200a7793          	andi	a5,s4,512
   11836:	26078563          	beqz	a5,11aa0 <_vfprintf_r+0x1506>
   1183a:	47d2                	lw	a5,20(sp)
   1183c:	4901                	li	s2,0
   1183e:	ca3a                	sw	a4,20(sp)
   11840:	0007cc83          	lbu	s9,0(a5)
   11844:	d76ff06f          	j	10dba <_vfprintf_r+0x820>
   11848:	200a7793          	andi	a5,s4,512
   1184c:	24078163          	beqz	a5,11a8e <_vfprintf_r+0x14f4>
   11850:	47d2                	lw	a5,20(sp)
   11852:	ca3a                	sw	a4,20(sp)
   11854:	00078c83          	lb	s9,0(a5)
   11858:	41fcd913          	srai	s2,s9,0x1f
   1185c:	87ca                	mv	a5,s2
   1185e:	dcaff06f          	j	10e28 <_vfprintf_r+0x88e>
   11862:	200a7793          	andi	a5,s4,512
   11866:	20078e63          	beqz	a5,11a82 <_vfprintf_r+0x14e8>
   1186a:	47d2                	lw	a5,20(sp)
   1186c:	4901                	li	s2,0
   1186e:	ca3a                	sw	a4,20(sp)
   11870:	0007cc83          	lbu	s9,0(a5)
   11874:	b14d                	j	11516 <_vfprintf_r+0xf7c>
   11876:	57fe                	lw	a5,252(sp)
   11878:	2407c363          	bltz	a5,11abe <_vfprintf_r+0x1524>
   1187c:	0c714783          	lbu	a5,199(sp)
   11880:	04700713          	li	a4,71
   11884:	6a975763          	bge	a4,s1,11f32 <_vfprintf_r+0x1998>
   11888:	6879                	lui	a6,0x1e
   1188a:	6cc80b13          	addi	s6,a6,1740 # 1e6cc <__clzsi2+0x9e>
   1188e:	bddd                	j	11784 <_vfprintf_r+0x11ea>
   11890:	46a2                	lw	a3,8(sp)
   11892:	97a6                	add	a5,a5,s1
   11894:	0705                	addi	a4,a4,1
   11896:	00d8a023          	sw	a3,0(a7)
   1189a:	0098a223          	sw	s1,4(a7)
   1189e:	d7be                	sw	a5,236(sp)
   118a0:	d5ba                	sw	a4,232(sp)
   118a2:	469d                	li	a3,7
   118a4:	08a1                	addi	a7,a7,8
   118a6:	9ce6d3e3          	bge	a3,a4,1126c <_vfprintf_r+0xcd2>
   118aa:	11d0                	addi	a2,sp,228
   118ac:	85e2                	mv	a1,s8
   118ae:	856a                	mv	a0,s10
   118b0:	4de070ef          	jal	ra,18d8e <__sprint_r>
   118b4:	8a051ce3          	bnez	a0,1116c <_vfprintf_r+0xbd2>
   118b8:	57be                	lw	a5,236(sp)
   118ba:	10c10893          	addi	a7,sp,268
   118be:	b27d                	j	1126c <_vfprintf_r+0xcd2>
   118c0:	5702                	lw	a4,32(sp)
   118c2:	5c92                	lw	s9,36(sp)
   118c4:	ce52                	sw	s4,28(sp)
   118c6:	c0a2                	sw	s0,64(sp)
   118c8:	c2ce                	sw	s3,68(sp)
   118ca:	d256                	sw	s5,36(sp)
   118cc:	59a2                	lw	s3,40(sp)
   118ce:	d45a                	sw	s6,40(sp)
   118d0:	00eb0bb3          	add	s7,s6,a4
   118d4:	5472                	lw	s0,60(sp)
   118d6:	4a26                	lw	s4,72(sp)
   118d8:	4ab6                	lw	s5,76(sp)
   118da:	449d                	li	s1,7
   118dc:	4941                	li	s2,16
   118de:	8b62                	mv	s6,s8
   118e0:	060c8663          	beqz	s9,1194c <_vfprintf_r+0x13b2>
   118e4:	06099663          	bnez	s3,11950 <_vfprintf_r+0x13b6>
   118e8:	147d                	addi	s0,s0,-1
   118ea:	1cfd                	addi	s9,s9,-1
   118ec:	572e                	lw	a4,232(sp)
   118ee:	97d2                	add	a5,a5,s4
   118f0:	0158a023          	sw	s5,0(a7)
   118f4:	0705                	addi	a4,a4,1
   118f6:	0148a223          	sw	s4,4(a7)
   118fa:	d7be                	sw	a5,236(sp)
   118fc:	d5ba                	sw	a4,232(sp)
   118fe:	08a1                	addi	a7,a7,8
   11900:	0ae4cb63          	blt	s1,a4,119b6 <_vfprintf_r+0x141c>
   11904:	00044683          	lbu	a3,0(s0)
   11908:	41bb8633          	sub	a2,s7,s11
   1190c:	8c36                	mv	s8,a3
   1190e:	00d65363          	bge	a2,a3,11914 <_vfprintf_r+0x137a>
   11912:	8c32                	mv	s8,a2
   11914:	03805063          	blez	s8,11934 <_vfprintf_r+0x139a>
   11918:	56ae                	lw	a3,232(sp)
   1191a:	97e2                	add	a5,a5,s8
   1191c:	01b8a023          	sw	s11,0(a7)
   11920:	0685                	addi	a3,a3,1
   11922:	0188a223          	sw	s8,4(a7)
   11926:	d7be                	sw	a5,236(sp)
   11928:	d5b6                	sw	a3,232(sp)
   1192a:	0ad4c163          	blt	s1,a3,119cc <_vfprintf_r+0x1432>
   1192e:	00044683          	lbu	a3,0(s0)
   11932:	08a1                	addi	a7,a7,8
   11934:	fffc4613          	not	a2,s8
   11938:	867d                	srai	a2,a2,0x1f
   1193a:	00cc7733          	and	a4,s8,a2
   1193e:	40e68c33          	sub	s8,a3,a4
   11942:	01804963          	bgtz	s8,11954 <_vfprintf_r+0x13ba>
   11946:	9db6                	add	s11,s11,a3
   11948:	f80c9ee3          	bnez	s9,118e4 <_vfprintf_r+0x134a>
   1194c:	3c098963          	beqz	s3,11d1e <_vfprintf_r+0x1784>
   11950:	19fd                	addi	s3,s3,-1
   11952:	bf69                	j	118ec <_vfprintf_r+0x1352>
   11954:	56ae                	lw	a3,232(sp)
   11956:	01894663          	blt	s2,s8,11962 <_vfprintf_r+0x13c8>
   1195a:	a835                	j	11996 <_vfprintf_r+0x13fc>
   1195c:	1c41                	addi	s8,s8,-16
   1195e:	03895c63          	bge	s2,s8,11996 <_vfprintf_r+0x13fc>
   11962:	4722                	lw	a4,8(sp)
   11964:	07c1                	addi	a5,a5,16
   11966:	0685                	addi	a3,a3,1
   11968:	00e8a023          	sw	a4,0(a7)
   1196c:	0128a223          	sw	s2,4(a7)
   11970:	d7be                	sw	a5,236(sp)
   11972:	d5b6                	sw	a3,232(sp)
   11974:	08a1                	addi	a7,a7,8
   11976:	fed4d3e3          	bge	s1,a3,1195c <_vfprintf_r+0x13c2>
   1197a:	11d0                	addi	a2,sp,228
   1197c:	85da                	mv	a1,s6
   1197e:	856a                	mv	a0,s10
   11980:	40e070ef          	jal	ra,18d8e <__sprint_r>
   11984:	40051d63          	bnez	a0,11d9e <_vfprintf_r+0x1804>
   11988:	1c41                	addi	s8,s8,-16
   1198a:	57be                	lw	a5,236(sp)
   1198c:	56ae                	lw	a3,232(sp)
   1198e:	10c10893          	addi	a7,sp,268
   11992:	fd8948e3          	blt	s2,s8,11962 <_vfprintf_r+0x13c8>
   11996:	4722                	lw	a4,8(sp)
   11998:	97e2                	add	a5,a5,s8
   1199a:	0685                	addi	a3,a3,1
   1199c:	00e8a023          	sw	a4,0(a7)
   119a0:	0188a223          	sw	s8,4(a7)
   119a4:	d7be                	sw	a5,236(sp)
   119a6:	d5b6                	sw	a3,232(sp)
   119a8:	40d4c963          	blt	s1,a3,11dba <_vfprintf_r+0x1820>
   119ac:	00044683          	lbu	a3,0(s0)
   119b0:	08a1                	addi	a7,a7,8
   119b2:	9db6                	add	s11,s11,a3
   119b4:	bf51                	j	11948 <_vfprintf_r+0x13ae>
   119b6:	11d0                	addi	a2,sp,228
   119b8:	85da                	mv	a1,s6
   119ba:	856a                	mv	a0,s10
   119bc:	3d2070ef          	jal	ra,18d8e <__sprint_r>
   119c0:	3c051f63          	bnez	a0,11d9e <_vfprintf_r+0x1804>
   119c4:	57be                	lw	a5,236(sp)
   119c6:	10c10893          	addi	a7,sp,268
   119ca:	bf2d                	j	11904 <_vfprintf_r+0x136a>
   119cc:	11d0                	addi	a2,sp,228
   119ce:	85da                	mv	a1,s6
   119d0:	856a                	mv	a0,s10
   119d2:	3bc070ef          	jal	ra,18d8e <__sprint_r>
   119d6:	3c051463          	bnez	a0,11d9e <_vfprintf_r+0x1804>
   119da:	00044683          	lbu	a3,0(s0)
   119de:	57be                	lw	a5,236(sp)
   119e0:	10c10893          	addi	a7,sp,268
   119e4:	bf81                	j	11934 <_vfprintf_r+0x139a>
   119e6:	47a6                	lw	a5,72(sp)
   119e8:	45b6                	lw	a1,76(sp)
   119ea:	4901                	li	s2,0
   119ec:	8c1d                	sub	s0,s0,a5
   119ee:	863e                	mv	a2,a5
   119f0:	8522                	mv	a0,s0
   119f2:	5e2050ef          	jal	ra,16fd4 <strncpy>
   119f6:	001cc583          	lbu	a1,1(s9)
   119fa:	4629                	li	a2,10
   119fc:	4681                	li	a3,0
   119fe:	00b03833          	snez	a6,a1
   11a02:	8526                	mv	a0,s1
   11a04:	85ce                	mv	a1,s3
   11a06:	9cc2                	add	s9,s9,a6
   11a08:	2f9090ef          	jal	ra,1b500 <__udivdi3>
   11a0c:	b1b1                	j	11658 <_vfprintf_r+0x10be>
   11a0e:	47a5                	li	a5,9
   11a10:	c497e4e3          	bltu	a5,s1,11658 <_vfprintf_r+0x10be>
   11a14:	b9ad                	j	1168e <_vfprintf_r+0x10f4>
   11a16:	0705                	addi	a4,a4,1
   11a18:	00868893          	addi	a7,a3,8
   11a1c:	8936                	mv	s2,a3
   11a1e:	986ff06f          	j	10ba4 <_vfprintf_r+0x60a>
   11a22:	11d0                	addi	a2,sp,228
   11a24:	85e2                	mv	a1,s8
   11a26:	856a                	mv	a0,s10
   11a28:	366070ef          	jal	ra,18d8e <__sprint_r>
   11a2c:	f4051063          	bnez	a0,1116c <_vfprintf_r+0xbd2>
   11a30:	463e                	lw	a2,204(sp)
   11a32:	57be                	lw	a5,236(sp)
   11a34:	10c10893          	addi	a7,sp,268
   11a38:	b951                	j	116cc <_vfprintf_r+0x1132>
   11a3a:	6879                	lui	a6,0x1e
   11a3c:	6c080b13          	addi	s6,a6,1728 # 1e6c0 <__clzsi2+0x92>
   11a40:	b391                	j	11784 <_vfprintf_r+0x11ea>
   11a42:	11d0                	addi	a2,sp,228
   11a44:	85e2                	mv	a1,s8
   11a46:	856a                	mv	a0,s10
   11a48:	346070ef          	jal	ra,18d8e <__sprint_r>
   11a4c:	f2051063          	bnez	a0,1116c <_vfprintf_r+0xbd2>
   11a50:	57be                	lw	a5,236(sp)
   11a52:	10c10893          	addi	a7,sp,268
   11a56:	805ff06f          	j	1125a <_vfprintf_r+0xcc0>
   11a5a:	4c99                	li	s9,6
   11a5c:	b62d                	j	11586 <_vfprintf_r+0xfec>
   11a5e:	5702                	lw	a4,32(sp)
   11a60:	00eb0833          	add	a6,s6,a4
   11a64:	409704b3          	sub	s1,a4,s1
   11a68:	41b806b3          	sub	a3,a6,s11
   11a6c:	8926                	mv	s2,s1
   11a6e:	8696d7e3          	bge	a3,s1,112dc <_vfprintf_r+0xd42>
   11a72:	8936                	mv	s2,a3
   11a74:	b0a5                	j	112dc <_vfprintf_r+0xd42>
   11a76:	47b2                	lw	a5,12(sp)
   11a78:	8b22                	mv	s6,s0
   11a7a:	00f71023          	sh	a5,0(a4)
   11a7e:	d7dfe06f          	j	107fa <_vfprintf_r+0x260>
   11a82:	47d2                	lw	a5,20(sp)
   11a84:	4901                	li	s2,0
   11a86:	ca3a                	sw	a4,20(sp)
   11a88:	0007ac83          	lw	s9,0(a5)
   11a8c:	b469                	j	11516 <_vfprintf_r+0xf7c>
   11a8e:	47d2                	lw	a5,20(sp)
   11a90:	ca3a                	sw	a4,20(sp)
   11a92:	0007ac83          	lw	s9,0(a5)
   11a96:	41fcd913          	srai	s2,s9,0x1f
   11a9a:	87ca                	mv	a5,s2
   11a9c:	b8cff06f          	j	10e28 <_vfprintf_r+0x88e>
   11aa0:	47d2                	lw	a5,20(sp)
   11aa2:	4901                	li	s2,0
   11aa4:	ca3a                	sw	a4,20(sp)
   11aa6:	0007ac83          	lw	s9,0(a5)
   11aaa:	b10ff06f          	j	10dba <_vfprintf_r+0x820>
   11aae:	47d2                	lw	a5,20(sp)
   11ab0:	4901                	li	s2,0
   11ab2:	ca36                	sw	a3,20(sp)
   11ab4:	0007ac83          	lw	s9,0(a5)
   11ab8:	4785                	li	a5,1
   11aba:	a9aff06f          	j	10d54 <_vfprintf_r+0x7ba>
   11abe:	02d00793          	li	a5,45
   11ac2:	0cf103a3          	sb	a5,199(sp)
   11ac6:	bb6d                	j	11880 <_vfprintf_r+0x12e6>
   11ac8:	11d0                	addi	a2,sp,228
   11aca:	85e2                	mv	a1,s8
   11acc:	856a                	mv	a0,s10
   11ace:	2c0070ef          	jal	ra,18d8e <__sprint_r>
   11ad2:	d39fe06f          	j	1080a <_vfprintf_r+0x270>
   11ad6:	11d0                	addi	a2,sp,228
   11ad8:	85e2                	mv	a1,s8
   11ada:	856a                	mv	a0,s10
   11adc:	2b2070ef          	jal	ra,18d8e <__sprint_r>
   11ae0:	e8051663          	bnez	a0,1116c <_vfprintf_r+0xbd2>
   11ae4:	463e                	lw	a2,204(sp)
   11ae6:	57be                	lw	a5,236(sp)
   11ae8:	572e                	lw	a4,232(sp)
   11aea:	10c10893          	addi	a7,sp,268
   11aee:	b9e1                	j	117c6 <_vfprintf_r+0x122c>
   11af0:	03000793          	li	a5,48
   11af4:	0cf10423          	sb	a5,200(sp)
   11af8:	05800793          	li	a5,88
   11afc:	002a6713          	ori	a4,s4,2
   11b00:	0cf104a3          	sb	a5,201(sp)
   11b04:	c8ba                	sw	a4,80(sp)
   11b06:	06300793          	li	a5,99
   11b0a:	c802                	sw	zero,16(sp)
   11b0c:	14c10b13          	addi	s6,sp,332
   11b10:	4fb7c363          	blt	a5,s11,11ff6 <_vfprintf_r+0x1a5c>
   11b14:	5bfe                	lw	s7,252(sp)
   11b16:	fdf4f793          	andi	a5,s1,-33
   11b1a:	d43e                	sw	a5,40(sp)
   11b1c:	cc82                	sw	zero,88(sp)
   11b1e:	5e4e                	lw	t3,240(sp)
   11b20:	5ede                	lw	t4,244(sp)
   11b22:	5f6e                	lw	t5,248(sp)
   11b24:	102a6a13          	ori	s4,s4,258
   11b28:	280bc163          	bltz	s7,11daa <_vfprintf_r+0x1810>
   11b2c:	06100793          	li	a5,97
   11b30:	60f48c63          	beq	s1,a5,12148 <_vfprintf_r+0x1bae>
   11b34:	04100793          	li	a5,65
   11b38:	00f48463          	beq	s1,a5,11b40 <_vfprintf_r+0x15a6>
   11b3c:	e35fe06f          	j	10970 <_vfprintf_r+0x3d6>
   11b40:	0b010a93          	addi	s5,sp,176
   11b44:	8556                	mv	a0,s5
   11b46:	cac6                	sw	a7,84(sp)
   11b48:	d972                	sw	t3,176(sp)
   11b4a:	db76                	sw	t4,180(sp)
   11b4c:	dd7a                	sw	t5,184(sp)
   11b4e:	df5e                	sw	s7,188(sp)
   11b50:	0a30c0ef          	jal	ra,1e3f2 <__trunctfdf2>
   11b54:	01f0                	addi	a2,sp,204
   11b56:	10e050ef          	jal	ra,16c64 <frexp>
   11b5a:	862e                	mv	a2,a1
   11b5c:	85aa                	mv	a1,a0
   11b5e:	8556                	mv	a0,s5
   11b60:	7420c0ef          	jal	ra,1e2a2 <__extenddftf2>
   11b64:	57ca                	lw	a5,176(sp)
   11b66:	0a010c93          	addi	s9,sp,160
   11b6a:	09010913          	addi	s2,sp,144
   11b6e:	c93e                	sw	a5,144(sp)
   11b70:	57da                	lw	a5,180(sp)
   11b72:	0110                	addi	a2,sp,128
   11b74:	85ca                	mv	a1,s2
   11b76:	cb3e                	sw	a5,148(sp)
   11b78:	57ea                	lw	a5,184(sp)
   11b7a:	8566                	mv	a0,s9
   11b7c:	c0b2                	sw	a2,64(sp)
   11b7e:	cd3e                	sw	a5,152(sp)
   11b80:	57fa                	lw	a5,188(sp)
   11b82:	c102                	sw	zero,128(sp)
   11b84:	c302                	sw	zero,132(sp)
   11b86:	cf3e                	sw	a5,156(sp)
   11b88:	3ffc07b7          	lui	a5,0x3ffc0
   11b8c:	c73e                	sw	a5,140(sp)
   11b8e:	c502                	sw	zero,136(sp)
   11b90:	41b0a0ef          	jal	ra,1c7aa <__multf3>
   11b94:	568a                	lw	a3,160(sp)
   11b96:	5e1a                	lw	t3,164(sp)
   11b98:	5eaa                	lw	t4,168(sp)
   11b9a:	5f3a                	lw	t5,172(sp)
   11b9c:	85e6                	mv	a1,s9
   11b9e:	8556                	mv	a0,s5
   11ba0:	d936                	sw	a3,176(sp)
   11ba2:	c2b6                	sw	a3,68(sp)
   11ba4:	db72                	sw	t3,180(sp)
   11ba6:	d272                	sw	t3,36(sp)
   11ba8:	dd76                	sw	t4,184(sp)
   11baa:	d076                	sw	t4,32(sp)
   11bac:	df7a                	sw	t5,188(sp)
   11bae:	ce7a                	sw	t5,28(sp)
   11bb0:	d102                	sw	zero,160(sp)
   11bb2:	d302                	sw	zero,164(sp)
   11bb4:	d502                	sw	zero,168(sp)
   11bb6:	d702                	sw	zero,172(sp)
   11bb8:	1650a0ef          	jal	ra,1c51c <__eqtf2>
   11bbc:	4f72                	lw	t5,28(sp)
   11bbe:	5e82                	lw	t4,32(sp)
   11bc0:	5e12                	lw	t3,36(sp)
   11bc2:	4696                	lw	a3,68(sp)
   11bc4:	48d6                	lw	a7,84(sp)
   11bc6:	e119                	bnez	a0,11bcc <_vfprintf_r+0x1632>
   11bc8:	4785                	li	a5,1
   11bca:	c7be                	sw	a5,204(sp)
   11bcc:	67f9                	lui	a5,0x1e
   11bce:	6e478793          	addi	a5,a5,1764 # 1e6e4 <__clzsi2+0xb6>
   11bd2:	d23e                	sw	a5,36(sp)
   11bd4:	fffd8713          	addi	a4,s11,-1
   11bd8:	ced2                	sw	s4,92(sp)
   11bda:	d2a6                	sw	s1,100(sp)
   11bdc:	d6ee                	sw	s11,108(sp)
   11bde:	daea                	sw	s10,116(sp)
   11be0:	dce2                	sw	s8,120(sp)
   11be2:	d0a2                	sw	s0,96(sp)
   11be4:	d4ce                	sw	s3,104(sp)
   11be6:	d8c6                	sw	a7,112(sp)
   11be8:	8c5a                	mv	s8,s6
   11bea:	8bba                	mv	s7,a4
   11bec:	deda                	sw	s6,124(sp)
   11bee:	8d36                	mv	s10,a3
   11bf0:	8df2                	mv	s11,t3
   11bf2:	84f6                	mv	s1,t4
   11bf4:	8a7a                	mv	s4,t5
   11bf6:	a01d                	j	11c1c <_vfprintf_r+0x1682>
   11bf8:	85e6                	mv	a1,s9
   11bfa:	8556                	mv	a0,s5
   11bfc:	d032                	sw	a2,32(sp)
   11bfe:	ce7e                	sw	t6,28(sp)
   11c00:	dd7e                	sw	t6,184(sp)
   11c02:	df32                	sw	a2,188(sp)
   11c04:	d95a                	sw	s6,176(sp)
   11c06:	db4e                	sw	s3,180(sp)
   11c08:	d102                	sw	zero,160(sp)
   11c0a:	d302                	sw	zero,164(sp)
   11c0c:	d502                	sw	zero,168(sp)
   11c0e:	d702                	sw	zero,172(sp)
   11c10:	10d0a0ef          	jal	ra,1c51c <__eqtf2>
   11c14:	1bfd                	addi	s7,s7,-1
   11c16:	8fa6                	mv	t6,s1
   11c18:	8652                	mv	a2,s4
   11c1a:	c151                	beqz	a0,11c9e <_vfprintf_r+0x1704>
   11c1c:	400307b7          	lui	a5,0x40030
   11c20:	864a                	mv	a2,s2
   11c22:	85e6                	mv	a1,s9
   11c24:	8556                	mv	a0,s5
   11c26:	cf3e                	sw	a5,156(sp)
   11c28:	d16a                	sw	s10,160(sp)
   11c2a:	d36e                	sw	s11,164(sp)
   11c2c:	d526                	sw	s1,168(sp)
   11c2e:	d752                	sw	s4,172(sp)
   11c30:	c902                	sw	zero,144(sp)
   11c32:	cb02                	sw	zero,148(sp)
   11c34:	cd02                	sw	zero,152(sp)
   11c36:	3750a0ef          	jal	ra,1c7aa <__multf3>
   11c3a:	8556                	mv	a0,s5
   11c3c:	4da0c0ef          	jal	ra,1e116 <__fixtfsi>
   11c40:	85aa                	mv	a1,a0
   11c42:	842a                	mv	s0,a0
   11c44:	8556                	mv	a0,s5
   11c46:	59ca                	lw	s3,176(sp)
   11c48:	54da                	lw	s1,180(sp)
   11c4a:	5b6a                	lw	s6,184(sp)
   11c4c:	5a7a                	lw	s4,188(sp)
   11c4e:	5840c0ef          	jal	ra,1e1d2 <__floatsitf>
   11c52:	56ca                	lw	a3,176(sp)
   11c54:	4606                	lw	a2,64(sp)
   11c56:	85ca                	mv	a1,s2
   11c58:	c136                	sw	a3,128(sp)
   11c5a:	56da                	lw	a3,180(sp)
   11c5c:	8566                	mv	a0,s9
   11c5e:	c94e                	sw	s3,144(sp)
   11c60:	c336                	sw	a3,132(sp)
   11c62:	56ea                	lw	a3,184(sp)
   11c64:	cb26                	sw	s1,148(sp)
   11c66:	cd5a                	sw	s6,152(sp)
   11c68:	c536                	sw	a3,136(sp)
   11c6a:	56fa                	lw	a3,188(sp)
   11c6c:	cf52                	sw	s4,156(sp)
   11c6e:	c736                	sw	a3,140(sp)
   11c70:	6480b0ef          	jal	ra,1d2b8 <__subtf3>
   11c74:	5792                	lw	a5,36(sp)
   11c76:	5b0a                	lw	s6,160(sp)
   11c78:	599a                	lw	s3,164(sp)
   11c7a:	008786b3          	add	a3,a5,s0
   11c7e:	0006c683          	lbu	a3,0(a3)
   11c82:	5faa                	lw	t6,168(sp)
   11c84:	563a                	lw	a2,172(sp)
   11c86:	cae2                	sw	s8,84(sp)
   11c88:	00dc0023          	sb	a3,0(s8)
   11c8c:	c2de                	sw	s7,68(sp)
   11c8e:	57fd                	li	a5,-1
   11c90:	0c05                	addi	s8,s8,1
   11c92:	8d5a                	mv	s10,s6
   11c94:	8dce                	mv	s11,s3
   11c96:	84fe                	mv	s1,t6
   11c98:	8a32                	mv	s4,a2
   11c9a:	f4fb9fe3          	bne	s7,a5,11bf8 <_vfprintf_r+0x165e>
   11c9e:	58c6                	lw	a7,112(sp)
   11ca0:	83da                	mv	t2,s6
   11ca2:	82ce                	mv	t0,s3
   11ca4:	3ffe0937          	lui	s2,0x3ffe0
   11ca8:	85e6                	mv	a1,s9
   11caa:	8556                	mv	a0,s5
   11cac:	d046                	sw	a7,32(sp)
   11cae:	ce22                	sw	s0,28(sp)
   11cb0:	4a76                	lw	s4,92(sp)
   11cb2:	5496                	lw	s1,100(sp)
   11cb4:	5406                	lw	s0,96(sp)
   11cb6:	d91e                	sw	t2,176(sp)
   11cb8:	d29e                	sw	t2,100(sp)
   11cba:	db16                	sw	t0,180(sp)
   11cbc:	d096                	sw	t0,96(sp)
   11cbe:	dd7e                	sw	t6,184(sp)
   11cc0:	cefe                	sw	t6,92(sp)
   11cc2:	df32                	sw	a2,188(sp)
   11cc4:	c0b2                	sw	a2,64(sp)
   11cc6:	d102                	sw	zero,160(sp)
   11cc8:	d302                	sw	zero,164(sp)
   11cca:	d502                	sw	zero,168(sp)
   11ccc:	d74a                	sw	s2,172(sp)
   11cce:	0f50a0ef          	jal	ra,1c5c2 <__getf2>
   11cd2:	8be2                	mv	s7,s8
   11cd4:	5db6                	lw	s11,108(sp)
   11cd6:	5d56                	lw	s10,116(sp)
   11cd8:	5c66                	lw	s8,120(sp)
   11cda:	5b76                	lw	s6,124(sp)
   11cdc:	59a6                	lw	s3,104(sp)
   11cde:	5882                	lw	a7,32(sp)
   11ce0:	32a04763          	bgtz	a0,1200e <_vfprintf_r+0x1a74>
   11ce4:	85e6                	mv	a1,s9
   11ce6:	8556                	mv	a0,s5
   11ce8:	0350a0ef          	jal	ra,1c51c <__eqtf2>
   11cec:	5882                	lw	a7,32(sp)
   11cee:	e511                	bnez	a0,11cfa <_vfprintf_r+0x1760>
   11cf0:	47f2                	lw	a5,28(sp)
   11cf2:	0017fc93          	andi	s9,a5,1
   11cf6:	300c9c63          	bnez	s9,1200e <_vfprintf_r+0x1a74>
   11cfa:	4796                	lw	a5,68(sp)
   11cfc:	03000693          	li	a3,48
   11d00:	00178713          	addi	a4,a5,1 # 40030001 <__BSS_END__+0x4000f0d9>
   11d04:	975e                	add	a4,a4,s7
   11d06:	0007c763          	bltz	a5,11d14 <_vfprintf_r+0x177a>
   11d0a:	0b85                	addi	s7,s7,1
   11d0c:	fedb8fa3          	sb	a3,-1(s7)
   11d10:	ff771de3          	bne	a4,s7,11d0a <_vfprintf_r+0x1770>
   11d14:	416b87b3          	sub	a5,s7,s6
   11d18:	d03e                	sw	a5,32(sp)
   11d1a:	cc3fe06f          	j	109dc <_vfprintf_r+0x442>
   11d1e:	5702                	lw	a4,32(sp)
   11d20:	8c5a                	mv	s8,s6
   11d22:	5b22                	lw	s6,40(sp)
   11d24:	de22                	sw	s0,60(sp)
   11d26:	4a72                	lw	s4,28(sp)
   11d28:	975a                	add	a4,a4,s6
   11d2a:	4406                	lw	s0,64(sp)
   11d2c:	4996                	lw	s3,68(sp)
   11d2e:	5a92                	lw	s5,36(sp)
   11d30:	d5b77563          	bgeu	a4,s11,1127a <_vfprintf_r+0xce0>
   11d34:	8dba                	mv	s11,a4
   11d36:	d44ff06f          	j	1127a <_vfprintf_r+0xce0>
   11d3a:	4772                	lw	a4,28(sp)
   11d3c:	57f5                	li	a5,-3
   11d3e:	00f74463          	blt	a4,a5,11d46 <_vfprintf_r+0x17ac>
   11d42:	02edd063          	bge	s11,a4,11d62 <_vfprintf_r+0x17c8>
   11d46:	14f9                	addi	s1,s1,-2
   11d48:	fdf4f793          	andi	a5,s1,-33
   11d4c:	d43e                	sw	a5,40(sp)
   11d4e:	caffe06f          	j	109fc <_vfprintf_r+0x462>
   11d52:	0c714783          	lbu	a5,199(sp)
   11d56:	4d81                	li	s11,0
   11d58:	c399                	beqz	a5,11d5e <_vfprintf_r+0x17c4>
   11d5a:	f73fe06f          	j	10ccc <_vfprintf_r+0x732>
   11d5e:	9d3fe06f          	j	10730 <_vfprintf_r+0x196>
   11d62:	4772                	lw	a4,28(sp)
   11d64:	5782                	lw	a5,32(sp)
   11d66:	1af74163          	blt	a4,a5,11f08 <_vfprintf_r+0x196e>
   11d6a:	47c6                	lw	a5,80(sp)
   11d6c:	8cba                	mv	s9,a4
   11d6e:	8b85                	andi	a5,a5,1
   11d70:	c781                	beqz	a5,11d78 <_vfprintf_r+0x17de>
   11d72:	57b2                	lw	a5,44(sp)
   11d74:	00f70cb3          	add	s9,a4,a5
   11d78:	47c6                	lw	a5,80(sp)
   11d7a:	4007f793          	andi	a5,a5,1024
   11d7e:	c781                	beqz	a5,11d86 <_vfprintf_r+0x17ec>
   11d80:	47f2                	lw	a5,28(sp)
   11d82:	34f04163          	bgtz	a5,120c4 <_vfprintf_r+0x1b2a>
   11d86:	fffcca93          	not	s5,s9
   11d8a:	41fada93          	srai	s5,s5,0x1f
   11d8e:	015cfab3          	and	s5,s9,s5
   11d92:	06700493          	li	s1,103
   11d96:	d402                	sw	zero,40(sp)
   11d98:	d202                	sw	zero,36(sp)
   11d9a:	d3dfe06f          	j	10ad6 <_vfprintf_r+0x53c>
   11d9e:	4bc2                	lw	s7,16(sp)
   11da0:	8c5a                	mv	s8,s6
   11da2:	bccff06f          	j	1116e <_vfprintf_r+0xbd4>
   11da6:	c802                	sw	zero,16(sp)
   11da8:	8a3e                	mv	s4,a5
   11daa:	800007b7          	lui	a5,0x80000
   11dae:	0177cbb3          	xor	s7,a5,s7
   11db2:	02d00793          	li	a5,45
   11db6:	ccbe                	sw	a5,88(sp)
   11db8:	bb95                	j	11b2c <_vfprintf_r+0x1592>
   11dba:	11d0                	addi	a2,sp,228
   11dbc:	85da                	mv	a1,s6
   11dbe:	856a                	mv	a0,s10
   11dc0:	7cf060ef          	jal	ra,18d8e <__sprint_r>
   11dc4:	fd69                	bnez	a0,11d9e <_vfprintf_r+0x1804>
   11dc6:	00044683          	lbu	a3,0(s0)
   11dca:	57be                	lw	a5,236(sp)
   11dcc:	10c10893          	addi	a7,sp,268
   11dd0:	9db6                	add	s11,s11,a3
   11dd2:	be9d                	j	11948 <_vfprintf_r+0x13ae>
   11dd4:	0b010a93          	addi	s5,sp,176
   11dd8:	099c                	addi	a5,sp,208
   11dda:	01f8                	addi	a4,sp,204
   11ddc:	0dc10813          	addi	a6,sp,220
   11de0:	86ee                	mv	a3,s11
   11de2:	460d                	li	a2,3
   11de4:	85d6                	mv	a1,s5
   11de6:	856a                	mv	a0,s10
   11de8:	c0c6                	sw	a7,64(sp)
   11dea:	d972                	sw	t3,176(sp)
   11dec:	d272                	sw	t3,36(sp)
   11dee:	db76                	sw	t4,180(sp)
   11df0:	d076                	sw	t4,32(sp)
   11df2:	dd7a                	sw	t5,184(sp)
   11df4:	ce7a                	sw	t5,28(sp)
   11df6:	df5e                	sw	s7,188(sp)
   11df8:	5a6020ef          	jal	ra,1439e <_ldtoa_r>
   11dfc:	00054703          	lbu	a4,0(a0)
   11e00:	03000793          	li	a5,48
   11e04:	4f72                	lw	t5,28(sp)
   11e06:	5e82                	lw	t4,32(sp)
   11e08:	5e12                	lw	t3,36(sp)
   11e0a:	4886                	lw	a7,64(sp)
   11e0c:	8b2a                	mv	s6,a0
   11e0e:	0a010c93          	addi	s9,sp,160
   11e12:	04f70963          	beq	a4,a5,11e64 <_vfprintf_r+0x18ca>
   11e16:	47be                	lw	a5,204(sp)
   11e18:	97ee                	add	a5,a5,s11
   11e1a:	00fb0933          	add	s2,s6,a5
   11e1e:	85e6                	mv	a1,s9
   11e20:	8556                	mv	a0,s5
   11e22:	ce46                	sw	a7,28(sp)
   11e24:	d972                	sw	t3,176(sp)
   11e26:	db76                	sw	t4,180(sp)
   11e28:	dd7a                	sw	t5,184(sp)
   11e2a:	df5e                	sw	s7,188(sp)
   11e2c:	d102                	sw	zero,160(sp)
   11e2e:	d302                	sw	zero,164(sp)
   11e30:	d502                	sw	zero,168(sp)
   11e32:	d702                	sw	zero,172(sp)
   11e34:	6e80a0ef          	jal	ra,1c51c <__eqtf2>
   11e38:	48f2                	lw	a7,28(sp)
   11e3a:	86ca                	mv	a3,s2
   11e3c:	e119                	bnez	a0,11e42 <_vfprintf_r+0x18a8>
   11e3e:	b99fe06f          	j	109d6 <_vfprintf_r+0x43c>
   11e42:	46fe                	lw	a3,220(sp)
   11e44:	0126e463          	bltu	a3,s2,11e4c <_vfprintf_r+0x18b2>
   11e48:	b8ffe06f          	j	109d6 <_vfprintf_r+0x43c>
   11e4c:	03000713          	li	a4,48
   11e50:	00168793          	addi	a5,a3,1
   11e54:	cfbe                	sw	a5,220(sp)
   11e56:	00e68023          	sb	a4,0(a3)
   11e5a:	46fe                	lw	a3,220(sp)
   11e5c:	ff26eae3          	bltu	a3,s2,11e50 <_vfprintf_r+0x18b6>
   11e60:	b77fe06f          	j	109d6 <_vfprintf_r+0x43c>
   11e64:	0a010c93          	addi	s9,sp,160
   11e68:	85e6                	mv	a1,s9
   11e6a:	8556                	mv	a0,s5
   11e6c:	c0c6                	sw	a7,64(sp)
   11e6e:	d972                	sw	t3,176(sp)
   11e70:	d272                	sw	t3,36(sp)
   11e72:	db76                	sw	t4,180(sp)
   11e74:	d076                	sw	t4,32(sp)
   11e76:	dd7a                	sw	t5,184(sp)
   11e78:	ce7a                	sw	t5,28(sp)
   11e7a:	df5e                	sw	s7,188(sp)
   11e7c:	d102                	sw	zero,160(sp)
   11e7e:	d302                	sw	zero,164(sp)
   11e80:	d502                	sw	zero,168(sp)
   11e82:	d702                	sw	zero,172(sp)
   11e84:	6980a0ef          	jal	ra,1c51c <__eqtf2>
   11e88:	4f72                	lw	t5,28(sp)
   11e8a:	5e82                	lw	t4,32(sp)
   11e8c:	5e12                	lw	t3,36(sp)
   11e8e:	4886                	lw	a7,64(sp)
   11e90:	d159                	beqz	a0,11e16 <_vfprintf_r+0x187c>
   11e92:	4785                	li	a5,1
   11e94:	41b787b3          	sub	a5,a5,s11
   11e98:	c7be                	sw	a5,204(sp)
   11e9a:	bfbd                	j	11e18 <_vfprintf_r+0x187e>
   11e9c:	02d00793          	li	a5,45
   11ea0:	0cf103a3          	sb	a5,199(sp)
   11ea4:	b8c9                	j	11776 <_vfprintf_r+0x11dc>
   11ea6:	11d0                	addi	a2,sp,228
   11ea8:	85e2                	mv	a1,s8
   11eaa:	856a                	mv	a0,s10
   11eac:	6e3060ef          	jal	ra,18d8e <__sprint_r>
   11eb0:	aa051e63          	bnez	a0,1116c <_vfprintf_r+0xbd2>
   11eb4:	44be                	lw	s1,204(sp)
   11eb6:	57be                	lw	a5,236(sp)
   11eb8:	10c10893          	addi	a7,sp,268
   11ebc:	becff06f          	j	112a8 <_vfprintf_r+0xd0e>
   11ec0:	0001f637          	lui	a2,0x1f
   11ec4:	87060e93          	addi	t4,a2,-1936 # 1e870 <blanks.1>
   11ec8:	b20ff06f          	j	111e8 <_vfprintf_r+0xc4e>
   11ecc:	0c714783          	lbu	a5,199(sp)
   11ed0:	ca4a                	sw	s2,20(sp)
   11ed2:	d402                	sw	zero,40(sp)
   11ed4:	d202                	sw	zero,36(sp)
   11ed6:	ce02                	sw	zero,28(sp)
   11ed8:	8aee                	mv	s5,s11
   11eda:	8cee                	mv	s9,s11
   11edc:	4d81                	li	s11,0
   11ede:	c399                	beqz	a5,11ee4 <_vfprintf_r+0x194a>
   11ee0:	dedfe06f          	j	10ccc <_vfprintf_r+0x732>
   11ee4:	84dfe06f          	j	10730 <_vfprintf_r+0x196>
   11ee8:	11d0                	addi	a2,sp,228
   11eea:	85e2                	mv	a1,s8
   11eec:	856a                	mv	a0,s10
   11eee:	6a1060ef          	jal	ra,18d8e <__sprint_r>
   11ef2:	a6051d63          	bnez	a0,1116c <_vfprintf_r+0xbd2>
   11ef6:	44be                	lw	s1,204(sp)
   11ef8:	5702                	lw	a4,32(sp)
   11efa:	57be                	lw	a5,236(sp)
   11efc:	10c10893          	addi	a7,sp,268
   11f00:	409704b3          	sub	s1,a4,s1
   11f04:	bd8ff06f          	j	112dc <_vfprintf_r+0xd42>
   11f08:	5782                	lw	a5,32(sp)
   11f0a:	5732                	lw	a4,44(sp)
   11f0c:	06700493          	li	s1,103
   11f10:	00e78cb3          	add	s9,a5,a4
   11f14:	47f2                	lw	a5,28(sp)
   11f16:	2cf05463          	blez	a5,121de <_vfprintf_r+0x1c44>
   11f1a:	47c6                	lw	a5,80(sp)
   11f1c:	4007f793          	andi	a5,a5,1024
   11f20:	1a079463          	bnez	a5,120c8 <_vfprintf_r+0x1b2e>
   11f24:	fffcca93          	not	s5,s9
   11f28:	41fada93          	srai	s5,s5,0x1f
   11f2c:	015cfab3          	and	s5,s9,s5
   11f30:	b59d                	j	11d96 <_vfprintf_r+0x17fc>
   11f32:	6879                	lui	a6,0x1e
   11f34:	6c880b13          	addi	s6,a6,1736 # 1e6c8 <__clzsi2+0x9a>
   11f38:	84dff06f          	j	11784 <_vfprintf_r+0x11ea>
   11f3c:	47c6                	lw	a5,80(sp)
   11f3e:	4772                	lw	a4,28(sp)
   11f40:	8b85                	andi	a5,a5,1
   11f42:	01b7e7b3          	or	a5,a5,s11
   11f46:	2ae05d63          	blez	a4,12200 <_vfprintf_r+0x1c66>
   11f4a:	16079663          	bnez	a5,120b6 <_vfprintf_r+0x1b1c>
   11f4e:	4cf2                	lw	s9,28(sp)
   11f50:	06600493          	li	s1,102
   11f54:	b7d9                	j	11f1a <_vfprintf_r+0x1980>
   11f56:	56c1                	li	a3,-16
   11f58:	40c004b3          	neg	s1,a2
   11f5c:	06d65463          	bge	a2,a3,11fc4 <_vfprintf_r+0x1a2a>
   11f60:	4941                	li	s2,16
   11f62:	4c9d                	li	s9,7
   11f64:	a021                	j	11f6c <_vfprintf_r+0x19d2>
   11f66:	14c1                	addi	s1,s1,-16
   11f68:	04995e63          	bge	s2,s1,11fc4 <_vfprintf_r+0x1a2a>
   11f6c:	46a2                	lw	a3,8(sp)
   11f6e:	07c1                	addi	a5,a5,16
   11f70:	0705                	addi	a4,a4,1
   11f72:	00d8a023          	sw	a3,0(a7)
   11f76:	0128a223          	sw	s2,4(a7)
   11f7a:	d7be                	sw	a5,236(sp)
   11f7c:	d5ba                	sw	a4,232(sp)
   11f7e:	08a1                	addi	a7,a7,8
   11f80:	feecd3e3          	bge	s9,a4,11f66 <_vfprintf_r+0x19cc>
   11f84:	11d0                	addi	a2,sp,228
   11f86:	85e2                	mv	a1,s8
   11f88:	856a                	mv	a0,s10
   11f8a:	605060ef          	jal	ra,18d8e <__sprint_r>
   11f8e:	9c051f63          	bnez	a0,1116c <_vfprintf_r+0xbd2>
   11f92:	57be                	lw	a5,236(sp)
   11f94:	572e                	lw	a4,232(sp)
   11f96:	10c10893          	addi	a7,sp,268
   11f9a:	b7f1                	j	11f66 <_vfprintf_r+0x19cc>
   11f9c:	57fd                	li	a5,-1
   11f9e:	c63e                	sw	a5,12(sp)
   11fa0:	879fe06f          	j	10818 <_vfprintf_r+0x27e>
   11fa4:	0001f6b7          	lui	a3,0x1f
   11fa8:	87068e93          	addi	t4,a3,-1936 # 1e870 <blanks.1>
   11fac:	c7ffe06f          	j	10c2a <_vfprintf_r+0x690>
   11fb0:	8bd2                	mv	s7,s4
   11fb2:	ea7fe06f          	j	10e58 <_vfprintf_r+0x8be>
   11fb6:	03000793          	li	a5,48
   11fba:	0cf10423          	sb	a5,200(sp)
   11fbe:	07800793          	li	a5,120
   11fc2:	be2d                	j	11afc <_vfprintf_r+0x1562>
   11fc4:	46a2                	lw	a3,8(sp)
   11fc6:	97a6                	add	a5,a5,s1
   11fc8:	0705                	addi	a4,a4,1
   11fca:	00d8a023          	sw	a3,0(a7)
   11fce:	0098a223          	sw	s1,4(a7)
   11fd2:	d7be                	sw	a5,236(sp)
   11fd4:	d5ba                	sw	a4,232(sp)
   11fd6:	469d                	li	a3,7
   11fd8:	f0e6df63          	bge	a3,a4,116f6 <_vfprintf_r+0x115c>
   11fdc:	11d0                	addi	a2,sp,228
   11fde:	85e2                	mv	a1,s8
   11fe0:	856a                	mv	a0,s10
   11fe2:	5ad060ef          	jal	ra,18d8e <__sprint_r>
   11fe6:	98051363          	bnez	a0,1116c <_vfprintf_r+0xbd2>
   11fea:	57be                	lw	a5,236(sp)
   11fec:	572e                	lw	a4,232(sp)
   11fee:	10c10893          	addi	a7,sp,268
   11ff2:	fd8ff06f          	j	117ca <_vfprintf_r+0x1230>
   11ff6:	001d8593          	addi	a1,s11,1
   11ffa:	856a                	mv	a0,s10
   11ffc:	c846                	sw	a7,16(sp)
   11ffe:	408030ef          	jal	ra,15406 <_malloc_r>
   12002:	48c2                	lw	a7,16(sp)
   12004:	8b2a                	mv	s6,a0
   12006:	24050963          	beqz	a0,12258 <_vfprintf_r+0x1cbe>
   1200a:	c82a                	sw	a0,16(sp)
   1200c:	b621                	j	11b14 <_vfprintf_r+0x157a>
   1200e:	47d6                	lw	a5,84(sp)
   12010:	875e                	mv	a4,s7
   12012:	cfbe                	sw	a5,220(sp)
   12014:	5792                	lw	a5,36(sp)
   12016:	fffbc683          	lbu	a3,-1(s7)
   1201a:	00f7c603          	lbu	a2,15(a5) # 8000000f <__BSS_END__+0x7ffdf0e7>
   1201e:	00c69e63          	bne	a3,a2,1203a <_vfprintf_r+0x1aa0>
   12022:	03000593          	li	a1,48
   12026:	feb70fa3          	sb	a1,-1(a4)
   1202a:	477e                	lw	a4,220(sp)
   1202c:	fff70793          	addi	a5,a4,-1
   12030:	cfbe                	sw	a5,220(sp)
   12032:	fff74683          	lbu	a3,-1(a4)
   12036:	fed608e3          	beq	a2,a3,12026 <_vfprintf_r+0x1a8c>
   1203a:	00168613          	addi	a2,a3,1
   1203e:	03900593          	li	a1,57
   12042:	0ff67613          	andi	a2,a2,255
   12046:	00b68563          	beq	a3,a1,12050 <_vfprintf_r+0x1ab6>
   1204a:	fec70fa3          	sb	a2,-1(a4)
   1204e:	b1d9                	j	11d14 <_vfprintf_r+0x177a>
   12050:	5792                	lw	a5,36(sp)
   12052:	00a7c603          	lbu	a2,10(a5)
   12056:	fec70fa3          	sb	a2,-1(a4)
   1205a:	b96d                	j	11d14 <_vfprintf_r+0x177a>
   1205c:	001d8913          	addi	s2,s11,1
   12060:	0b010a93          	addi	s5,sp,176
   12064:	0dc10813          	addi	a6,sp,220
   12068:	099c                	addi	a5,sp,208
   1206a:	01f8                	addi	a4,sp,204
   1206c:	86ca                	mv	a3,s2
   1206e:	4609                	li	a2,2
   12070:	85d6                	mv	a1,s5
   12072:	856a                	mv	a0,s10
   12074:	d972                	sw	t3,176(sp)
   12076:	d272                	sw	t3,36(sp)
   12078:	db76                	sw	t4,180(sp)
   1207a:	d076                	sw	t4,32(sp)
   1207c:	dd7a                	sw	t5,184(sp)
   1207e:	ce7a                	sw	t5,28(sp)
   12080:	df5e                	sw	s7,188(sp)
   12082:	31c020ef          	jal	ra,1439e <_ldtoa_r>
   12086:	4f72                	lw	t5,28(sp)
   12088:	5e82                	lw	t4,32(sp)
   1208a:	5e12                	lw	t3,36(sp)
   1208c:	4886                	lw	a7,64(sp)
   1208e:	8b2a                	mv	s6,a0
   12090:	995a                	add	s2,s2,s6
   12092:	0a010c93          	addi	s9,sp,160
   12096:	b361                	j	11e1e <_vfprintf_r+0x1884>
   12098:	01bb0933          	add	s2,s6,s11
   1209c:	0a010c93          	addi	s9,sp,160
   120a0:	bbbd                	j	11e1e <_vfprintf_r+0x1884>
   120a2:	000d8463          	beqz	s11,120aa <_vfprintf_r+0x1b10>
   120a6:	8affe06f          	j	10954 <_vfprintf_r+0x3ba>
   120aa:	4d85                	li	s11,1
   120ac:	8a9fe06f          	j	10954 <_vfprintf_r+0x3ba>
   120b0:	4d99                	li	s11,6
   120b2:	8a3fe06f          	j	10954 <_vfprintf_r+0x3ba>
   120b6:	57b2                	lw	a5,44(sp)
   120b8:	06600493          	li	s1,102
   120bc:	00f70cb3          	add	s9,a4,a5
   120c0:	9cee                	add	s9,s9,s11
   120c2:	bda1                	j	11f1a <_vfprintf_r+0x1980>
   120c4:	06700493          	li	s1,103
   120c8:	5672                	lw	a2,60(sp)
   120ca:	0ff00713          	li	a4,255
   120ce:	00064783          	lbu	a5,0(a2)
   120d2:	16e78a63          	beq	a5,a4,12246 <_vfprintf_r+0x1cac>
   120d6:	46f2                	lw	a3,28(sp)
   120d8:	4501                	li	a0,0
   120da:	4581                	li	a1,0
   120dc:	00d7da63          	bge	a5,a3,120f0 <_vfprintf_r+0x1b56>
   120e0:	8e9d                	sub	a3,a3,a5
   120e2:	00164783          	lbu	a5,1(a2)
   120e6:	cb85                	beqz	a5,12116 <_vfprintf_r+0x1b7c>
   120e8:	0585                	addi	a1,a1,1
   120ea:	0605                	addi	a2,a2,1
   120ec:	fee798e3          	bne	a5,a4,120dc <_vfprintf_r+0x1b42>
   120f0:	ce36                	sw	a3,28(sp)
   120f2:	de32                	sw	a2,60(sp)
   120f4:	d22e                	sw	a1,36(sp)
   120f6:	d42a                	sw	a0,40(sp)
   120f8:	5722                	lw	a4,40(sp)
   120fa:	5792                	lw	a5,36(sp)
   120fc:	97ba                	add	a5,a5,a4
   120fe:	4726                	lw	a4,72(sp)
   12100:	02e787b3          	mul	a5,a5,a4
   12104:	9cbe                	add	s9,s9,a5
   12106:	fffcca93          	not	s5,s9
   1210a:	41fada93          	srai	s5,s5,0x1f
   1210e:	015cfab3          	and	s5,s9,s5
   12112:	9c5fe06f          	j	10ad6 <_vfprintf_r+0x53c>
   12116:	00064783          	lbu	a5,0(a2)
   1211a:	0505                	addi	a0,a0,1
   1211c:	bfc1                	j	120ec <_vfprintf_r+0x1b52>
   1211e:	0d610713          	addi	a4,sp,214
   12122:	e699                	bnez	a3,12130 <_vfprintf_r+0x1b96>
   12124:	03000713          	li	a4,48
   12128:	0ce10b23          	sb	a4,214(sp)
   1212c:	0d710713          	addi	a4,sp,215
   12130:	1b14                	addi	a3,sp,432
   12132:	03078793          	addi	a5,a5,48
   12136:	40d706b3          	sub	a3,a4,a3
   1213a:	00f70023          	sb	a5,0(a4)
   1213e:	0dd68793          	addi	a5,a3,221
   12142:	dc3e                	sw	a5,56(sp)
   12144:	961fe06f          	j	10aa4 <_vfprintf_r+0x50a>
   12148:	0b010a93          	addi	s5,sp,176
   1214c:	8556                	mv	a0,s5
   1214e:	cac6                	sw	a7,84(sp)
   12150:	d972                	sw	t3,176(sp)
   12152:	db76                	sw	t4,180(sp)
   12154:	dd7a                	sw	t5,184(sp)
   12156:	df5e                	sw	s7,188(sp)
   12158:	29a0c0ef          	jal	ra,1e3f2 <__trunctfdf2>
   1215c:	01f0                	addi	a2,sp,204
   1215e:	307040ef          	jal	ra,16c64 <frexp>
   12162:	862e                	mv	a2,a1
   12164:	85aa                	mv	a1,a0
   12166:	8556                	mv	a0,s5
   12168:	13a0c0ef          	jal	ra,1e2a2 <__extenddftf2>
   1216c:	57ca                	lw	a5,176(sp)
   1216e:	0a010c93          	addi	s9,sp,160
   12172:	09010913          	addi	s2,sp,144
   12176:	c93e                	sw	a5,144(sp)
   12178:	57da                	lw	a5,180(sp)
   1217a:	0110                	addi	a2,sp,128
   1217c:	85ca                	mv	a1,s2
   1217e:	cb3e                	sw	a5,148(sp)
   12180:	57ea                	lw	a5,184(sp)
   12182:	8566                	mv	a0,s9
   12184:	c0b2                	sw	a2,64(sp)
   12186:	cd3e                	sw	a5,152(sp)
   12188:	57fa                	lw	a5,188(sp)
   1218a:	c102                	sw	zero,128(sp)
   1218c:	c302                	sw	zero,132(sp)
   1218e:	cf3e                	sw	a5,156(sp)
   12190:	3ffc07b7          	lui	a5,0x3ffc0
   12194:	c73e                	sw	a5,140(sp)
   12196:	c502                	sw	zero,136(sp)
   12198:	6120a0ef          	jal	ra,1c7aa <__multf3>
   1219c:	568a                	lw	a3,160(sp)
   1219e:	5e1a                	lw	t3,164(sp)
   121a0:	5eaa                	lw	t4,168(sp)
   121a2:	5f3a                	lw	t5,172(sp)
   121a4:	85e6                	mv	a1,s9
   121a6:	8556                	mv	a0,s5
   121a8:	d936                	sw	a3,176(sp)
   121aa:	c2b6                	sw	a3,68(sp)
   121ac:	db72                	sw	t3,180(sp)
   121ae:	d272                	sw	t3,36(sp)
   121b0:	dd76                	sw	t4,184(sp)
   121b2:	d076                	sw	t4,32(sp)
   121b4:	df7a                	sw	t5,188(sp)
   121b6:	ce7a                	sw	t5,28(sp)
   121b8:	d102                	sw	zero,160(sp)
   121ba:	d302                	sw	zero,164(sp)
   121bc:	d502                	sw	zero,168(sp)
   121be:	d702                	sw	zero,172(sp)
   121c0:	35c0a0ef          	jal	ra,1c51c <__eqtf2>
   121c4:	4f72                	lw	t5,28(sp)
   121c6:	5e82                	lw	t4,32(sp)
   121c8:	5e12                	lw	t3,36(sp)
   121ca:	4696                	lw	a3,68(sp)
   121cc:	48d6                	lw	a7,84(sp)
   121ce:	e119                	bnez	a0,121d4 <_vfprintf_r+0x1c3a>
   121d0:	4785                	li	a5,1
   121d2:	c7be                	sw	a5,204(sp)
   121d4:	67f9                	lui	a5,0x1e
   121d6:	6d078793          	addi	a5,a5,1744 # 1e6d0 <__clzsi2+0xa2>
   121da:	d23e                	sw	a5,36(sp)
   121dc:	bae5                	j	11bd4 <_vfprintf_r+0x163a>
   121de:	40fc8cb3          	sub	s9,s9,a5
   121e2:	0c85                	addi	s9,s9,1
   121e4:	fffcca93          	not	s5,s9
   121e8:	41fada93          	srai	s5,s5,0x1f
   121ec:	015cfab3          	and	s5,s9,s5
   121f0:	b65d                	j	11d96 <_vfprintf_r+0x17fc>
   121f2:	47c6                	lw	a5,80(sp)
   121f4:	8b85                	andi	a5,a5,1
   121f6:	e399                	bnez	a5,121fc <_vfprintf_r+0x1c62>
   121f8:	8c3fe06f          	j	10aba <_vfprintf_r+0x520>
   121fc:	8bbfe06f          	j	10ab6 <_vfprintf_r+0x51c>
   12200:	e791                	bnez	a5,1220c <_vfprintf_r+0x1c72>
   12202:	4a85                	li	s5,1
   12204:	06600493          	li	s1,102
   12208:	4c85                	li	s9,1
   1220a:	b671                	j	11d96 <_vfprintf_r+0x17fc>
   1220c:	57b2                	lw	a5,44(sp)
   1220e:	06600493          	li	s1,102
   12212:	00178c93          	addi	s9,a5,1
   12216:	9cee                	add	s9,s9,s11
   12218:	fffcca93          	not	s5,s9
   1221c:	41fada93          	srai	s5,s5,0x1f
   12220:	015cfab3          	and	s5,s9,s5
   12224:	be8d                	j	11d96 <_vfprintf_r+0x17fc>
   12226:	86c6                	mv	a3,a7
   12228:	a8aff06f          	j	114b2 <_vfprintf_r+0xf18>
   1222c:	47d2                	lw	a5,20(sp)
   1222e:	0007ad83          	lw	s11,0(a5)
   12232:	0791                	addi	a5,a5,4
   12234:	000dd363          	bgez	s11,1223a <_vfprintf_r+0x1ca0>
   12238:	5dfd                	li	s11,-1
   1223a:	00144483          	lbu	s1,1(s0)
   1223e:	ca3e                	sw	a5,20(sp)
   12240:	843a                	mv	s0,a4
   12242:	c94fe06f          	j	106d6 <_vfprintf_r+0x13c>
   12246:	d402                	sw	zero,40(sp)
   12248:	d202                	sw	zero,36(sp)
   1224a:	b57d                	j	120f8 <_vfprintf_r+0x1b5e>
   1224c:	4789                	li	a5,2
   1224e:	dc3e                	sw	a5,56(sp)
   12250:	855fe06f          	j	10aa4 <_vfprintf_r+0x50a>
   12254:	896e                	mv	s2,s11
   12256:	bd2d                	j	12090 <_vfprintf_r+0x1af6>
   12258:	00cc5783          	lhu	a5,12(s8)
   1225c:	0407e793          	ori	a5,a5,64
   12260:	00fc1623          	sh	a5,12(s8)
   12264:	da6fe06f          	j	1080a <_vfprintf_r+0x270>

00012268 <vfprintf>:
   12268:	87aa                	mv	a5,a0
   1226a:	1c01a503          	lw	a0,448(gp) # 20ec0 <_impure_ptr>
   1226e:	86b2                	mv	a3,a2
   12270:	862e                	mv	a2,a1
   12272:	85be                	mv	a1,a5
   12274:	b26fe06f          	j	1059a <_vfprintf_r>

00012278 <__sbprintf>:
   12278:	00c5d783          	lhu	a5,12(a1)
   1227c:	0645ae03          	lw	t3,100(a1)
   12280:	00e5d303          	lhu	t1,14(a1)
   12284:	01c5a883          	lw	a7,28(a1)
   12288:	0245a803          	lw	a6,36(a1)
   1228c:	b8010113          	addi	sp,sp,-1152
   12290:	9bf5                	andi	a5,a5,-3
   12292:	40000713          	li	a4,1024
   12296:	46812c23          	sw	s0,1144(sp)
   1229a:	00f11a23          	sh	a5,20(sp)
   1229e:	842e                	mv	s0,a1
   122a0:	189c                	addi	a5,sp,112
   122a2:	002c                	addi	a1,sp,8
   122a4:	46912a23          	sw	s1,1140(sp)
   122a8:	47212823          	sw	s2,1136(sp)
   122ac:	46112e23          	sw	ra,1148(sp)
   122b0:	892a                	mv	s2,a0
   122b2:	d6f2                	sw	t3,108(sp)
   122b4:	00611b23          	sh	t1,22(sp)
   122b8:	d246                	sw	a7,36(sp)
   122ba:	d642                	sw	a6,44(sp)
   122bc:	c43e                	sw	a5,8(sp)
   122be:	cc3e                	sw	a5,24(sp)
   122c0:	c83a                	sw	a4,16(sp)
   122c2:	ce3a                	sw	a4,28(sp)
   122c4:	d002                	sw	zero,32(sp)
   122c6:	ad4fe0ef          	jal	ra,1059a <_vfprintf_r>
   122ca:	84aa                	mv	s1,a0
   122cc:	02055963          	bgez	a0,122fe <__sbprintf+0x86>
   122d0:	01415783          	lhu	a5,20(sp)
   122d4:	0407f793          	andi	a5,a5,64
   122d8:	c799                	beqz	a5,122e6 <__sbprintf+0x6e>
   122da:	00c45783          	lhu	a5,12(s0)
   122de:	0407e793          	ori	a5,a5,64
   122e2:	00f41623          	sh	a5,12(s0)
   122e6:	47c12083          	lw	ra,1148(sp)
   122ea:	47812403          	lw	s0,1144(sp)
   122ee:	47012903          	lw	s2,1136(sp)
   122f2:	8526                	mv	a0,s1
   122f4:	47412483          	lw	s1,1140(sp)
   122f8:	48010113          	addi	sp,sp,1152
   122fc:	8082                	ret
   122fe:	002c                	addi	a1,sp,8
   12300:	854a                	mv	a0,s2
   12302:	21a9                	jal	1274c <_fflush_r>
   12304:	d571                	beqz	a0,122d0 <__sbprintf+0x58>
   12306:	54fd                	li	s1,-1
   12308:	b7e1                	j	122d0 <__sbprintf+0x58>

0001230a <__swbuf_r>:
   1230a:	1101                	addi	sp,sp,-32
   1230c:	cc22                	sw	s0,24(sp)
   1230e:	ca26                	sw	s1,20(sp)
   12310:	c84a                	sw	s2,16(sp)
   12312:	ce06                	sw	ra,28(sp)
   12314:	c64e                	sw	s3,12(sp)
   12316:	892a                	mv	s2,a0
   12318:	84ae                	mv	s1,a1
   1231a:	8432                	mv	s0,a2
   1231c:	c119                	beqz	a0,12322 <__swbuf_r+0x18>
   1231e:	5d1c                	lw	a5,56(a0)
   12320:	cbf9                	beqz	a5,123f6 <__swbuf_r+0xec>
   12322:	00c41703          	lh	a4,12(s0)
   12326:	4c14                	lw	a3,24(s0)
   12328:	00877793          	andi	a5,a4,8
   1232c:	c414                	sw	a3,8(s0)
   1232e:	01071693          	slli	a3,a4,0x10
   12332:	82c1                	srli	a3,a3,0x10
   12334:	cbb9                	beqz	a5,1238a <__swbuf_r+0x80>
   12336:	481c                	lw	a5,16(s0)
   12338:	cba9                	beqz	a5,1238a <__swbuf_r+0x80>
   1233a:	6609                	lui	a2,0x2
   1233c:	8ef1                	and	a3,a3,a2
   1233e:	0ff4f993          	andi	s3,s1,255
   12342:	0ff4f493          	andi	s1,s1,255
   12346:	c2bd                	beqz	a3,123ac <__swbuf_r+0xa2>
   12348:	4018                	lw	a4,0(s0)
   1234a:	4854                	lw	a3,20(s0)
   1234c:	40f707b3          	sub	a5,a4,a5
   12350:	06d7dc63          	bge	a5,a3,123c8 <__swbuf_r+0xbe>
   12354:	4414                	lw	a3,8(s0)
   12356:	00170613          	addi	a2,a4,1
   1235a:	c010                	sw	a2,0(s0)
   1235c:	16fd                	addi	a3,a3,-1
   1235e:	c414                	sw	a3,8(s0)
   12360:	01370023          	sb	s3,0(a4)
   12364:	4858                	lw	a4,20(s0)
   12366:	0785                	addi	a5,a5,1
   12368:	08f70163          	beq	a4,a5,123ea <__swbuf_r+0xe0>
   1236c:	00c45783          	lhu	a5,12(s0)
   12370:	8b85                	andi	a5,a5,1
   12372:	c781                	beqz	a5,1237a <__swbuf_r+0x70>
   12374:	47a9                	li	a5,10
   12376:	06f48a63          	beq	s1,a5,123ea <__swbuf_r+0xe0>
   1237a:	40f2                	lw	ra,28(sp)
   1237c:	4462                	lw	s0,24(sp)
   1237e:	4942                	lw	s2,16(sp)
   12380:	49b2                	lw	s3,12(sp)
   12382:	8526                	mv	a0,s1
   12384:	44d2                	lw	s1,20(sp)
   12386:	6105                	addi	sp,sp,32
   12388:	8082                	ret
   1238a:	85a2                	mv	a1,s0
   1238c:	854a                	mv	a0,s2
   1238e:	28a5                	jal	12406 <__swsetup_r>
   12390:	e12d                	bnez	a0,123f2 <__swbuf_r+0xe8>
   12392:	00c41703          	lh	a4,12(s0)
   12396:	6609                	lui	a2,0x2
   12398:	0ff4f993          	andi	s3,s1,255
   1239c:	01071693          	slli	a3,a4,0x10
   123a0:	82c1                	srli	a3,a3,0x10
   123a2:	8ef1                	and	a3,a3,a2
   123a4:	481c                	lw	a5,16(s0)
   123a6:	0ff4f493          	andi	s1,s1,255
   123aa:	fed9                	bnez	a3,12348 <__swbuf_r+0x3e>
   123ac:	5074                	lw	a3,100(s0)
   123ae:	8f51                	or	a4,a4,a2
   123b0:	7679                	lui	a2,0xffffe
   123b2:	167d                	addi	a2,a2,-1
   123b4:	8ef1                	and	a3,a3,a2
   123b6:	00e41623          	sh	a4,12(s0)
   123ba:	4018                	lw	a4,0(s0)
   123bc:	d074                	sw	a3,100(s0)
   123be:	4854                	lw	a3,20(s0)
   123c0:	40f707b3          	sub	a5,a4,a5
   123c4:	f8d7c8e3          	blt	a5,a3,12354 <__swbuf_r+0x4a>
   123c8:	85a2                	mv	a1,s0
   123ca:	854a                	mv	a0,s2
   123cc:	2641                	jal	1274c <_fflush_r>
   123ce:	e115                	bnez	a0,123f2 <__swbuf_r+0xe8>
   123d0:	4018                	lw	a4,0(s0)
   123d2:	4414                	lw	a3,8(s0)
   123d4:	4785                	li	a5,1
   123d6:	00170613          	addi	a2,a4,1
   123da:	16fd                	addi	a3,a3,-1
   123dc:	c010                	sw	a2,0(s0)
   123de:	c414                	sw	a3,8(s0)
   123e0:	01370023          	sb	s3,0(a4)
   123e4:	4858                	lw	a4,20(s0)
   123e6:	f8f713e3          	bne	a4,a5,1236c <__swbuf_r+0x62>
   123ea:	85a2                	mv	a1,s0
   123ec:	854a                	mv	a0,s2
   123ee:	2eb9                	jal	1274c <_fflush_r>
   123f0:	d549                	beqz	a0,1237a <__swbuf_r+0x70>
   123f2:	54fd                	li	s1,-1
   123f4:	b759                	j	1237a <__swbuf_r+0x70>
   123f6:	2d3d                	jal	12a34 <__sinit>
   123f8:	b72d                	j	12322 <__swbuf_r+0x18>

000123fa <__swbuf>:
   123fa:	87aa                	mv	a5,a0
   123fc:	1c01a503          	lw	a0,448(gp) # 20ec0 <_impure_ptr>
   12400:	862e                	mv	a2,a1
   12402:	85be                	mv	a1,a5
   12404:	b719                	j	1230a <__swbuf_r>

00012406 <__swsetup_r>:
   12406:	1c01a783          	lw	a5,448(gp) # 20ec0 <_impure_ptr>
   1240a:	1141                	addi	sp,sp,-16
   1240c:	c422                	sw	s0,8(sp)
   1240e:	c226                	sw	s1,4(sp)
   12410:	c606                	sw	ra,12(sp)
   12412:	84aa                	mv	s1,a0
   12414:	842e                	mv	s0,a1
   12416:	c399                	beqz	a5,1241c <__swsetup_r+0x16>
   12418:	5f98                	lw	a4,56(a5)
   1241a:	cf21                	beqz	a4,12472 <__swsetup_r+0x6c>
   1241c:	00c41703          	lh	a4,12(s0)
   12420:	01071793          	slli	a5,a4,0x10
   12424:	00877693          	andi	a3,a4,8
   12428:	83c1                	srli	a5,a5,0x10
   1242a:	ceb1                	beqz	a3,12486 <__swsetup_r+0x80>
   1242c:	4814                	lw	a3,16(s0)
   1242e:	cab5                	beqz	a3,124a2 <__swsetup_r+0x9c>
   12430:	0017f613          	andi	a2,a5,1
   12434:	ce11                	beqz	a2,12450 <__swsetup_r+0x4a>
   12436:	4850                	lw	a2,20(s0)
   12438:	00042423          	sw	zero,8(s0)
   1243c:	4501                	li	a0,0
   1243e:	40c00633          	neg	a2,a2
   12442:	cc10                	sw	a2,24(s0)
   12444:	ce91                	beqz	a3,12460 <__swsetup_r+0x5a>
   12446:	40b2                	lw	ra,12(sp)
   12448:	4422                	lw	s0,8(sp)
   1244a:	4492                	lw	s1,4(sp)
   1244c:	0141                	addi	sp,sp,16
   1244e:	8082                	ret
   12450:	0027f613          	andi	a2,a5,2
   12454:	4581                	li	a1,0
   12456:	e211                	bnez	a2,1245a <__swsetup_r+0x54>
   12458:	484c                	lw	a1,20(s0)
   1245a:	c40c                	sw	a1,8(s0)
   1245c:	4501                	li	a0,0
   1245e:	f6e5                	bnez	a3,12446 <__swsetup_r+0x40>
   12460:	0807f793          	andi	a5,a5,128
   12464:	d3ed                	beqz	a5,12446 <__swsetup_r+0x40>
   12466:	04076713          	ori	a4,a4,64
   1246a:	00e41623          	sh	a4,12(s0)
   1246e:	557d                	li	a0,-1
   12470:	bfd9                	j	12446 <__swsetup_r+0x40>
   12472:	853e                	mv	a0,a5
   12474:	23c1                	jal	12a34 <__sinit>
   12476:	00c41703          	lh	a4,12(s0)
   1247a:	01071793          	slli	a5,a4,0x10
   1247e:	00877693          	andi	a3,a4,8
   12482:	83c1                	srli	a5,a5,0x10
   12484:	f6c5                	bnez	a3,1242c <__swsetup_r+0x26>
   12486:	0107f693          	andi	a3,a5,16
   1248a:	c2a5                	beqz	a3,124ea <__swsetup_r+0xe4>
   1248c:	8b91                	andi	a5,a5,4
   1248e:	eb9d                	bnez	a5,124c4 <__swsetup_r+0xbe>
   12490:	4814                	lw	a3,16(s0)
   12492:	00876713          	ori	a4,a4,8
   12496:	01071793          	slli	a5,a4,0x10
   1249a:	00e41623          	sh	a4,12(s0)
   1249e:	83c1                	srli	a5,a5,0x10
   124a0:	fac1                	bnez	a3,12430 <__swsetup_r+0x2a>
   124a2:	2807f613          	andi	a2,a5,640
   124a6:	20000593          	li	a1,512
   124aa:	f8b603e3          	beq	a2,a1,12430 <__swsetup_r+0x2a>
   124ae:	85a2                	mv	a1,s0
   124b0:	8526                	mv	a0,s1
   124b2:	5c9020ef          	jal	ra,1527a <__smakebuf_r>
   124b6:	00c41703          	lh	a4,12(s0)
   124ba:	4814                	lw	a3,16(s0)
   124bc:	01071793          	slli	a5,a4,0x10
   124c0:	83c1                	srli	a5,a5,0x10
   124c2:	b7bd                	j	12430 <__swsetup_r+0x2a>
   124c4:	580c                	lw	a1,48(s0)
   124c6:	c999                	beqz	a1,124dc <__swsetup_r+0xd6>
   124c8:	04040793          	addi	a5,s0,64
   124cc:	00f58663          	beq	a1,a5,124d8 <__swsetup_r+0xd2>
   124d0:	8526                	mv	a0,s1
   124d2:	2571                	jal	12b5e <_free_r>
   124d4:	00c41703          	lh	a4,12(s0)
   124d8:	02042823          	sw	zero,48(s0)
   124dc:	4814                	lw	a3,16(s0)
   124de:	fdb77713          	andi	a4,a4,-37
   124e2:	00042223          	sw	zero,4(s0)
   124e6:	c014                	sw	a3,0(s0)
   124e8:	b76d                	j	12492 <__swsetup_r+0x8c>
   124ea:	47a5                	li	a5,9
   124ec:	c09c                	sw	a5,0(s1)
   124ee:	04076713          	ori	a4,a4,64
   124f2:	00e41623          	sh	a4,12(s0)
   124f6:	557d                	li	a0,-1
   124f8:	b7b9                	j	12446 <__swsetup_r+0x40>

000124fa <__call_exitprocs>:
   124fa:	7179                	addi	sp,sp,-48
   124fc:	cc52                	sw	s4,24(sp)
   124fe:	1b81aa03          	lw	s4,440(gp) # 20eb8 <_global_impure_ptr>
   12502:	d04a                	sw	s2,32(sp)
   12504:	d606                	sw	ra,44(sp)
   12506:	148a2903          	lw	s2,328(s4)
   1250a:	d422                	sw	s0,40(sp)
   1250c:	d226                	sw	s1,36(sp)
   1250e:	ce4e                	sw	s3,28(sp)
   12510:	ca56                	sw	s5,20(sp)
   12512:	c85a                	sw	s6,16(sp)
   12514:	c65e                	sw	s7,12(sp)
   12516:	c462                	sw	s8,8(sp)
   12518:	02090863          	beqz	s2,12548 <__call_exitprocs+0x4e>
   1251c:	8b2a                	mv	s6,a0
   1251e:	8bae                	mv	s7,a1
   12520:	4a85                	li	s5,1
   12522:	59fd                	li	s3,-1
   12524:	00492483          	lw	s1,4(s2) # 3ffe0004 <__BSS_END__+0x3ffbf0dc>
   12528:	fff48413          	addi	s0,s1,-1
   1252c:	00044e63          	bltz	s0,12548 <__call_exitprocs+0x4e>
   12530:	048a                	slli	s1,s1,0x2
   12532:	94ca                	add	s1,s1,s2
   12534:	020b8663          	beqz	s7,12560 <__call_exitprocs+0x66>
   12538:	1044a783          	lw	a5,260(s1)
   1253c:	03778263          	beq	a5,s7,12560 <__call_exitprocs+0x66>
   12540:	147d                	addi	s0,s0,-1
   12542:	14f1                	addi	s1,s1,-4
   12544:	ff3418e3          	bne	s0,s3,12534 <__call_exitprocs+0x3a>
   12548:	50b2                	lw	ra,44(sp)
   1254a:	5422                	lw	s0,40(sp)
   1254c:	5492                	lw	s1,36(sp)
   1254e:	5902                	lw	s2,32(sp)
   12550:	49f2                	lw	s3,28(sp)
   12552:	4a62                	lw	s4,24(sp)
   12554:	4ad2                	lw	s5,20(sp)
   12556:	4b42                	lw	s6,16(sp)
   12558:	4bb2                	lw	s7,12(sp)
   1255a:	4c22                	lw	s8,8(sp)
   1255c:	6145                	addi	sp,sp,48
   1255e:	8082                	ret
   12560:	00492783          	lw	a5,4(s2)
   12564:	40d4                	lw	a3,4(s1)
   12566:	17fd                	addi	a5,a5,-1
   12568:	04878263          	beq	a5,s0,125ac <__call_exitprocs+0xb2>
   1256c:	0004a223          	sw	zero,4(s1)
   12570:	dae1                	beqz	a3,12540 <__call_exitprocs+0x46>
   12572:	18892783          	lw	a5,392(s2)
   12576:	008a9733          	sll	a4,s5,s0
   1257a:	00492c03          	lw	s8,4(s2)
   1257e:	8ff9                	and	a5,a5,a4
   12580:	ef89                	bnez	a5,1259a <__call_exitprocs+0xa0>
   12582:	9682                	jalr	a3
   12584:	00492703          	lw	a4,4(s2)
   12588:	148a2783          	lw	a5,328(s4)
   1258c:	01871463          	bne	a4,s8,12594 <__call_exitprocs+0x9a>
   12590:	fb2788e3          	beq	a5,s2,12540 <__call_exitprocs+0x46>
   12594:	dbd5                	beqz	a5,12548 <__call_exitprocs+0x4e>
   12596:	893e                	mv	s2,a5
   12598:	b771                	j	12524 <__call_exitprocs+0x2a>
   1259a:	18c92783          	lw	a5,396(s2)
   1259e:	0844a583          	lw	a1,132(s1)
   125a2:	8f7d                	and	a4,a4,a5
   125a4:	e719                	bnez	a4,125b2 <__call_exitprocs+0xb8>
   125a6:	855a                	mv	a0,s6
   125a8:	9682                	jalr	a3
   125aa:	bfe9                	j	12584 <__call_exitprocs+0x8a>
   125ac:	00892223          	sw	s0,4(s2)
   125b0:	b7c1                	j	12570 <__call_exitprocs+0x76>
   125b2:	852e                	mv	a0,a1
   125b4:	9682                	jalr	a3
   125b6:	b7f9                	j	12584 <__call_exitprocs+0x8a>

000125b8 <__sflush_r>:
   125b8:	00c59783          	lh	a5,12(a1)
   125bc:	1101                	addi	sp,sp,-32
   125be:	cc22                	sw	s0,24(sp)
   125c0:	c64e                	sw	s3,12(sp)
   125c2:	ce06                	sw	ra,28(sp)
   125c4:	ca26                	sw	s1,20(sp)
   125c6:	c84a                	sw	s2,16(sp)
   125c8:	0087f693          	andi	a3,a5,8
   125cc:	842e                	mv	s0,a1
   125ce:	89aa                	mv	s3,a0
   125d0:	ead5                	bnez	a3,12684 <__sflush_r+0xcc>
   125d2:	6705                	lui	a4,0x1
   125d4:	80070713          	addi	a4,a4,-2048 # 800 <register_fini-0xf874>
   125d8:	41d4                	lw	a3,4(a1)
   125da:	8fd9                	or	a5,a5,a4
   125dc:	00f59623          	sh	a5,12(a1)
   125e0:	10d05063          	blez	a3,126e0 <__sflush_r+0x128>
   125e4:	5418                	lw	a4,40(s0)
   125e6:	c759                	beqz	a4,12674 <__sflush_r+0xbc>
   125e8:	07c2                	slli	a5,a5,0x10
   125ea:	83c1                	srli	a5,a5,0x10
   125ec:	6685                	lui	a3,0x1
   125ee:	0009a483          	lw	s1,0(s3)
   125f2:	8efd                	and	a3,a3,a5
   125f4:	0009a023          	sw	zero,0(s3)
   125f8:	4c4c                	lw	a1,28(s0)
   125fa:	e6fd                	bnez	a3,126e8 <__sflush_r+0x130>
   125fc:	4685                	li	a3,1
   125fe:	4601                	li	a2,0
   12600:	854e                	mv	a0,s3
   12602:	9702                	jalr	a4
   12604:	57fd                	li	a5,-1
   12606:	10f50863          	beq	a0,a5,12716 <__sflush_r+0x15e>
   1260a:	00c45783          	lhu	a5,12(s0)
   1260e:	5418                	lw	a4,40(s0)
   12610:	4c4c                	lw	a1,28(s0)
   12612:	8b91                	andi	a5,a5,4
   12614:	c799                	beqz	a5,12622 <__sflush_r+0x6a>
   12616:	4054                	lw	a3,4(s0)
   12618:	581c                	lw	a5,48(s0)
   1261a:	8d15                	sub	a0,a0,a3
   1261c:	c399                	beqz	a5,12622 <__sflush_r+0x6a>
   1261e:	5c5c                	lw	a5,60(s0)
   12620:	8d1d                	sub	a0,a0,a5
   12622:	862a                	mv	a2,a0
   12624:	4681                	li	a3,0
   12626:	854e                	mv	a0,s3
   12628:	9702                	jalr	a4
   1262a:	57fd                	li	a5,-1
   1262c:	0cf51063          	bne	a0,a5,126ec <__sflush_r+0x134>
   12630:	0009a703          	lw	a4,0(s3)
   12634:	00c41783          	lh	a5,12(s0)
   12638:	10070063          	beqz	a4,12738 <__sflush_r+0x180>
   1263c:	46f5                	li	a3,29
   1263e:	00d70563          	beq	a4,a3,12648 <__sflush_r+0x90>
   12642:	46d9                	li	a3,22
   12644:	08d71363          	bne	a4,a3,126ca <__sflush_r+0x112>
   12648:	4814                	lw	a3,16(s0)
   1264a:	777d                	lui	a4,0xfffff
   1264c:	7ff70713          	addi	a4,a4,2047 # fffff7ff <__BSS_END__+0xfffde8d7>
   12650:	8ff9                	and	a5,a5,a4
   12652:	00f41623          	sh	a5,12(s0)
   12656:	00042223          	sw	zero,4(s0)
   1265a:	c014                	sw	a3,0(s0)
   1265c:	580c                	lw	a1,48(s0)
   1265e:	0099a023          	sw	s1,0(s3)
   12662:	c989                	beqz	a1,12674 <__sflush_r+0xbc>
   12664:	04040793          	addi	a5,s0,64
   12668:	00f58463          	beq	a1,a5,12670 <__sflush_r+0xb8>
   1266c:	854e                	mv	a0,s3
   1266e:	29c5                	jal	12b5e <_free_r>
   12670:	02042823          	sw	zero,48(s0)
   12674:	4501                	li	a0,0
   12676:	40f2                	lw	ra,28(sp)
   12678:	4462                	lw	s0,24(sp)
   1267a:	44d2                	lw	s1,20(sp)
   1267c:	4942                	lw	s2,16(sp)
   1267e:	49b2                	lw	s3,12(sp)
   12680:	6105                	addi	sp,sp,32
   12682:	8082                	ret
   12684:	0105a903          	lw	s2,16(a1)
   12688:	fe0906e3          	beqz	s2,12674 <__sflush_r+0xbc>
   1268c:	4184                	lw	s1,0(a1)
   1268e:	01079713          	slli	a4,a5,0x10
   12692:	8341                	srli	a4,a4,0x10
   12694:	8b0d                	andi	a4,a4,3
   12696:	0125a023          	sw	s2,0(a1)
   1269a:	412484b3          	sub	s1,s1,s2
   1269e:	4781                	li	a5,0
   126a0:	e311                	bnez	a4,126a4 <__sflush_r+0xec>
   126a2:	49dc                	lw	a5,20(a1)
   126a4:	c41c                	sw	a5,8(s0)
   126a6:	00904663          	bgtz	s1,126b2 <__sflush_r+0xfa>
   126aa:	b7e9                	j	12674 <__sflush_r+0xbc>
   126ac:	992a                	add	s2,s2,a0
   126ae:	fc9053e3          	blez	s1,12674 <__sflush_r+0xbc>
   126b2:	505c                	lw	a5,36(s0)
   126b4:	4c4c                	lw	a1,28(s0)
   126b6:	86a6                	mv	a3,s1
   126b8:	864a                	mv	a2,s2
   126ba:	854e                	mv	a0,s3
   126bc:	9782                	jalr	a5
   126be:	8c89                	sub	s1,s1,a0
   126c0:	fea046e3          	bgtz	a0,126ac <__sflush_r+0xf4>
   126c4:	00c45783          	lhu	a5,12(s0)
   126c8:	557d                	li	a0,-1
   126ca:	0407e793          	ori	a5,a5,64
   126ce:	40f2                	lw	ra,28(sp)
   126d0:	00f41623          	sh	a5,12(s0)
   126d4:	4462                	lw	s0,24(sp)
   126d6:	44d2                	lw	s1,20(sp)
   126d8:	4942                	lw	s2,16(sp)
   126da:	49b2                	lw	s3,12(sp)
   126dc:	6105                	addi	sp,sp,32
   126de:	8082                	ret
   126e0:	5dd8                	lw	a4,60(a1)
   126e2:	f0e041e3          	bgtz	a4,125e4 <__sflush_r+0x2c>
   126e6:	b779                	j	12674 <__sflush_r+0xbc>
   126e8:	4828                	lw	a0,80(s0)
   126ea:	b725                	j	12612 <__sflush_r+0x5a>
   126ec:	00c45783          	lhu	a5,12(s0)
   126f0:	777d                	lui	a4,0xfffff
   126f2:	7ff70713          	addi	a4,a4,2047 # fffff7ff <__BSS_END__+0xfffde8d7>
   126f6:	8ff9                	and	a5,a5,a4
   126f8:	4814                	lw	a3,16(s0)
   126fa:	07c2                	slli	a5,a5,0x10
   126fc:	87c1                	srai	a5,a5,0x10
   126fe:	00c7d713          	srli	a4,a5,0xc
   12702:	00f41623          	sh	a5,12(s0)
   12706:	00042223          	sw	zero,4(s0)
   1270a:	c014                	sw	a3,0(s0)
   1270c:	00177793          	andi	a5,a4,1
   12710:	d7b1                	beqz	a5,1265c <__sflush_r+0xa4>
   12712:	c828                	sw	a0,80(s0)
   12714:	b7a1                	j	1265c <__sflush_r+0xa4>
   12716:	0009a783          	lw	a5,0(s3)
   1271a:	ee0788e3          	beqz	a5,1260a <__sflush_r+0x52>
   1271e:	4775                	li	a4,29
   12720:	02e78263          	beq	a5,a4,12744 <__sflush_r+0x18c>
   12724:	4759                	li	a4,22
   12726:	00e78f63          	beq	a5,a4,12744 <__sflush_r+0x18c>
   1272a:	00c45783          	lhu	a5,12(s0)
   1272e:	0407e793          	ori	a5,a5,64
   12732:	00f41623          	sh	a5,12(s0)
   12736:	b781                	j	12676 <__sflush_r+0xbe>
   12738:	777d                	lui	a4,0xfffff
   1273a:	7ff70713          	addi	a4,a4,2047 # fffff7ff <__BSS_END__+0xfffde8d7>
   1273e:	4814                	lw	a3,16(s0)
   12740:	8ff9                	and	a5,a5,a4
   12742:	bf75                	j	126fe <__sflush_r+0x146>
   12744:	0099a023          	sw	s1,0(s3)
   12748:	4501                	li	a0,0
   1274a:	b735                	j	12676 <__sflush_r+0xbe>

0001274c <_fflush_r>:
   1274c:	1101                	addi	sp,sp,-32
   1274e:	cc22                	sw	s0,24(sp)
   12750:	ce06                	sw	ra,28(sp)
   12752:	842a                	mv	s0,a0
   12754:	c119                	beqz	a0,1275a <_fflush_r+0xe>
   12756:	5d1c                	lw	a5,56(a0)
   12758:	cb89                	beqz	a5,1276a <_fflush_r+0x1e>
   1275a:	00c59783          	lh	a5,12(a1)
   1275e:	ef81                	bnez	a5,12776 <_fflush_r+0x2a>
   12760:	40f2                	lw	ra,28(sp)
   12762:	4462                	lw	s0,24(sp)
   12764:	4501                	li	a0,0
   12766:	6105                	addi	sp,sp,32
   12768:	8082                	ret
   1276a:	c62e                	sw	a1,12(sp)
   1276c:	24e1                	jal	12a34 <__sinit>
   1276e:	45b2                	lw	a1,12(sp)
   12770:	00c59783          	lh	a5,12(a1)
   12774:	d7f5                	beqz	a5,12760 <_fflush_r+0x14>
   12776:	8522                	mv	a0,s0
   12778:	4462                	lw	s0,24(sp)
   1277a:	40f2                	lw	ra,28(sp)
   1277c:	6105                	addi	sp,sp,32
   1277e:	bd2d                	j	125b8 <__sflush_r>

00012780 <fflush>:
   12780:	cd15                	beqz	a0,127bc <fflush+0x3c>
   12782:	1101                	addi	sp,sp,-32
   12784:	cc22                	sw	s0,24(sp)
   12786:	842a                	mv	s0,a0
   12788:	1c01a503          	lw	a0,448(gp) # 20ec0 <_impure_ptr>
   1278c:	ce06                	sw	ra,28(sp)
   1278e:	c119                	beqz	a0,12794 <fflush+0x14>
   12790:	5d1c                	lw	a5,56(a0)
   12792:	cf91                	beqz	a5,127ae <fflush+0x2e>
   12794:	00c41783          	lh	a5,12(s0)
   12798:	e791                	bnez	a5,127a4 <fflush+0x24>
   1279a:	40f2                	lw	ra,28(sp)
   1279c:	4462                	lw	s0,24(sp)
   1279e:	4501                	li	a0,0
   127a0:	6105                	addi	sp,sp,32
   127a2:	8082                	ret
   127a4:	85a2                	mv	a1,s0
   127a6:	4462                	lw	s0,24(sp)
   127a8:	40f2                	lw	ra,28(sp)
   127aa:	6105                	addi	sp,sp,32
   127ac:	b531                	j	125b8 <__sflush_r>
   127ae:	c62a                	sw	a0,12(sp)
   127b0:	2451                	jal	12a34 <__sinit>
   127b2:	00c41783          	lh	a5,12(s0)
   127b6:	4532                	lw	a0,12(sp)
   127b8:	d3ed                	beqz	a5,1279a <fflush+0x1a>
   127ba:	b7ed                	j	127a4 <fflush+0x24>
   127bc:	1b81a503          	lw	a0,440(gp) # 20eb8 <_global_impure_ptr>
   127c0:	65c9                	lui	a1,0x12
   127c2:	74c58593          	addi	a1,a1,1868 # 1274c <_fflush_r>
   127c6:	15f0006f          	j	13124 <_fwalk_reent>

000127ca <__fp_lock>:
   127ca:	4501                	li	a0,0
   127cc:	8082                	ret

000127ce <_cleanup_r>:
   127ce:	65e9                	lui	a1,0x1a
   127d0:	d6058593          	addi	a1,a1,-672 # 19d60 <_fclose_r>
   127d4:	1510006f          	j	13124 <_fwalk_reent>

000127d8 <__fp_unlock>:
   127d8:	4501                	li	a0,0
   127da:	8082                	ret

000127dc <__sinit.part.0>:
   127dc:	1101                	addi	sp,sp,-32
   127de:	67c9                	lui	a5,0x12
   127e0:	ce06                	sw	ra,28(sp)
   127e2:	cc22                	sw	s0,24(sp)
   127e4:	ca26                	sw	s1,20(sp)
   127e6:	c84a                	sw	s2,16(sp)
   127e8:	c64e                	sw	s3,12(sp)
   127ea:	c452                	sw	s4,8(sp)
   127ec:	c256                	sw	s5,4(sp)
   127ee:	c05a                	sw	s6,0(sp)
   127f0:	4140                	lw	s0,4(a0)
   127f2:	7ce78793          	addi	a5,a5,1998 # 127ce <_cleanup_r>
   127f6:	dd5c                	sw	a5,60(a0)
   127f8:	2ec50713          	addi	a4,a0,748
   127fc:	478d                	li	a5,3
   127fe:	2ee52423          	sw	a4,744(a0)
   12802:	2ef52223          	sw	a5,740(a0)
   12806:	2e052023          	sw	zero,736(a0)
   1280a:	4791                	li	a5,4
   1280c:	892a                	mv	s2,a0
   1280e:	c45c                	sw	a5,12(s0)
   12810:	4621                	li	a2,8
   12812:	4581                	li	a1,0
   12814:	06042223          	sw	zero,100(s0)
   12818:	00042023          	sw	zero,0(s0)
   1281c:	00042223          	sw	zero,4(s0)
   12820:	00042423          	sw	zero,8(s0)
   12824:	00042823          	sw	zero,16(s0)
   12828:	00042a23          	sw	zero,20(s0)
   1282c:	00042c23          	sw	zero,24(s0)
   12830:	05c40513          	addi	a0,s0,92
   12834:	ab7fd0ef          	jal	ra,102ea <memset>
   12838:	6b5d                	lui	s6,0x17
   1283a:	00892483          	lw	s1,8(s2)
   1283e:	6add                	lui	s5,0x17
   12840:	6a5d                	lui	s4,0x17
   12842:	69dd                	lui	s3,0x17
   12844:	d64b0b13          	addi	s6,s6,-668 # 16d64 <__sread>
   12848:	da0a8a93          	addi	s5,s5,-608 # 16da0 <__swrite>
   1284c:	df4a0a13          	addi	s4,s4,-524 # 16df4 <__sseek>
   12850:	e3698993          	addi	s3,s3,-458 # 16e36 <__sclose>
   12854:	67c1                	lui	a5,0x10
   12856:	03642023          	sw	s6,32(s0)
   1285a:	03542223          	sw	s5,36(s0)
   1285e:	03442423          	sw	s4,40(s0)
   12862:	03342623          	sw	s3,44(s0)
   12866:	cc40                	sw	s0,28(s0)
   12868:	07a5                	addi	a5,a5,9
   1286a:	c4dc                	sw	a5,12(s1)
   1286c:	4621                	li	a2,8
   1286e:	4581                	li	a1,0
   12870:	0604a223          	sw	zero,100(s1)
   12874:	0004a023          	sw	zero,0(s1)
   12878:	0004a223          	sw	zero,4(s1)
   1287c:	0004a423          	sw	zero,8(s1)
   12880:	0004a823          	sw	zero,16(s1)
   12884:	0004aa23          	sw	zero,20(s1)
   12888:	0004ac23          	sw	zero,24(s1)
   1288c:	05c48513          	addi	a0,s1,92
   12890:	a5bfd0ef          	jal	ra,102ea <memset>
   12894:	00c92403          	lw	s0,12(s2)
   12898:	000207b7          	lui	a5,0x20
   1289c:	0364a023          	sw	s6,32(s1)
   128a0:	0354a223          	sw	s5,36(s1)
   128a4:	0344a423          	sw	s4,40(s1)
   128a8:	0334a623          	sw	s3,44(s1)
   128ac:	ccc4                	sw	s1,28(s1)
   128ae:	07c9                	addi	a5,a5,18
   128b0:	c45c                	sw	a5,12(s0)
   128b2:	06042223          	sw	zero,100(s0)
   128b6:	00042023          	sw	zero,0(s0)
   128ba:	00042223          	sw	zero,4(s0)
   128be:	00042423          	sw	zero,8(s0)
   128c2:	00042823          	sw	zero,16(s0)
   128c6:	00042a23          	sw	zero,20(s0)
   128ca:	00042c23          	sw	zero,24(s0)
   128ce:	05c40513          	addi	a0,s0,92
   128d2:	4621                	li	a2,8
   128d4:	4581                	li	a1,0
   128d6:	a15fd0ef          	jal	ra,102ea <memset>
   128da:	40f2                	lw	ra,28(sp)
   128dc:	03642023          	sw	s6,32(s0)
   128e0:	03542223          	sw	s5,36(s0)
   128e4:	03442423          	sw	s4,40(s0)
   128e8:	03342623          	sw	s3,44(s0)
   128ec:	cc40                	sw	s0,28(s0)
   128ee:	4462                	lw	s0,24(sp)
   128f0:	4785                	li	a5,1
   128f2:	02f92c23          	sw	a5,56(s2)
   128f6:	44d2                	lw	s1,20(sp)
   128f8:	4942                	lw	s2,16(sp)
   128fa:	49b2                	lw	s3,12(sp)
   128fc:	4a22                	lw	s4,8(sp)
   128fe:	4a92                	lw	s5,4(sp)
   12900:	4b02                	lw	s6,0(sp)
   12902:	6105                	addi	sp,sp,32
   12904:	8082                	ret

00012906 <__sfmoreglue>:
   12906:	1141                	addi	sp,sp,-16
   12908:	c226                	sw	s1,4(sp)
   1290a:	06800613          	li	a2,104
   1290e:	fff58493          	addi	s1,a1,-1
   12912:	02c484b3          	mul	s1,s1,a2
   12916:	c04a                	sw	s2,0(sp)
   12918:	892e                	mv	s2,a1
   1291a:	c422                	sw	s0,8(sp)
   1291c:	c606                	sw	ra,12(sp)
   1291e:	07448593          	addi	a1,s1,116
   12922:	2e5020ef          	jal	ra,15406 <_malloc_r>
   12926:	842a                	mv	s0,a0
   12928:	cd01                	beqz	a0,12940 <__sfmoreglue+0x3a>
   1292a:	0531                	addi	a0,a0,12
   1292c:	00042023          	sw	zero,0(s0)
   12930:	01242223          	sw	s2,4(s0)
   12934:	c408                	sw	a0,8(s0)
   12936:	06848613          	addi	a2,s1,104
   1293a:	4581                	li	a1,0
   1293c:	9affd0ef          	jal	ra,102ea <memset>
   12940:	40b2                	lw	ra,12(sp)
   12942:	8522                	mv	a0,s0
   12944:	4422                	lw	s0,8(sp)
   12946:	4492                	lw	s1,4(sp)
   12948:	4902                	lw	s2,0(sp)
   1294a:	0141                	addi	sp,sp,16
   1294c:	8082                	ret

0001294e <__sfp>:
   1294e:	1101                	addi	sp,sp,-32
   12950:	c84a                	sw	s2,16(sp)
   12952:	1b81a903          	lw	s2,440(gp) # 20eb8 <_global_impure_ptr>
   12956:	c64e                	sw	s3,12(sp)
   12958:	ce06                	sw	ra,28(sp)
   1295a:	03892783          	lw	a5,56(s2)
   1295e:	cc22                	sw	s0,24(sp)
   12960:	ca26                	sw	s1,20(sp)
   12962:	c452                	sw	s4,8(sp)
   12964:	89aa                	mv	s3,a0
   12966:	c3d1                	beqz	a5,129ea <__sfp+0x9c>
   12968:	2e090913          	addi	s2,s2,736
   1296c:	54fd                	li	s1,-1
   1296e:	4a11                	li	s4,4
   12970:	00492783          	lw	a5,4(s2)
   12974:	00892403          	lw	s0,8(s2)
   12978:	17fd                	addi	a5,a5,-1
   1297a:	0007d763          	bgez	a5,12988 <__sfp+0x3a>
   1297e:	a08d                	j	129e0 <__sfp+0x92>
   12980:	06840413          	addi	s0,s0,104
   12984:	04978e63          	beq	a5,s1,129e0 <__sfp+0x92>
   12988:	00c41703          	lh	a4,12(s0)
   1298c:	17fd                	addi	a5,a5,-1
   1298e:	fb6d                	bnez	a4,12980 <__sfp+0x32>
   12990:	77c1                	lui	a5,0xffff0
   12992:	0785                	addi	a5,a5,1
   12994:	06042223          	sw	zero,100(s0)
   12998:	00042023          	sw	zero,0(s0)
   1299c:	00042223          	sw	zero,4(s0)
   129a0:	00042423          	sw	zero,8(s0)
   129a4:	c45c                	sw	a5,12(s0)
   129a6:	00042823          	sw	zero,16(s0)
   129aa:	00042a23          	sw	zero,20(s0)
   129ae:	00042c23          	sw	zero,24(s0)
   129b2:	4621                	li	a2,8
   129b4:	4581                	li	a1,0
   129b6:	05c40513          	addi	a0,s0,92
   129ba:	931fd0ef          	jal	ra,102ea <memset>
   129be:	02042823          	sw	zero,48(s0)
   129c2:	02042a23          	sw	zero,52(s0)
   129c6:	04042223          	sw	zero,68(s0)
   129ca:	04042423          	sw	zero,72(s0)
   129ce:	40f2                	lw	ra,28(sp)
   129d0:	8522                	mv	a0,s0
   129d2:	4462                	lw	s0,24(sp)
   129d4:	44d2                	lw	s1,20(sp)
   129d6:	4942                	lw	s2,16(sp)
   129d8:	49b2                	lw	s3,12(sp)
   129da:	4a22                	lw	s4,8(sp)
   129dc:	6105                	addi	sp,sp,32
   129de:	8082                	ret
   129e0:	00092403          	lw	s0,0(s2)
   129e4:	c411                	beqz	s0,129f0 <__sfp+0xa2>
   129e6:	8922                	mv	s2,s0
   129e8:	b761                	j	12970 <__sfp+0x22>
   129ea:	854a                	mv	a0,s2
   129ec:	3bc5                	jal	127dc <__sinit.part.0>
   129ee:	bfad                	j	12968 <__sfp+0x1a>
   129f0:	1ac00593          	li	a1,428
   129f4:	854e                	mv	a0,s3
   129f6:	211020ef          	jal	ra,15406 <_malloc_r>
   129fa:	842a                	mv	s0,a0
   129fc:	c105                	beqz	a0,12a1c <__sfp+0xce>
   129fe:	0531                	addi	a0,a0,12
   12a00:	00042023          	sw	zero,0(s0)
   12a04:	01442223          	sw	s4,4(s0)
   12a08:	c408                	sw	a0,8(s0)
   12a0a:	1a000613          	li	a2,416
   12a0e:	4581                	li	a1,0
   12a10:	8dbfd0ef          	jal	ra,102ea <memset>
   12a14:	00892023          	sw	s0,0(s2)
   12a18:	8922                	mv	s2,s0
   12a1a:	bf99                	j	12970 <__sfp+0x22>
   12a1c:	00092023          	sw	zero,0(s2)
   12a20:	47b1                	li	a5,12
   12a22:	00f9a023          	sw	a5,0(s3)
   12a26:	b765                	j	129ce <__sfp+0x80>

00012a28 <_cleanup>:
   12a28:	1b81a503          	lw	a0,440(gp) # 20eb8 <_global_impure_ptr>
   12a2c:	65e9                	lui	a1,0x1a
   12a2e:	d6058593          	addi	a1,a1,-672 # 19d60 <_fclose_r>
   12a32:	adcd                	j	13124 <_fwalk_reent>

00012a34 <__sinit>:
   12a34:	5d1c                	lw	a5,56(a0)
   12a36:	c391                	beqz	a5,12a3a <__sinit+0x6>
   12a38:	8082                	ret
   12a3a:	b34d                	j	127dc <__sinit.part.0>

00012a3c <__sfp_lock_acquire>:
   12a3c:	8082                	ret

00012a3e <__sfp_lock_release>:
   12a3e:	8082                	ret

00012a40 <__sinit_lock_acquire>:
   12a40:	8082                	ret

00012a42 <__sinit_lock_release>:
   12a42:	8082                	ret

00012a44 <__fp_lock_all>:
   12a44:	1c01a503          	lw	a0,448(gp) # 20ec0 <_impure_ptr>
   12a48:	65c9                	lui	a1,0x12
   12a4a:	7ca58593          	addi	a1,a1,1994 # 127ca <__fp_lock>
   12a4e:	a5ad                	j	130b8 <_fwalk>

00012a50 <__fp_unlock_all>:
   12a50:	1c01a503          	lw	a0,448(gp) # 20ec0 <_impure_ptr>
   12a54:	65c9                	lui	a1,0x12
   12a56:	7d858593          	addi	a1,a1,2008 # 127d8 <__fp_unlock>
   12a5a:	adb9                	j	130b8 <_fwalk>

00012a5c <__libc_fini_array>:
   12a5c:	1141                	addi	sp,sp,-16
   12a5e:	c422                	sw	s0,8(sp)
   12a60:	000207b7          	lui	a5,0x20
   12a64:	00020437          	lui	s0,0x20
   12a68:	4fc40413          	addi	s0,s0,1276 # 204fc <__do_global_dtors_aux_fini_array_entry>
   12a6c:	50078793          	addi	a5,a5,1280 # 20500 <impure_data>
   12a70:	8f81                	sub	a5,a5,s0
   12a72:	c226                	sw	s1,4(sp)
   12a74:	c606                	sw	ra,12(sp)
   12a76:	4027d493          	srai	s1,a5,0x2
   12a7a:	c881                	beqz	s1,12a8a <__libc_fini_array+0x2e>
   12a7c:	17f1                	addi	a5,a5,-4
   12a7e:	943e                	add	s0,s0,a5
   12a80:	401c                	lw	a5,0(s0)
   12a82:	14fd                	addi	s1,s1,-1
   12a84:	1471                	addi	s0,s0,-4
   12a86:	9782                	jalr	a5
   12a88:	fce5                	bnez	s1,12a80 <__libc_fini_array+0x24>
   12a8a:	40b2                	lw	ra,12(sp)
   12a8c:	4422                	lw	s0,8(sp)
   12a8e:	4492                	lw	s1,4(sp)
   12a90:	0141                	addi	sp,sp,16
   12a92:	8082                	ret

00012a94 <_malloc_trim_r>:
   12a94:	1101                	addi	sp,sp,-32
   12a96:	c64e                	sw	s3,12(sp)
   12a98:	cc22                	sw	s0,24(sp)
   12a9a:	ca26                	sw	s1,20(sp)
   12a9c:	c84a                	sw	s2,16(sp)
   12a9e:	c452                	sw	s4,8(sp)
   12aa0:	ce06                	sw	ra,28(sp)
   12aa2:	8a2e                	mv	s4,a1
   12aa4:	892a                	mv	s2,a0
   12aa6:	d9418993          	addi	s3,gp,-620 # 20a94 <__malloc_av_>
   12aaa:	198030ef          	jal	ra,15c42 <__malloc_lock>
   12aae:	0089a703          	lw	a4,8(s3)
   12ab2:	6785                	lui	a5,0x1
   12ab4:	fef78413          	addi	s0,a5,-17 # fef <register_fini-0xf085>
   12ab8:	4344                	lw	s1,4(a4)
   12aba:	41440433          	sub	s0,s0,s4
   12abe:	98f1                	andi	s1,s1,-4
   12ac0:	9426                	add	s0,s0,s1
   12ac2:	8031                	srli	s0,s0,0xc
   12ac4:	147d                	addi	s0,s0,-1
   12ac6:	0432                	slli	s0,s0,0xc
   12ac8:	00f44b63          	blt	s0,a5,12ade <_malloc_trim_r+0x4a>
   12acc:	4581                	li	a1,0
   12ace:	854a                	mv	a0,s2
   12ad0:	15e040ef          	jal	ra,16c2e <_sbrk_r>
   12ad4:	0089a783          	lw	a5,8(s3)
   12ad8:	97a6                	add	a5,a5,s1
   12ada:	00f50e63          	beq	a0,a5,12af6 <_malloc_trim_r+0x62>
   12ade:	854a                	mv	a0,s2
   12ae0:	164030ef          	jal	ra,15c44 <__malloc_unlock>
   12ae4:	40f2                	lw	ra,28(sp)
   12ae6:	4462                	lw	s0,24(sp)
   12ae8:	44d2                	lw	s1,20(sp)
   12aea:	4942                	lw	s2,16(sp)
   12aec:	49b2                	lw	s3,12(sp)
   12aee:	4a22                	lw	s4,8(sp)
   12af0:	4501                	li	a0,0
   12af2:	6105                	addi	sp,sp,32
   12af4:	8082                	ret
   12af6:	408005b3          	neg	a1,s0
   12afa:	854a                	mv	a0,s2
   12afc:	132040ef          	jal	ra,16c2e <_sbrk_r>
   12b00:	57fd                	li	a5,-1
   12b02:	02f50a63          	beq	a0,a5,12b36 <_malloc_trim_r+0xa2>
   12b06:	20018793          	addi	a5,gp,512 # 20f00 <__malloc_current_mallinfo>
   12b0a:	4398                	lw	a4,0(a5)
   12b0c:	0089a683          	lw	a3,8(s3)
   12b10:	8c81                	sub	s1,s1,s0
   12b12:	0014e493          	ori	s1,s1,1
   12b16:	40870433          	sub	s0,a4,s0
   12b1a:	854a                	mv	a0,s2
   12b1c:	c2c4                	sw	s1,4(a3)
   12b1e:	c380                	sw	s0,0(a5)
   12b20:	124030ef          	jal	ra,15c44 <__malloc_unlock>
   12b24:	40f2                	lw	ra,28(sp)
   12b26:	4462                	lw	s0,24(sp)
   12b28:	44d2                	lw	s1,20(sp)
   12b2a:	4942                	lw	s2,16(sp)
   12b2c:	49b2                	lw	s3,12(sp)
   12b2e:	4a22                	lw	s4,8(sp)
   12b30:	4505                	li	a0,1
   12b32:	6105                	addi	sp,sp,32
   12b34:	8082                	ret
   12b36:	4581                	li	a1,0
   12b38:	854a                	mv	a0,s2
   12b3a:	0f4040ef          	jal	ra,16c2e <_sbrk_r>
   12b3e:	0089a703          	lw	a4,8(s3)
   12b42:	46bd                	li	a3,15
   12b44:	40e507b3          	sub	a5,a0,a4
   12b48:	f8f6dbe3          	bge	a3,a5,12ade <_malloc_trim_r+0x4a>
   12b4c:	1c41a683          	lw	a3,452(gp) # 20ec4 <__malloc_sbrk_base>
   12b50:	0017e793          	ori	a5,a5,1
   12b54:	c35c                	sw	a5,4(a4)
   12b56:	8d15                	sub	a0,a0,a3
   12b58:	20a1a023          	sw	a0,512(gp) # 20f00 <__malloc_current_mallinfo>
   12b5c:	b749                	j	12ade <_malloc_trim_r+0x4a>

00012b5e <_free_r>:
   12b5e:	cde9                	beqz	a1,12c38 <_free_r+0xda>
   12b60:	1141                	addi	sp,sp,-16
   12b62:	c422                	sw	s0,8(sp)
   12b64:	c226                	sw	s1,4(sp)
   12b66:	842e                	mv	s0,a1
   12b68:	84aa                	mv	s1,a0
   12b6a:	c606                	sw	ra,12(sp)
   12b6c:	0d6030ef          	jal	ra,15c42 <__malloc_lock>
   12b70:	ffc42803          	lw	a6,-4(s0)
   12b74:	ff840713          	addi	a4,s0,-8
   12b78:	ffe87793          	andi	a5,a6,-2
   12b7c:	00f70633          	add	a2,a4,a5
   12b80:	d9418593          	addi	a1,gp,-620 # 20a94 <__malloc_av_>
   12b84:	4254                	lw	a3,4(a2)
   12b86:	4588                	lw	a0,8(a1)
   12b88:	9af1                	andi	a3,a3,-4
   12b8a:	12c50c63          	beq	a0,a2,12cc2 <_free_r+0x164>
   12b8e:	c254                	sw	a3,4(a2)
   12b90:	00187813          	andi	a6,a6,1
   12b94:	00d60533          	add	a0,a2,a3
   12b98:	06081b63          	bnez	a6,12c0e <_free_r+0xb0>
   12b9c:	ff842303          	lw	t1,-8(s0)
   12ba0:	00452803          	lw	a6,4(a0)
   12ba4:	40670733          	sub	a4,a4,t1
   12ba8:	00872883          	lw	a7,8(a4)
   12bac:	d9c18513          	addi	a0,gp,-612 # 20a9c <__malloc_av_+0x8>
   12bb0:	979a                	add	a5,a5,t1
   12bb2:	00187813          	andi	a6,a6,1
   12bb6:	0ea88363          	beq	a7,a0,12c9c <_free_r+0x13e>
   12bba:	00c72303          	lw	t1,12(a4)
   12bbe:	0068a623          	sw	t1,12(a7)
   12bc2:	01132423          	sw	a7,8(t1)
   12bc6:	14080763          	beqz	a6,12d14 <_free_r+0x1b6>
   12bca:	0017e693          	ori	a3,a5,1
   12bce:	c354                	sw	a3,4(a4)
   12bd0:	c21c                	sw	a5,0(a2)
   12bd2:	1ff00693          	li	a3,511
   12bd6:	06f6eb63          	bltu	a3,a5,12c4c <_free_r+0xee>
   12bda:	ff87f693          	andi	a3,a5,-8
   12bde:	06a1                	addi	a3,a3,8
   12be0:	41c8                	lw	a0,4(a1)
   12be2:	96ae                	add	a3,a3,a1
   12be4:	4290                	lw	a2,0(a3)
   12be6:	0057d813          	srli	a6,a5,0x5
   12bea:	4785                	li	a5,1
   12bec:	010797b3          	sll	a5,a5,a6
   12bf0:	8fc9                	or	a5,a5,a0
   12bf2:	ff868513          	addi	a0,a3,-8 # ff8 <register_fini-0xf07c>
   12bf6:	c748                	sw	a0,12(a4)
   12bf8:	c710                	sw	a2,8(a4)
   12bfa:	c1dc                	sw	a5,4(a1)
   12bfc:	c298                	sw	a4,0(a3)
   12bfe:	c658                	sw	a4,12(a2)
   12c00:	4422                	lw	s0,8(sp)
   12c02:	40b2                	lw	ra,12(sp)
   12c04:	8526                	mv	a0,s1
   12c06:	4492                	lw	s1,4(sp)
   12c08:	0141                	addi	sp,sp,16
   12c0a:	03a0306f          	j	15c44 <__malloc_unlock>
   12c0e:	4148                	lw	a0,4(a0)
   12c10:	8905                	andi	a0,a0,1
   12c12:	e505                	bnez	a0,12c3a <_free_r+0xdc>
   12c14:	97b6                	add	a5,a5,a3
   12c16:	d9c18513          	addi	a0,gp,-612 # 20a9c <__malloc_av_+0x8>
   12c1a:	4614                	lw	a3,8(a2)
   12c1c:	0017e893          	ori	a7,a5,1
   12c20:	00f70833          	add	a6,a4,a5
   12c24:	10a68063          	beq	a3,a0,12d24 <_free_r+0x1c6>
   12c28:	4650                	lw	a2,12(a2)
   12c2a:	c6d0                	sw	a2,12(a3)
   12c2c:	c614                	sw	a3,8(a2)
   12c2e:	01172223          	sw	a7,4(a4)
   12c32:	00f82023          	sw	a5,0(a6)
   12c36:	bf71                	j	12bd2 <_free_r+0x74>
   12c38:	8082                	ret
   12c3a:	0017e693          	ori	a3,a5,1
   12c3e:	fed42e23          	sw	a3,-4(s0)
   12c42:	c21c                	sw	a5,0(a2)
   12c44:	1ff00693          	li	a3,511
   12c48:	f8f6f9e3          	bgeu	a3,a5,12bda <_free_r+0x7c>
   12c4c:	0097d693          	srli	a3,a5,0x9
   12c50:	4611                	li	a2,4
   12c52:	0ad66263          	bltu	a2,a3,12cf6 <_free_r+0x198>
   12c56:	0067d693          	srli	a3,a5,0x6
   12c5a:	03968813          	addi	a6,a3,57
   12c5e:	03868613          	addi	a2,a3,56
   12c62:	080e                	slli	a6,a6,0x3
   12c64:	982e                	add	a6,a6,a1
   12c66:	00082683          	lw	a3,0(a6)
   12c6a:	1861                	addi	a6,a6,-8
   12c6c:	0cd80563          	beq	a6,a3,12d36 <_free_r+0x1d8>
   12c70:	42d0                	lw	a2,4(a3)
   12c72:	9a71                	andi	a2,a2,-4
   12c74:	00c7f563          	bgeu	a5,a2,12c7e <_free_r+0x120>
   12c78:	4694                	lw	a3,8(a3)
   12c7a:	fed81be3          	bne	a6,a3,12c70 <_free_r+0x112>
   12c7e:	00c6a803          	lw	a6,12(a3)
   12c82:	01072623          	sw	a6,12(a4)
   12c86:	c714                	sw	a3,8(a4)
   12c88:	4422                	lw	s0,8(sp)
   12c8a:	40b2                	lw	ra,12(sp)
   12c8c:	00e82423          	sw	a4,8(a6)
   12c90:	8526                	mv	a0,s1
   12c92:	4492                	lw	s1,4(sp)
   12c94:	c6d8                	sw	a4,12(a3)
   12c96:	0141                	addi	sp,sp,16
   12c98:	7ad0206f          	j	15c44 <__malloc_unlock>
   12c9c:	0e081263          	bnez	a6,12d80 <_free_r+0x222>
   12ca0:	464c                	lw	a1,12(a2)
   12ca2:	4610                	lw	a2,8(a2)
   12ca4:	97b6                	add	a5,a5,a3
   12ca6:	4422                	lw	s0,8(sp)
   12ca8:	c64c                	sw	a1,12(a2)
   12caa:	c590                	sw	a2,8(a1)
   12cac:	0017e693          	ori	a3,a5,1
   12cb0:	40b2                	lw	ra,12(sp)
   12cb2:	c354                	sw	a3,4(a4)
   12cb4:	8526                	mv	a0,s1
   12cb6:	973e                	add	a4,a4,a5
   12cb8:	4492                	lw	s1,4(sp)
   12cba:	c31c                	sw	a5,0(a4)
   12cbc:	0141                	addi	sp,sp,16
   12cbe:	7870206f          	j	15c44 <__malloc_unlock>
   12cc2:	00187813          	andi	a6,a6,1
   12cc6:	97b6                	add	a5,a5,a3
   12cc8:	00081a63          	bnez	a6,12cdc <_free_r+0x17e>
   12ccc:	ff842503          	lw	a0,-8(s0)
   12cd0:	8f09                	sub	a4,a4,a0
   12cd2:	4754                	lw	a3,12(a4)
   12cd4:	4710                	lw	a2,8(a4)
   12cd6:	97aa                	add	a5,a5,a0
   12cd8:	c654                	sw	a3,12(a2)
   12cda:	c690                	sw	a2,8(a3)
   12cdc:	0017e613          	ori	a2,a5,1
   12ce0:	1c81a683          	lw	a3,456(gp) # 20ec8 <__malloc_trim_threshold>
   12ce4:	c350                	sw	a2,4(a4)
   12ce6:	c598                	sw	a4,8(a1)
   12ce8:	f0d7ece3          	bltu	a5,a3,12c00 <_free_r+0xa2>
   12cec:	1d81a583          	lw	a1,472(gp) # 20ed8 <__malloc_top_pad>
   12cf0:	8526                	mv	a0,s1
   12cf2:	334d                	jal	12a94 <_malloc_trim_r>
   12cf4:	b731                	j	12c00 <_free_r+0xa2>
   12cf6:	4651                	li	a2,20
   12cf8:	02d67063          	bgeu	a2,a3,12d18 <_free_r+0x1ba>
   12cfc:	05400613          	li	a2,84
   12d00:	04d66363          	bltu	a2,a3,12d46 <_free_r+0x1e8>
   12d04:	00c7d693          	srli	a3,a5,0xc
   12d08:	06f68813          	addi	a6,a3,111
   12d0c:	06e68613          	addi	a2,a3,110
   12d10:	080e                	slli	a6,a6,0x3
   12d12:	bf89                	j	12c64 <_free_r+0x106>
   12d14:	97b6                	add	a5,a5,a3
   12d16:	b711                	j	12c1a <_free_r+0xbc>
   12d18:	05c68813          	addi	a6,a3,92
   12d1c:	05b68613          	addi	a2,a3,91
   12d20:	080e                	slli	a6,a6,0x3
   12d22:	b789                	j	12c64 <_free_r+0x106>
   12d24:	c9d8                	sw	a4,20(a1)
   12d26:	c998                	sw	a4,16(a1)
   12d28:	c748                	sw	a0,12(a4)
   12d2a:	c708                	sw	a0,8(a4)
   12d2c:	01172223          	sw	a7,4(a4)
   12d30:	00f82023          	sw	a5,0(a6)
   12d34:	b5f1                	j	12c00 <_free_r+0xa2>
   12d36:	41c8                	lw	a0,4(a1)
   12d38:	8609                	srai	a2,a2,0x2
   12d3a:	4785                	li	a5,1
   12d3c:	00c79633          	sll	a2,a5,a2
   12d40:	8e49                	or	a2,a2,a0
   12d42:	c1d0                	sw	a2,4(a1)
   12d44:	bf3d                	j	12c82 <_free_r+0x124>
   12d46:	15400613          	li	a2,340
   12d4a:	00d66a63          	bltu	a2,a3,12d5e <_free_r+0x200>
   12d4e:	00f7d693          	srli	a3,a5,0xf
   12d52:	07868813          	addi	a6,a3,120
   12d56:	07768613          	addi	a2,a3,119
   12d5a:	080e                	slli	a6,a6,0x3
   12d5c:	b721                	j	12c64 <_free_r+0x106>
   12d5e:	55400613          	li	a2,1364
   12d62:	00d66a63          	bltu	a2,a3,12d76 <_free_r+0x218>
   12d66:	0127d693          	srli	a3,a5,0x12
   12d6a:	07d68813          	addi	a6,a3,125
   12d6e:	07c68613          	addi	a2,a3,124
   12d72:	080e                	slli	a6,a6,0x3
   12d74:	bdc5                	j	12c64 <_free_r+0x106>
   12d76:	3f800813          	li	a6,1016
   12d7a:	07e00613          	li	a2,126
   12d7e:	b5dd                	j	12c64 <_free_r+0x106>
   12d80:	0017e693          	ori	a3,a5,1
   12d84:	c354                	sw	a3,4(a4)
   12d86:	c21c                	sw	a5,0(a2)
   12d88:	bda5                	j	12c00 <_free_r+0xa2>

00012d8a <__sfvwrite_r>:
   12d8a:	461c                	lw	a5,8(a2)
   12d8c:	22078763          	beqz	a5,12fba <__sfvwrite_r+0x230>
   12d90:	00c5d783          	lhu	a5,12(a1)
   12d94:	7179                	addi	sp,sp,-48
   12d96:	d422                	sw	s0,40(sp)
   12d98:	cc52                	sw	s4,24(sp)
   12d9a:	ca56                	sw	s5,20(sp)
   12d9c:	d606                	sw	ra,44(sp)
   12d9e:	d226                	sw	s1,36(sp)
   12da0:	d04a                	sw	s2,32(sp)
   12da2:	ce4e                	sw	s3,28(sp)
   12da4:	c85a                	sw	s6,16(sp)
   12da6:	c65e                	sw	s7,12(sp)
   12da8:	c462                	sw	s8,8(sp)
   12daa:	c266                	sw	s9,4(sp)
   12dac:	c06a                	sw	s10,0(sp)
   12dae:	0087f713          	andi	a4,a5,8
   12db2:	8a32                	mv	s4,a2
   12db4:	8aaa                	mv	s5,a0
   12db6:	842e                	mv	s0,a1
   12db8:	c335                	beqz	a4,12e1c <__sfvwrite_r+0x92>
   12dba:	4998                	lw	a4,16(a1)
   12dbc:	c325                	beqz	a4,12e1c <__sfvwrite_r+0x92>
   12dbe:	0027f713          	andi	a4,a5,2
   12dc2:	000a2483          	lw	s1,0(s4)
   12dc6:	cb25                	beqz	a4,12e36 <__sfvwrite_r+0xac>
   12dc8:	505c                	lw	a5,36(s0)
   12dca:	4c4c                	lw	a1,28(s0)
   12dcc:	80000b37          	lui	s6,0x80000
   12dd0:	4981                	li	s3,0
   12dd2:	4901                	li	s2,0
   12dd4:	c00b4b13          	xori	s6,s6,-1024
   12dd8:	864e                	mv	a2,s3
   12dda:	8556                	mv	a0,s5
   12ddc:	02090a63          	beqz	s2,12e10 <__sfvwrite_r+0x86>
   12de0:	86ca                	mv	a3,s2
   12de2:	012b7363          	bgeu	s6,s2,12de8 <__sfvwrite_r+0x5e>
   12de6:	86da                	mv	a3,s6
   12de8:	9782                	jalr	a5
   12dea:	1ca05063          	blez	a0,12faa <__sfvwrite_r+0x220>
   12dee:	008a2783          	lw	a5,8(s4)
   12df2:	99aa                	add	s3,s3,a0
   12df4:	40a90933          	sub	s2,s2,a0
   12df8:	40a78533          	sub	a0,a5,a0
   12dfc:	00aa2423          	sw	a0,8(s4)
   12e00:	18050163          	beqz	a0,12f82 <__sfvwrite_r+0x1f8>
   12e04:	505c                	lw	a5,36(s0)
   12e06:	4c4c                	lw	a1,28(s0)
   12e08:	864e                	mv	a2,s3
   12e0a:	8556                	mv	a0,s5
   12e0c:	fc091ae3          	bnez	s2,12de0 <__sfvwrite_r+0x56>
   12e10:	0004a983          	lw	s3,0(s1)
   12e14:	0044a903          	lw	s2,4(s1)
   12e18:	04a1                	addi	s1,s1,8
   12e1a:	bf7d                	j	12dd8 <__sfvwrite_r+0x4e>
   12e1c:	85a2                	mv	a1,s0
   12e1e:	8556                	mv	a0,s5
   12e20:	de6ff0ef          	jal	ra,12406 <__swsetup_r>
   12e24:	28051863          	bnez	a0,130b4 <__sfvwrite_r+0x32a>
   12e28:	00c45783          	lhu	a5,12(s0)
   12e2c:	000a2483          	lw	s1,0(s4)
   12e30:	0027f713          	andi	a4,a5,2
   12e34:	fb51                	bnez	a4,12dc8 <__sfvwrite_r+0x3e>
   12e36:	0017f713          	andi	a4,a5,1
   12e3a:	e765                	bnez	a4,12f22 <__sfvwrite_r+0x198>
   12e3c:	00842c83          	lw	s9,8(s0)
   12e40:	4008                	lw	a0,0(s0)
   12e42:	80000b37          	lui	s6,0x80000
   12e46:	ffeb4b93          	xori	s7,s6,-2
   12e4a:	4c01                	li	s8,0
   12e4c:	4901                	li	s2,0
   12e4e:	fffb4b13          	not	s6,s6
   12e52:	0c090263          	beqz	s2,12f16 <__sfvwrite_r+0x18c>
   12e56:	2007f713          	andi	a4,a5,512
   12e5a:	1a070063          	beqz	a4,12ffa <__sfvwrite_r+0x270>
   12e5e:	8d66                	mv	s10,s9
   12e60:	1f996e63          	bltu	s2,s9,1305c <__sfvwrite_r+0x2d2>
   12e64:	4807f713          	andi	a4,a5,1152
   12e68:	cb2d                	beqz	a4,12eda <__sfvwrite_r+0x150>
   12e6a:	01442983          	lw	s3,20(s0)
   12e6e:	480c                	lw	a1,16(s0)
   12e70:	00190713          	addi	a4,s2,1
   12e74:	00199693          	slli	a3,s3,0x1
   12e78:	96ce                	add	a3,a3,s3
   12e7a:	01f6d993          	srli	s3,a3,0x1f
   12e7e:	40b50d33          	sub	s10,a0,a1
   12e82:	99b6                	add	s3,s3,a3
   12e84:	4019d993          	srai	s3,s3,0x1
   12e88:	976a                	add	a4,a4,s10
   12e8a:	864e                	mv	a2,s3
   12e8c:	00e9f463          	bgeu	s3,a4,12e94 <__sfvwrite_r+0x10a>
   12e90:	89ba                	mv	s3,a4
   12e92:	863a                	mv	a2,a4
   12e94:	4007f793          	andi	a5,a5,1024
   12e98:	1e078263          	beqz	a5,1307c <__sfvwrite_r+0x2f2>
   12e9c:	85b2                	mv	a1,a2
   12e9e:	8556                	mv	a0,s5
   12ea0:	566020ef          	jal	ra,15406 <_malloc_r>
   12ea4:	8caa                	mv	s9,a0
   12ea6:	20050163          	beqz	a0,130a8 <__sfvwrite_r+0x31e>
   12eaa:	480c                	lw	a1,16(s0)
   12eac:	866a                	mv	a2,s10
   12eae:	3dd020ef          	jal	ra,15a8a <memcpy>
   12eb2:	00c45783          	lhu	a5,12(s0)
   12eb6:	b7f7f793          	andi	a5,a5,-1153
   12eba:	0807e793          	ori	a5,a5,128
   12ebe:	00f41623          	sh	a5,12(s0)
   12ec2:	01ac8533          	add	a0,s9,s10
   12ec6:	41a987b3          	sub	a5,s3,s10
   12eca:	01942823          	sw	s9,16(s0)
   12ece:	c008                	sw	a0,0(s0)
   12ed0:	01342a23          	sw	s3,20(s0)
   12ed4:	8cca                	mv	s9,s2
   12ed6:	c41c                	sw	a5,8(s0)
   12ed8:	8d4a                	mv	s10,s2
   12eda:	866a                	mv	a2,s10
   12edc:	85e2                	mv	a1,s8
   12ede:	495020ef          	jal	ra,15b72 <memmove>
   12ee2:	4418                	lw	a4,8(s0)
   12ee4:	401c                	lw	a5,0(s0)
   12ee6:	89ca                	mv	s3,s2
   12ee8:	41970cb3          	sub	s9,a4,s9
   12eec:	97ea                	add	a5,a5,s10
   12eee:	01942423          	sw	s9,8(s0)
   12ef2:	c01c                	sw	a5,0(s0)
   12ef4:	4901                	li	s2,0
   12ef6:	008a2603          	lw	a2,8(s4)
   12efa:	9c4e                	add	s8,s8,s3
   12efc:	413609b3          	sub	s3,a2,s3
   12f00:	013a2423          	sw	s3,8(s4)
   12f04:	06098f63          	beqz	s3,12f82 <__sfvwrite_r+0x1f8>
   12f08:	00842c83          	lw	s9,8(s0)
   12f0c:	4008                	lw	a0,0(s0)
   12f0e:	00c45783          	lhu	a5,12(s0)
   12f12:	f40912e3          	bnez	s2,12e56 <__sfvwrite_r+0xcc>
   12f16:	0004ac03          	lw	s8,0(s1)
   12f1a:	0044a903          	lw	s2,4(s1)
   12f1e:	04a1                	addi	s1,s1,8
   12f20:	bf0d                	j	12e52 <__sfvwrite_r+0xc8>
   12f22:	4b01                	li	s6,0
   12f24:	4501                	li	a0,0
   12f26:	4c01                	li	s8,0
   12f28:	4981                	li	s3,0
   12f2a:	08098a63          	beqz	s3,12fbe <__sfvwrite_r+0x234>
   12f2e:	cd59                	beqz	a0,12fcc <__sfvwrite_r+0x242>
   12f30:	87da                	mv	a5,s6
   12f32:	8bce                	mv	s7,s3
   12f34:	0137f363          	bgeu	a5,s3,12f3a <__sfvwrite_r+0x1b0>
   12f38:	8bbe                	mv	s7,a5
   12f3a:	4008                	lw	a0,0(s0)
   12f3c:	481c                	lw	a5,16(s0)
   12f3e:	4854                	lw	a3,20(s0)
   12f40:	00a7f763          	bgeu	a5,a0,12f4e <__sfvwrite_r+0x1c4>
   12f44:	00842903          	lw	s2,8(s0)
   12f48:	9936                	add	s2,s2,a3
   12f4a:	09794b63          	blt	s2,s7,12fe0 <__sfvwrite_r+0x256>
   12f4e:	10dbca63          	blt	s7,a3,13062 <__sfvwrite_r+0x2d8>
   12f52:	505c                	lw	a5,36(s0)
   12f54:	4c4c                	lw	a1,28(s0)
   12f56:	8662                	mv	a2,s8
   12f58:	8556                	mv	a0,s5
   12f5a:	9782                	jalr	a5
   12f5c:	892a                	mv	s2,a0
   12f5e:	04a05663          	blez	a0,12faa <__sfvwrite_r+0x220>
   12f62:	412b0b33          	sub	s6,s6,s2
   12f66:	4505                	li	a0,1
   12f68:	020b0c63          	beqz	s6,12fa0 <__sfvwrite_r+0x216>
   12f6c:	008a2603          	lw	a2,8(s4)
   12f70:	9c4a                	add	s8,s8,s2
   12f72:	412989b3          	sub	s3,s3,s2
   12f76:	41260933          	sub	s2,a2,s2
   12f7a:	012a2423          	sw	s2,8(s4)
   12f7e:	fa0916e3          	bnez	s2,12f2a <__sfvwrite_r+0x1a0>
   12f82:	4501                	li	a0,0
   12f84:	50b2                	lw	ra,44(sp)
   12f86:	5422                	lw	s0,40(sp)
   12f88:	5492                	lw	s1,36(sp)
   12f8a:	5902                	lw	s2,32(sp)
   12f8c:	49f2                	lw	s3,28(sp)
   12f8e:	4a62                	lw	s4,24(sp)
   12f90:	4ad2                	lw	s5,20(sp)
   12f92:	4b42                	lw	s6,16(sp)
   12f94:	4bb2                	lw	s7,12(sp)
   12f96:	4c22                	lw	s8,8(sp)
   12f98:	4c92                	lw	s9,4(sp)
   12f9a:	4d02                	lw	s10,0(sp)
   12f9c:	6145                	addi	sp,sp,48
   12f9e:	8082                	ret
   12fa0:	85a2                	mv	a1,s0
   12fa2:	8556                	mv	a0,s5
   12fa4:	fa8ff0ef          	jal	ra,1274c <_fflush_r>
   12fa8:	d171                	beqz	a0,12f6c <__sfvwrite_r+0x1e2>
   12faa:	00c41783          	lh	a5,12(s0)
   12fae:	0407e793          	ori	a5,a5,64
   12fb2:	00f41623          	sh	a5,12(s0)
   12fb6:	557d                	li	a0,-1
   12fb8:	b7f1                	j	12f84 <__sfvwrite_r+0x1fa>
   12fba:	4501                	li	a0,0
   12fbc:	8082                	ret
   12fbe:	0044a983          	lw	s3,4(s1)
   12fc2:	0004ac03          	lw	s8,0(s1)
   12fc6:	04a1                	addi	s1,s1,8
   12fc8:	fe098be3          	beqz	s3,12fbe <__sfvwrite_r+0x234>
   12fcc:	864e                	mv	a2,s3
   12fce:	45a9                	li	a1,10
   12fd0:	8562                	mv	a0,s8
   12fd2:	225020ef          	jal	ra,159f6 <memchr>
   12fd6:	c569                	beqz	a0,130a0 <__sfvwrite_r+0x316>
   12fd8:	0505                	addi	a0,a0,1
   12fda:	41850b33          	sub	s6,a0,s8
   12fde:	bf89                	j	12f30 <__sfvwrite_r+0x1a6>
   12fe0:	85e2                	mv	a1,s8
   12fe2:	864a                	mv	a2,s2
   12fe4:	38f020ef          	jal	ra,15b72 <memmove>
   12fe8:	401c                	lw	a5,0(s0)
   12fea:	85a2                	mv	a1,s0
   12fec:	8556                	mv	a0,s5
   12fee:	97ca                	add	a5,a5,s2
   12ff0:	c01c                	sw	a5,0(s0)
   12ff2:	f5aff0ef          	jal	ra,1274c <_fflush_r>
   12ff6:	d535                	beqz	a0,12f62 <__sfvwrite_r+0x1d8>
   12ff8:	bf4d                	j	12faa <__sfvwrite_r+0x220>
   12ffa:	481c                	lw	a5,16(s0)
   12ffc:	02a7e863          	bltu	a5,a0,1302c <__sfvwrite_r+0x2a2>
   13000:	485c                	lw	a5,20(s0)
   13002:	02f96563          	bltu	s2,a5,1302c <__sfvwrite_r+0x2a2>
   13006:	86ca                	mv	a3,s2
   13008:	012bf363          	bgeu	s7,s2,1300e <__sfvwrite_r+0x284>
   1300c:	86da                	mv	a3,s6
   1300e:	02f6c6b3          	div	a3,a3,a5
   13012:	5058                	lw	a4,36(s0)
   13014:	4c4c                	lw	a1,28(s0)
   13016:	8662                	mv	a2,s8
   13018:	8556                	mv	a0,s5
   1301a:	02f686b3          	mul	a3,a3,a5
   1301e:	9702                	jalr	a4
   13020:	89aa                	mv	s3,a0
   13022:	f8a054e3          	blez	a0,12faa <__sfvwrite_r+0x220>
   13026:	41390933          	sub	s2,s2,s3
   1302a:	b5f1                	j	12ef6 <__sfvwrite_r+0x16c>
   1302c:	89e6                	mv	s3,s9
   1302e:	01997363          	bgeu	s2,s9,13034 <__sfvwrite_r+0x2aa>
   13032:	89ca                	mv	s3,s2
   13034:	864e                	mv	a2,s3
   13036:	85e2                	mv	a1,s8
   13038:	33b020ef          	jal	ra,15b72 <memmove>
   1303c:	441c                	lw	a5,8(s0)
   1303e:	4018                	lw	a4,0(s0)
   13040:	413787b3          	sub	a5,a5,s3
   13044:	974e                	add	a4,a4,s3
   13046:	c41c                	sw	a5,8(s0)
   13048:	c018                	sw	a4,0(s0)
   1304a:	fff1                	bnez	a5,13026 <__sfvwrite_r+0x29c>
   1304c:	85a2                	mv	a1,s0
   1304e:	8556                	mv	a0,s5
   13050:	efcff0ef          	jal	ra,1274c <_fflush_r>
   13054:	f939                	bnez	a0,12faa <__sfvwrite_r+0x220>
   13056:	41390933          	sub	s2,s2,s3
   1305a:	bd71                	j	12ef6 <__sfvwrite_r+0x16c>
   1305c:	8cca                	mv	s9,s2
   1305e:	8d4a                	mv	s10,s2
   13060:	bdad                	j	12eda <__sfvwrite_r+0x150>
   13062:	865e                	mv	a2,s7
   13064:	85e2                	mv	a1,s8
   13066:	30d020ef          	jal	ra,15b72 <memmove>
   1306a:	4418                	lw	a4,8(s0)
   1306c:	401c                	lw	a5,0(s0)
   1306e:	895e                	mv	s2,s7
   13070:	41770733          	sub	a4,a4,s7
   13074:	97de                	add	a5,a5,s7
   13076:	c418                	sw	a4,8(s0)
   13078:	c01c                	sw	a5,0(s0)
   1307a:	b5e5                	j	12f62 <__sfvwrite_r+0x1d8>
   1307c:	8556                	mv	a0,s5
   1307e:	7ca030ef          	jal	ra,16848 <_realloc_r>
   13082:	8caa                	mv	s9,a0
   13084:	e2051fe3          	bnez	a0,12ec2 <__sfvwrite_r+0x138>
   13088:	480c                	lw	a1,16(s0)
   1308a:	8556                	mv	a0,s5
   1308c:	ad3ff0ef          	jal	ra,12b5e <_free_r>
   13090:	00c41783          	lh	a5,12(s0)
   13094:	4731                	li	a4,12
   13096:	00eaa023          	sw	a4,0(s5)
   1309a:	f7f7f793          	andi	a5,a5,-129
   1309e:	bf01                	j	12fae <__sfvwrite_r+0x224>
   130a0:	00198793          	addi	a5,s3,1
   130a4:	8b3e                	mv	s6,a5
   130a6:	b571                	j	12f32 <__sfvwrite_r+0x1a8>
   130a8:	4731                	li	a4,12
   130aa:	00c41783          	lh	a5,12(s0)
   130ae:	00eaa023          	sw	a4,0(s5)
   130b2:	bdf5                	j	12fae <__sfvwrite_r+0x224>
   130b4:	557d                	li	a0,-1
   130b6:	b5f9                	j	12f84 <__sfvwrite_r+0x1fa>

000130b8 <_fwalk>:
   130b8:	1101                	addi	sp,sp,-32
   130ba:	c84a                	sw	s2,16(sp)
   130bc:	c64e                	sw	s3,12(sp)
   130be:	c452                	sw	s4,8(sp)
   130c0:	c256                	sw	s5,4(sp)
   130c2:	c05a                	sw	s6,0(sp)
   130c4:	ce06                	sw	ra,28(sp)
   130c6:	cc22                	sw	s0,24(sp)
   130c8:	ca26                	sw	s1,20(sp)
   130ca:	8b2e                	mv	s6,a1
   130cc:	2e050a93          	addi	s5,a0,736
   130d0:	4a01                	li	s4,0
   130d2:	4985                	li	s3,1
   130d4:	597d                	li	s2,-1
   130d6:	004aa483          	lw	s1,4(s5)
   130da:	008aa403          	lw	s0,8(s5)
   130de:	14fd                	addi	s1,s1,-1
   130e0:	0204c363          	bltz	s1,13106 <_fwalk+0x4e>
   130e4:	00c45783          	lhu	a5,12(s0)
   130e8:	14fd                	addi	s1,s1,-1
   130ea:	00f9fa63          	bgeu	s3,a5,130fe <_fwalk+0x46>
   130ee:	00e41783          	lh	a5,14(s0)
   130f2:	8522                	mv	a0,s0
   130f4:	01278563          	beq	a5,s2,130fe <_fwalk+0x46>
   130f8:	9b02                	jalr	s6
   130fa:	00aa6a33          	or	s4,s4,a0
   130fe:	06840413          	addi	s0,s0,104
   13102:	ff2491e3          	bne	s1,s2,130e4 <_fwalk+0x2c>
   13106:	000aaa83          	lw	s5,0(s5)
   1310a:	fc0a96e3          	bnez	s5,130d6 <_fwalk+0x1e>
   1310e:	40f2                	lw	ra,28(sp)
   13110:	4462                	lw	s0,24(sp)
   13112:	44d2                	lw	s1,20(sp)
   13114:	4942                	lw	s2,16(sp)
   13116:	49b2                	lw	s3,12(sp)
   13118:	4a92                	lw	s5,4(sp)
   1311a:	4b02                	lw	s6,0(sp)
   1311c:	8552                	mv	a0,s4
   1311e:	4a22                	lw	s4,8(sp)
   13120:	6105                	addi	sp,sp,32
   13122:	8082                	ret

00013124 <_fwalk_reent>:
   13124:	7179                	addi	sp,sp,-48
   13126:	d04a                	sw	s2,32(sp)
   13128:	ce4e                	sw	s3,28(sp)
   1312a:	cc52                	sw	s4,24(sp)
   1312c:	ca56                	sw	s5,20(sp)
   1312e:	c85a                	sw	s6,16(sp)
   13130:	c65e                	sw	s7,12(sp)
   13132:	d606                	sw	ra,44(sp)
   13134:	d422                	sw	s0,40(sp)
   13136:	d226                	sw	s1,36(sp)
   13138:	8aaa                	mv	s5,a0
   1313a:	8bae                	mv	s7,a1
   1313c:	2e050b13          	addi	s6,a0,736
   13140:	4a01                	li	s4,0
   13142:	4985                	li	s3,1
   13144:	597d                	li	s2,-1
   13146:	004b2483          	lw	s1,4(s6) # 80000004 <__BSS_END__+0x7ffdf0dc>
   1314a:	008b2403          	lw	s0,8(s6)
   1314e:	14fd                	addi	s1,s1,-1
   13150:	0204c463          	bltz	s1,13178 <_fwalk_reent+0x54>
   13154:	00c45783          	lhu	a5,12(s0)
   13158:	14fd                	addi	s1,s1,-1
   1315a:	00f9fb63          	bgeu	s3,a5,13170 <_fwalk_reent+0x4c>
   1315e:	00e41783          	lh	a5,14(s0)
   13162:	85a2                	mv	a1,s0
   13164:	8556                	mv	a0,s5
   13166:	01278563          	beq	a5,s2,13170 <_fwalk_reent+0x4c>
   1316a:	9b82                	jalr	s7
   1316c:	00aa6a33          	or	s4,s4,a0
   13170:	06840413          	addi	s0,s0,104
   13174:	ff2490e3          	bne	s1,s2,13154 <_fwalk_reent+0x30>
   13178:	000b2b03          	lw	s6,0(s6)
   1317c:	fc0b15e3          	bnez	s6,13146 <_fwalk_reent+0x22>
   13180:	50b2                	lw	ra,44(sp)
   13182:	5422                	lw	s0,40(sp)
   13184:	5492                	lw	s1,36(sp)
   13186:	5902                	lw	s2,32(sp)
   13188:	49f2                	lw	s3,28(sp)
   1318a:	4ad2                	lw	s5,20(sp)
   1318c:	4b42                	lw	s6,16(sp)
   1318e:	4bb2                	lw	s7,12(sp)
   13190:	8552                	mv	a0,s4
   13192:	4a62                	lw	s4,24(sp)
   13194:	6145                	addi	sp,sp,48
   13196:	8082                	ret

00013198 <eshdn1>:
   13198:	00450693          	addi	a3,a0,4
   1319c:	4781                	li	a5,0
   1319e:	0569                	addi	a0,a0,26
   131a0:	7861                	lui	a6,0xffff8
   131a2:	a809                	j	131b4 <eshdn1+0x1c>
   131a4:	0786                	slli	a5,a5,0x1
   131a6:	00e69023          	sh	a4,0(a3)
   131aa:	07c2                	slli	a5,a5,0x10
   131ac:	0689                	addi	a3,a3,2
   131ae:	83c1                	srli	a5,a5,0x10
   131b0:	02d50763          	beq	a0,a3,131de <eshdn1+0x46>
   131b4:	0006d703          	lhu	a4,0(a3)
   131b8:	00177613          	andi	a2,a4,1
   131bc:	c219                	beqz	a2,131c2 <eshdn1+0x2a>
   131be:	0017e793          	ori	a5,a5,1
   131c2:	8305                	srli	a4,a4,0x1
   131c4:	0027f613          	andi	a2,a5,2
   131c8:	010765b3          	or	a1,a4,a6
   131cc:	de61                	beqz	a2,131a4 <eshdn1+0xc>
   131ce:	0786                	slli	a5,a5,0x1
   131d0:	00b69023          	sh	a1,0(a3)
   131d4:	07c2                	slli	a5,a5,0x10
   131d6:	0689                	addi	a3,a3,2
   131d8:	83c1                	srli	a5,a5,0x10
   131da:	fcd51de3          	bne	a0,a3,131b4 <eshdn1+0x1c>
   131de:	8082                	ret

000131e0 <eshup1>:
   131e0:	01850693          	addi	a3,a0,24
   131e4:	4701                	li	a4,0
   131e6:	0509                	addi	a0,a0,2
   131e8:	a809                	j	131fa <eshup1+0x1a>
   131ea:	0706                	slli	a4,a4,0x1
   131ec:	00f69023          	sh	a5,0(a3)
   131f0:	0742                	slli	a4,a4,0x10
   131f2:	16f9                	addi	a3,a3,-2
   131f4:	8341                	srli	a4,a4,0x10
   131f6:	02d50b63          	beq	a0,a3,1322c <eshup1+0x4c>
   131fa:	0006d783          	lhu	a5,0(a3)
   131fe:	01079613          	slli	a2,a5,0x10
   13202:	8641                	srai	a2,a2,0x10
   13204:	0786                	slli	a5,a5,0x1
   13206:	00065463          	bgez	a2,1320e <eshup1+0x2e>
   1320a:	00176713          	ori	a4,a4,1
   1320e:	07c2                	slli	a5,a5,0x10
   13210:	83c1                	srli	a5,a5,0x10
   13212:	00277613          	andi	a2,a4,2
   13216:	0017e593          	ori	a1,a5,1
   1321a:	da61                	beqz	a2,131ea <eshup1+0xa>
   1321c:	0706                	slli	a4,a4,0x1
   1321e:	00b69023          	sh	a1,0(a3)
   13222:	0742                	slli	a4,a4,0x10
   13224:	16f9                	addi	a3,a3,-2
   13226:	8341                	srli	a4,a4,0x10
   13228:	fcd519e3          	bne	a0,a3,131fa <eshup1+0x1a>
   1322c:	8082                	ret

0001322e <m16m>:
   1322e:	1101                	addi	sp,sp,-32
   13230:	6e41                	lui	t3,0x10
   13232:	00011d23          	sh	zero,26(sp)
   13236:	00011e23          	sh	zero,28(sp)
   1323a:	05e1                	addi	a1,a1,24
   1323c:	087c                	addi	a5,sp,28
   1323e:	00810813          	addi	a6,sp,8
   13242:	1e7d                	addi	t3,t3,-1
   13244:	0005d703          	lhu	a4,0(a1)
   13248:	17f9                	addi	a5,a5,-2
   1324a:	15f9                	addi	a1,a1,-2
   1324c:	e315                	bnez	a4,13270 <m16m+0x42>
   1324e:	fe079f23          	sh	zero,-2(a5)
   13252:	ff0799e3          	bne	a5,a6,13244 <m16m+0x16>
   13256:	0611                	addi	a2,a2,4
   13258:	01e10693          	addi	a3,sp,30
   1325c:	0007d703          	lhu	a4,0(a5)
   13260:	0789                	addi	a5,a5,2
   13262:	0609                	addi	a2,a2,2
   13264:	fee61f23          	sh	a4,-2(a2) # ffffdffe <__BSS_END__+0xfffdd0d6>
   13268:	fed79ae3          	bne	a5,a3,1325c <m16m+0x2e>
   1326c:	6105                	addi	sp,sp,32
   1326e:	8082                	ret
   13270:	02a70733          	mul	a4,a4,a0
   13274:	0027d883          	lhu	a7,2(a5)
   13278:	0007d303          	lhu	t1,0(a5)
   1327c:	01c776b3          	and	a3,a4,t3
   13280:	96c6                	add	a3,a3,a7
   13282:	8341                	srli	a4,a4,0x10
   13284:	0106d893          	srli	a7,a3,0x10
   13288:	971a                	add	a4,a4,t1
   1328a:	9746                	add	a4,a4,a7
   1328c:	01075893          	srli	a7,a4,0x10
   13290:	00d79123          	sh	a3,2(a5)
   13294:	00e79023          	sh	a4,0(a5)
   13298:	ff179f23          	sh	a7,-2(a5)
   1329c:	fb0794e3          	bne	a5,a6,13244 <m16m+0x16>
   132a0:	bf5d                	j	13256 <m16m+0x28>

000132a2 <emovo.constprop.0>:
   132a2:	00055703          	lhu	a4,0(a0)
   132a6:	00255783          	lhu	a5,2(a0)
   132aa:	c319                	beqz	a4,132b0 <emovo.constprop.0+0xe>
   132ac:	6721                	lui	a4,0x8
   132ae:	8fd9                	or	a5,a5,a4
   132b0:	00f59923          	sh	a5,18(a1)
   132b4:	00255703          	lhu	a4,2(a0)
   132b8:	67a1                	lui	a5,0x8
   132ba:	17fd                	addi	a5,a5,-1
   132bc:	00f70f63          	beq	a4,a5,132da <emovo.constprop.0+0x38>
   132c0:	00650793          	addi	a5,a0,6
   132c4:	05c1                	addi	a1,a1,16
   132c6:	0561                	addi	a0,a0,24
   132c8:	0007d703          	lhu	a4,0(a5) # 8000 <register_fini-0x8074>
   132cc:	0789                	addi	a5,a5,2
   132ce:	15f9                	addi	a1,a1,-2
   132d0:	00e59123          	sh	a4,2(a1)
   132d4:	fea79ae3          	bne	a5,a0,132c8 <emovo.constprop.0+0x26>
   132d8:	8082                	ret
   132da:	00650793          	addi	a5,a0,6
   132de:	0569                	addi	a0,a0,26
   132e0:	0007d703          	lhu	a4,0(a5)
   132e4:	0789                	addi	a5,a5,2
   132e6:	e31d                	bnez	a4,1330c <emovo.constprop.0+0x6a>
   132e8:	fea79ce3          	bne	a5,a0,132e0 <emovo.constprop.0+0x3e>
   132ec:	01258713          	addi	a4,a1,18
   132f0:	87ae                	mv	a5,a1
   132f2:	0789                	addi	a5,a5,2
   132f4:	fe079f23          	sh	zero,-2(a5)
   132f8:	fef71de3          	bne	a4,a5,132f2 <emovo.constprop.0+0x50>
   132fc:	0125d783          	lhu	a5,18(a1)
   13300:	6721                	lui	a4,0x8
   13302:	177d                	addi	a4,a4,-1
   13304:	8fd9                	or	a5,a5,a4
   13306:	00f59923          	sh	a5,18(a1)
   1330a:	8082                	ret
   1330c:	01058713          	addi	a4,a1,16
   13310:	87ae                	mv	a5,a1
   13312:	0789                	addi	a5,a5,2
   13314:	fe079f23          	sh	zero,-2(a5)
   13318:	fef71de3          	bne	a4,a5,13312 <emovo.constprop.0+0x70>
   1331c:	77f1                	lui	a5,0xffffc
   1331e:	00f59823          	sh	a5,16(a1)
   13322:	77e1                	lui	a5,0xffff8
   13324:	fff7c793          	not	a5,a5
   13328:	00f59923          	sh	a5,18(a1)
   1332c:	8082                	ret

0001332e <enormlz>:
   1332e:	00455783          	lhu	a5,4(a0)
   13332:	1141                	addi	sp,sp,-16
   13334:	c226                	sw	s1,4(sp)
   13336:	c606                	sw	ra,12(sp)
   13338:	c422                	sw	s0,8(sp)
   1333a:	c04a                	sw	s2,0(sp)
   1333c:	84aa                	mv	s1,a0
   1333e:	e3c5                	bnez	a5,133de <enormlz+0xb0>
   13340:	00655703          	lhu	a4,6(a0)
   13344:	4401                	li	s0,0
   13346:	01071793          	slli	a5,a4,0x10
   1334a:	87c1                	srai	a5,a5,0x10
   1334c:	0807c263          	bltz	a5,133d0 <enormlz+0xa2>
   13350:	01a50693          	addi	a3,a0,26
   13354:	0a000613          	li	a2,160
   13358:	e31d                	bnez	a4,1337e <enormlz+0x50>
   1335a:	00648793          	addi	a5,s1,6
   1335e:	a019                	j	13364 <enormlz+0x36>
   13360:	0007d703          	lhu	a4,0(a5) # ffff8000 <__BSS_END__+0xfffd70d8>
   13364:	0789                	addi	a5,a5,2
   13366:	fee79e23          	sh	a4,-4(a5)
   1336a:	fed79be3          	bne	a5,a3,13360 <enormlz+0x32>
   1336e:	00049c23          	sh	zero,24(s1)
   13372:	0441                	addi	s0,s0,16
   13374:	04c40e63          	beq	s0,a2,133d0 <enormlz+0xa2>
   13378:	0064d703          	lhu	a4,6(s1)
   1337c:	df79                	beqz	a4,1335a <enormlz+0x2c>
   1337e:	f0077793          	andi	a5,a4,-256
   13382:	eb8d                	bnez	a5,133b4 <enormlz+0x86>
   13384:	01848513          	addi	a0,s1,24
   13388:	00248593          	addi	a1,s1,2
   1338c:	4781                	li	a5,0
   1338e:	872a                	mv	a4,a0
   13390:	00075683          	lhu	a3,0(a4) # 8000 <register_fini-0x8074>
   13394:	1779                	addi	a4,a4,-2
   13396:	00869613          	slli	a2,a3,0x8
   1339a:	8fd1                	or	a5,a5,a2
   1339c:	00f71123          	sh	a5,2(a4)
   133a0:	0086d793          	srli	a5,a3,0x8
   133a4:	fee596e3          	bne	a1,a4,13390 <enormlz+0x62>
   133a8:	0064d703          	lhu	a4,6(s1)
   133ac:	0421                	addi	s0,s0,8
   133ae:	f0077793          	andi	a5,a4,-256
   133b2:	dfe9                	beqz	a5,1338c <enormlz+0x5e>
   133b4:	0a000913          	li	s2,160
   133b8:	a039                	j	133c6 <enormlz+0x98>
   133ba:	0405                	addi	s0,s0,1
   133bc:	3515                	jal	131e0 <eshup1>
   133be:	00894963          	blt	s2,s0,133d0 <enormlz+0xa2>
   133c2:	0064d703          	lhu	a4,6(s1)
   133c6:	0742                	slli	a4,a4,0x10
   133c8:	8741                	srai	a4,a4,0x10
   133ca:	8526                	mv	a0,s1
   133cc:	fe0757e3          	bgez	a4,133ba <enormlz+0x8c>
   133d0:	40b2                	lw	ra,12(sp)
   133d2:	8522                	mv	a0,s0
   133d4:	4422                	lw	s0,8(sp)
   133d6:	4492                	lw	s1,4(sp)
   133d8:	4902                	lw	s2,0(sp)
   133da:	0141                	addi	sp,sp,16
   133dc:	8082                	ret
   133de:	f007f713          	andi	a4,a5,-256
   133e2:	4401                	li	s0,0
   133e4:	e31d                	bnez	a4,1340a <enormlz+0xdc>
   133e6:	f6f00913          	li	s2,-145
   133ea:	a039                	j	133f8 <enormlz+0xca>
   133ec:	147d                	addi	s0,s0,-1
   133ee:	336d                	jal	13198 <eshdn1>
   133f0:	ff2400e3          	beq	s0,s2,133d0 <enormlz+0xa2>
   133f4:	0044d783          	lhu	a5,4(s1)
   133f8:	8526                	mv	a0,s1
   133fa:	fbed                	bnez	a5,133ec <enormlz+0xbe>
   133fc:	40b2                	lw	ra,12(sp)
   133fe:	8522                	mv	a0,s0
   13400:	4422                	lw	s0,8(sp)
   13402:	4492                	lw	s1,4(sp)
   13404:	4902                	lw	s2,0(sp)
   13406:	0141                	addi	sp,sp,16
   13408:	8082                	ret
   1340a:	00450693          	addi	a3,a0,4
   1340e:	01a50593          	addi	a1,a0,26
   13412:	4701                	li	a4,0
   13414:	a019                	j	1341a <enormlz+0xec>
   13416:	0006d783          	lhu	a5,0(a3)
   1341a:	0087d613          	srli	a2,a5,0x8
   1341e:	8f51                	or	a4,a4,a2
   13420:	07a2                	slli	a5,a5,0x8
   13422:	00e69023          	sh	a4,0(a3)
   13426:	01079713          	slli	a4,a5,0x10
   1342a:	0689                	addi	a3,a3,2
   1342c:	8341                	srli	a4,a4,0x10
   1342e:	fed594e3          	bne	a1,a3,13416 <enormlz+0xe8>
   13432:	0044d783          	lhu	a5,4(s1)
   13436:	5461                	li	s0,-8
   13438:	b77d                	j	133e6 <enormlz+0xb8>

0001343a <eshift.part.0>:
   1343a:	1101                	addi	sp,sp,-32
   1343c:	cc22                	sw	s0,24(sp)
   1343e:	ca26                	sw	s1,20(sp)
   13440:	ce06                	sw	ra,28(sp)
   13442:	c84a                	sw	s2,16(sp)
   13444:	c64e                	sw	s3,12(sp)
   13446:	84ae                	mv	s1,a1
   13448:	842a                	mv	s0,a0
   1344a:	0605ca63          	bltz	a1,134be <eshift.part.0+0x84>
   1344e:	47bd                	li	a5,15
   13450:	862e                	mv	a2,a1
   13452:	0511                	addi	a0,a0,4
   13454:	01840693          	addi	a3,s0,24
   13458:	45bd                	li	a1,15
   1345a:	0297d063          	bge	a5,s1,1347a <eshift.part.0+0x40>
   1345e:	87aa                	mv	a5,a0
   13460:	0027d703          	lhu	a4,2(a5)
   13464:	0789                	addi	a5,a5,2
   13466:	fee79f23          	sh	a4,-2(a5)
   1346a:	fef69be3          	bne	a3,a5,13460 <eshift.part.0+0x26>
   1346e:	00041c23          	sh	zero,24(s0)
   13472:	1641                	addi	a2,a2,-16
   13474:	fec5c5e3          	blt	a1,a2,1345e <eshift.part.0+0x24>
   13478:	88bd                	andi	s1,s1,15
   1347a:	479d                	li	a5,7
   1347c:	0297d463          	bge	a5,s1,134a4 <eshift.part.0+0x6a>
   13480:	01840713          	addi	a4,s0,24
   13484:	00240593          	addi	a1,s0,2
   13488:	4781                	li	a5,0
   1348a:	00075683          	lhu	a3,0(a4)
   1348e:	1779                	addi	a4,a4,-2
   13490:	00869613          	slli	a2,a3,0x8
   13494:	8fd1                	or	a5,a5,a2
   13496:	00f71123          	sh	a5,2(a4)
   1349a:	0086d793          	srli	a5,a3,0x8
   1349e:	fee596e3          	bne	a1,a4,1348a <eshift.part.0+0x50>
   134a2:	14e1                	addi	s1,s1,-8
   134a4:	c489                	beqz	s1,134ae <eshift.part.0+0x74>
   134a6:	14fd                	addi	s1,s1,-1
   134a8:	8522                	mv	a0,s0
   134aa:	3b1d                	jal	131e0 <eshup1>
   134ac:	fced                	bnez	s1,134a6 <eshift.part.0+0x6c>
   134ae:	4501                	li	a0,0
   134b0:	40f2                	lw	ra,28(sp)
   134b2:	4462                	lw	s0,24(sp)
   134b4:	44d2                	lw	s1,20(sp)
   134b6:	4942                	lw	s2,16(sp)
   134b8:	49b2                	lw	s3,12(sp)
   134ba:	6105                	addi	sp,sp,32
   134bc:	8082                	ret
   134be:	57c5                	li	a5,-15
   134c0:	40b00933          	neg	s2,a1
   134c4:	0ef5d163          	bge	a1,a5,135a6 <eshift.part.0+0x16c>
   134c8:	01850593          	addi	a1,a0,24
   134cc:	4981                	li	s3,0
   134ce:	00450693          	addi	a3,a0,4
   134d2:	463d                	li	a2,15
   134d4:	01845703          	lhu	a4,24(s0)
   134d8:	87ae                	mv	a5,a1
   134da:	00e9e9b3          	or	s3,s3,a4
   134de:	ffe7d703          	lhu	a4,-2(a5)
   134e2:	17f9                	addi	a5,a5,-2
   134e4:	00e79123          	sh	a4,2(a5)
   134e8:	fed79be3          	bne	a5,a3,134de <eshift.part.0+0xa4>
   134ec:	00041223          	sh	zero,4(s0)
   134f0:	1941                	addi	s2,s2,-16
   134f2:	ff2641e3          	blt	a2,s2,134d4 <eshift.part.0+0x9a>
   134f6:	5941                	li	s2,-16
   134f8:	5745                	li	a4,-15
   134fa:	40990933          	sub	s2,s2,s1
   134fe:	4781                	li	a5,0
   13500:	06e4cd63          	blt	s1,a4,1357a <eshift.part.0+0x140>
   13504:	993e                	add	s2,s2,a5
   13506:	479d                	li	a5,7
   13508:	0327cc63          	blt	a5,s2,13540 <eshift.part.0+0x106>
   1350c:	08090563          	beqz	s2,13596 <eshift.part.0+0x15c>
   13510:	01845783          	lhu	a5,24(s0)
   13514:	197d                	addi	s2,s2,-1
   13516:	8522                	mv	a0,s0
   13518:	8b85                	andi	a5,a5,1
   1351a:	0137e9b3          	or	s3,a5,s3
   1351e:	39ad                	jal	13198 <eshdn1>
   13520:	fe0918e3          	bnez	s2,13510 <eshift.part.0+0xd6>
   13524:	01099793          	slli	a5,s3,0x10
   13528:	87c1                	srai	a5,a5,0x10
   1352a:	e3ad                	bnez	a5,1358c <eshift.part.0+0x152>
   1352c:	01099513          	slli	a0,s3,0x10
   13530:	8141                	srli	a0,a0,0x10
   13532:	40f2                	lw	ra,28(sp)
   13534:	4462                	lw	s0,24(sp)
   13536:	44d2                	lw	s1,20(sp)
   13538:	4942                	lw	s2,16(sp)
   1353a:	49b2                	lw	s3,12(sp)
   1353c:	6105                	addi	sp,sp,32
   1353e:	8082                	ret
   13540:	09c2                	slli	s3,s3,0x10
   13542:	4109d993          	srai	s3,s3,0x10
   13546:	01844783          	lbu	a5,24(s0)
   1354a:	01a40593          	addi	a1,s0,26
   1354e:	00f9e9b3          	or	s3,s3,a5
   13552:	09c2                	slli	s3,s3,0x10
   13554:	0109d993          	srli	s3,s3,0x10
   13558:	4781                	li	a5,0
   1355a:	0006d703          	lhu	a4,0(a3)
   1355e:	0689                	addi	a3,a3,2
   13560:	00875613          	srli	a2,a4,0x8
   13564:	8fd1                	or	a5,a5,a2
   13566:	0722                	slli	a4,a4,0x8
   13568:	fef69f23          	sh	a5,-2(a3)
   1356c:	01071793          	slli	a5,a4,0x10
   13570:	83c1                	srli	a5,a5,0x10
   13572:	fed594e3          	bne	a1,a3,1355a <eshift.part.0+0x120>
   13576:	1961                	addi	s2,s2,-8
   13578:	bf51                	j	1350c <eshift.part.0+0xd2>
   1357a:	ff097793          	andi	a5,s2,-16
   1357e:	40f007b3          	neg	a5,a5
   13582:	993e                	add	s2,s2,a5
   13584:	479d                	li	a5,7
   13586:	f927d3e3          	bge	a5,s2,1350c <eshift.part.0+0xd2>
   1358a:	bf5d                	j	13540 <eshift.part.0+0x106>
   1358c:	4985                	li	s3,1
   1358e:	01099513          	slli	a0,s3,0x10
   13592:	8141                	srli	a0,a0,0x10
   13594:	bf79                	j	13532 <eshift.part.0+0xf8>
   13596:	854e                	mv	a0,s3
   13598:	00099563          	bnez	s3,135a2 <eshift.part.0+0x168>
   1359c:	0542                	slli	a0,a0,0x10
   1359e:	8141                	srli	a0,a0,0x10
   135a0:	bf01                	j	134b0 <eshift.part.0+0x76>
   135a2:	4505                	li	a0,1
   135a4:	bfe5                	j	1359c <eshift.part.0+0x162>
   135a6:	57e5                	li	a5,-7
   135a8:	4981                	li	s3,0
   135aa:	00450693          	addi	a3,a0,4
   135ae:	f8f5cce3          	blt	a1,a5,13546 <eshift.part.0+0x10c>
   135b2:	bfb9                	j	13510 <eshift.part.0+0xd6>

000135b4 <emovi>:
   135b4:	01255783          	lhu	a5,18(a0)
   135b8:	6621                	lui	a2,0x8
   135ba:	167d                	addi	a2,a2,-1
   135bc:	83bd                	srli	a5,a5,0xf
   135be:	40f007b3          	neg	a5,a5
   135c2:	00f59023          	sh	a5,0(a1)
   135c6:	01255683          	lhu	a3,18(a0)
   135ca:	01050793          	addi	a5,a0,16
   135ce:	00458713          	addi	a4,a1,4
   135d2:	8ef1                	and	a3,a3,a2
   135d4:	00d59123          	sh	a3,2(a1)
   135d8:	02c68263          	beq	a3,a2,135fc <emovi+0x48>
   135dc:	00658713          	addi	a4,a1,6
   135e0:	00059223          	sh	zero,4(a1)
   135e4:	1579                	addi	a0,a0,-2
   135e6:	0007d683          	lhu	a3,0(a5)
   135ea:	17f9                	addi	a5,a5,-2
   135ec:	0709                	addi	a4,a4,2
   135ee:	fed71f23          	sh	a3,-2(a4)
   135f2:	fef51ae3          	bne	a0,a5,135e6 <emovi+0x32>
   135f6:	00059c23          	sh	zero,24(a1)
   135fa:	8082                	ret
   135fc:	01255603          	lhu	a2,18(a0)
   13600:	8e75                	and	a2,a2,a3
   13602:	00d61b63          	bne	a2,a3,13618 <emovi+0x64>
   13606:	01250813          	addi	a6,a0,18
   1360a:	86aa                	mv	a3,a0
   1360c:	0006d603          	lhu	a2,0(a3)
   13610:	0689                	addi	a3,a3,2
   13612:	ea11                	bnez	a2,13626 <emovi+0x72>
   13614:	ff069ce3          	bne	a3,a6,1360c <emovi+0x58>
   13618:	05e9                	addi	a1,a1,26
   1361a:	0709                	addi	a4,a4,2
   1361c:	fe071f23          	sh	zero,-2(a4)
   13620:	fee59de3          	bne	a1,a4,1361a <emovi+0x66>
   13624:	8082                	ret
   13626:	00658713          	addi	a4,a1,6
   1362a:	00059223          	sh	zero,4(a1)
   1362e:	1571                	addi	a0,a0,-4
   13630:	0007d683          	lhu	a3,0(a5)
   13634:	17f9                	addi	a5,a5,-2
   13636:	0709                	addi	a4,a4,2
   13638:	fed71f23          	sh	a3,-2(a4)
   1363c:	fea79ae3          	bne	a5,a0,13630 <emovi+0x7c>
   13640:	8082                	ret

00013642 <ecmp>:
   13642:	01255783          	lhu	a5,18(a0)
   13646:	715d                	addi	sp,sp,-80
   13648:	c4a2                	sw	s0,72(sp)
   1364a:	fff7c793          	not	a5,a5
   1364e:	c686                	sw	ra,76(sp)
   13650:	01179713          	slli	a4,a5,0x11
   13654:	842e                	mv	s0,a1
   13656:	eb11                	bnez	a4,1366a <ecmp+0x28>
   13658:	01250693          	addi	a3,a0,18
   1365c:	87aa                	mv	a5,a0
   1365e:	0007d703          	lhu	a4,0(a5)
   13662:	0789                	addi	a5,a5,2
   13664:	e735                	bnez	a4,136d0 <ecmp+0x8e>
   13666:	fed79ce3          	bne	a5,a3,1365e <ecmp+0x1c>
   1366a:	01245783          	lhu	a5,18(s0)
   1366e:	fff7c793          	not	a5,a5
   13672:	01179713          	slli	a4,a5,0x11
   13676:	c321                	beqz	a4,136b6 <ecmp+0x74>
   13678:	002c                	addi	a1,sp,8
   1367a:	3f2d                	jal	135b4 <emovi>
   1367c:	104c                	addi	a1,sp,36
   1367e:	8522                	mv	a0,s0
   13680:	3f15                	jal	135b4 <emovi>
   13682:	00815583          	lhu	a1,8(sp)
   13686:	02415503          	lhu	a0,36(sp)
   1368a:	04b50863          	beq	a0,a1,136da <ecmp+0x98>
   1368e:	00a10793          	addi	a5,sp,10
   13692:	02610713          	addi	a4,sp,38
   13696:	1010                	addi	a2,sp,32
   13698:	0007d683          	lhu	a3,0(a5)
   1369c:	0789                	addi	a5,a5,2
   1369e:	eeb5                	bnez	a3,1371a <ecmp+0xd8>
   136a0:	00075683          	lhu	a3,0(a4)
   136a4:	0709                	addi	a4,a4,2
   136a6:	eab5                	bnez	a3,1371a <ecmp+0xd8>
   136a8:	fef618e3          	bne	a2,a5,13698 <ecmp+0x56>
   136ac:	4501                	li	a0,0
   136ae:	40b6                	lw	ra,76(sp)
   136b0:	4426                	lw	s0,72(sp)
   136b2:	6161                	addi	sp,sp,80
   136b4:	8082                	ret
   136b6:	87a2                	mv	a5,s0
   136b8:	0007d703          	lhu	a4,0(a5)
   136bc:	01240693          	addi	a3,s0,18
   136c0:	0789                	addi	a5,a5,2
   136c2:	e719                	bnez	a4,136d0 <ecmp+0x8e>
   136c4:	fad78ae3          	beq	a5,a3,13678 <ecmp+0x36>
   136c8:	0007d703          	lhu	a4,0(a5)
   136cc:	0789                	addi	a5,a5,2
   136ce:	db7d                	beqz	a4,136c4 <ecmp+0x82>
   136d0:	40b6                	lw	ra,76(sp)
   136d2:	4426                	lw	s0,72(sp)
   136d4:	5579                	li	a0,-2
   136d6:	6161                	addi	sp,sp,80
   136d8:	8082                	ret
   136da:	00a15603          	lhu	a2,10(sp)
   136de:	02615683          	lhu	a3,38(sp)
   136e2:	00153513          	seqz	a0,a0
   136e6:	00a10713          	addi	a4,sp,10
   136ea:	02610793          	addi	a5,sp,38
   136ee:	0506                	slli	a0,a0,0x1
   136f0:	157d                	addi	a0,a0,-1
   136f2:	186c                	addi	a1,sp,60
   136f4:	0789                	addi	a5,a5,2
   136f6:	0709                	addi	a4,a4,2
   136f8:	00d61c63          	bne	a2,a3,13710 <ecmp+0xce>
   136fc:	fab788e3          	beq	a5,a1,136ac <ecmp+0x6a>
   13700:	00075603          	lhu	a2,0(a4)
   13704:	0007d683          	lhu	a3,0(a5)
   13708:	0709                	addi	a4,a4,2
   1370a:	0789                	addi	a5,a5,2
   1370c:	fed608e3          	beq	a2,a3,136fc <ecmp+0xba>
   13710:	f8c6efe3          	bltu	a3,a2,136ae <ecmp+0x6c>
   13714:	40a00533          	neg	a0,a0
   13718:	bf59                	j	136ae <ecmp+0x6c>
   1371a:	4505                	li	a0,1
   1371c:	d9c9                	beqz	a1,136ae <ecmp+0x6c>
   1371e:	557d                	li	a0,-1
   13720:	b779                	j	136ae <ecmp+0x6c>

00013722 <emdnorm>:
   13722:	1101                	addi	sp,sp,-32
   13724:	cc22                	sw	s0,24(sp)
   13726:	ca26                	sw	s1,20(sp)
   13728:	c84a                	sw	s2,16(sp)
   1372a:	c64e                	sw	s3,12(sp)
   1372c:	c452                	sw	s4,8(sp)
   1372e:	c256                	sw	s5,4(sp)
   13730:	8936                	mv	s2,a3
   13732:	84be                	mv	s1,a5
   13734:	ce06                	sw	ra,28(sp)
   13736:	842a                	mv	s0,a0
   13738:	89ae                	mv	s3,a1
   1373a:	8a32                	mv	s4,a2
   1373c:	8aba                	mv	s5,a4
   1373e:	3ec5                	jal	1332e <enormlz>
   13740:	09000793          	li	a5,144
   13744:	40a90933          	sub	s2,s2,a0
   13748:	12a7db63          	bge	a5,a0,1387e <emdnorm+0x15c>
   1374c:	67a1                	lui	a5,0x8
   1374e:	17f9                	addi	a5,a5,-2
   13750:	1927dc63          	bge	a5,s2,138e8 <emdnorm+0x1c6>
   13754:	160a8a63          	beqz	s5,138c8 <emdnorm+0x1a6>
   13758:	40c8                	lw	a0,4(s1)
   1375a:	409c                	lw	a5,0(s1)
   1375c:	04f50d63          	beq	a0,a5,137b6 <emdnorm+0x94>
   13760:	01a48713          	addi	a4,s1,26
   13764:	03448793          	addi	a5,s1,52
   13768:	0709                	addi	a4,a4,2
   1376a:	fe071f23          	sh	zero,-2(a4)
   1376e:	fef71de3          	bne	a4,a5,13768 <emdnorm+0x46>
   13772:	03800793          	li	a5,56
   13776:	26f50b63          	beq	a0,a5,139ec <emdnorm+0x2ca>
   1377a:	12a7d163          	bge	a5,a0,1389c <emdnorm+0x17a>
   1377e:	04000793          	li	a5,64
   13782:	22f50b63          	beq	a0,a5,139b8 <emdnorm+0x296>
   13786:	07100793          	li	a5,113
   1378a:	24f51463          	bne	a0,a5,139d2 <emdnorm+0x2b0>
   1378e:	400087b7          	lui	a5,0x40008
   13792:	17fd                	addi	a5,a5,-1
   13794:	4729                	li	a4,10
   13796:	c8dc                	sw	a5,20(s1)
   13798:	77e1                	lui	a5,0xffff8
   1379a:	c498                	sw	a4,8(s1)
   1379c:	00f49c23          	sh	a5,24(s1)
   137a0:	c4d8                	sw	a4,12(s1)
   137a2:	47a9                	li	a5,10
   137a4:	6721                	lui	a4,0x8
   137a6:	07a1                	addi	a5,a5,8
   137a8:	0786                	slli	a5,a5,0x1
   137aa:	97a6                	add	a5,a5,s1
   137ac:	00e79523          	sh	a4,10(a5) # ffff800a <__BSS_END__+0xfffd70e2>
   137b0:	c088                	sw	a0,0(s1)
   137b2:	15205f63          	blez	s2,13910 <emdnorm+0x1ee>
   137b6:	448c                	lw	a1,8(s1)
   137b8:	0144d783          	lhu	a5,20(s1)
   137bc:	08f00813          	li	a6,143
   137c0:	00159613          	slli	a2,a1,0x1
   137c4:	9622                	add	a2,a2,s0
   137c6:	00065703          	lhu	a4,0(a2) # 8000 <register_fini-0x8074>
   137ca:	00f776b3          	and	a3,a4,a5
   137ce:	02a84663          	blt	a6,a0,137fa <emdnorm+0xd8>
   137d2:	482d                	li	a6,11
   137d4:	02b84363          	blt	a6,a1,137fa <emdnorm+0xd8>
   137d8:	87b2                	mv	a5,a2
   137da:	01840593          	addi	a1,s0,24
   137de:	0027d703          	lhu	a4,2(a5)
   137e2:	c319                	beqz	a4,137e8 <emdnorm+0xc6>
   137e4:	0016e693          	ori	a3,a3,1
   137e8:	00079123          	sh	zero,2(a5)
   137ec:	0789                	addi	a5,a5,2
   137ee:	fef598e3          	bne	a1,a5,137de <emdnorm+0xbc>
   137f2:	00065703          	lhu	a4,0(a2)
   137f6:	0144d783          	lhu	a5,20(s1)
   137fa:	fff7c793          	not	a5,a5
   137fe:	8ff9                	and	a5,a5,a4
   13800:	00f61023          	sh	a5,0(a2)
   13804:	0164d783          	lhu	a5,22(s1)
   13808:	00d7f733          	and	a4,a5,a3
   1380c:	c339                	beqz	a4,13852 <emdnorm+0x130>
   1380e:	00d79d63          	bne	a5,a3,13828 <emdnorm+0x106>
   13812:	18099063          	bnez	s3,13992 <emdnorm+0x270>
   13816:	44dc                	lw	a5,12(s1)
   13818:	0184d703          	lhu	a4,24(s1)
   1381c:	0786                	slli	a5,a5,0x1
   1381e:	97a2                	add	a5,a5,s0
   13820:	0007d783          	lhu	a5,0(a5)
   13824:	8ff9                	and	a5,a5,a4
   13826:	c795                	beqz	a5,13852 <emdnorm+0x130>
   13828:	03248613          	addi	a2,s1,50
   1382c:	01840693          	addi	a3,s0,24
   13830:	04f1                	addi	s1,s1,28
   13832:	4701                	li	a4,0
   13834:	00065783          	lhu	a5,0(a2)
   13838:	0006d583          	lhu	a1,0(a3)
   1383c:	16f9                	addi	a3,a3,-2
   1383e:	1679                	addi	a2,a2,-2
   13840:	97ae                	add	a5,a5,a1
   13842:	97ba                	add	a5,a5,a4
   13844:	0107d713          	srli	a4,a5,0x10
   13848:	00f69123          	sh	a5,2(a3)
   1384c:	8b05                	andi	a4,a4,1
   1384e:	fe9613e3          	bne	a2,s1,13834 <emdnorm+0x112>
   13852:	11205363          	blez	s2,13958 <emdnorm+0x236>
   13856:	00445783          	lhu	a5,4(s0)
   1385a:	e3ed                	bnez	a5,1393c <emdnorm+0x21a>
   1385c:	67a1                	lui	a5,0x8
   1385e:	00041c23          	sh	zero,24(s0)
   13862:	17f9                	addi	a5,a5,-2
   13864:	0727c463          	blt	a5,s2,138cc <emdnorm+0x1aa>
   13868:	01241123          	sh	s2,2(s0)
   1386c:	40f2                	lw	ra,28(sp)
   1386e:	4462                	lw	s0,24(sp)
   13870:	44d2                	lw	s1,20(sp)
   13872:	4942                	lw	s2,16(sp)
   13874:	49b2                	lw	s3,12(sp)
   13876:	4a22                	lw	s4,8(sp)
   13878:	4a92                	lw	s5,4(sp)
   1387a:	6105                	addi	sp,sp,32
   1387c:	8082                	ret
   1387e:	0a095663          	bgez	s2,1392a <emdnorm+0x208>
   13882:	f7000793          	li	a5,-144
   13886:	06f95a63          	bge	s2,a5,138fa <emdnorm+0x1d8>
   1388a:	00240793          	addi	a5,s0,2
   1388e:	0469                	addi	s0,s0,26
   13890:	0789                	addi	a5,a5,2
   13892:	fe079f23          	sh	zero,-2(a5) # 7ffe <register_fini-0x8076>
   13896:	fe879de3          	bne	a5,s0,13890 <emdnorm+0x16e>
   1389a:	bfc9                	j	1386c <emdnorm+0x14a>
   1389c:	47e1                	li	a5,24
   1389e:	0ef50d63          	beq	a0,a5,13998 <emdnorm+0x276>
   138a2:	03500793          	li	a5,53
   138a6:	12f51663          	bne	a0,a5,139d2 <emdnorm+0x2b0>
   138aa:	6705                	lui	a4,0x1
   138ac:	040007b7          	lui	a5,0x4000
   138b0:	4699                	li	a3,6
   138b2:	7ff78793          	addi	a5,a5,2047 # 40007ff <__BSS_END__+0x3fdf8d7>
   138b6:	80070713          	addi	a4,a4,-2048 # 800 <register_fini-0xf874>
   138ba:	c8dc                	sw	a5,20(s1)
   138bc:	c494                	sw	a3,8(s1)
   138be:	00e49c23          	sh	a4,24(s1)
   138c2:	c4d4                	sw	a3,12(s1)
   138c4:	4799                	li	a5,6
   138c6:	b5c5                	j	137a6 <emdnorm+0x84>
   138c8:	00041c23          	sh	zero,24(s0)
   138cc:	77e1                	lui	a5,0xffff8
   138ce:	fff7c793          	not	a5,a5
   138d2:	00f41123          	sh	a5,2(s0)
   138d6:	00440793          	addi	a5,s0,4
   138da:	0461                	addi	s0,s0,24
   138dc:	00079023          	sh	zero,0(a5) # ffff8000 <__BSS_END__+0xfffd70d8>
   138e0:	0789                	addi	a5,a5,2
   138e2:	fef41de3          	bne	s0,a5,138dc <emdnorm+0x1ba>
   138e6:	b759                	j	1386c <emdnorm+0x14a>
   138e8:	00240793          	addi	a5,s0,2
   138ec:	0469                	addi	s0,s0,26
   138ee:	0789                	addi	a5,a5,2
   138f0:	fe079f23          	sh	zero,-2(a5)
   138f4:	fe879de3          	bne	a5,s0,138ee <emdnorm+0x1cc>
   138f8:	bf95                	j	1386c <emdnorm+0x14a>
   138fa:	85ca                	mv	a1,s2
   138fc:	8522                	mv	a0,s0
   138fe:	3e35                	jal	1343a <eshift.part.0>
   13900:	c111                	beqz	a0,13904 <emdnorm+0x1e2>
   13902:	4985                	li	s3,1
   13904:	080a8263          	beqz	s5,13988 <emdnorm+0x266>
   13908:	40c8                	lw	a0,4(s1)
   1390a:	409c                	lw	a5,0(s1)
   1390c:	e4f51ae3          	bne	a0,a5,13760 <emdnorm+0x3e>
   13910:	09000793          	li	a5,144
   13914:	06f50063          	beq	a0,a5,13974 <emdnorm+0x252>
   13918:	01845783          	lhu	a5,24(s0)
   1391c:	8522                	mv	a0,s0
   1391e:	8b85                	andi	a5,a5,1
   13920:	00f9e9b3          	or	s3,s3,a5
   13924:	3895                	jal	13198 <eshdn1>
   13926:	40c8                	lw	a0,4(s1)
   13928:	b579                	j	137b6 <emdnorm+0x94>
   1392a:	f20a89e3          	beqz	s5,1385c <emdnorm+0x13a>
   1392e:	40c8                	lw	a0,4(s1)
   13930:	409c                	lw	a5,0(s1)
   13932:	e2f517e3          	bne	a0,a5,13760 <emdnorm+0x3e>
   13936:	e92040e3          	bgtz	s2,137b6 <emdnorm+0x94>
   1393a:	bfd9                	j	13910 <emdnorm+0x1ee>
   1393c:	8522                	mv	a0,s0
   1393e:	38a9                	jal	13198 <eshdn1>
   13940:	67a1                	lui	a5,0x8
   13942:	0905                	addi	s2,s2,1
   13944:	00041c23          	sh	zero,24(s0)
   13948:	17f9                	addi	a5,a5,-2
   1394a:	f927c1e3          	blt	a5,s2,138cc <emdnorm+0x1aa>
   1394e:	f0095de3          	bgez	s2,13868 <emdnorm+0x146>
   13952:	00041123          	sh	zero,2(s0)
   13956:	bf19                	j	1386c <emdnorm+0x14a>
   13958:	09000793          	li	a5,144
   1395c:	00f50463          	beq	a0,a5,13964 <emdnorm+0x242>
   13960:	8522                	mv	a0,s0
   13962:	38bd                	jal	131e0 <eshup1>
   13964:	00445783          	lhu	a5,4(s0)
   13968:	fbf1                	bnez	a5,1393c <emdnorm+0x21a>
   1396a:	00041c23          	sh	zero,24(s0)
   1396e:	fe0942e3          	bltz	s2,13952 <emdnorm+0x230>
   13972:	bddd                	j	13868 <emdnorm+0x146>
   13974:	4490                	lw	a2,8(s1)
   13976:	0144d783          	lhu	a5,20(s1)
   1397a:	0606                	slli	a2,a2,0x1
   1397c:	9622                	add	a2,a2,s0
   1397e:	00065703          	lhu	a4,0(a2)
   13982:	00e7f6b3          	and	a3,a5,a4
   13986:	bd95                	j	137fa <emdnorm+0xd8>
   13988:	00041c23          	sh	zero,24(s0)
   1398c:	00041123          	sh	zero,2(s0)
   13990:	bdf1                	j	1386c <emdnorm+0x14a>
   13992:	e80a0be3          	beqz	s4,13828 <emdnorm+0x106>
   13996:	bd75                	j	13852 <emdnorm+0x130>
   13998:	008007b7          	lui	a5,0x800
   1399c:	0ff78793          	addi	a5,a5,255 # 8000ff <__BSS_END__+0x7df1d7>
   139a0:	4711                	li	a4,4
   139a2:	c8dc                	sw	a5,20(s1)
   139a4:	10000793          	li	a5,256
   139a8:	c498                	sw	a4,8(s1)
   139aa:	00f49c23          	sh	a5,24(s1)
   139ae:	c4d8                	sw	a4,12(s1)
   139b0:	4791                	li	a5,4
   139b2:	10000713          	li	a4,256
   139b6:	bbc5                	j	137a6 <emdnorm+0x84>
   139b8:	479d                	li	a5,7
   139ba:	c49c                	sw	a5,8(s1)
   139bc:	800107b7          	lui	a5,0x80010
   139c0:	17fd                	addi	a5,a5,-1
   139c2:	c8dc                	sw	a5,20(s1)
   139c4:	4785                	li	a5,1
   139c6:	00f49c23          	sh	a5,24(s1)
   139ca:	4799                	li	a5,6
   139cc:	c4dc                	sw	a5,12(s1)
   139ce:	4705                	li	a4,1
   139d0:	bbd9                	j	137a6 <emdnorm+0x84>
   139d2:	47b1                	li	a5,12
   139d4:	c49c                	sw	a5,8(s1)
   139d6:	800107b7          	lui	a5,0x80010
   139da:	17fd                	addi	a5,a5,-1
   139dc:	c8dc                	sw	a5,20(s1)
   139de:	4785                	li	a5,1
   139e0:	00f49c23          	sh	a5,24(s1)
   139e4:	47ad                	li	a5,11
   139e6:	c4dc                	sw	a5,12(s1)
   139e8:	4705                	li	a4,1
   139ea:	bb75                	j	137a6 <emdnorm+0x84>
   139ec:	008007b7          	lui	a5,0x800
   139f0:	0ff78793          	addi	a5,a5,255 # 8000ff <__BSS_END__+0x7df1d7>
   139f4:	4719                	li	a4,6
   139f6:	c8dc                	sw	a5,20(s1)
   139f8:	10000793          	li	a5,256
   139fc:	c498                	sw	a4,8(s1)
   139fe:	00f49c23          	sh	a5,24(s1)
   13a02:	c4d8                	sw	a4,12(s1)
   13a04:	4799                	li	a5,6
   13a06:	10000713          	li	a4,256
   13a0a:	bb71                	j	137a6 <emdnorm+0x84>

00013a0c <eiremain>:
   13a0c:	7179                	addi	sp,sp,-48
   13a0e:	d04a                	sw	s2,32(sp)
   13a10:	ce4e                	sw	s3,28(sp)
   13a12:	892e                	mv	s2,a1
   13a14:	00255983          	lhu	s3,2(a0)
   13a18:	d606                	sw	ra,44(sp)
   13a1a:	d422                	sw	s0,40(sp)
   13a1c:	d226                	sw	s1,36(sp)
