
fiboncci_32_rv32i:     file format elf32-littleriscv


Disassembly of section .text:

00000000 <fib>:
   0:	fd010113          	addi	sp,sp,-48
   4:	02812623          	sw	s0,44(sp)
   8:	03010413          	addi	s0,sp,48
   c:	fca42e23          	sw	a0,-36(s0)
  10:	fdc42703          	lw	a4,-36(s0)
  14:	00100793          	li	a5,1
  18:	00f70863          	beq	a4,a5,28 <.L2>
  1c:	fdc42703          	lw	a4,-36(s0)
  20:	00200793          	li	a5,2
  24:	00f71663          	bne	a4,a5,30 <.L3>

00000028 <.L2>:
  28:	00100793          	li	a5,1
  2c:	0580006f          	j	84 <.L4>

00000030 <.L3>:
  30:	00100793          	li	a5,1
  34:	fef42623          	sw	a5,-20(s0)
  38:	00100793          	li	a5,1
  3c:	fef42423          	sw	a5,-24(s0)
  40:	fe042223          	sw	zero,-28(s0)
  44:	0300006f          	j	74 <.L5>

00000048 <.L6>:
  48:	fe442703          	lw	a4,-28(s0)
  4c:	fec42783          	lw	a5,-20(s0)
  50:	00f707b3          	add	a5,a4,a5
  54:	fef42223          	sw	a5,-28(s0)
  58:	fe842783          	lw	a5,-24(s0)
  5c:	fef42623          	sw	a5,-20(s0)
  60:	fe442783          	lw	a5,-28(s0)
  64:	fef42423          	sw	a5,-24(s0)
  68:	fdc42783          	lw	a5,-36(s0)
  6c:	fff78793          	addi	a5,a5,-1
  70:	fcf42e23          	sw	a5,-36(s0)

00000074 <.L5>:
  74:	fdc42703          	lw	a4,-36(s0)
  78:	00100793          	li	a5,1
  7c:	fce7c6e3          	blt	a5,a4,48 <.L6>
  80:	fe442783          	lw	a5,-28(s0)

00000084 <.L4>:
  84:	00078513          	mv	a0,a5
  88:	02c12403          	lw	s0,44(sp)
  8c:	03010113          	addi	sp,sp,48
  90:	00008067          	ret

00000094 <main>:
  94:	fe010113          	addi	sp,sp,-32
  98:	00112e23          	sw	ra,28(sp)
  9c:	00812c23          	sw	s0,24(sp)
  a0:	02010413          	addi	s0,sp,32
  a4:	fec40793          	addi	a5,s0,-20
  a8:	00078593          	mv	a1,a5
  ac:	000007b7          	lui	a5,0x0
  b0:	00078513          	mv	a0,a5
  b4:	00000097          	auipc	ra,0x0
  b8:	000080e7          	jalr	ra # b4 <main+0x20>
  bc:	fec42783          	lw	a5,-20(s0)
  c0:	00078513          	mv	a0,a5
  c4:	00000097          	auipc	ra,0x0
  c8:	000080e7          	jalr	ra # c4 <main+0x30>
  cc:	00050793          	mv	a5,a0
  d0:	00078593          	mv	a1,a5
  d4:	000007b7          	lui	a5,0x0
  d8:	00078513          	mv	a0,a5
  dc:	00000097          	auipc	ra,0x0
  e0:	000080e7          	jalr	ra # dc <main+0x48>
  e4:	00000793          	li	a5,0
  e8:	00078513          	mv	a0,a5
  ec:	01c12083          	lw	ra,28(sp)
  f0:	01812403          	lw	s0,24(sp)
  f4:	02010113          	addi	sp,sp,32
  f8:	00008067          	ret

Disassembly of section .rodata:

00000000 <.LC0>:
   0:	6425                	lui	s0,0x9
	...

Disassembly of section .comment:

00000000 <.comment>:
   0:	4700                	lw	s0,8(a4)
   2:	203a4343          	fmadd.s	ft6,fs4,ft3,ft4,rmm
   6:	4728                	lw	a0,72(a4)
   8:	554e                	lw	a0,240(sp)
   a:	2029                	jal	14 <fib+0x14>
   c:	3031                	jal	fffff818 <main+0xfffff784>
   e:	322e                	fld	ft4,232(sp)
  10:	302e                	fld	ft0,232(sp)
	...

Disassembly of section .riscv.attributes:

00000000 <.riscv.attributes>:
   0:	1b41                	addi	s6,s6,-16
   2:	0000                	unimp
   4:	7200                	flw	fs0,32(a2)
   6:	7369                	lui	t1,0xffffa
   8:	01007663          	bgeu	zero,a6,14 <.riscv.attributes+0x14>
   c:	0011                	c.nop	4
   e:	0000                	unimp
  10:	1004                	addi	s1,sp,32
  12:	7205                	lui	tp,0xfffe1
  14:	3376                	fld	ft6,376(sp)
  16:	6932                	flw	fs2,12(sp)
  18:	7032                	flw	ft0,44(sp)
  1a:	0030                	addi	a2,sp,8
