
fiboncci_64:     file format elf64-littleriscv


Disassembly of section .text:

00000000000100b0 <register_fini>:
   100b0:	00000793          	li	a5,0
   100b4:	c791                	beqz	a5,100c0 <register_fini+0x10>
   100b6:	6555                	lui	a0,0x15
   100b8:	a5250513          	addi	a0,a0,-1454 # 14a52 <__libc_fini_array>
   100bc:	5540d06f          	j	1d610 <atexit>
   100c0:	8082                	ret

00000000000100c2 <_start>:
   100c2:	00016197          	auipc	gp,0x16
   100c6:	b7618193          	addi	gp,gp,-1162 # 25c38 <__global_pointer$>
   100ca:	76a18513          	addi	a0,gp,1898 # 263a2 <__bss_start>
   100ce:	00016617          	auipc	a2,0x16
   100d2:	36a60613          	addi	a2,a2,874 # 26438 <__BSS_END__>
   100d6:	8e09                	sub	a2,a2,a0
   100d8:	4581                	li	a1,0
   100da:	1ca000ef          	jal	ra,102a4 <memset>
   100de:	0000d517          	auipc	a0,0xd
   100e2:	53250513          	addi	a0,a0,1330 # 1d610 <atexit>
   100e6:	c519                	beqz	a0,100f4 <_start+0x32>
   100e8:	00005517          	auipc	a0,0x5
   100ec:	96a50513          	addi	a0,a0,-1686 # 14a52 <__libc_fini_array>
   100f0:	5200d0ef          	jal	ra,1d610 <atexit>
   100f4:	13e000ef          	jal	ra,10232 <__libc_init_array>
   100f8:	4502                	lw	a0,0(sp)
   100fa:	002c                	addi	a1,sp,8
   100fc:	4601                	li	a2,0
   100fe:	0d6000ef          	jal	ra,101d4 <main>
   10102:	aa09                	j	10214 <exit>

0000000000010104 <__do_global_dtors_aux>:
   10104:	7a01c703          	lbu	a4,1952(gp) # 263d8 <completed.1>
   10108:	e71d                	bnez	a4,10136 <__do_global_dtors_aux+0x32>
   1010a:	1141                	addi	sp,sp,-16
   1010c:	e022                	sd	s0,0(sp)
   1010e:	843e                	mv	s0,a5
   10110:	e406                	sd	ra,8(sp)
   10112:	00000793          	li	a5,0
   10116:	cb89                	beqz	a5,10128 <__do_global_dtors_aux+0x24>
   10118:	00025537          	lui	a0,0x25
   1011c:	1a050513          	addi	a0,a0,416 # 251a0 <__FRAME_END__>
   10120:	00000097          	auipc	ra,0x0
   10124:	000000e7          	jalr	zero # 0 <register_fini-0x100b0>
   10128:	4785                	li	a5,1
   1012a:	60a2                	ld	ra,8(sp)
   1012c:	7af18023          	sb	a5,1952(gp) # 263d8 <completed.1>
   10130:	6402                	ld	s0,0(sp)
   10132:	0141                	addi	sp,sp,16
   10134:	8082                	ret
   10136:	8082                	ret

0000000000010138 <frame_dummy>:
   10138:	00000793          	li	a5,0
   1013c:	cb99                	beqz	a5,10152 <frame_dummy+0x1a>
   1013e:	00025537          	lui	a0,0x25
   10142:	7a818593          	addi	a1,gp,1960 # 263e0 <object.0>
   10146:	1a050513          	addi	a0,a0,416 # 251a0 <__FRAME_END__>
   1014a:	00000317          	auipc	t1,0x0
   1014e:	00000067          	jr	zero # 0 <register_fini-0x100b0>
   10152:	8082                	ret

0000000000010154 <fib>:
   10154:	7179                	addi	sp,sp,-48
   10156:	f422                	sd	s0,40(sp)
   10158:	1800                	addi	s0,sp,48
   1015a:	87aa                	mv	a5,a0
   1015c:	fcf42e23          	sw	a5,-36(s0)
   10160:	fdc42783          	lw	a5,-36(s0)
   10164:	0007871b          	sext.w	a4,a5
   10168:	4785                	li	a5,1
   1016a:	00f70963          	beq	a4,a5,1017c <fib+0x28>
   1016e:	fdc42783          	lw	a5,-36(s0)
   10172:	0007871b          	sext.w	a4,a5
   10176:	4789                	li	a5,2
   10178:	00f71463          	bne	a4,a5,10180 <fib+0x2c>
   1017c:	4785                	li	a5,1
   1017e:	a0b9                	j	101cc <fib+0x78>
   10180:	4785                	li	a5,1
   10182:	fef42623          	sw	a5,-20(s0)
   10186:	4785                	li	a5,1
   10188:	fef42423          	sw	a5,-24(s0)
   1018c:	fe042223          	sw	zero,-28(s0)
   10190:	a02d                	j	101ba <fib+0x66>
   10192:	fe442703          	lw	a4,-28(s0)
   10196:	fec42783          	lw	a5,-20(s0)
   1019a:	9fb9                	addw	a5,a5,a4
   1019c:	fef42223          	sw	a5,-28(s0)
   101a0:	fe842783          	lw	a5,-24(s0)
   101a4:	fef42623          	sw	a5,-20(s0)
   101a8:	fe442783          	lw	a5,-28(s0)
   101ac:	fef42423          	sw	a5,-24(s0)
   101b0:	fdc42783          	lw	a5,-36(s0)
   101b4:	37fd                	addiw	a5,a5,-1
   101b6:	fcf42e23          	sw	a5,-36(s0)
   101ba:	fdc42783          	lw	a5,-36(s0)
   101be:	0007871b          	sext.w	a4,a5
   101c2:	4785                	li	a5,1
   101c4:	fce7c7e3          	blt	a5,a4,10192 <fib+0x3e>
   101c8:	fe442783          	lw	a5,-28(s0)
   101cc:	853e                	mv	a0,a5
   101ce:	7422                	ld	s0,40(sp)
   101d0:	6145                	addi	sp,sp,48
   101d2:	8082                	ret

00000000000101d4 <main>:
   101d4:	1101                	addi	sp,sp,-32
   101d6:	ec06                	sd	ra,24(sp)
   101d8:	e822                	sd	s0,16(sp)
   101da:	1000                	addi	s0,sp,32
   101dc:	fec40793          	addi	a5,s0,-20
   101e0:	85be                	mv	a1,a5
   101e2:	000237b7          	lui	a5,0x23
   101e6:	b1078513          	addi	a0,a5,-1264 # 22b10 <__clzdi2+0x3e>
   101ea:	1b2000ef          	jal	ra,1039c <scanf>
   101ee:	fec42783          	lw	a5,-20(s0)
   101f2:	853e                	mv	a0,a5
   101f4:	f61ff0ef          	jal	ra,10154 <fib>
   101f8:	87aa                	mv	a5,a0
   101fa:	85be                	mv	a1,a5
   101fc:	000237b7          	lui	a5,0x23
   10200:	b1078513          	addi	a0,a5,-1264 # 22b10 <__clzdi2+0x3e>
   10204:	16c000ef          	jal	ra,10370 <printf>
   10208:	4781                	li	a5,0
   1020a:	853e                	mv	a0,a5
   1020c:	60e2                	ld	ra,24(sp)
   1020e:	6442                	ld	s0,16(sp)
   10210:	6105                	addi	sp,sp,32
   10212:	8082                	ret

0000000000010214 <exit>:
   10214:	1141                	addi	sp,sp,-16
   10216:	4581                	li	a1,0
   10218:	e022                	sd	s0,0(sp)
   1021a:	e406                	sd	ra,8(sp)
   1021c:	842a                	mv	s0,a0
   1021e:	2d8040ef          	jal	ra,144f6 <__call_exitprocs>
   10222:	7401b503          	ld	a0,1856(gp) # 26378 <_global_impure_ptr>
   10226:	6d3c                	ld	a5,88(a0)
   10228:	c391                	beqz	a5,1022c <exit+0x18>
   1022a:	9782                	jalr	a5
   1022c:	8522                	mv	a0,s0
   1022e:	2ec110ef          	jal	ra,2151a <_exit>

0000000000010232 <__libc_init_array>:
   10232:	1101                	addi	sp,sp,-32
   10234:	e822                	sd	s0,16(sp)
   10236:	e04a                	sd	s2,0(sp)
   10238:	00025437          	lui	s0,0x25
   1023c:	00025937          	lui	s2,0x25
   10240:	1a440793          	addi	a5,s0,420 # 251a4 <__preinit_array_end>
   10244:	1a490913          	addi	s2,s2,420 # 251a4 <__preinit_array_end>
   10248:	40f90933          	sub	s2,s2,a5
   1024c:	ec06                	sd	ra,24(sp)
   1024e:	e426                	sd	s1,8(sp)
   10250:	40395913          	srai	s2,s2,0x3
   10254:	00090b63          	beqz	s2,1026a <__libc_init_array+0x38>
   10258:	1a440413          	addi	s0,s0,420
   1025c:	4481                	li	s1,0
   1025e:	601c                	ld	a5,0(s0)
   10260:	0485                	addi	s1,s1,1
   10262:	0421                	addi	s0,s0,8
   10264:	9782                	jalr	a5
   10266:	fe991ce3          	bne	s2,s1,1025e <__libc_init_array+0x2c>
   1026a:	00025437          	lui	s0,0x25
   1026e:	00025937          	lui	s2,0x25
   10272:	1a840793          	addi	a5,s0,424 # 251a8 <__init_array_start>
   10276:	1b890913          	addi	s2,s2,440 # 251b8 <__do_global_dtors_aux_fini_array_entry>
   1027a:	40f90933          	sub	s2,s2,a5
   1027e:	40395913          	srai	s2,s2,0x3
   10282:	00090b63          	beqz	s2,10298 <__libc_init_array+0x66>
   10286:	1a840413          	addi	s0,s0,424
   1028a:	4481                	li	s1,0
   1028c:	601c                	ld	a5,0(s0)
   1028e:	0485                	addi	s1,s1,1
   10290:	0421                	addi	s0,s0,8
   10292:	9782                	jalr	a5
   10294:	fe991ce3          	bne	s2,s1,1028c <__libc_init_array+0x5a>
   10298:	60e2                	ld	ra,24(sp)
   1029a:	6442                	ld	s0,16(sp)
   1029c:	64a2                	ld	s1,8(sp)
   1029e:	6902                	ld	s2,0(sp)
   102a0:	6105                	addi	sp,sp,32
   102a2:	8082                	ret

00000000000102a4 <memset>:
   102a4:	433d                	li	t1,15
   102a6:	872a                	mv	a4,a0
   102a8:	02c37163          	bgeu	t1,a2,102ca <memset+0x26>
   102ac:	00f77793          	andi	a5,a4,15
   102b0:	e3c1                	bnez	a5,10330 <memset+0x8c>
   102b2:	e1bd                	bnez	a1,10318 <memset+0x74>
   102b4:	ff067693          	andi	a3,a2,-16
   102b8:	8a3d                	andi	a2,a2,15
   102ba:	96ba                	add	a3,a3,a4
   102bc:	e30c                	sd	a1,0(a4)
   102be:	e70c                	sd	a1,8(a4)
   102c0:	0741                	addi	a4,a4,16
   102c2:	fed76de3          	bltu	a4,a3,102bc <memset+0x18>
   102c6:	e211                	bnez	a2,102ca <memset+0x26>
   102c8:	8082                	ret
   102ca:	40c306b3          	sub	a3,t1,a2
   102ce:	068a                	slli	a3,a3,0x2
   102d0:	00000297          	auipc	t0,0x0
   102d4:	9696                	add	a3,a3,t0
   102d6:	00a68067          	jr	10(a3)
   102da:	00b70723          	sb	a1,14(a4)
   102de:	00b706a3          	sb	a1,13(a4)
   102e2:	00b70623          	sb	a1,12(a4)
   102e6:	00b705a3          	sb	a1,11(a4)
   102ea:	00b70523          	sb	a1,10(a4)
   102ee:	00b704a3          	sb	a1,9(a4)
   102f2:	00b70423          	sb	a1,8(a4)
   102f6:	00b703a3          	sb	a1,7(a4)
   102fa:	00b70323          	sb	a1,6(a4)
   102fe:	00b702a3          	sb	a1,5(a4)
   10302:	00b70223          	sb	a1,4(a4)
   10306:	00b701a3          	sb	a1,3(a4)
   1030a:	00b70123          	sb	a1,2(a4)
   1030e:	00b700a3          	sb	a1,1(a4)
   10312:	00b70023          	sb	a1,0(a4)
   10316:	8082                	ret
   10318:	0ff5f593          	andi	a1,a1,255
   1031c:	00859693          	slli	a3,a1,0x8
   10320:	8dd5                	or	a1,a1,a3
   10322:	01059693          	slli	a3,a1,0x10
   10326:	8dd5                	or	a1,a1,a3
   10328:	02059693          	slli	a3,a1,0x20
   1032c:	8dd5                	or	a1,a1,a3
   1032e:	b759                	j	102b4 <memset+0x10>
   10330:	00279693          	slli	a3,a5,0x2
   10334:	00000297          	auipc	t0,0x0
   10338:	9696                	add	a3,a3,t0
   1033a:	8286                	mv	t0,ra
   1033c:	fa2680e7          	jalr	-94(a3)
   10340:	8096                	mv	ra,t0
   10342:	17c1                	addi	a5,a5,-16
   10344:	8f1d                	sub	a4,a4,a5
   10346:	963e                	add	a2,a2,a5
   10348:	f8c371e3          	bgeu	t1,a2,102ca <memset+0x26>
   1034c:	b79d                	j	102b2 <memset+0xe>

000000000001034e <_printf_r>:
   1034e:	715d                	addi	sp,sp,-80
   10350:	f032                	sd	a2,32(sp)
   10352:	f436                	sd	a3,40(sp)
   10354:	f83a                	sd	a4,48(sp)
   10356:	fc3e                	sd	a5,56(sp)
   10358:	e0c2                	sd	a6,64(sp)
   1035a:	e4c6                	sd	a7,72(sp)
   1035c:	862e                	mv	a2,a1
   1035e:	690c                	ld	a1,16(a0)
   10360:	1014                	addi	a3,sp,32
   10362:	ec06                	sd	ra,24(sp)
   10364:	e436                	sd	a3,8(sp)
   10366:	084000ef          	jal	ra,103ea <_vfprintf_r>
   1036a:	60e2                	ld	ra,24(sp)
   1036c:	6161                	addi	sp,sp,80
   1036e:	8082                	ret

0000000000010370 <printf>:
   10370:	7501b303          	ld	t1,1872(gp) # 26388 <_impure_ptr>
   10374:	711d                	addi	sp,sp,-96
   10376:	f832                	sd	a2,48(sp)
   10378:	fc36                	sd	a3,56(sp)
   1037a:	f42e                	sd	a1,40(sp)
   1037c:	e0ba                	sd	a4,64(sp)
   1037e:	e4be                	sd	a5,72(sp)
   10380:	e8c2                	sd	a6,80(sp)
   10382:	ecc6                	sd	a7,88(sp)
   10384:	01033583          	ld	a1,16(t1) # 1015a <fib+0x6>
   10388:	1034                	addi	a3,sp,40
   1038a:	862a                	mv	a2,a0
   1038c:	851a                	mv	a0,t1
   1038e:	ec06                	sd	ra,24(sp)
   10390:	e436                	sd	a3,8(sp)
   10392:	058000ef          	jal	ra,103ea <_vfprintf_r>
   10396:	60e2                	ld	ra,24(sp)
   10398:	6125                	addi	sp,sp,96
   1039a:	8082                	ret

000000000001039c <scanf>:
   1039c:	7501b303          	ld	t1,1872(gp) # 26388 <_impure_ptr>
   103a0:	711d                	addi	sp,sp,-96
   103a2:	f832                	sd	a2,48(sp)
   103a4:	fc36                	sd	a3,56(sp)
   103a6:	f42e                	sd	a1,40(sp)
   103a8:	e0ba                	sd	a4,64(sp)
   103aa:	e4be                	sd	a5,72(sp)
   103ac:	e8c2                	sd	a6,80(sp)
   103ae:	ecc6                	sd	a7,88(sp)
   103b0:	00833583          	ld	a1,8(t1)
   103b4:	1034                	addi	a3,sp,40
   103b6:	862a                	mv	a2,a0
   103b8:	851a                	mv	a0,t1
   103ba:	ec06                	sd	ra,24(sp)
   103bc:	e436                	sd	a3,8(sp)
   103be:	00a040ef          	jal	ra,143c8 <_vfscanf_r>
   103c2:	60e2                	ld	ra,24(sp)
   103c4:	6125                	addi	sp,sp,96
   103c6:	8082                	ret

00000000000103c8 <_scanf_r>:
   103c8:	715d                	addi	sp,sp,-80
   103ca:	f032                	sd	a2,32(sp)
   103cc:	f436                	sd	a3,40(sp)
   103ce:	f83a                	sd	a4,48(sp)
   103d0:	fc3e                	sd	a5,56(sp)
   103d2:	e0c2                	sd	a6,64(sp)
   103d4:	e4c6                	sd	a7,72(sp)
   103d6:	862e                	mv	a2,a1
   103d8:	650c                	ld	a1,8(a0)
   103da:	1014                	addi	a3,sp,32
   103dc:	ec06                	sd	ra,24(sp)
   103de:	e436                	sd	a3,8(sp)
   103e0:	7e9030ef          	jal	ra,143c8 <_vfscanf_r>
   103e4:	60e2                	ld	ra,24(sp)
   103e6:	6161                	addi	sp,sp,80
   103e8:	8082                	ret

00000000000103ea <_vfprintf_r>:
   103ea:	d8010113          	addi	sp,sp,-640
   103ee:	26113c23          	sd	ra,632(sp)
   103f2:	27213023          	sd	s2,608(sp)
   103f6:	25413823          	sd	s4,592(sp)
   103fa:	23913423          	sd	s9,552(sp)
   103fe:	892e                	mv	s2,a1
   10400:	8cb2                	mv	s9,a2
   10402:	e836                	sd	a3,16(sp)
   10404:	26813823          	sd	s0,624(sp)
   10408:	26913423          	sd	s1,616(sp)
   1040c:	25313c23          	sd	s3,600(sp)
   10410:	25513423          	sd	s5,584(sp)
   10414:	25613023          	sd	s6,576(sp)
   10418:	23713c23          	sd	s7,568(sp)
   1041c:	23813823          	sd	s8,560(sp)
   10420:	23a13023          	sd	s10,544(sp)
   10424:	21b13c23          	sd	s11,536(sp)
   10428:	8a2a                	mv	s4,a0
   1042a:	4db060ef          	jal	ra,17104 <_localeconv_r>
   1042e:	611c                	ld	a5,0(a0)
   10430:	853e                	mv	a0,a5
   10432:	f8be                	sd	a5,112(sp)
   10434:	661080ef          	jal	ra,19294 <strlen>
   10438:	f4aa                	sd	a0,104(sp)
   1043a:	e202                	sd	zero,256(sp)
   1043c:	e602                	sd	zero,264(sp)
   1043e:	000a0663          	beqz	s4,1044a <_vfprintf_r+0x60>
   10442:	050a2783          	lw	a5,80(s4)
   10446:	72078d63          	beqz	a5,10b80 <_vfprintf_r+0x796>
   1044a:	01091703          	lh	a4,16(s2)
   1044e:	6689                	lui	a3,0x2
   10450:	03071793          	slli	a5,a4,0x30
   10454:	93c1                	srli	a5,a5,0x30
   10456:	00d7f633          	and	a2,a5,a3
   1045a:	e215                	bnez	a2,1047e <_vfprintf_r+0x94>
   1045c:	0ac92603          	lw	a2,172(s2)
   10460:	00d767b3          	or	a5,a4,a3
   10464:	0107979b          	slliw	a5,a5,0x10
   10468:	7779                	lui	a4,0xffffe
   1046a:	4107d79b          	sraiw	a5,a5,0x10
   1046e:	177d                	addi	a4,a4,-1
   10470:	8f71                	and	a4,a4,a2
   10472:	00f91823          	sh	a5,16(s2)
   10476:	17c2                	slli	a5,a5,0x30
   10478:	0ae92623          	sw	a4,172(s2)
   1047c:	93c1                	srli	a5,a5,0x30
   1047e:	0087f713          	andi	a4,a5,8
   10482:	26070e63          	beqz	a4,106fe <_vfprintf_r+0x314>
   10486:	01893703          	ld	a4,24(s2)
   1048a:	26070a63          	beqz	a4,106fe <_vfprintf_r+0x314>
   1048e:	8be9                	andi	a5,a5,26
   10490:	4729                	li	a4,10
   10492:	28e78363          	beq	a5,a4,10718 <_vfprintf_r+0x32e>
   10496:	000237b7          	lui	a5,0x23
   1049a:	d387b783          	ld	a5,-712(a5) # 22d38 <zeroes.0+0x40>
   1049e:	19010b13          	addi	s6,sp,400
   104a2:	ea5a                	sd	s6,272(sp)
   104a4:	ed3e                	sd	a5,152(sp)
   104a6:	000237b7          	lui	a5,0x23
   104aa:	d187b783          	ld	a5,-744(a5) # 22d18 <zeroes.0+0x20>
   104ae:	f202                	sd	zero,288(sp)
   104b0:	10012c23          	sw	zero,280(sp)
   104b4:	e93e                	sd	a5,144(sp)
   104b6:	000237b7          	lui	a5,0x23
   104ba:	d287b783          	ld	a5,-728(a5) # 22d28 <zeroes.0+0x30>
   104be:	f002                	sd	zero,32(sp)
   104c0:	f402                	sd	zero,40(sp)
   104c2:	f13e                	sd	a5,160(sp)
   104c4:	000cc783          	lbu	a5,0(s9)
   104c8:	fc82                	sd	zero,120(sp)
   104ca:	f082                	sd	zero,96(sp)
   104cc:	e102                	sd	zero,128(sp)
   104ce:	e502                	sd	zero,136(sp)
   104d0:	e402                	sd	zero,8(sp)
   104d2:	835a                	mv	t1,s6
   104d4:	1c078663          	beqz	a5,106a0 <_vfprintf_r+0x2b6>
   104d8:	8466                	mv	s0,s9
   104da:	02500713          	li	a4,37
   104de:	30e78463          	beq	a5,a4,107e6 <_vfprintf_r+0x3fc>
   104e2:	00144783          	lbu	a5,1(s0)
   104e6:	0405                	addi	s0,s0,1
   104e8:	fbfd                	bnez	a5,104de <_vfprintf_r+0xf4>
   104ea:	419404bb          	subw	s1,s0,s9
   104ee:	1a048963          	beqz	s1,106a0 <_vfprintf_r+0x2b6>
   104f2:	7712                	ld	a4,288(sp)
   104f4:	11812783          	lw	a5,280(sp)
   104f8:	01933023          	sd	s9,0(t1)
   104fc:	9726                	add	a4,a4,s1
   104fe:	2785                	addiw	a5,a5,1
   10500:	00933423          	sd	s1,8(t1)
   10504:	f23a                	sd	a4,288(sp)
   10506:	10f12c23          	sw	a5,280(sp)
   1050a:	0007871b          	sext.w	a4,a5
   1050e:	479d                	li	a5,7
   10510:	0341                	addi	t1,t1,16
   10512:	2ee7c163          	blt	a5,a4,107f4 <_vfprintf_r+0x40a>
   10516:	6722                	ld	a4,8(sp)
   10518:	00044783          	lbu	a5,0(s0)
   1051c:	9f25                	addw	a4,a4,s1
   1051e:	e43a                	sd	a4,8(sp)
   10520:	18078063          	beqz	a5,106a0 <_vfprintf_r+0x2b6>
   10524:	000237b7          	lui	a5,0x23
   10528:	00144e03          	lbu	t3,1(s0)
   1052c:	0c010fa3          	sb	zero,223(sp)
   10530:	0405                	addi	s0,s0,1
   10532:	5c7d                	li	s8,-1
   10534:	4a81                	li	s5,0
   10536:	4481                	li	s1,0
   10538:	05a00993          	li	s3,90
   1053c:	b7878b93          	addi	s7,a5,-1160 # 22b78 <__clzdi2+0xa6>
   10540:	4da5                	li	s11,9
   10542:	0405                	addi	s0,s0,1
   10544:	000e0d1b          	sext.w	s10,t3
   10548:	02a00613          	li	a2,42
   1054c:	fe0d079b          	addiw	a5,s10,-32
   10550:	0007871b          	sext.w	a4,a5
   10554:	04e9e363          	bltu	s3,a4,1059a <_vfprintf_r+0x1b0>
   10558:	02079713          	slli	a4,a5,0x20
   1055c:	01e75793          	srli	a5,a4,0x1e
   10560:	97de                	add	a5,a5,s7
   10562:	439c                	lw	a5,0(a5)
   10564:	8782                	jr	a5
   10566:	4a81                	li	s5,0
   10568:	00044703          	lbu	a4,0(s0)
   1056c:	002a979b          	slliw	a5,s5,0x2
   10570:	01578abb          	addw	s5,a5,s5
   10574:	fd0d0e1b          	addiw	t3,s10,-48
   10578:	001a9a9b          	slliw	s5,s5,0x1
   1057c:	fd07079b          	addiw	a5,a4,-48
   10580:	0405                	addi	s0,s0,1
   10582:	015e0abb          	addw	s5,t3,s5
   10586:	00070d1b          	sext.w	s10,a4
   1058a:	fcfdffe3          	bgeu	s11,a5,10568 <_vfprintf_r+0x17e>
   1058e:	fe0d079b          	addiw	a5,s10,-32
   10592:	0007871b          	sext.w	a4,a5
   10596:	fce9f1e3          	bgeu	s3,a4,10558 <_vfprintf_r+0x16e>
   1059a:	100d0363          	beqz	s10,106a0 <_vfprintf_r+0x2b6>
   1059e:	13a10423          	sb	s10,296(sp)
   105a2:	0c010fa3          	sb	zero,223(sp)
   105a6:	4985                	li	s3,1
   105a8:	4b85                	li	s7,1
   105aa:	12810c93          	addi	s9,sp,296
   105ae:	ec02                	sd	zero,24(sp)
   105b0:	4c01                	li	s8,0
   105b2:	e482                	sd	zero,72(sp)
   105b4:	ec82                	sd	zero,88(sp)
   105b6:	e882                	sd	zero,80(sp)
   105b8:	0024f293          	andi	t0,s1,2
   105bc:	00028363          	beqz	t0,105c2 <_vfprintf_r+0x1d8>
   105c0:	2989                	addiw	s3,s3,2
   105c2:	0844fd93          	andi	s11,s1,132
   105c6:	7792                	ld	a5,288(sp)
   105c8:	000d9663          	bnez	s11,105d4 <_vfprintf_r+0x1ea>
   105cc:	413a86bb          	subw	a3,s5,s3
   105d0:	22d049e3          	bgtz	a3,11002 <_vfprintf_r+0xc18>
   105d4:	0df14703          	lbu	a4,223(sp)
   105d8:	c70d                	beqz	a4,10602 <_vfprintf_r+0x218>
   105da:	11812703          	lw	a4,280(sp)
   105de:	0df10693          	addi	a3,sp,223
   105e2:	00d33023          	sd	a3,0(t1)
   105e6:	2705                	addiw	a4,a4,1
   105e8:	4685                	li	a3,1
   105ea:	0785                	addi	a5,a5,1
   105ec:	00d33423          	sd	a3,8(t1)
   105f0:	10e12c23          	sw	a4,280(sp)
   105f4:	0007069b          	sext.w	a3,a4
   105f8:	f23e                	sd	a5,288(sp)
   105fa:	471d                	li	a4,7
   105fc:	0341                	addi	t1,t1,16
   105fe:	3ed74d63          	blt	a4,a3,109f8 <_vfprintf_r+0x60e>
   10602:	02028563          	beqz	t0,1062c <_vfprintf_r+0x242>
   10606:	11812703          	lw	a4,280(sp)
   1060a:	1194                	addi	a3,sp,224
   1060c:	00d33023          	sd	a3,0(t1)
   10610:	2705                	addiw	a4,a4,1
   10612:	4689                	li	a3,2
   10614:	0789                	addi	a5,a5,2
   10616:	00d33423          	sd	a3,8(t1)
   1061a:	10e12c23          	sw	a4,280(sp)
   1061e:	0007069b          	sext.w	a3,a4
   10622:	f23e                	sd	a5,288(sp)
   10624:	471d                	li	a4,7
   10626:	0341                	addi	t1,t1,16
   10628:	26d748e3          	blt	a4,a3,11098 <_vfprintf_r+0xcae>
   1062c:	08000713          	li	a4,128
   10630:	06ed8de3          	beq	s11,a4,10eaa <_vfprintf_r+0xac0>
   10634:	417c0c3b          	subw	s8,s8,s7
   10638:	118042e3          	bgtz	s8,10f3c <_vfprintf_r+0xb52>
   1063c:	1004f713          	andi	a4,s1,256
   10640:	78071c63          	bnez	a4,10dd8 <_vfprintf_r+0x9ee>
   10644:	11812703          	lw	a4,280(sp)
   10648:	97de                	add	a5,a5,s7
   1064a:	01933023          	sd	s9,0(t1)
   1064e:	0017069b          	addiw	a3,a4,1
   10652:	8736                	mv	a4,a3
   10654:	01733423          	sd	s7,8(t1)
   10658:	10e12c23          	sw	a4,280(sp)
   1065c:	f23e                	sd	a5,288(sp)
   1065e:	471d                	li	a4,7
   10660:	46d74863          	blt	a4,a3,10ad0 <_vfprintf_r+0x6e6>
   10664:	0341                	addi	t1,t1,16
   10666:	8891                	andi	s1,s1,4
   10668:	c489                	beqz	s1,10672 <_vfprintf_r+0x288>
   1066a:	413a84bb          	subw	s1,s5,s3
   1066e:	22904fe3          	bgtz	s1,110ac <_vfprintf_r+0xcc2>
   10672:	8756                	mv	a4,s5
   10674:	013ad363          	bge	s5,s3,1067a <_vfprintf_r+0x290>
   10678:	874e                	mv	a4,s3
   1067a:	66a2                	ld	a3,8(sp)
   1067c:	9f35                	addw	a4,a4,a3
   1067e:	e43a                	sd	a4,8(sp)
   10680:	140790e3          	bnez	a5,10fc0 <_vfprintf_r+0xbd6>
   10684:	67e2                	ld	a5,24(sp)
   10686:	10012c23          	sw	zero,280(sp)
   1068a:	c789                	beqz	a5,10694 <_vfprintf_r+0x2aa>
   1068c:	65e2                	ld	a1,24(sp)
   1068e:	8552                	mv	a0,s4
   10690:	674040ef          	jal	ra,14d04 <_free_r>
   10694:	835a                	mv	t1,s6
   10696:	8ca2                	mv	s9,s0
   10698:	000cc783          	lbu	a5,0(s9)
   1069c:	e2079ee3          	bnez	a5,104d8 <_vfprintf_r+0xee>
   106a0:	7792                	ld	a5,288(sp)
   106a2:	c399                	beqz	a5,106a8 <_vfprintf_r+0x2be>
   106a4:	2860106f          	j	1192a <_vfprintf_r+0x1540>
   106a8:	01095783          	lhu	a5,16(s2)
   106ac:	0407f793          	andi	a5,a5,64
   106b0:	c399                	beqz	a5,106b6 <_vfprintf_r+0x2cc>
   106b2:	5e80106f          	j	11c9a <_vfprintf_r+0x18b0>
   106b6:	27813083          	ld	ra,632(sp)
   106ba:	27013403          	ld	s0,624(sp)
   106be:	6522                	ld	a0,8(sp)
   106c0:	26813483          	ld	s1,616(sp)
   106c4:	26013903          	ld	s2,608(sp)
   106c8:	25813983          	ld	s3,600(sp)
   106cc:	25013a03          	ld	s4,592(sp)
   106d0:	24813a83          	ld	s5,584(sp)
   106d4:	24013b03          	ld	s6,576(sp)
   106d8:	23813b83          	ld	s7,568(sp)
   106dc:	23013c03          	ld	s8,560(sp)
   106e0:	22813c83          	ld	s9,552(sp)
   106e4:	22013d03          	ld	s10,544(sp)
   106e8:	21813d83          	ld	s11,536(sp)
   106ec:	28010113          	addi	sp,sp,640
   106f0:	8082                	ret
   106f2:	0104e493          	ori	s1,s1,16
   106f6:	00044e03          	lbu	t3,0(s0)
   106fa:	2481                	sext.w	s1,s1
   106fc:	b599                	j	10542 <_vfprintf_r+0x158>
   106fe:	85ca                	mv	a1,s2
   10700:	8552                	mv	a0,s4
   10702:	4fd030ef          	jal	ra,143fe <__swsetup_r>
   10706:	c119                	beqz	a0,1070c <_vfprintf_r+0x322>
   10708:	5920106f          	j	11c9a <_vfprintf_r+0x18b0>
   1070c:	01095783          	lhu	a5,16(s2)
   10710:	4729                	li	a4,10
   10712:	8be9                	andi	a5,a5,26
   10714:	d8e791e3          	bne	a5,a4,10496 <_vfprintf_r+0xac>
   10718:	01291783          	lh	a5,18(s2)
   1071c:	d607cde3          	bltz	a5,10496 <_vfprintf_r+0xac>
   10720:	66c2                	ld	a3,16(sp)
   10722:	8666                	mv	a2,s9
   10724:	85ca                	mv	a1,s2
   10726:	8552                	mv	a0,s4
   10728:	061010ef          	jal	ra,11f88 <__sbprintf>
   1072c:	e42a                	sd	a0,8(sp)
   1072e:	b761                	j	106b6 <_vfprintf_r+0x2cc>
   10730:	0104e493          	ori	s1,s1,16
   10734:	2481                	sext.w	s1,s1
   10736:	66c2                	ld	a3,16(sp)
   10738:	0204f793          	andi	a5,s1,32
   1073c:	00868713          	addi	a4,a3,8 # 2008 <register_fini-0xe0a8>
   10740:	3c078163          	beqz	a5,10b02 <_vfprintf_r+0x718>
   10744:	629c                	ld	a5,0(a3)
   10746:	89be                	mv	s3,a5
   10748:	3c07cb63          	bltz	a5,10b1e <_vfprintf_r+0x734>
   1074c:	57fd                	li	a5,-1
   1074e:	3efc09e3          	beq	s8,a5,11340 <_vfprintf_r+0xf56>
   10752:	f7f4f493          	andi	s1,s1,-129
   10756:	e83a                	sd	a4,16(sp)
   10758:	00048d9b          	sext.w	s11,s1
   1075c:	080996e3          	bnez	s3,10fe8 <_vfprintf_r+0xbfe>
   10760:	080c17e3          	bnez	s8,10fee <_vfprintf_r+0xc04>
   10764:	84ee                	mv	s1,s11
   10766:	4c01                	li	s8,0
   10768:	4b81                	li	s7,0
   1076a:	18c10c93          	addi	s9,sp,396
   1076e:	0df14783          	lbu	a5,223(sp)
   10772:	000b899b          	sext.w	s3,s7
   10776:	018bd463          	bge	s7,s8,1077e <_vfprintf_r+0x394>
   1077a:	000c099b          	sext.w	s3,s8
   1077e:	ec02                	sd	zero,24(sp)
   10780:	e482                	sd	zero,72(sp)
   10782:	ec82                	sd	zero,88(sp)
   10784:	e882                	sd	zero,80(sp)
   10786:	e20789e3          	beqz	a5,105b8 <_vfprintf_r+0x1ce>
   1078a:	2985                	addiw	s3,s3,1
   1078c:	b535                	j	105b8 <_vfprintf_r+0x1ce>
   1078e:	0104e493          	ori	s1,s1,16
   10792:	2481                	sext.w	s1,s1
   10794:	66c2                	ld	a3,16(sp)
   10796:	0204f793          	andi	a5,s1,32
   1079a:	00868713          	addi	a4,a3,8
   1079e:	34078363          	beqz	a5,10ae4 <_vfprintf_r+0x6fa>
   107a2:	0006b983          	ld	s3,0(a3)
   107a6:	bff4f493          	andi	s1,s1,-1025
   107aa:	00048d9b          	sext.w	s11,s1
   107ae:	e83a                	sd	a4,16(sp)
   107b0:	4781                	li	a5,0
   107b2:	0c010fa3          	sb	zero,223(sp)
   107b6:	577d                	li	a4,-1
   107b8:	36ec0f63          	beq	s8,a4,10b36 <_vfprintf_r+0x74c>
   107bc:	f7fdf493          	andi	s1,s11,-129
   107c0:	2481                	sext.w	s1,s1
   107c2:	00099fe3          	bnez	s3,10fe0 <_vfprintf_r+0xbf6>
   107c6:	5c0c1c63          	bnez	s8,10d9e <_vfprintf_r+0x9b4>
   107ca:	ffd1                	bnez	a5,10766 <_vfprintf_r+0x37c>
   107cc:	001dfb93          	andi	s7,s11,1
   107d0:	18c10c93          	addi	s9,sp,396
   107d4:	f80b8de3          	beqz	s7,1076e <_vfprintf_r+0x384>
   107d8:	03000793          	li	a5,48
   107dc:	18f105a3          	sb	a5,395(sp)
   107e0:	18b10c93          	addi	s9,sp,395
   107e4:	b769                	j	1076e <_vfprintf_r+0x384>
   107e6:	419404bb          	subw	s1,s0,s9
   107ea:	d00494e3          	bnez	s1,104f2 <_vfprintf_r+0x108>
   107ee:	00044783          	lbu	a5,0(s0)
   107f2:	b33d                	j	10520 <_vfprintf_r+0x136>
   107f4:	0a10                	addi	a2,sp,272
   107f6:	85ca                	mv	a1,s2
   107f8:	8552                	mv	a0,s4
   107fa:	0720c0ef          	jal	ra,1c86c <__sprint_r>
   107fe:	ea0515e3          	bnez	a0,106a8 <_vfprintf_r+0x2be>
   10802:	835a                	mv	t1,s6
   10804:	bb09                	j	10516 <_vfprintf_r+0x12c>
   10806:	0084f793          	andi	a5,s1,8
   1080a:	320790e3          	bnez	a5,1132a <_vfprintf_r+0xf40>
   1080e:	67c2                	ld	a5,16(sp)
   10810:	ec1a                	sd	t1,24(sp)
   10812:	2388                	fld	fa0,0(a5)
   10814:	07a1                	addi	a5,a5,8
   10816:	e83e                	sd	a5,16(sp)
   10818:	7cd110ef          	jal	ra,227e4 <__extenddftf2>
   1081c:	6362                	ld	t1,24(sp)
   1081e:	e22a                	sd	a0,256(sp)
   10820:	e62e                	sd	a1,264(sp)
   10822:	0208                	addi	a0,sp,256
   10824:	ec1a                	sd	t1,24(sp)
   10826:	097060ef          	jal	ra,170bc <_ldcheck>
   1082a:	d5aa                	sw	a0,232(sp)
   1082c:	4789                	li	a5,2
   1082e:	6362                	ld	t1,24(sp)
   10830:	5af50be3          	beq	a0,a5,115e6 <_vfprintf_r+0x11fc>
   10834:	4785                	li	a5,1
   10836:	6af50ce3          	beq	a0,a5,116ee <_vfprintf_r+0x1304>
   1083a:	06100793          	li	a5,97
   1083e:	00fd1463          	bne	s10,a5,10846 <_vfprintf_r+0x45c>
   10842:	5740106f          	j	11db6 <_vfprintf_r+0x19cc>
   10846:	04100793          	li	a5,65
   1084a:	00fd1463          	bne	s10,a5,10852 <_vfprintf_r+0x468>
   1084e:	10e0106f          	j	1195c <_vfprintf_r+0x1572>
   10852:	fdfd7713          	andi	a4,s10,-33
   10856:	57fd                	li	a5,-1
   10858:	ecba                	sd	a4,88(sp)
   1085a:	00fc1463          	bne	s8,a5,10862 <_vfprintf_r+0x478>
   1085e:	5740106f          	j	11dd2 <_vfprintf_r+0x19e8>
   10862:	04700793          	li	a5,71
   10866:	00f71463          	bne	a4,a5,1086e <_vfprintf_r+0x484>
   1086a:	55a0106f          	j	11dc4 <_vfprintf_r+0x19da>
   1086e:	6bb2                	ld	s7,264(sp)
   10870:	1004e793          	ori	a5,s1,256
   10874:	fd26                	sd	s1,184(sp)
   10876:	6d92                	ld	s11,256(sp)
   10878:	2781                	sext.w	a5,a5
   1087a:	000bd463          	bgez	s7,10882 <_vfprintf_r+0x498>
   1087e:	2b80106f          	j	11b36 <_vfprintf_r+0x174c>
   10882:	e582                	sd	zero,200(sp)
   10884:	84be                	mv	s1,a5
   10886:	ec02                	sd	zero,24(sp)
   10888:	6766                	ld	a4,88(sp)
   1088a:	04600793          	li	a5,70
   1088e:	00f71463          	bne	a4,a5,10896 <_vfprintf_r+0x4ac>
   10892:	2f60106f          	j	11b88 <_vfprintf_r+0x179e>
   10896:	04500793          	li	a5,69
   1089a:	f01a                	sd	t1,32(sp)
   1089c:	00f71463          	bne	a4,a5,108a4 <_vfprintf_r+0x4ba>
   108a0:	4800106f          	j	11d20 <_vfprintf_r+0x1936>
   108a4:	11bc                	addi	a5,sp,232
   108a6:	8762                	mv	a4,s8
   108a8:	0f810893          	addi	a7,sp,248
   108ac:	0ec10813          	addi	a6,sp,236
   108b0:	4689                	li	a3,2
   108b2:	85ee                	mv	a1,s11
   108b4:	865e                	mv	a2,s7
   108b6:	8552                	mv	a0,s4
   108b8:	21b050ef          	jal	ra,162d2 <_ldtoa_r>
   108bc:	6766                	ld	a4,88(sp)
   108be:	04700793          	li	a5,71
   108c2:	7302                	ld	t1,32(sp)
   108c4:	8caa                	mv	s9,a0
   108c6:	00f70463          	beq	a4,a5,108ce <_vfprintf_r+0x4e4>
   108ca:	6a80106f          	j	11f72 <_vfprintf_r+0x1b88>
   108ce:	77ea                	ld	a5,184(sp)
   108d0:	8b85                	andi	a5,a5,1
   108d2:	c399                	beqz	a5,108d8 <_vfprintf_r+0x4ee>
   108d4:	48e0106f          	j	11d62 <_vfprintf_r+0x1978>
   108d8:	76ee                	ld	a3,248(sp)
   108da:	419687bb          	subw	a5,a3,s9
   108de:	f03e                	sd	a5,32(sp)
   108e0:	572e                	lw	a4,232(sp)
   108e2:	04700793          	li	a5,71
   108e6:	e8ba                	sd	a4,80(sp)
   108e8:	6766                	ld	a4,88(sp)
   108ea:	00f71463          	bne	a4,a5,108f2 <_vfprintf_r+0x508>
   108ee:	1e20106f          	j	11ad0 <_vfprintf_r+0x16e6>
   108f2:	6766                	ld	a4,88(sp)
   108f4:	04600793          	li	a5,70
   108f8:	00f71463          	bne	a4,a5,10900 <_vfprintf_r+0x516>
   108fc:	3840106f          	j	11c80 <_vfprintf_r+0x1896>
   10900:	67c6                	ld	a5,80(sp)
   10902:	65e6                	ld	a1,88(sp)
   10904:	04100613          	li	a2,65
   10908:	37fd                	addiw	a5,a5,-1
   1090a:	d5be                	sw	a5,232(sp)
   1090c:	0ffd7713          	andi	a4,s10,255
   10910:	4681                	li	a3,0
   10912:	00c59663          	bne	a1,a2,1091e <_vfprintf_r+0x534>
   10916:	273d                	addiw	a4,a4,15
   10918:	0ff77713          	andi	a4,a4,255
   1091c:	4685                	li	a3,1
   1091e:	0ee10823          	sb	a4,240(sp)
   10922:	02b00713          	li	a4,43
   10926:	0007d763          	bgez	a5,10934 <_vfprintf_r+0x54a>
   1092a:	6746                	ld	a4,80(sp)
   1092c:	4785                	li	a5,1
   1092e:	9f99                	subw	a5,a5,a4
   10930:	02d00713          	li	a4,45
   10934:	0ee108a3          	sb	a4,241(sp)
   10938:	4725                	li	a4,9
   1093a:	00f74463          	blt	a4,a5,10942 <_vfprintf_r+0x558>
   1093e:	4a20106f          	j	11de0 <_vfprintf_r+0x19f6>
   10942:	0ff10513          	addi	a0,sp,255
   10946:	85aa                	mv	a1,a0
   10948:	46a9                	li	a3,10
   1094a:	06300e93          	li	t4,99
   1094e:	02d7e73b          	remw	a4,a5,a3
   10952:	862e                	mv	a2,a1
   10954:	88be                	mv	a7,a5
   10956:	15fd                	addi	a1,a1,-1
   10958:	0307071b          	addiw	a4,a4,48
   1095c:	fee60fa3          	sb	a4,-1(a2)
   10960:	02d7c7bb          	divw	a5,a5,a3
   10964:	ff1ec5e3          	blt	t4,a7,1094e <_vfprintf_r+0x564>
   10968:	0307879b          	addiw	a5,a5,48
   1096c:	0ff7f693          	andi	a3,a5,255
   10970:	fed58fa3          	sb	a3,-1(a1)
   10974:	ffe60793          	addi	a5,a2,-2
   10978:	00a7e463          	bltu	a5,a0,10980 <_vfprintf_r+0x596>
   1097c:	5de0106f          	j	11f5a <_vfprintf_r+0x1b70>
   10980:	0f210713          	addi	a4,sp,242
   10984:	a019                	j	1098a <_vfprintf_r+0x5a0>
   10986:	0007c683          	lbu	a3,0(a5)
   1098a:	00d70023          	sb	a3,0(a4) # ffffffffffffe000 <__BSS_END__+0xfffffffffffd7bc8>
   1098e:	0785                	addi	a5,a5,1
   10990:	0705                	addi	a4,a4,1
   10992:	fea79ae3          	bne	a5,a0,10986 <_vfprintf_r+0x59c>
   10996:	10110793          	addi	a5,sp,257
   1099a:	0f210713          	addi	a4,sp,242
   1099e:	8f91                	sub	a5,a5,a2
   109a0:	97ba                	add	a5,a5,a4
   109a2:	1998                	addi	a4,sp,240
   109a4:	9f99                	subw	a5,a5,a4
   109a6:	fcbe                	sd	a5,120(sp)
   109a8:	77e6                	ld	a5,120(sp)
   109aa:	7682                	ld	a3,32(sp)
   109ac:	4705                	li	a4,1
   109ae:	00f68bbb          	addw	s7,a3,a5
   109b2:	87de                	mv	a5,s7
   109b4:	00d74463          	blt	a4,a3,109bc <_vfprintf_r+0x5d2>
   109b8:	5360106f          	j	11eee <_vfprintf_r+0x1b04>
   109bc:	7726                	ld	a4,104(sp)
   109be:	00e78bbb          	addw	s7,a5,a4
   109c2:	77ea                	ld	a5,184(sp)
   109c4:	fffbc993          	not	s3,s7
   109c8:	43f9d993          	srai	s3,s3,0x3f
   109cc:	bff7f493          	andi	s1,a5,-1025
   109d0:	2481                	sext.w	s1,s1
   109d2:	013bf9b3          	and	s3,s7,s3
   109d6:	1004e493          	ori	s1,s1,256
   109da:	2981                	sext.w	s3,s3
   109dc:	e482                	sd	zero,72(sp)
   109de:	ec82                	sd	zero,88(sp)
   109e0:	e882                	sd	zero,80(sp)
   109e2:	67ae                	ld	a5,200(sp)
   109e4:	e399                	bnez	a5,109ea <_vfprintf_r+0x600>
   109e6:	1400106f          	j	11b26 <_vfprintf_r+0x173c>
   109ea:	02d00793          	li	a5,45
   109ee:	0cf10fa3          	sb	a5,223(sp)
   109f2:	4c01                	li	s8,0
   109f4:	2985                	addiw	s3,s3,1
   109f6:	b6c9                	j	105b8 <_vfprintf_r+0x1ce>
   109f8:	0a10                	addi	a2,sp,272
   109fa:	85ca                	mv	a1,s2
   109fc:	8552                	mv	a0,s4
   109fe:	f816                	sd	t0,48(sp)
   10a00:	66d0b0ef          	jal	ra,1c86c <__sprint_r>
   10a04:	5c051563          	bnez	a0,10fce <_vfprintf_r+0xbe4>
   10a08:	7792                	ld	a5,288(sp)
   10a0a:	72c2                	ld	t0,48(sp)
   10a0c:	835a                	mv	t1,s6
   10a0e:	bed5                	j	10602 <_vfprintf_r+0x218>
   10a10:	11812603          	lw	a2,280(sp)
   10a14:	00178c13          	addi	s8,a5,1
   10a18:	7782                	ld	a5,32(sp)
   10a1a:	0016071b          	addiw	a4,a2,1
   10a1e:	4585                	li	a1,1
   10a20:	01933023          	sd	s9,0(t1)
   10a24:	86ba                	mv	a3,a4
   10a26:	01030b93          	addi	s7,t1,16
   10a2a:	02f5d8e3          	bge	a1,a5,1125a <_vfprintf_r+0xe70>
   10a2e:	4605                	li	a2,1
   10a30:	10d12c23          	sw	a3,280(sp)
   10a34:	00c33423          	sd	a2,8(t1)
   10a38:	f262                	sd	s8,288(sp)
   10a3a:	469d                	li	a3,7
   10a3c:	2ce6cce3          	blt	a3,a4,11514 <_vfprintf_r+0x112a>
   10a40:	77a6                	ld	a5,104(sp)
   10a42:	0017069b          	addiw	a3,a4,1
   10a46:	7746                	ld	a4,112(sp)
   10a48:	9c3e                	add	s8,s8,a5
   10a4a:	00fbb423          	sd	a5,8(s7)
   10a4e:	00ebb023          	sd	a4,0(s7)
   10a52:	10d12c23          	sw	a3,280(sp)
   10a56:	0006871b          	sext.w	a4,a3
   10a5a:	f262                	sd	s8,288(sp)
   10a5c:	469d                	li	a3,7
   10a5e:	0bc1                	addi	s7,s7,16
   10a60:	2ce6c7e3          	blt	a3,a4,1152e <_vfprintf_r+0x1144>
   10a64:	6512                	ld	a0,256(sp)
   10a66:	65b2                	ld	a1,264(sp)
   10a68:	00170e1b          	addiw	t3,a4,1
   10a6c:	4601                	li	a2,0
   10a6e:	4681                	li	a3,0
   10a70:	d872                	sw	t3,48(sp)
   10a72:	fc3a                	sd	a4,56(sp)
   10a74:	479100ef          	jal	ra,216ec <__eqtf2>
   10a78:	5e42                	lw	t3,48(sp)
   10a7a:	7782                	ld	a5,32(sp)
   10a7c:	010b8313          	addi	t1,s7,16
   10a80:	000e061b          	sext.w	a2,t3
   10a84:	fff78d1b          	addiw	s10,a5,-1
   10a88:	7e050a63          	beqz	a0,1127c <_vfprintf_r+0xe92>
   10a8c:	001c8813          	addi	a6,s9,1
   10a90:	9c6a                	add	s8,s8,s10
   10a92:	010bb023          	sd	a6,0(s7)
   10a96:	01abb423          	sd	s10,8(s7)
   10a9a:	f262                	sd	s8,288(sp)
   10a9c:	11c12c23          	sw	t3,280(sp)
   10aa0:	469d                	li	a3,7
   10aa2:	14c6c8e3          	blt	a3,a2,113f2 <_vfprintf_r+0x1008>
   10aa6:	7762                	ld	a4,56(sp)
   10aa8:	020b8693          	addi	a3,s7,32
   10aac:	8b9a                	mv	s7,t1
   10aae:	0027061b          	addiw	a2,a4,2
   10ab2:	8336                	mv	t1,a3
   10ab4:	76e6                	ld	a3,120(sp)
   10ab6:	1998                	addi	a4,sp,240
   10ab8:	00ebb023          	sd	a4,0(s7)
   10abc:	018687b3          	add	a5,a3,s8
   10ac0:	00dbb423          	sd	a3,8(s7)
   10ac4:	f23e                	sd	a5,288(sp)
   10ac6:	10c12c23          	sw	a2,280(sp)
   10aca:	471d                	li	a4,7
   10acc:	b8c75de3          	bge	a4,a2,10666 <_vfprintf_r+0x27c>
   10ad0:	0a10                	addi	a2,sp,272
   10ad2:	85ca                	mv	a1,s2
   10ad4:	8552                	mv	a0,s4
   10ad6:	5970b0ef          	jal	ra,1c86c <__sprint_r>
   10ada:	4e051a63          	bnez	a0,10fce <_vfprintf_r+0xbe4>
   10ade:	7792                	ld	a5,288(sp)
   10ae0:	835a                	mv	t1,s6
   10ae2:	b651                	j	10666 <_vfprintf_r+0x27c>
   10ae4:	0104f793          	andi	a5,s1,16
   10ae8:	02079ce3          	bnez	a5,11320 <_vfprintf_r+0xf36>
   10aec:	66c2                	ld	a3,16(sp)
   10aee:	0404f793          	andi	a5,s1,64
   10af2:	0006a983          	lw	s3,0(a3)
   10af6:	3e0784e3          	beqz	a5,116de <_vfprintf_r+0x12f4>
   10afa:	19c2                	slli	s3,s3,0x30
   10afc:	0309d993          	srli	s3,s3,0x30
   10b00:	b15d                	j	107a6 <_vfprintf_r+0x3bc>
   10b02:	0104f793          	andi	a5,s1,16
   10b06:	000798e3          	bnez	a5,11316 <_vfprintf_r+0xf2c>
   10b0a:	0404f793          	andi	a5,s1,64
   10b0e:	3a0787e3          	beqz	a5,116bc <_vfprintf_r+0x12d2>
   10b12:	67c2                	ld	a5,16(sp)
   10b14:	00079983          	lh	s3,0(a5)
   10b18:	87ce                	mv	a5,s3
   10b1a:	c207d9e3          	bgez	a5,1074c <_vfprintf_r+0x362>
   10b1e:	02d00793          	li	a5,45
   10b22:	0cf10fa3          	sb	a5,223(sp)
   10b26:	e83a                	sd	a4,16(sp)
   10b28:	577d                	li	a4,-1
   10b2a:	413009b3          	neg	s3,s3
   10b2e:	8da6                	mv	s11,s1
   10b30:	4785                	li	a5,1
   10b32:	c8ec15e3          	bne	s8,a4,107bc <_vfprintf_r+0x3d2>
   10b36:	4705                	li	a4,1
   10b38:	4ae78863          	beq	a5,a4,10fe8 <_vfprintf_r+0xbfe>
   10b3c:	4709                	li	a4,2
   10b3e:	26e78963          	beq	a5,a4,10db0 <_vfprintf_r+0x9c6>
   10b42:	18c10b93          	addi	s7,sp,396
   10b46:	8cde                	mv	s9,s7
   10b48:	0079f793          	andi	a5,s3,7
   10b4c:	03078793          	addi	a5,a5,48
   10b50:	fefc8fa3          	sb	a5,-1(s9)
   10b54:	0039d993          	srli	s3,s3,0x3
   10b58:	8766                	mv	a4,s9
   10b5a:	1cfd                	addi	s9,s9,-1
   10b5c:	fe0996e3          	bnez	s3,10b48 <_vfprintf_r+0x75e>
   10b60:	001df693          	andi	a3,s11,1
   10b64:	26068663          	beqz	a3,10dd0 <_vfprintf_r+0x9e6>
   10b68:	03000693          	li	a3,48
   10b6c:	26d78263          	beq	a5,a3,10dd0 <_vfprintf_r+0x9e6>
   10b70:	1779                	addi	a4,a4,-2
   10b72:	fedc8fa3          	sb	a3,-1(s9)
   10b76:	40eb8bbb          	subw	s7,s7,a4
   10b7a:	84ee                	mv	s1,s11
   10b7c:	8cba                	mv	s9,a4
   10b7e:	bec5                	j	1076e <_vfprintf_r+0x384>
   10b80:	8552                	mv	a0,s4
   10b82:	6a9030ef          	jal	ra,14a2a <__sinit>
   10b86:	b0d1                	j	1044a <_vfprintf_r+0x60>
   10b88:	67c2                	ld	a5,16(sp)
   10b8a:	0c010fa3          	sb	zero,223(sp)
   10b8e:	0007bc83          	ld	s9,0(a5)
   10b92:	00878d93          	addi	s11,a5,8
   10b96:	100c84e3          	beqz	s9,1149e <_vfprintf_r+0x10b4>
   10b9a:	57fd                	li	a5,-1
   10b9c:	2cfc0de3          	beq	s8,a5,11676 <_vfprintf_r+0x128c>
   10ba0:	8662                	mv	a2,s8
   10ba2:	4581                	li	a1,0
   10ba4:	8566                	mv	a0,s9
   10ba6:	e81a                	sd	t1,16(sp)
   10ba8:	6cd060ef          	jal	ra,17a74 <memchr>
   10bac:	ec2a                	sd	a0,24(sp)
   10bae:	6342                	ld	t1,16(sp)
   10bb0:	e119                	bnez	a0,10bb6 <_vfprintf_r+0x7cc>
   10bb2:	05e0106f          	j	11c10 <_vfprintf_r+0x1826>
   10bb6:	67e2                	ld	a5,24(sp)
   10bb8:	e86e                	sd	s11,16(sp)
   10bba:	ec02                	sd	zero,24(sp)
   10bbc:	41978bbb          	subw	s7,a5,s9
   10bc0:	0df14783          	lbu	a5,223(sp)
   10bc4:	fffbc993          	not	s3,s7
   10bc8:	43f9d993          	srai	s3,s3,0x3f
   10bcc:	e482                	sd	zero,72(sp)
   10bce:	ec82                	sd	zero,88(sp)
   10bd0:	e882                	sd	zero,80(sp)
   10bd2:	0179f9b3          	and	s3,s3,s7
   10bd6:	4c01                	li	s8,0
   10bd8:	ba0799e3          	bnez	a5,1078a <_vfprintf_r+0x3a0>
   10bdc:	baf1                	j	105b8 <_vfprintf_r+0x1ce>
   10bde:	6742                	ld	a4,16(sp)
   10be0:	0c010fa3          	sb	zero,223(sp)
   10be4:	4985                	li	s3,1
   10be6:	431c                	lw	a5,0(a4)
   10be8:	0721                	addi	a4,a4,8
   10bea:	e83a                	sd	a4,16(sp)
   10bec:	12f10423          	sb	a5,296(sp)
   10bf0:	4b85                	li	s7,1
   10bf2:	12810c93          	addi	s9,sp,296
   10bf6:	ba65                	j	105ae <_vfprintf_r+0x1c4>
   10bf8:	0084e493          	ori	s1,s1,8
   10bfc:	00044e03          	lbu	t3,0(s0)
   10c00:	2481                	sext.w	s1,s1
   10c02:	b281                	j	10542 <_vfprintf_r+0x158>
   10c04:	0104e493          	ori	s1,s1,16
   10c08:	00048d9b          	sext.w	s11,s1
   10c0c:	66c2                	ld	a3,16(sp)
   10c0e:	020df793          	andi	a5,s11,32
   10c12:	00868713          	addi	a4,a3,8
   10c16:	6a078e63          	beqz	a5,112d2 <_vfprintf_r+0xee8>
   10c1a:	0006b983          	ld	s3,0(a3)
   10c1e:	4785                	li	a5,1
   10c20:	e83a                	sd	a4,16(sp)
   10c22:	be41                	j	107b2 <_vfprintf_r+0x3c8>
   10c24:	0204e493          	ori	s1,s1,32
   10c28:	00044e03          	lbu	t3,0(s0)
   10c2c:	2481                	sext.w	s1,s1
   10c2e:	ba11                	j	10542 <_vfprintf_r+0x158>
   10c30:	0804e493          	ori	s1,s1,128
   10c34:	00044e03          	lbu	t3,0(s0)
   10c38:	2481                	sext.w	s1,s1
   10c3a:	b221                	j	10542 <_vfprintf_r+0x158>
   10c3c:	00044d03          	lbu	s10,0(s0)
   10c40:	00140713          	addi	a4,s0,1
   10c44:	00cd1463          	bne	s10,a2,10c4c <_vfprintf_r+0x862>
   10c48:	2f20106f          	j	11f3a <_vfprintf_r+0x1b50>
   10c4c:	fd0d079b          	addiw	a5,s10,-48
   10c50:	843a                	mv	s0,a4
   10c52:	4c01                	li	s8,0
   10c54:	8efdece3          	bltu	s11,a5,1054c <_vfprintf_r+0x162>
   10c58:	00044d03          	lbu	s10,0(s0)
   10c5c:	002c169b          	slliw	a3,s8,0x2
   10c60:	018686bb          	addw	a3,a3,s8
   10c64:	0016969b          	slliw	a3,a3,0x1
   10c68:	00f68c3b          	addw	s8,a3,a5
   10c6c:	fd0d079b          	addiw	a5,s10,-48
   10c70:	0405                	addi	s0,s0,1
   10c72:	fefdf3e3          	bgeu	s11,a5,10c58 <_vfprintf_r+0x86e>
   10c76:	b8d9                	j	1054c <_vfprintf_r+0x162>
   10c78:	00044e03          	lbu	t3,0(s0)
   10c7c:	0044e493          	ori	s1,s1,4
   10c80:	2481                	sext.w	s1,s1
   10c82:	b0c1                	j	10542 <_vfprintf_r+0x158>
   10c84:	02b00793          	li	a5,43
   10c88:	00044e03          	lbu	t3,0(s0)
   10c8c:	0cf10fa3          	sb	a5,223(sp)
   10c90:	b84d                	j	10542 <_vfprintf_r+0x158>
   10c92:	67c2                	ld	a5,16(sp)
   10c94:	00044e03          	lbu	t3,0(s0)
   10c98:	0007aa83          	lw	s5,0(a5)
   10c9c:	07a1                	addi	a5,a5,8
   10c9e:	e83e                	sd	a5,16(sp)
   10ca0:	8a0ad1e3          	bgez	s5,10542 <_vfprintf_r+0x158>
   10ca4:	41500abb          	negw	s5,s5
   10ca8:	bfd1                	j	10c7c <_vfprintf_r+0x892>
   10caa:	8552                	mv	a0,s4
   10cac:	ec1a                	sd	t1,24(sp)
   10cae:	456060ef          	jal	ra,17104 <_localeconv_r>
   10cb2:	651c                	ld	a5,8(a0)
   10cb4:	853e                	mv	a0,a5
   10cb6:	e53e                	sd	a5,136(sp)
   10cb8:	5dc080ef          	jal	ra,19294 <strlen>
   10cbc:	87aa                	mv	a5,a0
   10cbe:	8552                	mv	a0,s4
   10cc0:	8d3e                	mv	s10,a5
   10cc2:	e13e                	sd	a5,128(sp)
   10cc4:	440060ef          	jal	ra,17104 <_localeconv_r>
   10cc8:	691c                	ld	a5,16(a0)
   10cca:	6362                	ld	t1,24(sp)
   10ccc:	00044e03          	lbu	t3,0(s0)
   10cd0:	f0be                	sd	a5,96(sp)
   10cd2:	860d08e3          	beqz	s10,10542 <_vfprintf_r+0x158>
   10cd6:	860786e3          	beqz	a5,10542 <_vfprintf_r+0x158>
   10cda:	0007c783          	lbu	a5,0(a5)
   10cde:	860782e3          	beqz	a5,10542 <_vfprintf_r+0x158>
   10ce2:	4004e493          	ori	s1,s1,1024
   10ce6:	2481                	sext.w	s1,s1
   10ce8:	b8a9                	j	10542 <_vfprintf_r+0x158>
   10cea:	0014e493          	ori	s1,s1,1
   10cee:	00044e03          	lbu	t3,0(s0)
   10cf2:	2481                	sext.w	s1,s1
   10cf4:	b0b9                	j	10542 <_vfprintf_r+0x158>
   10cf6:	0df14783          	lbu	a5,223(sp)
   10cfa:	00044e03          	lbu	t3,0(s0)
   10cfe:	840792e3          	bnez	a5,10542 <_vfprintf_r+0x158>
   10d02:	02000793          	li	a5,32
   10d06:	0cf10fa3          	sb	a5,223(sp)
   10d0a:	839ff06f          	j	10542 <_vfprintf_r+0x158>
   10d0e:	6742                	ld	a4,16(sp)
   10d10:	77e1                	lui	a5,0xffff8
   10d12:	8307c793          	xori	a5,a5,-2000
   10d16:	0ef11023          	sh	a5,224(sp)
   10d1a:	00870793          	addi	a5,a4,8
   10d1e:	e83e                	sd	a5,16(sp)
   10d20:	000237b7          	lui	a5,0x23
   10d24:	b5078793          	addi	a5,a5,-1200 # 22b50 <__clzdi2+0x7e>
   10d28:	0024e493          	ori	s1,s1,2
   10d2c:	f43e                	sd	a5,40(sp)
   10d2e:	00073983          	ld	s3,0(a4)
   10d32:	00048d9b          	sext.w	s11,s1
   10d36:	4789                	li	a5,2
   10d38:	07800d13          	li	s10,120
   10d3c:	bc9d                	j	107b2 <_vfprintf_r+0x3c8>
   10d3e:	66c2                	ld	a3,16(sp)
   10d40:	0204f793          	andi	a5,s1,32
   10d44:	6298                	ld	a4,0(a3)
   10d46:	06a1                	addi	a3,a3,8
   10d48:	e836                	sd	a3,16(sp)
   10d4a:	5a079a63          	bnez	a5,112fe <_vfprintf_r+0xf14>
   10d4e:	0104f793          	andi	a5,s1,16
   10d52:	5a079663          	bnez	a5,112fe <_vfprintf_r+0xf14>
   10d56:	0404f793          	andi	a5,s1,64
   10d5a:	38079ce3          	bnez	a5,118f2 <_vfprintf_r+0x1508>
   10d5e:	2004f493          	andi	s1,s1,512
   10d62:	67a2                	ld	a5,8(sp)
   10d64:	e099                	bnez	s1,10d6a <_vfprintf_r+0x980>
   10d66:	0720106f          	j	11dd8 <_vfprintf_r+0x19ee>
   10d6a:	00f70023          	sb	a5,0(a4)
   10d6e:	8ca2                	mv	s9,s0
   10d70:	b225                	j	10698 <_vfprintf_r+0x2ae>
   10d72:	00044e03          	lbu	t3,0(s0)
   10d76:	06c00793          	li	a5,108
   10d7a:	6efe0a63          	beq	t3,a5,1146e <_vfprintf_r+0x1084>
   10d7e:	0104e493          	ori	s1,s1,16
   10d82:	2481                	sext.w	s1,s1
   10d84:	fbeff06f          	j	10542 <_vfprintf_r+0x158>
   10d88:	00044e03          	lbu	t3,0(s0)
   10d8c:	06800793          	li	a5,104
   10d90:	6cfe0763          	beq	t3,a5,1145e <_vfprintf_r+0x1074>
   10d94:	0404e493          	ori	s1,s1,64
   10d98:	2481                	sext.w	s1,s1
   10d9a:	fa8ff06f          	j	10542 <_vfprintf_r+0x158>
   10d9e:	4705                	li	a4,1
   10da0:	00e79463          	bne	a5,a4,10da8 <_vfprintf_r+0x9be>
   10da4:	7b90006f          	j	11d5c <_vfprintf_r+0x1972>
   10da8:	4709                	li	a4,2
   10daa:	8da6                	mv	s11,s1
   10dac:	d8e79be3          	bne	a5,a4,10b42 <_vfprintf_r+0x758>
   10db0:	18c10b93          	addi	s7,sp,396
   10db4:	8cde                	mv	s9,s7
   10db6:	7722                	ld	a4,40(sp)
   10db8:	00f9f793          	andi	a5,s3,15
   10dbc:	1cfd                	addi	s9,s9,-1
   10dbe:	97ba                	add	a5,a5,a4
   10dc0:	0007c783          	lbu	a5,0(a5)
   10dc4:	0049d993          	srli	s3,s3,0x4
   10dc8:	00fc8023          	sb	a5,0(s9)
   10dcc:	fe0995e3          	bnez	s3,10db6 <_vfprintf_r+0x9cc>
   10dd0:	419b8bbb          	subw	s7,s7,s9
   10dd4:	84ee                	mv	s1,s11
   10dd6:	ba61                	j	1076e <_vfprintf_r+0x384>
   10dd8:	06500713          	li	a4,101
   10ddc:	c3a75ae3          	bge	a4,s10,10a10 <_vfprintf_r+0x626>
   10de0:	6512                	ld	a0,256(sp)
   10de2:	65b2                	ld	a1,264(sp)
   10de4:	4601                	li	a2,0
   10de6:	4681                	li	a3,0
   10de8:	fc3e                	sd	a5,56(sp)
   10dea:	f81a                	sd	t1,48(sp)
   10dec:	101100ef          	jal	ra,216ec <__eqtf2>
   10df0:	7342                	ld	t1,48(sp)
   10df2:	77e2                	ld	a5,56(sp)
   10df4:	32051e63          	bnez	a0,11130 <_vfprintf_r+0xd46>
   10df8:	11812703          	lw	a4,280(sp)
   10dfc:	000236b7          	lui	a3,0x23
   10e00:	b7068693          	addi	a3,a3,-1168 # 22b70 <__clzdi2+0x9e>
   10e04:	2705                	addiw	a4,a4,1
   10e06:	00d33023          	sd	a3,0(t1)
   10e0a:	0785                	addi	a5,a5,1
   10e0c:	4685                	li	a3,1
   10e0e:	00d33423          	sd	a3,8(t1)
   10e12:	10e12c23          	sw	a4,280(sp)
   10e16:	0007069b          	sext.w	a3,a4
   10e1a:	f23e                	sd	a5,288(sp)
   10e1c:	471d                	li	a4,7
   10e1e:	0341                	addi	t1,t1,16
   10e20:	7ad74063          	blt	a4,a3,115c0 <_vfprintf_r+0x11d6>
   10e24:	572e                	lw	a4,232(sp)
   10e26:	7682                	ld	a3,32(sp)
   10e28:	4cd75663          	bge	a4,a3,112f4 <_vfprintf_r+0xf0a>
   10e2c:	7746                	ld	a4,112(sp)
   10e2e:	76a6                	ld	a3,104(sp)
   10e30:	0341                	addi	t1,t1,16
   10e32:	fee33823          	sd	a4,-16(t1)
   10e36:	11812703          	lw	a4,280(sp)
   10e3a:	97b6                	add	a5,a5,a3
   10e3c:	fed33c23          	sd	a3,-8(t1)
   10e40:	2705                	addiw	a4,a4,1
   10e42:	0007069b          	sext.w	a3,a4
   10e46:	10e12c23          	sw	a4,280(sp)
   10e4a:	f23e                	sd	a5,288(sp)
   10e4c:	471d                	li	a4,7
   10e4e:	62d74863          	blt	a4,a3,1147e <_vfprintf_r+0x1094>
   10e52:	7702                	ld	a4,32(sp)
   10e54:	fff70b9b          	addiw	s7,a4,-1
   10e58:	817057e3          	blez	s7,10666 <_vfprintf_r+0x27c>
   10e5c:	000238b7          	lui	a7,0x23
   10e60:	46c1                	li	a3,16
   10e62:	11812703          	lw	a4,280(sp)
   10e66:	cf888d93          	addi	s11,a7,-776 # 22cf8 <zeroes.0>
   10e6a:	4cc1                	li	s9,16
   10e6c:	4c1d                	li	s8,7
   10e6e:	0176c663          	blt	a3,s7,10e7a <_vfprintf_r+0xa90>
   10e72:	a795                	j	115d6 <_vfprintf_r+0x11ec>
   10e74:	3bc1                	addiw	s7,s7,-16
   10e76:	777cd063          	bge	s9,s7,115d6 <_vfprintf_r+0x11ec>
   10e7a:	2705                	addiw	a4,a4,1
   10e7c:	07c1                	addi	a5,a5,16
   10e7e:	01b33023          	sd	s11,0(t1)
   10e82:	01933423          	sd	s9,8(t1)
   10e86:	f23e                	sd	a5,288(sp)
   10e88:	10e12c23          	sw	a4,280(sp)
   10e8c:	0341                	addi	t1,t1,16
   10e8e:	feec53e3          	bge	s8,a4,10e74 <_vfprintf_r+0xa8a>
   10e92:	0a10                	addi	a2,sp,272
   10e94:	85ca                	mv	a1,s2
   10e96:	8552                	mv	a0,s4
   10e98:	1d50b0ef          	jal	ra,1c86c <__sprint_r>
   10e9c:	12051963          	bnez	a0,10fce <_vfprintf_r+0xbe4>
   10ea0:	7792                	ld	a5,288(sp)
   10ea2:	11812703          	lw	a4,280(sp)
   10ea6:	835a                	mv	t1,s6
   10ea8:	b7f1                	j	10e74 <_vfprintf_r+0xa8a>
   10eaa:	413a86bb          	subw	a3,s5,s3
   10eae:	f8d05363          	blez	a3,10634 <_vfprintf_r+0x24a>
   10eb2:	000238b7          	lui	a7,0x23
   10eb6:	4641                	li	a2,16
   10eb8:	11812703          	lw	a4,280(sp)
   10ebc:	cf888d93          	addi	s11,a7,-776 # 22cf8 <zeroes.0>
   10ec0:	4f41                	li	t5,16
   10ec2:	4f9d                	li	t6,7
   10ec4:	00d64663          	blt	a2,a3,10ed0 <_vfprintf_r+0xae6>
   10ec8:	a089                	j	10f0a <_vfprintf_r+0xb20>
   10eca:	36c1                	addiw	a3,a3,-16
   10ecc:	02df5f63          	bge	t5,a3,10f0a <_vfprintf_r+0xb20>
   10ed0:	2705                	addiw	a4,a4,1
   10ed2:	07c1                	addi	a5,a5,16
   10ed4:	01b33023          	sd	s11,0(t1)
   10ed8:	01e33423          	sd	t5,8(t1)
   10edc:	f23e                	sd	a5,288(sp)
   10ede:	10e12c23          	sw	a4,280(sp)
   10ee2:	0341                	addi	t1,t1,16
   10ee4:	feefd3e3          	bge	t6,a4,10eca <_vfprintf_r+0xae0>
   10ee8:	0a10                	addi	a2,sp,272
   10eea:	85ca                	mv	a1,s2
   10eec:	8552                	mv	a0,s4
   10eee:	f836                	sd	a3,48(sp)
   10ef0:	17d0b0ef          	jal	ra,1c86c <__sprint_r>
   10ef4:	ed69                	bnez	a0,10fce <_vfprintf_r+0xbe4>
   10ef6:	76c2                	ld	a3,48(sp)
   10ef8:	4f41                	li	t5,16
   10efa:	7792                	ld	a5,288(sp)
   10efc:	36c1                	addiw	a3,a3,-16
   10efe:	11812703          	lw	a4,280(sp)
   10f02:	835a                	mv	t1,s6
   10f04:	4f9d                	li	t6,7
   10f06:	fcdf45e3          	blt	t5,a3,10ed0 <_vfprintf_r+0xae6>
   10f0a:	2705                	addiw	a4,a4,1
   10f0c:	97b6                	add	a5,a5,a3
   10f0e:	00d33423          	sd	a3,8(t1)
   10f12:	01b33023          	sd	s11,0(t1)
   10f16:	0007069b          	sext.w	a3,a4
   10f1a:	10e12c23          	sw	a4,280(sp)
   10f1e:	f23e                	sd	a5,288(sp)
   10f20:	471d                	li	a4,7
   10f22:	0341                	addi	t1,t1,16
   10f24:	f0d75863          	bge	a4,a3,10634 <_vfprintf_r+0x24a>
   10f28:	0a10                	addi	a2,sp,272
   10f2a:	85ca                	mv	a1,s2
   10f2c:	8552                	mv	a0,s4
   10f2e:	13f0b0ef          	jal	ra,1c86c <__sprint_r>
   10f32:	ed51                	bnez	a0,10fce <_vfprintf_r+0xbe4>
   10f34:	7792                	ld	a5,288(sp)
   10f36:	835a                	mv	t1,s6
   10f38:	efcff06f          	j	10634 <_vfprintf_r+0x24a>
   10f3c:	000238b7          	lui	a7,0x23
   10f40:	4641                	li	a2,16
   10f42:	11812703          	lw	a4,280(sp)
   10f46:	cf888d93          	addi	s11,a7,-776 # 22cf8 <zeroes.0>
   10f4a:	4ec1                	li	t4,16
   10f4c:	4f1d                	li	t5,7
   10f4e:	01864663          	blt	a2,s8,10f5a <_vfprintf_r+0xb70>
   10f52:	a83d                	j	10f90 <_vfprintf_r+0xba6>
   10f54:	3c41                	addiw	s8,s8,-16
   10f56:	038edd63          	bge	t4,s8,10f90 <_vfprintf_r+0xba6>
   10f5a:	2705                	addiw	a4,a4,1
   10f5c:	07c1                	addi	a5,a5,16
   10f5e:	01b33023          	sd	s11,0(t1)
   10f62:	01d33423          	sd	t4,8(t1)
   10f66:	f23e                	sd	a5,288(sp)
   10f68:	10e12c23          	sw	a4,280(sp)
   10f6c:	0341                	addi	t1,t1,16
   10f6e:	feef53e3          	bge	t5,a4,10f54 <_vfprintf_r+0xb6a>
   10f72:	0a10                	addi	a2,sp,272
   10f74:	85ca                	mv	a1,s2
   10f76:	8552                	mv	a0,s4
   10f78:	0f50b0ef          	jal	ra,1c86c <__sprint_r>
   10f7c:	e929                	bnez	a0,10fce <_vfprintf_r+0xbe4>
   10f7e:	4ec1                	li	t4,16
   10f80:	3c41                	addiw	s8,s8,-16
   10f82:	7792                	ld	a5,288(sp)
   10f84:	11812703          	lw	a4,280(sp)
   10f88:	835a                	mv	t1,s6
   10f8a:	4f1d                	li	t5,7
   10f8c:	fd8ec7e3          	blt	t4,s8,10f5a <_vfprintf_r+0xb70>
   10f90:	0017069b          	addiw	a3,a4,1
   10f94:	97e2                	add	a5,a5,s8
   10f96:	01b33023          	sd	s11,0(t1)
   10f9a:	01833423          	sd	s8,8(t1)
   10f9e:	f23e                	sd	a5,288(sp)
   10fa0:	10d12c23          	sw	a3,280(sp)
   10fa4:	471d                	li	a4,7
   10fa6:	0341                	addi	t1,t1,16
   10fa8:	e8d75a63          	bge	a4,a3,1063c <_vfprintf_r+0x252>
   10fac:	0a10                	addi	a2,sp,272
   10fae:	85ca                	mv	a1,s2
   10fb0:	8552                	mv	a0,s4
   10fb2:	0bb0b0ef          	jal	ra,1c86c <__sprint_r>
   10fb6:	ed01                	bnez	a0,10fce <_vfprintf_r+0xbe4>
   10fb8:	7792                	ld	a5,288(sp)
   10fba:	835a                	mv	t1,s6
   10fbc:	e80ff06f          	j	1063c <_vfprintf_r+0x252>
   10fc0:	0a10                	addi	a2,sp,272
   10fc2:	85ca                	mv	a1,s2
   10fc4:	8552                	mv	a0,s4
   10fc6:	0a70b0ef          	jal	ra,1c86c <__sprint_r>
   10fca:	ea050d63          	beqz	a0,10684 <_vfprintf_r+0x29a>
   10fce:	67e2                	ld	a5,24(sp)
   10fd0:	ec078c63          	beqz	a5,106a8 <_vfprintf_r+0x2be>
   10fd4:	85be                	mv	a1,a5
   10fd6:	8552                	mv	a0,s4
   10fd8:	52d030ef          	jal	ra,14d04 <_free_r>
   10fdc:	eccff06f          	j	106a8 <_vfprintf_r+0x2be>
   10fe0:	4705                	li	a4,1
   10fe2:	8da6                	mv	s11,s1
   10fe4:	b4e79ce3          	bne	a5,a4,10b3c <_vfprintf_r+0x752>
   10fe8:	47a5                	li	a5,9
   10fea:	3737e063          	bltu	a5,s3,1134a <_vfprintf_r+0xf60>
   10fee:	0309899b          	addiw	s3,s3,48
   10ff2:	193105a3          	sb	s3,395(sp)
   10ff6:	84ee                	mv	s1,s11
   10ff8:	4b85                	li	s7,1
   10ffa:	18b10c93          	addi	s9,sp,395
   10ffe:	f70ff06f          	j	1076e <_vfprintf_r+0x384>
   11002:	000238b7          	lui	a7,0x23
   11006:	4641                	li	a2,16
   11008:	11812703          	lw	a4,280(sp)
   1100c:	ce888893          	addi	a7,a7,-792 # 22ce8 <blanks.1>
   11010:	4f41                	li	t5,16
   11012:	439d                	li	t2,7
   11014:	00d64663          	blt	a2,a3,11020 <_vfprintf_r+0xc36>
   11018:	a0a9                	j	11062 <_vfprintf_r+0xc78>
   1101a:	36c1                	addiw	a3,a3,-16
   1101c:	04df5363          	bge	t5,a3,11062 <_vfprintf_r+0xc78>
   11020:	2705                	addiw	a4,a4,1
   11022:	07c1                	addi	a5,a5,16
   11024:	01133023          	sd	a7,0(t1)
   11028:	01e33423          	sd	t5,8(t1)
   1102c:	f23e                	sd	a5,288(sp)
   1102e:	10e12c23          	sw	a4,280(sp)
   11032:	0341                	addi	t1,t1,16
   11034:	fee3d3e3          	bge	t2,a4,1101a <_vfprintf_r+0xc30>
   11038:	0a10                	addi	a2,sp,272
   1103a:	85ca                	mv	a1,s2
   1103c:	8552                	mv	a0,s4
   1103e:	e0c6                	sd	a7,64(sp)
   11040:	fc36                	sd	a3,56(sp)
   11042:	f816                	sd	t0,48(sp)
   11044:	0290b0ef          	jal	ra,1c86c <__sprint_r>
   11048:	f159                	bnez	a0,10fce <_vfprintf_r+0xbe4>
   1104a:	76e2                	ld	a3,56(sp)
   1104c:	4f41                	li	t5,16
   1104e:	7792                	ld	a5,288(sp)
   11050:	36c1                	addiw	a3,a3,-16
   11052:	11812703          	lw	a4,280(sp)
   11056:	6886                	ld	a7,64(sp)
   11058:	72c2                	ld	t0,48(sp)
   1105a:	835a                	mv	t1,s6
   1105c:	439d                	li	t2,7
   1105e:	fcdf41e3          	blt	t5,a3,11020 <_vfprintf_r+0xc36>
   11062:	2705                	addiw	a4,a4,1
   11064:	97b6                	add	a5,a5,a3
   11066:	00d33423          	sd	a3,8(t1)
   1106a:	01133023          	sd	a7,0(t1)
   1106e:	0007069b          	sext.w	a3,a4
   11072:	10e12c23          	sw	a4,280(sp)
   11076:	f23e                	sd	a5,288(sp)
   11078:	471d                	li	a4,7
   1107a:	0341                	addi	t1,t1,16
   1107c:	d4d75c63          	bge	a4,a3,105d4 <_vfprintf_r+0x1ea>
   11080:	0a10                	addi	a2,sp,272
   11082:	85ca                	mv	a1,s2
   11084:	8552                	mv	a0,s4
   11086:	f816                	sd	t0,48(sp)
   11088:	7e40b0ef          	jal	ra,1c86c <__sprint_r>
   1108c:	f129                	bnez	a0,10fce <_vfprintf_r+0xbe4>
   1108e:	7792                	ld	a5,288(sp)
   11090:	72c2                	ld	t0,48(sp)
   11092:	835a                	mv	t1,s6
   11094:	d40ff06f          	j	105d4 <_vfprintf_r+0x1ea>
   11098:	0a10                	addi	a2,sp,272
   1109a:	85ca                	mv	a1,s2
   1109c:	8552                	mv	a0,s4
   1109e:	7ce0b0ef          	jal	ra,1c86c <__sprint_r>
   110a2:	f515                	bnez	a0,10fce <_vfprintf_r+0xbe4>
   110a4:	7792                	ld	a5,288(sp)
   110a6:	835a                	mv	t1,s6
   110a8:	d84ff06f          	j	1062c <_vfprintf_r+0x242>
   110ac:	000238b7          	lui	a7,0x23
   110b0:	46c1                	li	a3,16
   110b2:	11812703          	lw	a4,280(sp)
   110b6:	ce888893          	addi	a7,a7,-792 # 22ce8 <blanks.1>
   110ba:	4bc1                	li	s7,16
   110bc:	4c1d                	li	s8,7
   110be:	0096c663          	blt	a3,s1,110ca <_vfprintf_r+0xce0>
   110c2:	a081                	j	11102 <_vfprintf_r+0xd18>
   110c4:	34c1                	addiw	s1,s1,-16
   110c6:	029bde63          	bge	s7,s1,11102 <_vfprintf_r+0xd18>
   110ca:	2705                	addiw	a4,a4,1
   110cc:	07c1                	addi	a5,a5,16
   110ce:	01133023          	sd	a7,0(t1)
   110d2:	01733423          	sd	s7,8(t1)
   110d6:	f23e                	sd	a5,288(sp)
   110d8:	10e12c23          	sw	a4,280(sp)
   110dc:	0341                	addi	t1,t1,16
   110de:	feec53e3          	bge	s8,a4,110c4 <_vfprintf_r+0xcda>
   110e2:	0a10                	addi	a2,sp,272
   110e4:	85ca                	mv	a1,s2
   110e6:	8552                	mv	a0,s4
   110e8:	f846                	sd	a7,48(sp)
   110ea:	7820b0ef          	jal	ra,1c86c <__sprint_r>
   110ee:	ee0510e3          	bnez	a0,10fce <_vfprintf_r+0xbe4>
   110f2:	34c1                	addiw	s1,s1,-16
   110f4:	7792                	ld	a5,288(sp)
   110f6:	11812703          	lw	a4,280(sp)
   110fa:	78c2                	ld	a7,48(sp)
   110fc:	835a                	mv	t1,s6
   110fe:	fc9bc6e3          	blt	s7,s1,110ca <_vfprintf_r+0xce0>
   11102:	0017069b          	addiw	a3,a4,1
   11106:	97a6                	add	a5,a5,s1
   11108:	01133023          	sd	a7,0(t1)
   1110c:	00933423          	sd	s1,8(t1)
   11110:	f23e                	sd	a5,288(sp)
   11112:	10d12c23          	sw	a3,280(sp)
   11116:	471d                	li	a4,7
   11118:	d4d75d63          	bge	a4,a3,10672 <_vfprintf_r+0x288>
   1111c:	0a10                	addi	a2,sp,272
   1111e:	85ca                	mv	a1,s2
   11120:	8552                	mv	a0,s4
   11122:	74a0b0ef          	jal	ra,1c86c <__sprint_r>
   11126:	ea0514e3          	bnez	a0,10fce <_vfprintf_r+0xbe4>
   1112a:	7792                	ld	a5,288(sp)
   1112c:	d46ff06f          	j	10672 <_vfprintf_r+0x288>
   11130:	562e                	lw	a2,232(sp)
   11132:	40c05b63          	blez	a2,11548 <_vfprintf_r+0x115e>
   11136:	6746                	ld	a4,80(sp)
   11138:	7682                	ld	a3,32(sp)
   1113a:	00070b9b          	sext.w	s7,a4
   1113e:	28e6c663          	blt	a3,a4,113ca <_vfprintf_r+0xfe0>
   11142:	03705263          	blez	s7,11166 <_vfprintf_r+0xd7c>
   11146:	11812703          	lw	a4,280(sp)
   1114a:	97de                	add	a5,a5,s7
   1114c:	01933023          	sd	s9,0(t1)
   11150:	0017069b          	addiw	a3,a4,1
   11154:	01733423          	sd	s7,8(t1)
   11158:	f23e                	sd	a5,288(sp)
   1115a:	10d12c23          	sw	a3,280(sp)
   1115e:	471d                	li	a4,7
   11160:	0341                	addi	t1,t1,16
   11162:	74d74f63          	blt	a4,a3,118c0 <_vfprintf_r+0x14d6>
   11166:	fffbc713          	not	a4,s7
   1116a:	977d                	srai	a4,a4,0x3f
   1116c:	00ebfbb3          	and	s7,s7,a4
   11170:	6746                	ld	a4,80(sp)
   11172:	41770bbb          	subw	s7,a4,s7
   11176:	35704163          	bgtz	s7,114b8 <_vfprintf_r+0x10ce>
   1117a:	66c6                	ld	a3,80(sp)
   1117c:	4004f713          	andi	a4,s1,1024
   11180:	00dc8c33          	add	s8,s9,a3
   11184:	5a071b63          	bnez	a4,1173a <_vfprintf_r+0x1350>
   11188:	572e                	lw	a4,232(sp)
   1118a:	7682                	ld	a3,32(sp)
   1118c:	00d74663          	blt	a4,a3,11198 <_vfprintf_r+0xdae>
   11190:	0014f693          	andi	a3,s1,1
   11194:	74068263          	beqz	a3,118d8 <_vfprintf_r+0x14ee>
   11198:	76c6                	ld	a3,112(sp)
   1119a:	7626                	ld	a2,104(sp)
   1119c:	0341                	addi	t1,t1,16
   1119e:	fed33823          	sd	a3,-16(t1)
   111a2:	11812683          	lw	a3,280(sp)
   111a6:	97b2                	add	a5,a5,a2
   111a8:	fec33c23          	sd	a2,-8(t1)
   111ac:	2685                	addiw	a3,a3,1
   111ae:	0006861b          	sext.w	a2,a3
   111b2:	10d12c23          	sw	a3,280(sp)
   111b6:	f23e                	sd	a5,288(sp)
   111b8:	469d                	li	a3,7
   111ba:	1ac6cbe3          	blt	a3,a2,11b70 <_vfprintf_r+0x1786>
   111be:	7682                	ld	a3,32(sp)
   111c0:	40e6863b          	subw	a2,a3,a4
   111c4:	96e6                	add	a3,a3,s9
   111c6:	418686bb          	subw	a3,a3,s8
   111ca:	8732                	mv	a4,a2
   111cc:	00c6d363          	bge	a3,a2,111d2 <_vfprintf_r+0xde8>
   111d0:	8736                	mv	a4,a3
   111d2:	00070b9b          	sext.w	s7,a4
   111d6:	03705263          	blez	s7,111fa <_vfprintf_r+0xe10>
   111da:	11812703          	lw	a4,280(sp)
   111de:	97de                	add	a5,a5,s7
   111e0:	01833023          	sd	s8,0(t1)
   111e4:	0017069b          	addiw	a3,a4,1
   111e8:	01733423          	sd	s7,8(t1)
   111ec:	f23e                	sd	a5,288(sp)
   111ee:	10d12c23          	sw	a3,280(sp)
   111f2:	471d                	li	a4,7
   111f4:	0341                	addi	t1,t1,16
   111f6:	24d740e3          	blt	a4,a3,11c36 <_vfprintf_r+0x184c>
   111fa:	fffbc713          	not	a4,s7
   111fe:	977d                	srai	a4,a4,0x3f
   11200:	00ebfbb3          	and	s7,s7,a4
   11204:	41760bbb          	subw	s7,a2,s7
   11208:	c5705f63          	blez	s7,10666 <_vfprintf_r+0x27c>
   1120c:	000238b7          	lui	a7,0x23
   11210:	46c1                	li	a3,16
   11212:	11812703          	lw	a4,280(sp)
   11216:	cf888d93          	addi	s11,a7,-776 # 22cf8 <zeroes.0>
   1121a:	4cc1                	li	s9,16
   1121c:	4c1d                	li	s8,7
   1121e:	0176c663          	blt	a3,s7,1122a <_vfprintf_r+0xe40>
   11222:	ae55                	j	115d6 <_vfprintf_r+0x11ec>
   11224:	3bc1                	addiw	s7,s7,-16
   11226:	3b7cd863          	bge	s9,s7,115d6 <_vfprintf_r+0x11ec>
   1122a:	2705                	addiw	a4,a4,1
   1122c:	07c1                	addi	a5,a5,16
   1122e:	01b33023          	sd	s11,0(t1)
   11232:	01933423          	sd	s9,8(t1)
   11236:	f23e                	sd	a5,288(sp)
   11238:	10e12c23          	sw	a4,280(sp)
   1123c:	0341                	addi	t1,t1,16
   1123e:	feec53e3          	bge	s8,a4,11224 <_vfprintf_r+0xe3a>
   11242:	0a10                	addi	a2,sp,272
   11244:	85ca                	mv	a1,s2
   11246:	8552                	mv	a0,s4
   11248:	6240b0ef          	jal	ra,1c86c <__sprint_r>
   1124c:	d80511e3          	bnez	a0,10fce <_vfprintf_r+0xbe4>
   11250:	7792                	ld	a5,288(sp)
   11252:	11812703          	lw	a4,280(sp)
   11256:	835a                	mv	t1,s6
   11258:	b7f1                	j	11224 <_vfprintf_r+0xe3a>
   1125a:	0014f513          	andi	a0,s1,1
   1125e:	fc051863          	bnez	a0,10a2e <_vfprintf_r+0x644>
   11262:	00b33423          	sd	a1,8(t1)
   11266:	f262                	sd	s8,288(sp)
   11268:	10e12c23          	sw	a4,280(sp)
   1126c:	469d                	li	a3,7
   1126e:	18e6c263          	blt	a3,a4,113f2 <_vfprintf_r+0x1008>
   11272:	2609                	addiw	a2,a2,2
   11274:	02030313          	addi	t1,t1,32
   11278:	83dff06f          	j	10ab4 <_vfprintf_r+0x6ca>
   1127c:	83a05ce3          	blez	s10,10ab4 <_vfprintf_r+0x6ca>
   11280:	4741                	li	a4,16
   11282:	4ba755e3          	bge	a4,s10,11f2c <_vfprintf_r+0x1b42>
   11286:	000238b7          	lui	a7,0x23
   1128a:	cf888d93          	addi	s11,a7,-776 # 22cf8 <zeroes.0>
   1128e:	4841                	li	a6,16
   11290:	4c9d                	li	s9,7
   11292:	a031                	j	1129e <_vfprintf_r+0xeb4>
   11294:	3d41                	addiw	s10,s10,-16
   11296:	13a85f63          	bge	a6,s10,113d4 <_vfprintf_r+0xfea>
   1129a:	00170e1b          	addiw	t3,a4,1
   1129e:	0c41                	addi	s8,s8,16
   112a0:	01bbb023          	sd	s11,0(s7)
   112a4:	010bb423          	sd	a6,8(s7)
   112a8:	f262                	sd	s8,288(sp)
   112aa:	000e071b          	sext.w	a4,t3
   112ae:	11c12c23          	sw	t3,280(sp)
   112b2:	0bc1                	addi	s7,s7,16
   112b4:	feecd0e3          	bge	s9,a4,11294 <_vfprintf_r+0xeaa>
   112b8:	0a10                	addi	a2,sp,272
   112ba:	85ca                	mv	a1,s2
   112bc:	8552                	mv	a0,s4
   112be:	5ae0b0ef          	jal	ra,1c86c <__sprint_r>
   112c2:	d00516e3          	bnez	a0,10fce <_vfprintf_r+0xbe4>
   112c6:	7c12                	ld	s8,288(sp)
   112c8:	11812703          	lw	a4,280(sp)
   112cc:	8bda                	mv	s7,s6
   112ce:	4841                	li	a6,16
   112d0:	b7d1                	j	11294 <_vfprintf_r+0xeaa>
   112d2:	010df793          	andi	a5,s11,16
   112d6:	eb8d                	bnez	a5,11308 <_vfprintf_r+0xf1e>
   112d8:	66c2                	ld	a3,16(sp)
   112da:	040df793          	andi	a5,s11,64
   112de:	0006a983          	lw	s3,0(a3)
   112e2:	3c078363          	beqz	a5,116a8 <_vfprintf_r+0x12be>
   112e6:	19c2                	slli	s3,s3,0x30
   112e8:	0309d993          	srli	s3,s3,0x30
   112ec:	e83a                	sd	a4,16(sp)
   112ee:	4785                	li	a5,1
   112f0:	cc2ff06f          	j	107b2 <_vfprintf_r+0x3c8>
   112f4:	0014f713          	andi	a4,s1,1
   112f8:	b6070763          	beqz	a4,10666 <_vfprintf_r+0x27c>
   112fc:	be05                	j	10e2c <_vfprintf_r+0xa42>
   112fe:	67a2                	ld	a5,8(sp)
   11300:	8ca2                	mv	s9,s0
   11302:	e31c                	sd	a5,0(a4)
   11304:	b94ff06f          	j	10698 <_vfprintf_r+0x2ae>
   11308:	67c2                	ld	a5,16(sp)
   1130a:	e83a                	sd	a4,16(sp)
   1130c:	0007b983          	ld	s3,0(a5)
   11310:	4785                	li	a5,1
   11312:	ca0ff06f          	j	107b2 <_vfprintf_r+0x3c8>
   11316:	67c2                	ld	a5,16(sp)
   11318:	639c                	ld	a5,0(a5)
   1131a:	89be                	mv	s3,a5
   1131c:	c2cff06f          	j	10748 <_vfprintf_r+0x35e>
   11320:	67c2                	ld	a5,16(sp)
   11322:	0007b983          	ld	s3,0(a5)
   11326:	c80ff06f          	j	107a6 <_vfprintf_r+0x3bc>
   1132a:	67c2                	ld	a5,16(sp)
   1132c:	07bd                	addi	a5,a5,15
   1132e:	9bc1                	andi	a5,a5,-16
   11330:	6398                	ld	a4,0(a5)
   11332:	6794                	ld	a3,8(a5)
   11334:	07c1                	addi	a5,a5,16
   11336:	e83e                	sd	a5,16(sp)
   11338:	e23a                	sd	a4,256(sp)
   1133a:	e636                	sd	a3,264(sp)
   1133c:	ce6ff06f          	j	10822 <_vfprintf_r+0x438>
   11340:	e83a                	sd	a4,16(sp)
   11342:	47a5                	li	a5,9
   11344:	8da6                	mv	s11,s1
   11346:	cb37f4e3          	bgeu	a5,s3,10fee <_vfprintf_r+0xc04>
   1134a:	18c10b93          	addi	s7,sp,396
   1134e:	400df713          	andi	a4,s11,1024
   11352:	f002                	sd	zero,32(sp)
   11354:	865e                	mv	a2,s7
   11356:	44a9                	li	s1,10
   11358:	46a5                	li	a3,9
   1135a:	0ff00893          	li	a7,255
   1135e:	a039                	j	1136c <_vfprintf_r+0xf82>
   11360:	0299d7b3          	divu	a5,s3,s1
   11364:	a736f6e3          	bgeu	a3,s3,10dd0 <_vfprintf_r+0x9e6>
   11368:	89be                	mv	s3,a5
   1136a:	8666                	mv	a2,s9
   1136c:	7582                	ld	a1,32(sp)
   1136e:	fff60c93          	addi	s9,a2,-1
   11372:	2585                	addiw	a1,a1,1
   11374:	f02e                	sd	a1,32(sp)
   11376:	0299f7b3          	remu	a5,s3,s1
   1137a:	0307879b          	addiw	a5,a5,48
   1137e:	fef60fa3          	sb	a5,-1(a2)
   11382:	df79                	beqz	a4,11360 <_vfprintf_r+0xf76>
   11384:	7786                	ld	a5,96(sp)
   11386:	0007c783          	lbu	a5,0(a5)
   1138a:	fcf59be3          	bne	a1,a5,11360 <_vfprintf_r+0xf76>
   1138e:	fd1789e3          	beq	a5,a7,11360 <_vfprintf_r+0xf76>
   11392:	a336ffe3          	bgeu	a3,s3,10dd0 <_vfprintf_r+0x9e6>
   11396:	678a                	ld	a5,128(sp)
   11398:	65aa                	ld	a1,136(sp)
   1139a:	f81a                	sd	t1,48(sp)
   1139c:	40fc8cb3          	sub	s9,s9,a5
   113a0:	863e                	mv	a2,a5
   113a2:	8566                	mv	a0,s9
   113a4:	ec3a                	sd	a4,24(sp)
   113a6:	77f070ef          	jal	ra,19324 <strncpy>
   113aa:	7706                	ld	a4,96(sp)
   113ac:	0299d7b3          	divu	a5,s3,s1
   113b0:	7342                	ld	t1,48(sp)
   113b2:	00174603          	lbu	a2,1(a4)
   113b6:	f002                	sd	zero,32(sp)
   113b8:	46a5                	li	a3,9
   113ba:	00c03633          	snez	a2,a2
   113be:	9732                	add	a4,a4,a2
   113c0:	f0ba                	sd	a4,96(sp)
   113c2:	0ff00893          	li	a7,255
   113c6:	6762                	ld	a4,24(sp)
   113c8:	b745                	j	11368 <_vfprintf_r+0xf7e>
   113ca:	00068b9b          	sext.w	s7,a3
   113ce:	d7704ce3          	bgtz	s7,11146 <_vfprintf_r+0xd5c>
   113d2:	bb51                	j	11166 <_vfprintf_r+0xd7c>
   113d4:	0017061b          	addiw	a2,a4,1
   113d8:	010b8713          	addi	a4,s7,16
   113dc:	9c6a                	add	s8,s8,s10
   113de:	01bbb023          	sd	s11,0(s7)
   113e2:	01abb423          	sd	s10,8(s7)
   113e6:	f262                	sd	s8,288(sp)
   113e8:	10c12c23          	sw	a2,280(sp)
   113ec:	469d                	li	a3,7
   113ee:	4ac6d363          	bge	a3,a2,11894 <_vfprintf_r+0x14aa>
   113f2:	0a10                	addi	a2,sp,272
   113f4:	85ca                	mv	a1,s2
   113f6:	8552                	mv	a0,s4
   113f8:	4740b0ef          	jal	ra,1c86c <__sprint_r>
   113fc:	bc0519e3          	bnez	a0,10fce <_vfprintf_r+0xbe4>
   11400:	11812603          	lw	a2,280(sp)
   11404:	7c12                	ld	s8,288(sp)
   11406:	1a010313          	addi	t1,sp,416
   1140a:	2605                	addiw	a2,a2,1
   1140c:	8bda                	mv	s7,s6
   1140e:	ea6ff06f          	j	10ab4 <_vfprintf_r+0x6ca>
   11412:	8da6                	mv	s11,s1
   11414:	ff8ff06f          	j	10c0c <_vfprintf_r+0x822>
   11418:	000237b7          	lui	a5,0x23
   1141c:	b5078793          	addi	a5,a5,-1200 # 22b50 <__clzdi2+0x7e>
   11420:	f43e                	sd	a5,40(sp)
   11422:	66c2                	ld	a3,16(sp)
   11424:	0204f793          	andi	a5,s1,32
   11428:	00868713          	addi	a4,a3,8
   1142c:	cfe9                	beqz	a5,11506 <_vfprintf_r+0x111c>
   1142e:	0006b983          	ld	s3,0(a3)
   11432:	0014f793          	andi	a5,s1,1
   11436:	cf81                	beqz	a5,1144e <_vfprintf_r+0x1064>
   11438:	00098b63          	beqz	s3,1144e <_vfprintf_r+0x1064>
   1143c:	0024e493          	ori	s1,s1,2
   11440:	03000793          	li	a5,48
   11444:	0ef10023          	sb	a5,224(sp)
   11448:	0fa100a3          	sb	s10,225(sp)
   1144c:	2481                	sext.w	s1,s1
   1144e:	bff4f493          	andi	s1,s1,-1025
   11452:	00048d9b          	sext.w	s11,s1
   11456:	e83a                	sd	a4,16(sp)
   11458:	4789                	li	a5,2
   1145a:	b58ff06f          	j	107b2 <_vfprintf_r+0x3c8>
   1145e:	2004e493          	ori	s1,s1,512
   11462:	00144e03          	lbu	t3,1(s0)
   11466:	2481                	sext.w	s1,s1
   11468:	0405                	addi	s0,s0,1
   1146a:	8d8ff06f          	j	10542 <_vfprintf_r+0x158>
   1146e:	0204e493          	ori	s1,s1,32
   11472:	00144e03          	lbu	t3,1(s0)
   11476:	2481                	sext.w	s1,s1
   11478:	0405                	addi	s0,s0,1
   1147a:	8c8ff06f          	j	10542 <_vfprintf_r+0x158>
   1147e:	0a10                	addi	a2,sp,272
   11480:	85ca                	mv	a1,s2
   11482:	8552                	mv	a0,s4
   11484:	3e80b0ef          	jal	ra,1c86c <__sprint_r>
   11488:	b40513e3          	bnez	a0,10fce <_vfprintf_r+0xbe4>
   1148c:	7792                	ld	a5,288(sp)
   1148e:	835a                	mv	t1,s6
   11490:	b2c9                	j	10e52 <_vfprintf_r+0xa68>
   11492:	000237b7          	lui	a5,0x23
   11496:	b3878793          	addi	a5,a5,-1224 # 22b38 <__clzdi2+0x66>
   1149a:	f43e                	sd	a5,40(sp)
   1149c:	b759                	j	11422 <_vfprintf_r+0x1038>
   1149e:	4799                	li	a5,6
   114a0:	000c0b9b          	sext.w	s7,s8
   114a4:	4387e863          	bltu	a5,s8,118d4 <_vfprintf_r+0x14ea>
   114a8:	00023837          	lui	a6,0x23
   114ac:	89de                	mv	s3,s7
   114ae:	e86e                	sd	s11,16(sp)
   114b0:	b6880c93          	addi	s9,a6,-1176 # 22b68 <__clzdi2+0x96>
   114b4:	8faff06f          	j	105ae <_vfprintf_r+0x1c4>
   114b8:	000238b7          	lui	a7,0x23
   114bc:	46c1                	li	a3,16
   114be:	11812703          	lw	a4,280(sp)
   114c2:	cf888d93          	addi	s11,a7,-776 # 22cf8 <zeroes.0>
   114c6:	4d41                	li	s10,16
   114c8:	4c1d                	li	s8,7
   114ca:	0176c663          	blt	a3,s7,114d6 <_vfprintf_r+0x10ec>
   114ce:	ac35                	j	1170a <_vfprintf_r+0x1320>
   114d0:	3bc1                	addiw	s7,s7,-16
   114d2:	237d5c63          	bge	s10,s7,1170a <_vfprintf_r+0x1320>
   114d6:	2705                	addiw	a4,a4,1
   114d8:	07c1                	addi	a5,a5,16
   114da:	01b33023          	sd	s11,0(t1)
   114de:	01a33423          	sd	s10,8(t1)
   114e2:	f23e                	sd	a5,288(sp)
   114e4:	10e12c23          	sw	a4,280(sp)
   114e8:	0341                	addi	t1,t1,16
   114ea:	feec53e3          	bge	s8,a4,114d0 <_vfprintf_r+0x10e6>
   114ee:	0a10                	addi	a2,sp,272
   114f0:	85ca                	mv	a1,s2
   114f2:	8552                	mv	a0,s4
   114f4:	3780b0ef          	jal	ra,1c86c <__sprint_r>
   114f8:	ac051be3          	bnez	a0,10fce <_vfprintf_r+0xbe4>
   114fc:	7792                	ld	a5,288(sp)
   114fe:	11812703          	lw	a4,280(sp)
   11502:	835a                	mv	t1,s6
   11504:	b7f1                	j	114d0 <_vfprintf_r+0x10e6>
   11506:	0104f793          	andi	a5,s1,16
   1150a:	c3c5                	beqz	a5,115aa <_vfprintf_r+0x11c0>
   1150c:	67c2                	ld	a5,16(sp)
   1150e:	0007b983          	ld	s3,0(a5)
   11512:	b705                	j	11432 <_vfprintf_r+0x1048>
   11514:	0a10                	addi	a2,sp,272
   11516:	85ca                	mv	a1,s2
   11518:	8552                	mv	a0,s4
   1151a:	3520b0ef          	jal	ra,1c86c <__sprint_r>
   1151e:	aa0518e3          	bnez	a0,10fce <_vfprintf_r+0xbe4>
   11522:	7c12                	ld	s8,288(sp)
   11524:	11812703          	lw	a4,280(sp)
   11528:	8bda                	mv	s7,s6
   1152a:	d16ff06f          	j	10a40 <_vfprintf_r+0x656>
   1152e:	0a10                	addi	a2,sp,272
   11530:	85ca                	mv	a1,s2
   11532:	8552                	mv	a0,s4
   11534:	3380b0ef          	jal	ra,1c86c <__sprint_r>
   11538:	a8051be3          	bnez	a0,10fce <_vfprintf_r+0xbe4>
   1153c:	7c12                	ld	s8,288(sp)
   1153e:	11812703          	lw	a4,280(sp)
   11542:	8bda                	mv	s7,s6
   11544:	d20ff06f          	j	10a64 <_vfprintf_r+0x67a>
   11548:	11812703          	lw	a4,280(sp)
   1154c:	000236b7          	lui	a3,0x23
   11550:	b7068693          	addi	a3,a3,-1168 # 22b70 <__clzdi2+0x9e>
   11554:	2705                	addiw	a4,a4,1
   11556:	00d33023          	sd	a3,0(t1)
   1155a:	0785                	addi	a5,a5,1
   1155c:	4685                	li	a3,1
   1155e:	00d33423          	sd	a3,8(t1)
   11562:	10e12c23          	sw	a4,280(sp)
   11566:	0007069b          	sext.w	a3,a4
   1156a:	f23e                	sd	a5,288(sp)
   1156c:	471d                	li	a4,7
   1156e:	0341                	addi	t1,t1,16
   11570:	32d74863          	blt	a4,a3,118a0 <_vfprintf_r+0x14b6>
   11574:	ea55                	bnez	a2,11628 <_vfprintf_r+0x123e>
   11576:	7682                	ld	a3,32(sp)
   11578:	0014f713          	andi	a4,s1,1
   1157c:	8f55                	or	a4,a4,a3
   1157e:	8e070463          	beqz	a4,10666 <_vfprintf_r+0x27c>
   11582:	7746                	ld	a4,112(sp)
   11584:	76a6                	ld	a3,104(sp)
   11586:	00e33023          	sd	a4,0(t1)
   1158a:	11812703          	lw	a4,280(sp)
   1158e:	97b6                	add	a5,a5,a3
   11590:	00d33423          	sd	a3,8(t1)
   11594:	2705                	addiw	a4,a4,1
   11596:	0007069b          	sext.w	a3,a4
   1159a:	10e12c23          	sw	a4,280(sp)
   1159e:	f23e                	sd	a5,288(sp)
   115a0:	471d                	li	a4,7
   115a2:	3ad74063          	blt	a4,a3,11942 <_vfprintf_r+0x1558>
   115a6:	0341                	addi	t1,t1,16
   115a8:	a06d                	j	11652 <_vfprintf_r+0x1268>
   115aa:	66c2                	ld	a3,16(sp)
   115ac:	0404f793          	andi	a5,s1,64
   115b0:	0006a983          	lw	s3,0(a3)
   115b4:	10078e63          	beqz	a5,116d0 <_vfprintf_r+0x12e6>
   115b8:	19c2                	slli	s3,s3,0x30
   115ba:	0309d993          	srli	s3,s3,0x30
   115be:	bd95                	j	11432 <_vfprintf_r+0x1048>
   115c0:	0a10                	addi	a2,sp,272
   115c2:	85ca                	mv	a1,s2
   115c4:	8552                	mv	a0,s4
   115c6:	2a60b0ef          	jal	ra,1c86c <__sprint_r>
   115ca:	a00512e3          	bnez	a0,10fce <_vfprintf_r+0xbe4>
   115ce:	7792                	ld	a5,288(sp)
   115d0:	835a                	mv	t1,s6
   115d2:	853ff06f          	j	10e24 <_vfprintf_r+0xa3a>
   115d6:	0017069b          	addiw	a3,a4,1
   115da:	8736                	mv	a4,a3
   115dc:	97de                	add	a5,a5,s7
   115de:	01b33023          	sd	s11,0(t1)
   115e2:	872ff06f          	j	10654 <_vfprintf_r+0x26a>
   115e6:	6512                	ld	a0,256(sp)
   115e8:	65b2                	ld	a1,264(sp)
   115ea:	4601                	li	a2,0
   115ec:	4681                	li	a3,0
   115ee:	238100ef          	jal	ra,21826 <__letf2>
   115f2:	6362                	ld	t1,24(sp)
   115f4:	56054963          	bltz	a0,11b66 <_vfprintf_r+0x177c>
   115f8:	0df14783          	lbu	a5,223(sp)
   115fc:	04700713          	li	a4,71
   11600:	2ba75b63          	bge	a4,s10,118b6 <_vfprintf_r+0x14cc>
   11604:	00023837          	lui	a6,0x23
   11608:	b2080c93          	addi	s9,a6,-1248 # 22b20 <__clzdi2+0x4e>
   1160c:	f7f4f493          	andi	s1,s1,-129
   11610:	ec02                	sd	zero,24(sp)
   11612:	e482                	sd	zero,72(sp)
   11614:	ec82                	sd	zero,88(sp)
   11616:	e882                	sd	zero,80(sp)
   11618:	2481                	sext.w	s1,s1
   1161a:	498d                	li	s3,3
   1161c:	4b8d                	li	s7,3
   1161e:	4c01                	li	s8,0
   11620:	96079563          	bnez	a5,1078a <_vfprintf_r+0x3a0>
   11624:	f95fe06f          	j	105b8 <_vfprintf_r+0x1ce>
   11628:	7746                	ld	a4,112(sp)
   1162a:	76a6                	ld	a3,104(sp)
   1162c:	0341                	addi	t1,t1,16
   1162e:	fee33823          	sd	a4,-16(t1)
   11632:	11812703          	lw	a4,280(sp)
   11636:	97b6                	add	a5,a5,a3
   11638:	fed33c23          	sd	a3,-8(t1)
   1163c:	2705                	addiw	a4,a4,1
   1163e:	0007069b          	sext.w	a3,a4
   11642:	10e12c23          	sw	a4,280(sp)
   11646:	f23e                	sd	a5,288(sp)
   11648:	471d                	li	a4,7
   1164a:	2ed74c63          	blt	a4,a3,11942 <_vfprintf_r+0x1558>
   1164e:	64064a63          	bltz	a2,11ca2 <_vfprintf_r+0x18b8>
   11652:	7702                	ld	a4,32(sp)
   11654:	0016861b          	addiw	a2,a3,1
   11658:	01933023          	sd	s9,0(t1)
   1165c:	97ba                	add	a5,a5,a4
   1165e:	00e33423          	sd	a4,8(t1)
   11662:	f23e                	sd	a5,288(sp)
   11664:	10c12c23          	sw	a2,280(sp)
   11668:	471d                	li	a4,7
   1166a:	00c74463          	blt	a4,a2,11672 <_vfprintf_r+0x1288>
   1166e:	ff7fe06f          	j	10664 <_vfprintf_r+0x27a>
   11672:	c5eff06f          	j	10ad0 <_vfprintf_r+0x6e6>
   11676:	8566                	mv	a0,s9
   11678:	f81a                	sd	t1,48(sp)
   1167a:	41b070ef          	jal	ra,19294 <strlen>
   1167e:	00050b9b          	sext.w	s7,a0
   11682:	0df14783          	lbu	a5,223(sp)
   11686:	fffbc993          	not	s3,s7
   1168a:	43f9d993          	srai	s3,s3,0x3f
   1168e:	e86e                	sd	s11,16(sp)
   11690:	ec02                	sd	zero,24(sp)
   11692:	e482                	sd	zero,72(sp)
   11694:	ec82                	sd	zero,88(sp)
   11696:	e882                	sd	zero,80(sp)
   11698:	7342                	ld	t1,48(sp)
   1169a:	0179f9b3          	and	s3,s3,s7
   1169e:	4c01                	li	s8,0
   116a0:	8e079563          	bnez	a5,1078a <_vfprintf_r+0x3a0>
   116a4:	f15fe06f          	j	105b8 <_vfprintf_r+0x1ce>
   116a8:	200df793          	andi	a5,s11,512
   116ac:	26078463          	beqz	a5,11914 <_vfprintf_r+0x152a>
   116b0:	0ff9f993          	andi	s3,s3,255
   116b4:	e83a                	sd	a4,16(sp)
   116b6:	4785                	li	a5,1
   116b8:	8faff06f          	j	107b2 <_vfprintf_r+0x3c8>
   116bc:	2004f793          	andi	a5,s1,512
   116c0:	24078463          	beqz	a5,11908 <_vfprintf_r+0x151e>
   116c4:	67c2                	ld	a5,16(sp)
   116c6:	00078983          	lb	s3,0(a5)
   116ca:	87ce                	mv	a5,s3
   116cc:	87cff06f          	j	10748 <_vfprintf_r+0x35e>
   116d0:	2004f793          	andi	a5,s1,512
   116d4:	24078763          	beqz	a5,11922 <_vfprintf_r+0x1538>
   116d8:	0ff9f993          	andi	s3,s3,255
   116dc:	bb99                	j	11432 <_vfprintf_r+0x1048>
   116de:	2004f793          	andi	a5,s1,512
   116e2:	20078e63          	beqz	a5,118fe <_vfprintf_r+0x1514>
   116e6:	0ff9f993          	andi	s3,s3,255
   116ea:	8bcff06f          	j	107a6 <_vfprintf_r+0x3bc>
   116ee:	67b2                	ld	a5,264(sp)
   116f0:	2407c463          	bltz	a5,11938 <_vfprintf_r+0x154e>
   116f4:	0df14783          	lbu	a5,223(sp)
   116f8:	04700713          	li	a4,71
   116fc:	53a75863          	bge	a4,s10,11c2c <_vfprintf_r+0x1842>
   11700:	00023837          	lui	a6,0x23
   11704:	b3080c93          	addi	s9,a6,-1232 # 22b30 <__clzdi2+0x5e>
   11708:	b711                	j	1160c <_vfprintf_r+0x1222>
   1170a:	0017069b          	addiw	a3,a4,1
   1170e:	97de                	add	a5,a5,s7
   11710:	01b33023          	sd	s11,0(t1)
   11714:	01733423          	sd	s7,8(t1)
   11718:	f23e                	sd	a5,288(sp)
   1171a:	10d12c23          	sw	a3,280(sp)
   1171e:	471d                	li	a4,7
   11720:	0341                	addi	t1,t1,16
   11722:	a4d75ce3          	bge	a4,a3,1117a <_vfprintf_r+0xd90>
   11726:	0a10                	addi	a2,sp,272
   11728:	85ca                	mv	a1,s2
   1172a:	8552                	mv	a0,s4
   1172c:	1400b0ef          	jal	ra,1c86c <__sprint_r>
   11730:	88051fe3          	bnez	a0,10fce <_vfprintf_r+0xbe4>
   11734:	7792                	ld	a5,288(sp)
   11736:	835a                	mv	t1,s6
   11738:	b489                	j	1117a <_vfprintf_r+0xd90>
   1173a:	7702                	ld	a4,32(sp)
   1173c:	00023eb7          	lui	t4,0x23
   11740:	4b9d                	li	s7,7
   11742:	9766                	add	a4,a4,s9
   11744:	fc3a                	sd	a4,56(sp)
   11746:	6766                	ld	a4,88(sp)
   11748:	4dc1                	li	s11,16
   1174a:	cf8e8d13          	addi	s10,t4,-776 # 22cf8 <zeroes.0>
   1174e:	cb51                	beqz	a4,117e2 <_vfprintf_r+0x13f8>
   11750:	6726                	ld	a4,72(sp)
   11752:	eb59                	bnez	a4,117e8 <_vfprintf_r+0x13fe>
   11754:	7706                	ld	a4,96(sp)
   11756:	177d                	addi	a4,a4,-1
   11758:	f0ba                	sd	a4,96(sp)
   1175a:	6766                	ld	a4,88(sp)
   1175c:	377d                	addiw	a4,a4,-1
   1175e:	ecba                	sd	a4,88(sp)
   11760:	672a                	ld	a4,136(sp)
   11762:	668a                	ld	a3,128(sp)
   11764:	0341                	addi	t1,t1,16
   11766:	fee33823          	sd	a4,-16(t1)
   1176a:	11812703          	lw	a4,280(sp)
   1176e:	97b6                	add	a5,a5,a3
   11770:	fed33c23          	sd	a3,-8(t1)
   11774:	2705                	addiw	a4,a4,1
   11776:	f23e                	sd	a5,288(sp)
   11778:	0007069b          	sext.w	a3,a4
   1177c:	10e12c23          	sw	a4,280(sp)
   11780:	0cdbcf63          	blt	s7,a3,1185e <_vfprintf_r+0x1474>
   11784:	7706                	ld	a4,96(sp)
   11786:	00074583          	lbu	a1,0(a4)
   1178a:	7762                	ld	a4,56(sp)
   1178c:	0005869b          	sext.w	a3,a1
   11790:	4187063b          	subw	a2,a4,s8
   11794:	0006871b          	sext.w	a4,a3
   11798:	00d65463          	bge	a2,a3,117a0 <_vfprintf_r+0x13b6>
   1179c:	0006071b          	sext.w	a4,a2
   117a0:	02e05663          	blez	a4,117cc <_vfprintf_r+0x13e2>
   117a4:	11812683          	lw	a3,280(sp)
   117a8:	97ba                	add	a5,a5,a4
   117aa:	01833023          	sd	s8,0(t1)
   117ae:	0016861b          	addiw	a2,a3,1
   117b2:	00e33423          	sd	a4,8(t1)
   117b6:	f23e                	sd	a5,288(sp)
   117b8:	10c12c23          	sw	a2,280(sp)
   117bc:	0acbcb63          	blt	s7,a2,11872 <_vfprintf_r+0x1488>
   117c0:	7686                	ld	a3,96(sp)
   117c2:	0341                	addi	t1,t1,16
   117c4:	0006c583          	lbu	a1,0(a3)
   117c8:	0005869b          	sext.w	a3,a1
   117cc:	fff74613          	not	a2,a4
   117d0:	967d                	srai	a2,a2,0x3f
   117d2:	8f71                	and	a4,a4,a2
   117d4:	40e6873b          	subw	a4,a3,a4
   117d8:	00e04c63          	bgtz	a4,117f0 <_vfprintf_r+0x1406>
   117dc:	9c2e                	add	s8,s8,a1
   117de:	6766                	ld	a4,88(sp)
   117e0:	fb25                	bnez	a4,11750 <_vfprintf_r+0x1366>
   117e2:	6726                	ld	a4,72(sp)
   117e4:	2c070f63          	beqz	a4,11ac2 <_vfprintf_r+0x16d8>
   117e8:	6726                	ld	a4,72(sp)
   117ea:	377d                	addiw	a4,a4,-1
   117ec:	e4ba                	sd	a4,72(sp)
   117ee:	bf8d                	j	11760 <_vfprintf_r+0x1376>
   117f0:	11812683          	lw	a3,280(sp)
   117f4:	00edc663          	blt	s11,a4,11800 <_vfprintf_r+0x1416>
   117f8:	a081                	j	11838 <_vfprintf_r+0x144e>
   117fa:	3741                	addiw	a4,a4,-16
   117fc:	02edde63          	bge	s11,a4,11838 <_vfprintf_r+0x144e>
   11800:	2685                	addiw	a3,a3,1
   11802:	07c1                	addi	a5,a5,16
   11804:	01a33023          	sd	s10,0(t1)
   11808:	01b33423          	sd	s11,8(t1)
   1180c:	f23e                	sd	a5,288(sp)
   1180e:	10d12c23          	sw	a3,280(sp)
   11812:	0341                	addi	t1,t1,16
   11814:	fedbd3e3          	bge	s7,a3,117fa <_vfprintf_r+0x1410>
   11818:	0a10                	addi	a2,sp,272
   1181a:	85ca                	mv	a1,s2
   1181c:	8552                	mv	a0,s4
   1181e:	f83a                	sd	a4,48(sp)
   11820:	04c0b0ef          	jal	ra,1c86c <__sprint_r>
   11824:	fa051563          	bnez	a0,10fce <_vfprintf_r+0xbe4>
   11828:	7742                	ld	a4,48(sp)
   1182a:	7792                	ld	a5,288(sp)
   1182c:	11812683          	lw	a3,280(sp)
   11830:	3741                	addiw	a4,a4,-16
   11832:	835a                	mv	t1,s6
   11834:	fcedc6e3          	blt	s11,a4,11800 <_vfprintf_r+0x1416>
   11838:	2685                	addiw	a3,a3,1
   1183a:	97ba                	add	a5,a5,a4
   1183c:	00e33423          	sd	a4,8(t1)
   11840:	01a33023          	sd	s10,0(t1)
   11844:	f23e                	sd	a5,288(sp)
   11846:	0006871b          	sext.w	a4,a3
   1184a:	10d12c23          	sw	a3,280(sp)
   1184e:	2eebce63          	blt	s7,a4,11b4a <_vfprintf_r+0x1760>
   11852:	7706                	ld	a4,96(sp)
   11854:	0341                	addi	t1,t1,16
   11856:	00074583          	lbu	a1,0(a4)
   1185a:	9c2e                	add	s8,s8,a1
   1185c:	b749                	j	117de <_vfprintf_r+0x13f4>
   1185e:	0a10                	addi	a2,sp,272
   11860:	85ca                	mv	a1,s2
   11862:	8552                	mv	a0,s4
   11864:	0080b0ef          	jal	ra,1c86c <__sprint_r>
   11868:	f6051363          	bnez	a0,10fce <_vfprintf_r+0xbe4>
   1186c:	7792                	ld	a5,288(sp)
   1186e:	835a                	mv	t1,s6
   11870:	bf11                	j	11784 <_vfprintf_r+0x139a>
   11872:	0a10                	addi	a2,sp,272
   11874:	85ca                	mv	a1,s2
   11876:	8552                	mv	a0,s4
   11878:	f83a                	sd	a4,48(sp)
   1187a:	7f30a0ef          	jal	ra,1c86c <__sprint_r>
   1187e:	f4051863          	bnez	a0,10fce <_vfprintf_r+0xbe4>
   11882:	7786                	ld	a5,96(sp)
   11884:	7742                	ld	a4,48(sp)
   11886:	835a                	mv	t1,s6
   11888:	0007c583          	lbu	a1,0(a5)
   1188c:	7792                	ld	a5,288(sp)
   1188e:	0005869b          	sext.w	a3,a1
   11892:	bf2d                	j	117cc <_vfprintf_r+0x13e2>
   11894:	2605                	addiw	a2,a2,1
   11896:	01070313          	addi	t1,a4,16
   1189a:	8bba                	mv	s7,a4
   1189c:	a18ff06f          	j	10ab4 <_vfprintf_r+0x6ca>
   118a0:	0a10                	addi	a2,sp,272
   118a2:	85ca                	mv	a1,s2
   118a4:	8552                	mv	a0,s4
   118a6:	7c70a0ef          	jal	ra,1c86c <__sprint_r>
   118aa:	f2051263          	bnez	a0,10fce <_vfprintf_r+0xbe4>
   118ae:	562e                	lw	a2,232(sp)
   118b0:	7792                	ld	a5,288(sp)
   118b2:	835a                	mv	t1,s6
   118b4:	b1c1                	j	11574 <_vfprintf_r+0x118a>
   118b6:	00023837          	lui	a6,0x23
   118ba:	b1880c93          	addi	s9,a6,-1256 # 22b18 <__clzdi2+0x46>
   118be:	b3b9                	j	1160c <_vfprintf_r+0x1222>
   118c0:	0a10                	addi	a2,sp,272
   118c2:	85ca                	mv	a1,s2
   118c4:	8552                	mv	a0,s4
   118c6:	7a70a0ef          	jal	ra,1c86c <__sprint_r>
   118ca:	f0051263          	bnez	a0,10fce <_vfprintf_r+0xbe4>
   118ce:	7792                	ld	a5,288(sp)
   118d0:	835a                	mv	t1,s6
   118d2:	b851                	j	11166 <_vfprintf_r+0xd7c>
   118d4:	4b99                	li	s7,6
   118d6:	bec9                	j	114a8 <_vfprintf_r+0x10be>
   118d8:	7682                	ld	a3,32(sp)
   118da:	00dc8833          	add	a6,s9,a3
   118de:	40e6863b          	subw	a2,a3,a4
   118e2:	41880f3b          	subw	t5,a6,s8
   118e6:	8bb2                	mv	s7,a2
   118e8:	90cf59e3          	bge	t5,a2,111fa <_vfprintf_r+0xe10>
   118ec:	000f0b9b          	sext.w	s7,t5
   118f0:	b229                	j	111fa <_vfprintf_r+0xe10>
   118f2:	67a2                	ld	a5,8(sp)
   118f4:	8ca2                	mv	s9,s0
   118f6:	00f71023          	sh	a5,0(a4)
   118fa:	d9ffe06f          	j	10698 <_vfprintf_r+0x2ae>
   118fe:	1982                	slli	s3,s3,0x20
   11900:	0209d993          	srli	s3,s3,0x20
   11904:	ea3fe06f          	j	107a6 <_vfprintf_r+0x3bc>
   11908:	67c2                	ld	a5,16(sp)
   1190a:	0007a983          	lw	s3,0(a5)
   1190e:	87ce                	mv	a5,s3
   11910:	e39fe06f          	j	10748 <_vfprintf_r+0x35e>
   11914:	1982                	slli	s3,s3,0x20
   11916:	0209d993          	srli	s3,s3,0x20
   1191a:	e83a                	sd	a4,16(sp)
   1191c:	4785                	li	a5,1
   1191e:	e95fe06f          	j	107b2 <_vfprintf_r+0x3c8>
   11922:	1982                	slli	s3,s3,0x20
   11924:	0209d993          	srli	s3,s3,0x20
   11928:	b629                	j	11432 <_vfprintf_r+0x1048>
   1192a:	0a10                	addi	a2,sp,272
   1192c:	85ca                	mv	a1,s2
   1192e:	8552                	mv	a0,s4
   11930:	73d0a0ef          	jal	ra,1c86c <__sprint_r>
   11934:	d75fe06f          	j	106a8 <_vfprintf_r+0x2be>
   11938:	02d00793          	li	a5,45
   1193c:	0cf10fa3          	sb	a5,223(sp)
   11940:	bb65                	j	116f8 <_vfprintf_r+0x130e>
   11942:	0a10                	addi	a2,sp,272
   11944:	85ca                	mv	a1,s2
   11946:	8552                	mv	a0,s4
   11948:	7250a0ef          	jal	ra,1c86c <__sprint_r>
   1194c:	e8051163          	bnez	a0,10fce <_vfprintf_r+0xbe4>
   11950:	562e                	lw	a2,232(sp)
   11952:	7792                	ld	a5,288(sp)
   11954:	11812683          	lw	a3,280(sp)
   11958:	835a                	mv	t1,s6
   1195a:	b9d5                	j	1164e <_vfprintf_r+0x1264>
   1195c:	03000793          	li	a5,48
   11960:	0ef10023          	sb	a5,224(sp)
   11964:	05800713          	li	a4,88
   11968:	0024e793          	ori	a5,s1,2
   1196c:	2781                	sext.w	a5,a5
   1196e:	0ee100a3          	sb	a4,225(sp)
   11972:	fd3e                	sd	a5,184(sp)
   11974:	06300713          	li	a4,99
   11978:	ec02                	sd	zero,24(sp)
   1197a:	12810c93          	addi	s9,sp,296
   1197e:	3d874363          	blt	a4,s8,11d44 <_vfprintf_r+0x195a>
   11982:	6bb2                	ld	s7,264(sp)
   11984:	fdfd7793          	andi	a5,s10,-33
   11988:	1024e493          	ori	s1,s1,258
   1198c:	ecbe                	sd	a5,88(sp)
   1198e:	e582                	sd	zero,200(sp)
   11990:	6d92                	ld	s11,256(sp)
   11992:	2481                	sext.w	s1,s1
   11994:	1a0bc363          	bltz	s7,11b3a <_vfprintf_r+0x1750>
   11998:	06100793          	li	a5,97
   1199c:	46fd0763          	beq	s10,a5,11e0a <_vfprintf_r+0x1a20>
   119a0:	04100793          	li	a5,65
   119a4:	00fd0463          	beq	s10,a5,119ac <_vfprintf_r+0x15c2>
   119a8:	ee1fe06f          	j	10888 <_vfprintf_r+0x49e>
   119ac:	85de                	mv	a1,s7
   119ae:	856e                	mv	a0,s11
   119b0:	fc1a                	sd	t1,56(sp)
   119b2:	6f5100ef          	jal	ra,228a6 <__trunctfdf2>
   119b6:	11a8                	addi	a0,sp,232
   119b8:	574070ef          	jal	ra,18f2c <frexp>
   119bc:	629100ef          	jal	ra,227e4 <__extenddftf2>
   119c0:	66ea                	ld	a3,152(sp)
   119c2:	4601                	li	a2,0
   119c4:	7090f0ef          	jal	ra,218cc <__multf3>
   119c8:	4601                	li	a2,0
   119ca:	4681                	li	a3,0
   119cc:	f82a                	sd	a0,48(sp)
   119ce:	f02e                	sd	a1,32(sp)
   119d0:	51d0f0ef          	jal	ra,216ec <__eqtf2>
   119d4:	7f82                	ld	t6,32(sp)
   119d6:	7f42                	ld	t5,48(sp)
   119d8:	7362                	ld	t1,56(sp)
   119da:	e119                	bnez	a0,119e0 <_vfprintf_r+0x15f6>
   119dc:	4785                	li	a5,1
   119de:	d5be                	sw	a5,232(sp)
   119e0:	00023bb7          	lui	s7,0x23
   119e4:	b38b8793          	addi	a5,s7,-1224 # 22b38 <__clzdi2+0x66>
   119e8:	e4be                	sd	a5,72(sp)
   119ea:	020c1793          	slli	a5,s8,0x20
   119ee:	9381                	srli	a5,a5,0x20
   119f0:	0785                	addi	a5,a5,1
   119f2:	97e6                	add	a5,a5,s9
   119f4:	f53e                	sd	a5,168(sp)
   119f6:	018c87bb          	addw	a5,s9,s8
   119fa:	8de6                	mv	s11,s9
   119fc:	c3be                	sw	a5,196(sp)
   119fe:	a819                	j	11a14 <_vfprintf_r+0x162a>
   11a00:	4601                	li	a2,0
   11a02:	4681                	li	a3,0
   11a04:	e0aa                	sd	a0,64(sp)
   11a06:	4e70f0ef          	jal	ra,216ec <__eqtf2>
   11a0a:	6886                	ld	a7,64(sp)
   11a0c:	7342                	ld	t1,48(sp)
   11a0e:	8fde                	mv	t6,s7
   11a10:	8f46                	mv	t5,a7
   11a12:	cd31                	beqz	a0,11a6e <_vfprintf_r+0x1684>
   11a14:	66ca                	ld	a3,144(sp)
   11a16:	4601                	li	a2,0
   11a18:	857a                	mv	a0,t5
   11a1a:	85fe                	mv	a1,t6
   11a1c:	f81a                	sd	t1,48(sp)
   11a1e:	6af0f0ef          	jal	ra,218cc <__multf3>
   11a22:	8bae                	mv	s7,a1
   11a24:	f02a                	sd	a0,32(sp)
   11a26:	4d7100ef          	jal	ra,226fc <__fixtfsi>
   11a2a:	0005099b          	sext.w	s3,a0
   11a2e:	854e                	mv	a0,s3
   11a30:	55d100ef          	jal	ra,2278c <__floatsitf>
   11a34:	7782                	ld	a5,32(sp)
   11a36:	86ae                	mv	a3,a1
   11a38:	862a                	mv	a2,a0
   11a3a:	85de                	mv	a1,s7
   11a3c:	853e                	mv	a0,a5
   11a3e:	492100ef          	jal	ra,21ed0 <__subtf3>
   11a42:	67a6                	ld	a5,72(sp)
   11a44:	f96e                	sd	s11,176(sp)
   11a46:	0d85                	addi	s11,s11,1
   11a48:	97ce                	add	a5,a5,s3
   11a4a:	0007c683          	lbu	a3,0(a5)
   11a4e:	479e                	lw	a5,196(sp)
   11a50:	fc2a                	sd	a0,56(sp)
   11a52:	fedd8fa3          	sb	a3,-1(s11)
   11a56:	41b787bb          	subw	a5,a5,s11
   11a5a:	e8be                	sd	a5,80(sp)
   11a5c:	77aa                	ld	a5,168(sp)
   11a5e:	f02e                	sd	a1,32(sp)
   11a60:	7342                	ld	t1,48(sp)
   11a62:	88aa                	mv	a7,a0
   11a64:	8bae                	mv	s7,a1
   11a66:	f9b79de3          	bne	a5,s11,11a00 <_vfprintf_r+0x1616>
   11a6a:	57fd                	li	a5,-1
   11a6c:	e8be                	sd	a5,80(sp)
   11a6e:	768a                	ld	a3,160(sp)
   11a70:	4601                	li	a2,0
   11a72:	8546                	mv	a0,a7
   11a74:	85de                	mv	a1,s7
   11a76:	f01a                	sd	t1,32(sp)
   11a78:	f846                	sd	a7,48(sp)
   11a7a:	5070f0ef          	jal	ra,21780 <__getf2>
   11a7e:	7302                	ld	t1,32(sp)
   11a80:	2ea04463          	bgtz	a0,11d68 <_vfprintf_r+0x197e>
   11a84:	78c2                	ld	a7,48(sp)
   11a86:	768a                	ld	a3,160(sp)
   11a88:	4601                	li	a2,0
   11a8a:	8546                	mv	a0,a7
   11a8c:	85de                	mv	a1,s7
   11a8e:	45f0f0ef          	jal	ra,216ec <__eqtf2>
   11a92:	7302                	ld	t1,32(sp)
   11a94:	e509                	bnez	a0,11a9e <_vfprintf_r+0x16b4>
   11a96:	0019f993          	andi	s3,s3,1
   11a9a:	2c099763          	bnez	s3,11d68 <_vfprintf_r+0x197e>
   11a9e:	6746                	ld	a4,80(sp)
   11aa0:	03000693          	li	a3,48
   11aa4:	0017079b          	addiw	a5,a4,1
   11aa8:	97ee                	add	a5,a5,s11
   11aaa:	00074763          	bltz	a4,11ab8 <_vfprintf_r+0x16ce>
   11aae:	0d85                	addi	s11,s11,1
   11ab0:	fedd8fa3          	sb	a3,-1(s11)
   11ab4:	ffb79de3          	bne	a5,s11,11aae <_vfprintf_r+0x16c4>
   11ab8:	419d87bb          	subw	a5,s11,s9
   11abc:	f03e                	sd	a5,32(sp)
   11abe:	e23fe06f          	j	108e0 <_vfprintf_r+0x4f6>
   11ac2:	7702                	ld	a4,32(sp)
   11ac4:	9766                	add	a4,a4,s9
   11ac6:	ed877163          	bgeu	a4,s8,11188 <_vfprintf_r+0xd9e>
   11aca:	8c3a                	mv	s8,a4
   11acc:	ebcff06f          	j	11188 <_vfprintf_r+0xd9e>
   11ad0:	6746                	ld	a4,80(sp)
   11ad2:	57f5                	li	a5,-3
   11ad4:	00f74463          	blt	a4,a5,11adc <_vfprintf_r+0x16f2>
   11ad8:	00ec5863          	bge	s8,a4,11ae8 <_vfprintf_r+0x16fe>
   11adc:	3d79                	addiw	s10,s10,-2
   11ade:	fdfd7793          	andi	a5,s10,-33
   11ae2:	ecbe                	sd	a5,88(sp)
   11ae4:	e1dfe06f          	j	10900 <_vfprintf_r+0x516>
   11ae8:	6746                	ld	a4,80(sp)
   11aea:	7782                	ld	a5,32(sp)
   11aec:	16f74463          	blt	a4,a5,11c54 <_vfprintf_r+0x186a>
   11af0:	77ea                	ld	a5,184(sp)
   11af2:	8bba                	mv	s7,a4
   11af4:	8b85                	andi	a5,a5,1
   11af6:	c781                	beqz	a5,11afe <_vfprintf_r+0x1714>
   11af8:	77a6                	ld	a5,104(sp)
   11afa:	00e78bbb          	addw	s7,a5,a4
   11afe:	77ea                	ld	a5,184(sp)
   11b00:	4007f793          	andi	a5,a5,1024
   11b04:	c781                	beqz	a5,11b0c <_vfprintf_r+0x1722>
   11b06:	67c6                	ld	a5,80(sp)
   11b08:	34f04163          	bgtz	a5,11e4a <_vfprintf_r+0x1a60>
   11b0c:	fffbc993          	not	s3,s7
   11b10:	43f9d993          	srai	s3,s3,0x3f
   11b14:	013bf9b3          	and	s3,s7,s3
   11b18:	2981                	sext.w	s3,s3
   11b1a:	06700d13          	li	s10,103
   11b1e:	e482                	sd	zero,72(sp)
   11b20:	ec82                	sd	zero,88(sp)
   11b22:	ec1fe06f          	j	109e2 <_vfprintf_r+0x5f8>
   11b26:	0df14783          	lbu	a5,223(sp)
   11b2a:	4c01                	li	s8,0
   11b2c:	c399                	beqz	a5,11b32 <_vfprintf_r+0x1748>
   11b2e:	c5dfe06f          	j	1078a <_vfprintf_r+0x3a0>
   11b32:	a87fe06f          	j	105b8 <_vfprintf_r+0x1ce>
   11b36:	ec02                	sd	zero,24(sp)
   11b38:	84be                	mv	s1,a5
   11b3a:	57fd                	li	a5,-1
   11b3c:	17fe                	slli	a5,a5,0x3f
   11b3e:	00fbcbb3          	xor	s7,s7,a5
   11b42:	02d00793          	li	a5,45
   11b46:	e5be                	sd	a5,200(sp)
   11b48:	bd81                	j	11998 <_vfprintf_r+0x15ae>
   11b4a:	0a10                	addi	a2,sp,272
   11b4c:	85ca                	mv	a1,s2
   11b4e:	8552                	mv	a0,s4
   11b50:	51d0a0ef          	jal	ra,1c86c <__sprint_r>
   11b54:	c6051d63          	bnez	a0,10fce <_vfprintf_r+0xbe4>
   11b58:	7786                	ld	a5,96(sp)
   11b5a:	835a                	mv	t1,s6
   11b5c:	0007c583          	lbu	a1,0(a5)
   11b60:	7792                	ld	a5,288(sp)
   11b62:	9c2e                	add	s8,s8,a1
   11b64:	b9ad                	j	117de <_vfprintf_r+0x13f4>
   11b66:	02d00793          	li	a5,45
   11b6a:	0cf10fa3          	sb	a5,223(sp)
   11b6e:	b479                	j	115fc <_vfprintf_r+0x1212>
   11b70:	0a10                	addi	a2,sp,272
   11b72:	85ca                	mv	a1,s2
   11b74:	8552                	mv	a0,s4
   11b76:	4f70a0ef          	jal	ra,1c86c <__sprint_r>
   11b7a:	c4051a63          	bnez	a0,10fce <_vfprintf_r+0xbe4>
   11b7e:	572e                	lw	a4,232(sp)
   11b80:	7792                	ld	a5,288(sp)
   11b82:	835a                	mv	t1,s6
   11b84:	e3aff06f          	j	111be <_vfprintf_r+0xdd4>
   11b88:	11bc                	addi	a5,sp,232
   11b8a:	8762                	mv	a4,s8
   11b8c:	0f810893          	addi	a7,sp,248
   11b90:	0ec10813          	addi	a6,sp,236
   11b94:	468d                	li	a3,3
   11b96:	85ee                	mv	a1,s11
   11b98:	865e                	mv	a2,s7
   11b9a:	8552                	mv	a0,s4
   11b9c:	f01a                	sd	t1,32(sp)
   11b9e:	734040ef          	jal	ra,162d2 <_ldtoa_r>
   11ba2:	00054703          	lbu	a4,0(a0)
   11ba6:	03000793          	li	a5,48
   11baa:	7302                	ld	t1,32(sp)
   11bac:	8caa                	mv	s9,a0
   11bae:	04f70363          	beq	a4,a5,11bf4 <_vfprintf_r+0x180a>
   11bb2:	57ae                	lw	a5,232(sp)
   11bb4:	97e2                	add	a5,a5,s8
   11bb6:	00fc89b3          	add	s3,s9,a5
   11bba:	4681                	li	a3,0
   11bbc:	4601                	li	a2,0
   11bbe:	856e                	mv	a0,s11
   11bc0:	85de                	mv	a1,s7
   11bc2:	f01a                	sd	t1,32(sp)
   11bc4:	3290f0ef          	jal	ra,216ec <__eqtf2>
   11bc8:	7302                	ld	t1,32(sp)
   11bca:	86ce                	mv	a3,s3
   11bcc:	e119                	bnez	a0,11bd2 <_vfprintf_r+0x17e8>
   11bce:	d0dfe06f          	j	108da <_vfprintf_r+0x4f0>
   11bd2:	76ee                	ld	a3,248(sp)
   11bd4:	0136e463          	bltu	a3,s3,11bdc <_vfprintf_r+0x17f2>
   11bd8:	d03fe06f          	j	108da <_vfprintf_r+0x4f0>
   11bdc:	03000713          	li	a4,48
   11be0:	00168793          	addi	a5,a3,1
   11be4:	fdbe                	sd	a5,248(sp)
   11be6:	00e68023          	sb	a4,0(a3)
   11bea:	76ee                	ld	a3,248(sp)
   11bec:	ff36eae3          	bltu	a3,s3,11be0 <_vfprintf_r+0x17f6>
   11bf0:	cebfe06f          	j	108da <_vfprintf_r+0x4f0>
   11bf4:	4601                	li	a2,0
   11bf6:	4681                	li	a3,0
   11bf8:	856e                	mv	a0,s11
   11bfa:	85de                	mv	a1,s7
   11bfc:	f01a                	sd	t1,32(sp)
   11bfe:	2ef0f0ef          	jal	ra,216ec <__eqtf2>
   11c02:	7302                	ld	t1,32(sp)
   11c04:	d55d                	beqz	a0,11bb2 <_vfprintf_r+0x17c8>
   11c06:	4705                	li	a4,1
   11c08:	418707bb          	subw	a5,a4,s8
   11c0c:	d5be                	sw	a5,232(sp)
   11c0e:	b75d                	j	11bb4 <_vfprintf_r+0x17ca>
   11c10:	0df14783          	lbu	a5,223(sp)
   11c14:	e86e                	sd	s11,16(sp)
   11c16:	e482                	sd	zero,72(sp)
   11c18:	ec82                	sd	zero,88(sp)
   11c1a:	e882                	sd	zero,80(sp)
   11c1c:	89e2                	mv	s3,s8
   11c1e:	8be2                	mv	s7,s8
   11c20:	4c01                	li	s8,0
   11c22:	c399                	beqz	a5,11c28 <_vfprintf_r+0x183e>
   11c24:	b67fe06f          	j	1078a <_vfprintf_r+0x3a0>
   11c28:	991fe06f          	j	105b8 <_vfprintf_r+0x1ce>
   11c2c:	00023837          	lui	a6,0x23
   11c30:	b2880c93          	addi	s9,a6,-1240 # 22b28 <__clzdi2+0x56>
   11c34:	bae1                	j	1160c <_vfprintf_r+0x1222>
   11c36:	0a10                	addi	a2,sp,272
   11c38:	85ca                	mv	a1,s2
   11c3a:	8552                	mv	a0,s4
   11c3c:	4310a0ef          	jal	ra,1c86c <__sprint_r>
   11c40:	b8051763          	bnez	a0,10fce <_vfprintf_r+0xbe4>
   11c44:	562e                	lw	a2,232(sp)
   11c46:	7702                	ld	a4,32(sp)
   11c48:	7792                	ld	a5,288(sp)
   11c4a:	835a                	mv	t1,s6
   11c4c:	40c7063b          	subw	a2,a4,a2
   11c50:	daaff06f          	j	111fa <_vfprintf_r+0xe10>
   11c54:	7702                	ld	a4,32(sp)
   11c56:	77a6                	ld	a5,104(sp)
   11c58:	06700d13          	li	s10,103
   11c5c:	00e78bbb          	addw	s7,a5,a4
   11c60:	6746                	ld	a4,80(sp)
   11c62:	26e05863          	blez	a4,11ed2 <_vfprintf_r+0x1ae8>
   11c66:	77ea                	ld	a5,184(sp)
   11c68:	4007f793          	andi	a5,a5,1024
   11c6c:	1e079163          	bnez	a5,11e4e <_vfprintf_r+0x1a64>
   11c70:	fffbc993          	not	s3,s7
   11c74:	43f9d993          	srai	s3,s3,0x3f
   11c78:	013bf9b3          	and	s3,s7,s3
   11c7c:	2981                	sext.w	s3,s3
   11c7e:	b545                	j	11b1e <_vfprintf_r+0x1734>
   11c80:	77ea                	ld	a5,184(sp)
   11c82:	6746                	ld	a4,80(sp)
   11c84:	8b85                	andi	a5,a5,1
   11c86:	00fc67b3          	or	a5,s8,a5
   11c8a:	26e05963          	blez	a4,11efc <_vfprintf_r+0x1b12>
   11c8e:	22079a63          	bnez	a5,11ec2 <_vfprintf_r+0x1ad8>
   11c92:	6bc6                	ld	s7,80(sp)
   11c94:	06600d13          	li	s10,102
   11c98:	b7f9                	j	11c66 <_vfprintf_r+0x187c>
   11c9a:	57fd                	li	a5,-1
   11c9c:	e43e                	sd	a5,8(sp)
   11c9e:	a19fe06f          	j	106b6 <_vfprintf_r+0x2cc>
   11ca2:	000238b7          	lui	a7,0x23
   11ca6:	5741                	li	a4,-16
   11ca8:	40c00c3b          	negw	s8,a2
   11cac:	cf888d93          	addi	s11,a7,-776 # 22cf8 <zeroes.0>
   11cb0:	4bc1                	li	s7,16
   11cb2:	4d1d                	li	s10,7
   11cb4:	00e64663          	blt	a2,a4,11cc0 <_vfprintf_r+0x18d6>
   11cb8:	a825                	j	11cf0 <_vfprintf_r+0x1906>
   11cba:	3c41                	addiw	s8,s8,-16
   11cbc:	038bda63          	bge	s7,s8,11cf0 <_vfprintf_r+0x1906>
   11cc0:	2685                	addiw	a3,a3,1
   11cc2:	07c1                	addi	a5,a5,16
   11cc4:	01b33023          	sd	s11,0(t1)
   11cc8:	01733423          	sd	s7,8(t1)
   11ccc:	f23e                	sd	a5,288(sp)
   11cce:	10d12c23          	sw	a3,280(sp)
   11cd2:	0341                	addi	t1,t1,16
   11cd4:	fedd53e3          	bge	s10,a3,11cba <_vfprintf_r+0x18d0>
   11cd8:	0a10                	addi	a2,sp,272
   11cda:	85ca                	mv	a1,s2
   11cdc:	8552                	mv	a0,s4
   11cde:	38f0a0ef          	jal	ra,1c86c <__sprint_r>
   11ce2:	ae051663          	bnez	a0,10fce <_vfprintf_r+0xbe4>
   11ce6:	7792                	ld	a5,288(sp)
   11ce8:	11812683          	lw	a3,280(sp)
   11cec:	835a                	mv	t1,s6
   11cee:	b7f1                	j	11cba <_vfprintf_r+0x18d0>
   11cf0:	2685                	addiw	a3,a3,1
   11cf2:	97e2                	add	a5,a5,s8
   11cf4:	01b33023          	sd	s11,0(t1)
   11cf8:	01833423          	sd	s8,8(t1)
   11cfc:	f23e                	sd	a5,288(sp)
   11cfe:	10d12c23          	sw	a3,280(sp)
   11d02:	471d                	li	a4,7
   11d04:	8ad751e3          	bge	a4,a3,115a6 <_vfprintf_r+0x11bc>
   11d08:	0a10                	addi	a2,sp,272
   11d0a:	85ca                	mv	a1,s2
   11d0c:	8552                	mv	a0,s4
   11d0e:	35f0a0ef          	jal	ra,1c86c <__sprint_r>
   11d12:	aa051e63          	bnez	a0,10fce <_vfprintf_r+0xbe4>
   11d16:	7792                	ld	a5,288(sp)
   11d18:	11812683          	lw	a3,280(sp)
   11d1c:	835a                	mv	t1,s6
   11d1e:	ba15                	j	11652 <_vfprintf_r+0x1268>
   11d20:	001c099b          	addiw	s3,s8,1
   11d24:	874e                	mv	a4,s3
   11d26:	0f810893          	addi	a7,sp,248
   11d2a:	0ec10813          	addi	a6,sp,236
   11d2e:	11bc                	addi	a5,sp,232
   11d30:	4689                	li	a3,2
   11d32:	85ee                	mv	a1,s11
   11d34:	865e                	mv	a2,s7
   11d36:	8552                	mv	a0,s4
   11d38:	59a040ef          	jal	ra,162d2 <_ldtoa_r>
   11d3c:	8caa                	mv	s9,a0
   11d3e:	7302                	ld	t1,32(sp)
   11d40:	99e6                	add	s3,s3,s9
   11d42:	bda5                	j	11bba <_vfprintf_r+0x17d0>
   11d44:	001c059b          	addiw	a1,s8,1
   11d48:	8552                	mv	a0,s4
   11d4a:	ec1a                	sd	t1,24(sp)
   11d4c:	61a050ef          	jal	ra,17366 <_malloc_r>
   11d50:	6362                	ld	t1,24(sp)
   11d52:	8caa                	mv	s9,a0
   11d54:	20050763          	beqz	a0,11f62 <_vfprintf_r+0x1b78>
   11d58:	ec2a                	sd	a0,24(sp)
   11d5a:	b125                	j	11982 <_vfprintf_r+0x1598>
   11d5c:	8da6                	mv	s11,s1
   11d5e:	a90ff06f          	j	10fee <_vfprintf_r+0xc04>
   11d62:	018c89b3          	add	s3,s9,s8
   11d66:	bd91                	j	11bba <_vfprintf_r+0x17d0>
   11d68:	77ca                	ld	a5,176(sp)
   11d6a:	fdbe                	sd	a5,248(sp)
   11d6c:	67a6                	ld	a5,72(sp)
   11d6e:	fffdc683          	lbu	a3,-1(s11)
   11d72:	00f7c603          	lbu	a2,15(a5)
   11d76:	87ee                	mv	a5,s11
   11d78:	00d61e63          	bne	a2,a3,11d94 <_vfprintf_r+0x19aa>
   11d7c:	03000593          	li	a1,48
   11d80:	feb78fa3          	sb	a1,-1(a5)
   11d84:	77ee                	ld	a5,248(sp)
   11d86:	fff78693          	addi	a3,a5,-1
   11d8a:	fdb6                	sd	a3,248(sp)
   11d8c:	fff7c683          	lbu	a3,-1(a5)
   11d90:	fed608e3          	beq	a2,a3,11d80 <_vfprintf_r+0x1996>
   11d94:	0016861b          	addiw	a2,a3,1
   11d98:	03900593          	li	a1,57
   11d9c:	0ff67613          	andi	a2,a2,255
   11da0:	00b68563          	beq	a3,a1,11daa <_vfprintf_r+0x19c0>
   11da4:	fec78fa3          	sb	a2,-1(a5)
   11da8:	bb01                	j	11ab8 <_vfprintf_r+0x16ce>
   11daa:	6726                	ld	a4,72(sp)
   11dac:	00a74603          	lbu	a2,10(a4)
   11db0:	fec78fa3          	sb	a2,-1(a5)
   11db4:	b311                	j	11ab8 <_vfprintf_r+0x16ce>
   11db6:	03000793          	li	a5,48
   11dba:	0ef10023          	sb	a5,224(sp)
   11dbe:	07800713          	li	a4,120
   11dc2:	b65d                	j	11968 <_vfprintf_r+0x157e>
   11dc4:	000c0463          	beqz	s8,11dcc <_vfprintf_r+0x19e2>
   11dc8:	aa7fe06f          	j	1086e <_vfprintf_r+0x484>
   11dcc:	4c05                	li	s8,1
   11dce:	aa1fe06f          	j	1086e <_vfprintf_r+0x484>
   11dd2:	4c19                	li	s8,6
   11dd4:	a9bfe06f          	j	1086e <_vfprintf_r+0x484>
   11dd8:	c31c                	sw	a5,0(a4)
   11dda:	8ca2                	mv	s9,s0
   11ddc:	8bdfe06f          	j	10698 <_vfprintf_r+0x2ae>
   11de0:	0f210713          	addi	a4,sp,242
   11de4:	e699                	bnez	a3,11df2 <_vfprintf_r+0x1a08>
   11de6:	03000713          	li	a4,48
   11dea:	0ee10923          	sb	a4,242(sp)
   11dee:	0f310713          	addi	a4,sp,243
   11df2:	0c14                	addi	a3,sp,528
   11df4:	0307879b          	addiw	a5,a5,48
   11df8:	40d706b3          	sub	a3,a4,a3
   11dfc:	00f70023          	sb	a5,0(a4)
   11e00:	1216879b          	addiw	a5,a3,289
   11e04:	fcbe                	sd	a5,120(sp)
   11e06:	ba3fe06f          	j	109a8 <_vfprintf_r+0x5be>
   11e0a:	85de                	mv	a1,s7
   11e0c:	856e                	mv	a0,s11
   11e0e:	fc1a                	sd	t1,56(sp)
   11e10:	297100ef          	jal	ra,228a6 <__trunctfdf2>
   11e14:	11a8                	addi	a0,sp,232
   11e16:	116070ef          	jal	ra,18f2c <frexp>
   11e1a:	1cb100ef          	jal	ra,227e4 <__extenddftf2>
   11e1e:	66ea                	ld	a3,152(sp)
   11e20:	4601                	li	a2,0
   11e22:	2ab0f0ef          	jal	ra,218cc <__multf3>
   11e26:	4601                	li	a2,0
   11e28:	4681                	li	a3,0
   11e2a:	f82a                	sd	a0,48(sp)
   11e2c:	f02e                	sd	a1,32(sp)
   11e2e:	0bf0f0ef          	jal	ra,216ec <__eqtf2>
   11e32:	7f82                	ld	t6,32(sp)
   11e34:	7f42                	ld	t5,48(sp)
   11e36:	7362                	ld	t1,56(sp)
   11e38:	e119                	bnez	a0,11e3e <_vfprintf_r+0x1a54>
   11e3a:	4785                	li	a5,1
   11e3c:	d5be                	sw	a5,232(sp)
   11e3e:	00023bb7          	lui	s7,0x23
   11e42:	b50b8793          	addi	a5,s7,-1200 # 22b50 <__clzdi2+0x7e>
   11e46:	e4be                	sd	a5,72(sp)
   11e48:	b64d                	j	119ea <_vfprintf_r+0x1600>
   11e4a:	06700d13          	li	s10,103
   11e4e:	7786                	ld	a5,96(sp)
   11e50:	0ff00713          	li	a4,255
   11e54:	e482                	sd	zero,72(sp)
   11e56:	0007c783          	lbu	a5,0(a5)
   11e5a:	ec82                	sd	zero,88(sp)
   11e5c:	02e78863          	beq	a5,a4,11e8c <_vfprintf_r+0x1aa2>
   11e60:	0ff00693          	li	a3,255
   11e64:	6646                	ld	a2,80(sp)
   11e66:	0007871b          	sext.w	a4,a5
   11e6a:	02c7d163          	bge	a5,a2,11e8c <_vfprintf_r+0x1aa2>
   11e6e:	7586                	ld	a1,96(sp)
   11e70:	40e6073b          	subw	a4,a2,a4
   11e74:	e8ba                	sd	a4,80(sp)
   11e76:	0015c783          	lbu	a5,1(a1)
   11e7a:	cf8d                	beqz	a5,11eb4 <_vfprintf_r+0x1aca>
   11e7c:	6766                	ld	a4,88(sp)
   11e7e:	2705                	addiw	a4,a4,1
   11e80:	ecba                	sd	a4,88(sp)
   11e82:	00158713          	addi	a4,a1,1
   11e86:	f0ba                	sd	a4,96(sp)
   11e88:	fcd79ee3          	bne	a5,a3,11e64 <_vfprintf_r+0x1a7a>
   11e8c:	6726                	ld	a4,72(sp)
   11e8e:	67e6                	ld	a5,88(sp)
   11e90:	9fb9                	addw	a5,a5,a4
   11e92:	670a                	ld	a4,128(sp)
   11e94:	02e787bb          	mulw	a5,a5,a4
   11e98:	017787bb          	addw	a5,a5,s7
   11e9c:	00078b9b          	sext.w	s7,a5
   11ea0:	fffbc993          	not	s3,s7
   11ea4:	43f9d993          	srai	s3,s3,0x3f
   11ea8:	0137f7b3          	and	a5,a5,s3
   11eac:	0007899b          	sext.w	s3,a5
   11eb0:	b33fe06f          	j	109e2 <_vfprintf_r+0x5f8>
   11eb4:	6726                	ld	a4,72(sp)
   11eb6:	7786                	ld	a5,96(sp)
   11eb8:	2705                	addiw	a4,a4,1
   11eba:	0007c783          	lbu	a5,0(a5)
   11ebe:	e4ba                	sd	a4,72(sp)
   11ec0:	b7e1                	j	11e88 <_vfprintf_r+0x1a9e>
   11ec2:	77a6                	ld	a5,104(sp)
   11ec4:	06600d13          	li	s10,102
   11ec8:	00e78bbb          	addw	s7,a5,a4
   11ecc:	018b8bbb          	addw	s7,s7,s8
   11ed0:	bb59                	j	11c66 <_vfprintf_r+0x187c>
   11ed2:	40eb87bb          	subw	a5,s7,a4
   11ed6:	2785                	addiw	a5,a5,1
   11ed8:	00078b9b          	sext.w	s7,a5
   11edc:	fffbc993          	not	s3,s7
   11ee0:	43f9d993          	srai	s3,s3,0x3f
   11ee4:	0137f7b3          	and	a5,a5,s3
   11ee8:	0007899b          	sext.w	s3,a5
   11eec:	b90d                	j	11b1e <_vfprintf_r+0x1734>
   11eee:	776a                	ld	a4,184(sp)
   11ef0:	8b05                	andi	a4,a4,1
   11ef2:	e319                	bnez	a4,11ef8 <_vfprintf_r+0x1b0e>
   11ef4:	acffe06f          	j	109c2 <_vfprintf_r+0x5d8>
   11ef8:	ac5fe06f          	j	109bc <_vfprintf_r+0x5d2>
   11efc:	e791                	bnez	a5,11f08 <_vfprintf_r+0x1b1e>
   11efe:	4985                	li	s3,1
   11f00:	06600d13          	li	s10,102
   11f04:	4b85                	li	s7,1
   11f06:	b921                	j	11b1e <_vfprintf_r+0x1734>
   11f08:	77a6                	ld	a5,104(sp)
   11f0a:	06600d13          	li	s10,102
   11f0e:	0017869b          	addiw	a3,a5,1
   11f12:	018686bb          	addw	a3,a3,s8
   11f16:	00068b9b          	sext.w	s7,a3
   11f1a:	fffbc993          	not	s3,s7
   11f1e:	43f9d993          	srai	s3,s3,0x3f
   11f22:	0136f6b3          	and	a3,a3,s3
   11f26:	0006899b          	sext.w	s3,a3
   11f2a:	bed5                	j	11b1e <_vfprintf_r+0x1734>
   11f2c:	000238b7          	lui	a7,0x23
   11f30:	871a                	mv	a4,t1
   11f32:	cf888d93          	addi	s11,a7,-776 # 22cf8 <zeroes.0>
   11f36:	ca6ff06f          	j	113dc <_vfprintf_r+0xff2>
   11f3a:	66c2                	ld	a3,16(sp)
   11f3c:	429c                	lw	a5,0(a3)
   11f3e:	00868613          	addi	a2,a3,8
   11f42:	86be                	mv	a3,a5
   11f44:	0007d363          	bgez	a5,11f4a <_vfprintf_r+0x1b60>
   11f48:	56fd                	li	a3,-1
   11f4a:	00144e03          	lbu	t3,1(s0)
   11f4e:	00068c1b          	sext.w	s8,a3
   11f52:	e832                	sd	a2,16(sp)
   11f54:	843a                	mv	s0,a4
   11f56:	decfe06f          	j	10542 <_vfprintf_r+0x158>
   11f5a:	4789                	li	a5,2
   11f5c:	fcbe                	sd	a5,120(sp)
   11f5e:	a4bfe06f          	j	109a8 <_vfprintf_r+0x5be>
   11f62:	01095783          	lhu	a5,16(s2)
   11f66:	0407e793          	ori	a5,a5,64
   11f6a:	00f91823          	sh	a5,16(s2)
   11f6e:	f3afe06f          	j	106a8 <_vfprintf_r+0x2be>
   11f72:	89e2                	mv	s3,s8
   11f74:	99e6                	add	s3,s3,s9
   11f76:	b191                	j	11bba <_vfprintf_r+0x17d0>

0000000000011f78 <vfprintf>:
   11f78:	87aa                	mv	a5,a0
   11f7a:	7501b503          	ld	a0,1872(gp) # 26388 <_impure_ptr>
   11f7e:	86b2                	mv	a3,a2
   11f80:	862e                	mv	a2,a1
   11f82:	85be                	mv	a1,a5
   11f84:	c66fe06f          	j	103ea <_vfprintf_r>

0000000000011f88 <__sbprintf>:
   11f88:	0105d783          	lhu	a5,16(a1)
   11f8c:	0ac5ae03          	lw	t3,172(a1)
   11f90:	0125d303          	lhu	t1,18(a1)
   11f94:	0305b883          	ld	a7,48(a1)
   11f98:	0405b803          	ld	a6,64(a1)
   11f9c:	b3010113          	addi	sp,sp,-1232
   11fa0:	9bf5                	andi	a5,a5,-3
   11fa2:	40000713          	li	a4,1024
   11fa6:	4c813023          	sd	s0,1216(sp)
   11faa:	00f11823          	sh	a5,16(sp)
   11fae:	842e                	mv	s0,a1
   11fb0:	191c                	addi	a5,sp,176
   11fb2:	858a                	mv	a1,sp
   11fb4:	4a913c23          	sd	s1,1208(sp)
   11fb8:	4b213823          	sd	s2,1200(sp)
   11fbc:	4c113423          	sd	ra,1224(sp)
   11fc0:	892a                	mv	s2,a0
   11fc2:	d772                	sw	t3,172(sp)
   11fc4:	00611923          	sh	t1,18(sp)
   11fc8:	f846                	sd	a7,48(sp)
   11fca:	e0c2                	sd	a6,64(sp)
   11fcc:	e03e                	sd	a5,0(sp)
   11fce:	ec3e                	sd	a5,24(sp)
   11fd0:	c63a                	sw	a4,12(sp)
   11fd2:	d03a                	sw	a4,32(sp)
   11fd4:	d402                	sw	zero,40(sp)
   11fd6:	c14fe0ef          	jal	ra,103ea <_vfprintf_r>
   11fda:	84aa                	mv	s1,a0
   11fdc:	02055963          	bgez	a0,1200e <__sbprintf+0x86>
   11fe0:	01015783          	lhu	a5,16(sp)
   11fe4:	0407f793          	andi	a5,a5,64
   11fe8:	c799                	beqz	a5,11ff6 <__sbprintf+0x6e>
   11fea:	01045783          	lhu	a5,16(s0)
   11fee:	0407e793          	ori	a5,a5,64
   11ff2:	00f41823          	sh	a5,16(s0)
   11ff6:	4c813083          	ld	ra,1224(sp)
   11ffa:	4c013403          	ld	s0,1216(sp)
   11ffe:	4b013903          	ld	s2,1200(sp)
   12002:	8526                	mv	a0,s1
   12004:	4b813483          	ld	s1,1208(sp)
   12008:	4d010113          	addi	sp,sp,1232
   1200c:	8082                	ret
   1200e:	858a                	mv	a1,sp
   12010:	854a                	mv	a0,s2
   12012:	738020ef          	jal	ra,1474a <_fflush_r>
   12016:	d569                	beqz	a0,11fe0 <__sbprintf+0x58>
   12018:	54fd                	li	s1,-1
   1201a:	b7d9                	j	11fe0 <__sbprintf+0x58>

000000000001201c <__svfscanf_r>:
   1201c:	a8010113          	addi	sp,sp,-1408
   12020:	56813823          	sd	s0,1392(sp)
   12024:	55313c23          	sd	s3,1368(sp)
   12028:	53a13023          	sd	s10,1312(sp)
   1202c:	56113c23          	sd	ra,1400(sp)
   12030:	56913423          	sd	s1,1384(sp)
   12034:	57213023          	sd	s2,1376(sp)
   12038:	55413823          	sd	s4,1360(sp)
   1203c:	55513423          	sd	s5,1352(sp)
   12040:	55613023          	sd	s6,1344(sp)
   12044:	53713c23          	sd	s7,1336(sp)
   12048:	53813823          	sd	s8,1328(sp)
   1204c:	53913423          	sd	s9,1320(sp)
   12050:	51b13c23          	sd	s11,1304(sp)
   12054:	58010413          	addi	s0,sp,1408
   12058:	01059703          	lh	a4,16(a1)
   1205c:	77fd                	lui	a5,0xfffff
   1205e:	ae078793          	addi	a5,a5,-1312 # ffffffffffffeae0 <__BSS_END__+0xfffffffffffd86a8>
   12062:	97a2                	add	a5,a5,s0
   12064:	737d                	lui	t1,0xfffff
   12066:	e394                	sd	a3,0(a5)
   12068:	03271793          	slli	a5,a4,0x32
   1206c:	911a                	add	sp,sp,t1
   1206e:	8d2e                	mv	s10,a1
   12070:	89aa                	mv	s3,a0
   12072:	0007cd63          	bltz	a5,1208c <__svfscanf_r+0x70>
   12076:	0ac5a683          	lw	a3,172(a1)
   1207a:	6589                	lui	a1,0x2
   1207c:	8f4d                	or	a4,a4,a1
   1207e:	75f9                	lui	a1,0xffffe
   12080:	15fd                	addi	a1,a1,-1
   12082:	8eed                	and	a3,a3,a1
   12084:	00ed1823          	sh	a4,16(s10)
   12088:	0add2623          	sw	a3,172(s10)
   1208c:	00064703          	lbu	a4,0(a2)
   12090:	76fd                	lui	a3,0xfffff
   12092:	f9040793          	addi	a5,s0,-112
   12096:	96be                	add	a3,a3,a5
   12098:	b6e6ae23          	sw	a4,-1156(a3) # ffffffffffffeb7c <__BSS_END__+0xfffffffffffd8744>
   1209c:	00160493          	addi	s1,a2,1
   120a0:	e319                	bnez	a4,120a6 <__svfscanf_r+0x8a>
   120a2:	7610106f          	j	14002 <__svfscanf_r+0x1fe6>
   120a6:	76fd                	lui	a3,0xfffff
   120a8:	c9068693          	addi	a3,a3,-880 # ffffffffffffec90 <__BSS_END__+0xfffffffffffd8858>
   120ac:	00d78b33          	add	s6,a5,a3
   120b0:	77fd                	lui	a5,0xfffff
   120b2:	ac078793          	addi	a5,a5,-1344 # ffffffffffffeac0 <__BSS_END__+0xfffffffffffd8688>
   120b6:	97a2                	add	a5,a5,s0
   120b8:	0007b023          	sd	zero,0(a5)
   120bc:	77fd                	lui	a5,0xfffff
   120be:	af078793          	addi	a5,a5,-1296 # ffffffffffffeaf0 <__BSS_END__+0xfffffffffffd86b8>
   120c2:	97a2                	add	a5,a5,s0
   120c4:	0007b023          	sd	zero,0(a5)
   120c8:	77fd                	lui	a5,0xfffff
   120ca:	ad878793          	addi	a5,a5,-1320 # ffffffffffffead8 <__BSS_END__+0xfffffffffffd86a0>
   120ce:	97a2                	add	a5,a5,s0
   120d0:	0007b023          	sd	zero,0(a5)
   120d4:	77fd                	lui	a5,0xfffff
   120d6:	ae878793          	addi	a5,a5,-1304 # ffffffffffffeae8 <__BSS_END__+0xfffffffffffd86b0>
   120da:	76fd                	lui	a3,0xfffff
   120dc:	97a2                	add	a5,a5,s0
   120de:	00023ab7          	lui	s5,0x23
   120e2:	af868693          	addi	a3,a3,-1288 # ffffffffffffeaf8 <__BSS_END__+0xfffffffffffd86c0>
   120e6:	96a2                	add	a3,a3,s0
   120e8:	0007b023          	sd	zero,0(a5)
   120ec:	140a8793          	addi	a5,s5,320 # 23140 <_ctype_>
   120f0:	e29c                	sd	a5,0(a3)
   120f2:	76fd                	lui	a3,0xfffff
   120f4:	aa868693          	addi	a3,a3,-1368 # ffffffffffffeaa8 <__BSS_END__+0xfffffffffffd8670>
   120f8:	fffb0793          	addi	a5,s6,-1
   120fc:	96a2                	add	a3,a3,s0
   120fe:	7a7d                	lui	s4,0xfffff
   12100:	4901                	li	s2,0
   12102:	4c01                	li	s8,0
   12104:	e29c                	sd	a5,0(a3)
   12106:	77fd                	lui	a5,0xfffff
   12108:	af878793          	addi	a5,a5,-1288 # ffffffffffffeaf8 <__BSS_END__+0xfffffffffffd86c0>
   1210c:	97a2                	add	a5,a5,s0
   1210e:	639c                	ld	a5,0(a5)
   12110:	00e786b3          	add	a3,a5,a4
   12114:	0016c683          	lbu	a3,1(a3)
   12118:	0086fc93          	andi	s9,a3,8
   1211c:	0c0c9863          	bnez	s9,121ec <__svfscanf_r+0x1d0>
   12120:	02500613          	li	a2,37
   12124:	02c71d63          	bne	a4,a2,1215e <__svfscanf_r+0x142>
   12128:	0004c503          	lbu	a0,0(s1)
   1212c:	00023637          	lui	a2,0x23
   12130:	4301                	li	t1,0
   12132:	4a81                	li	s5,0
   12134:	05500e13          	li	t3,85
   12138:	d4860613          	addi	a2,a2,-696 # 22d48 <zeroes.0+0x50>
   1213c:	06800f13          	li	t5,104
   12140:	06c00e93          	li	t4,108
   12144:	fdb5071b          	addiw	a4,a0,-37
   12148:	0ff77713          	andi	a4,a4,255
   1214c:	00148593          	addi	a1,s1,1
   12150:	10ee6c63          	bltu	t3,a4,12268 <__svfscanf_r+0x24c>
   12154:	070a                	slli	a4,a4,0x2
   12156:	9732                	add	a4,a4,a2
   12158:	4318                	lw	a4,0(a4)
   1215a:	8702                	jr	a4
   1215c:	84ae                	mv	s1,a1
   1215e:	008d2703          	lw	a4,8(s10)
   12162:	14e05263          	blez	a4,122a6 <__svfscanf_r+0x28a>
   12166:	000d3703          	ld	a4,0(s10)
   1216a:	fff4c683          	lbu	a3,-1(s1)
   1216e:	00074603          	lbu	a2,0(a4)
   12172:	10d60463          	beq	a2,a3,1227a <__svfscanf_r+0x25e>
   12176:	77fd                	lui	a5,0xfffff
   12178:	af078793          	addi	a5,a5,-1296 # ffffffffffffeaf0 <__BSS_END__+0xfffffffffffd86b8>
   1217c:	97a2                	add	a5,a5,s0
   1217e:	639c                	ld	a5,0(a5)
   12180:	cf89                	beqz	a5,1219a <__svfscanf_r+0x17e>
   12182:	77fd                	lui	a5,0xfffff
   12184:	af078793          	addi	a5,a5,-1296 # ffffffffffffeaf0 <__BSS_END__+0xfffffffffffd86b8>
   12188:	97a2                	add	a5,a5,s0
   1218a:	639c                	ld	a5,0(a5)
   1218c:	0007bc83          	ld	s9,0(a5)
   12190:	000c8563          	beqz	s9,1219a <__svfscanf_r+0x17e>
   12194:	8566                	mv	a0,s9
   12196:	1c6050ef          	jal	ra,1735c <free>
   1219a:	77fd                	lui	a5,0xfffff
   1219c:	ae878793          	addi	a5,a5,-1304 # ffffffffffffeae8 <__BSS_END__+0xfffffffffffd86b0>
   121a0:	737d                	lui	t1,0xfffff
   121a2:	97a2                	add	a5,a5,s0
   121a4:	a8030313          	addi	t1,t1,-1408 # ffffffffffffea80 <__BSS_END__+0xfffffffffffd8648>
   121a8:	6388                	ld	a0,0(a5)
   121aa:	00640133          	add	sp,s0,t1
   121ae:	6305                	lui	t1,0x1
   121b0:	911a                	add	sp,sp,t1
   121b2:	57813083          	ld	ra,1400(sp)
   121b6:	57013403          	ld	s0,1392(sp)
   121ba:	56813483          	ld	s1,1384(sp)
   121be:	56013903          	ld	s2,1376(sp)
   121c2:	55813983          	ld	s3,1368(sp)
   121c6:	55013a03          	ld	s4,1360(sp)
   121ca:	54813a83          	ld	s5,1352(sp)
   121ce:	54013b03          	ld	s6,1344(sp)
   121d2:	53813b83          	ld	s7,1336(sp)
   121d6:	53013c03          	ld	s8,1328(sp)
   121da:	52813c83          	ld	s9,1320(sp)
   121de:	52013d03          	ld	s10,1312(sp)
   121e2:	51813d83          	ld	s11,1304(sp)
   121e6:	58010113          	addi	sp,sp,1408
   121ea:	8082                	ret
   121ec:	008d2603          	lw	a2,8(s10)
   121f0:	00023bb7          	lui	s7,0x23
   121f4:	141b8b93          	addi	s7,s7,321 # 23141 <_ctype_+0x1>
   121f8:	02c05763          	blez	a2,12226 <__svfscanf_r+0x20a>
   121fc:	000d3703          	ld	a4,0(s10)
   12200:	00074683          	lbu	a3,0(a4)
   12204:	96de                	add	a3,a3,s7
   12206:	0006c683          	lbu	a3,0(a3)
   1220a:	8aa1                	andi	a3,a3,8
   1220c:	c295                	beqz	a3,12230 <__svfscanf_r+0x214>
   1220e:	008d2683          	lw	a3,8(s10)
   12212:	0705                	addi	a4,a4,1
   12214:	00ed3023          	sd	a4,0(s10)
   12218:	fff6861b          	addiw	a2,a3,-1
   1221c:	00cd2423          	sw	a2,8(s10)
   12220:	2c05                	addiw	s8,s8,1
   12222:	fcc04de3          	bgtz	a2,121fc <__svfscanf_r+0x1e0>
   12226:	85ea                	mv	a1,s10
   12228:	854e                	mv	a0,s3
   1222a:	2a5060ef          	jal	ra,18cce <__srefill_r>
   1222e:	d579                	beqz	a0,121fc <__svfscanf_r+0x1e0>
   12230:	0004c703          	lbu	a4,0(s1)
   12234:	f9040793          	addi	a5,s0,-112
   12238:	01478633          	add	a2,a5,s4
   1223c:	b6e62e23          	sw	a4,-1156(a2)
   12240:	0485                	addi	s1,s1,1
   12242:	ec0712e3          	bnez	a4,12106 <__svfscanf_r+0xea>
   12246:	bf05                	j	12176 <__svfscanf_r+0x15a>
   12248:	00f37713          	andi	a4,t1,15
   1224c:	f70d                	bnez	a4,12176 <__svfscanf_r+0x15a>
   1224e:	0014c503          	lbu	a0,1(s1)
   12252:	fdb5071b          	addiw	a4,a0,-37
   12256:	84ae                	mv	s1,a1
   12258:	0ff77713          	andi	a4,a4,255
   1225c:	00136313          	ori	t1,t1,1
   12260:	00148593          	addi	a1,s1,1
   12264:	eeee78e3          	bgeu	t3,a4,12154 <__svfscanf_r+0x138>
   12268:	77fd                	lui	a5,0xfffff
   1226a:	af078793          	addi	a5,a5,-1296 # ffffffffffffeaf0 <__BSS_END__+0xfffffffffffd86b8>
   1226e:	97a2                	add	a5,a5,s0
   12270:	639c                	ld	a5,0(a5)
   12272:	d785                	beqz	a5,1219a <__svfscanf_r+0x17e>
   12274:	0007bc83          	ld	s9,0(a5)
   12278:	bf21                	j	12190 <__svfscanf_r+0x174>
   1227a:	008d2683          	lw	a3,8(s10)
   1227e:	0705                	addi	a4,a4,1
   12280:	00ed3023          	sd	a4,0(s10)
   12284:	fff6871b          	addiw	a4,a3,-1
   12288:	00ed2423          	sw	a4,8(s10)
   1228c:	0004c703          	lbu	a4,0(s1)
   12290:	f9040793          	addi	a5,s0,-112
   12294:	01478633          	add	a2,a5,s4
   12298:	b6e62e23          	sw	a4,-1156(a2)
   1229c:	2c05                	addiw	s8,s8,1
   1229e:	0485                	addi	s1,s1,1
   122a0:	e60713e3          	bnez	a4,12106 <__svfscanf_r+0xea>
   122a4:	bdc9                	j	12176 <__svfscanf_r+0x15a>
   122a6:	85ea                	mv	a1,s10
   122a8:	854e                	mv	a0,s3
   122aa:	225060ef          	jal	ra,18cce <__srefill_r>
   122ae:	ea050ce3          	beqz	a0,12166 <__svfscanf_r+0x14a>
   122b2:	77fd                	lui	a5,0xfffff
   122b4:	ae878793          	addi	a5,a5,-1304 # ffffffffffffeae8 <__BSS_END__+0xfffffffffffd86b0>
   122b8:	97a2                	add	a5,a5,s0
   122ba:	639c                	ld	a5,0(a5)
   122bc:	c799                	beqz	a5,122ca <__svfscanf_r+0x2ae>
   122be:	010d5783          	lhu	a5,16(s10)
   122c2:	0407f793          	andi	a5,a5,64
   122c6:	ea0788e3          	beqz	a5,12176 <__svfscanf_r+0x15a>
   122ca:	77fd                	lui	a5,0xfffff
   122cc:	af078793          	addi	a5,a5,-1296 # ffffffffffffeaf0 <__BSS_END__+0xfffffffffffd86b8>
   122d0:	97a2                	add	a5,a5,s0
   122d2:	639c                	ld	a5,0(a5)
   122d4:	e399                	bnez	a5,122da <__svfscanf_r+0x2be>
   122d6:	7670106f          	j	1423c <__svfscanf_r+0x2220>
   122da:	77fd                	lui	a5,0xfffff
   122dc:	af078793          	addi	a5,a5,-1296 # ffffffffffffeaf0 <__BSS_END__+0xfffffffffffd86b8>
   122e0:	97a2                	add	a5,a5,s0
   122e2:	639c                	ld	a5,0(a5)
   122e4:	0007bc83          	ld	s9,0(a5)
   122e8:	77fd                	lui	a5,0xfffff
   122ea:	af078793          	addi	a5,a5,-1296 # ffffffffffffeaf0 <__BSS_END__+0xfffffffffffd86b8>
   122ee:	97a2                	add	a5,a5,s0
   122f0:	639c                	ld	a5,0(a5)
   122f2:	00a7d783          	lhu	a5,10(a5)
   122f6:	c78d                	beqz	a5,12320 <__svfscanf_r+0x304>
   122f8:	37fd                	addiw	a5,a5,-1
   122fa:	02079713          	slli	a4,a5,0x20
   122fe:	01d75793          	srli	a5,a4,0x1d
   12302:	008c8913          	addi	s2,s9,8
   12306:	84e6                	mv	s1,s9
   12308:	993e                	add	s2,s2,a5
   1230a:	609c                	ld	a5,0(s1)
   1230c:	04a1                	addi	s1,s1,8
   1230e:	6388                	ld	a0,0(a5)
   12310:	04c050ef          	jal	ra,1735c <free>
   12314:	ff84b783          	ld	a5,-8(s1)
   12318:	0007b023          	sd	zero,0(a5)
   1231c:	ff2497e3          	bne	s1,s2,1230a <__svfscanf_r+0x2ee>
   12320:	777d                	lui	a4,0xfffff
   12322:	ae870713          	addi	a4,a4,-1304 # ffffffffffffeae8 <__BSS_END__+0xfffffffffffd86b0>
   12326:	57fd                	li	a5,-1
   12328:	9722                	add	a4,a4,s0
   1232a:	e31c                	sd	a5,0(a4)
   1232c:	b595                	j	12190 <__svfscanf_r+0x174>
   1232e:	08f37713          	andi	a4,t1,143
   12332:	e40712e3          	bnez	a4,12176 <__svfscanf_r+0x15a>
   12336:	002a9713          	slli	a4,s5,0x2
   1233a:	015708b3          	add	a7,a4,s5
   1233e:	0886                	slli	a7,a7,0x1
   12340:	9546                	add	a0,a0,a7
   12342:	fd050a93          	addi	s5,a0,-48
   12346:	0014c503          	lbu	a0,1(s1)
   1234a:	84ae                	mv	s1,a1
   1234c:	bbe5                	j	12144 <__svfscanf_r+0x128>
   1234e:	84ae                	mv	s1,a1
   12350:	4d91                	li	s11,4
   12352:	008d2703          	lw	a4,8(s10)
   12356:	32e05d63          	blez	a4,12690 <__svfscanf_r+0x674>
   1235a:	04037713          	andi	a4,t1,64
   1235e:	34070f63          	beqz	a4,126bc <__svfscanf_r+0x6a0>
   12362:	470d                	li	a4,3
   12364:	5ced8ae3          	beq	s11,a4,13138 <__svfscanf_r+0x111c>
   12368:	4711                	li	a4,4
   1236a:	22ed8ee3          	beq	s11,a4,12da6 <__svfscanf_r+0xd8a>
   1236e:	4705                	li	a4,1
   12370:	74ed8e63          	beq	s11,a4,12acc <__svfscanf_r+0xab0>
   12374:	4709                	li	a4,2
   12376:	52ed9663          	bne	s11,a4,128a2 <__svfscanf_r+0x886>
   1237a:	000a9363          	bnez	s5,12380 <__svfscanf_r+0x364>
   1237e:	5afd                	li	s5,-1
   12380:	00137c93          	andi	s9,t1,1
   12384:	01037d93          	andi	s11,t1,16
   12388:	000c9463          	bnez	s9,12390 <__svfscanf_r+0x374>
   1238c:	3240106f          	j	136b0 <__svfscanf_r+0x1694>
   12390:	000d8463          	beqz	s11,12398 <__svfscanf_r+0x37c>
   12394:	22d0106f          	j	13dc0 <__svfscanf_r+0x1da4>
   12398:	77fd                	lui	a5,0xfffff
   1239a:	ae078793          	addi	a5,a5,-1312 # ffffffffffffeae0 <__BSS_END__+0xfffffffffffd86a8>
   1239e:	97a2                	add	a5,a5,s0
   123a0:	639c                	ld	a5,0(a5)
   123a2:	76fd                	lui	a3,0xfffff
   123a4:	ad068693          	addi	a3,a3,-1328 # ffffffffffffead0 <__BSS_END__+0xfffffffffffd8698>
   123a8:	6398                	ld	a4,0(a5)
   123aa:	96a2                	add	a3,a3,s0
   123ac:	08037313          	andi	t1,t1,128
   123b0:	e298                	sd	a4,0(a3)
   123b2:	00878b93          	addi	s7,a5,8
   123b6:	00031463          	bnez	t1,123be <__svfscanf_r+0x3a2>
   123ba:	3b10106f          	j	13f6a <__svfscanf_r+0x1f4e>
   123be:	ea0705e3          	beqz	a4,12268 <__svfscanf_r+0x24c>
   123c2:	08000513          	li	a0,128
   123c6:	78f040ef          	jal	ra,17354 <malloc>
   123ca:	8caa                	mv	s9,a0
   123cc:	ee050fe3          	beqz	a0,122ca <__svfscanf_r+0x2ae>
   123d0:	77fd                	lui	a5,0xfffff
   123d2:	af078793          	addi	a5,a5,-1296 # ffffffffffffeaf0 <__BSS_END__+0xfffffffffffd86b8>
   123d6:	97a2                	add	a5,a5,s0
   123d8:	767d                	lui	a2,0xfffff
   123da:	639c                	ld	a5,0(a5)
   123dc:	ad060613          	addi	a2,a2,-1328 # ffffffffffffead0 <__BSS_END__+0xfffffffffffd8698>
   123e0:	9622                	add	a2,a2,s0
   123e2:	6210                	ld	a2,0(a2)
   123e4:	0087d683          	lhu	a3,8(a5)
   123e8:	00a7d703          	lhu	a4,10(a5)
   123ec:	e208                	sd	a0,0(a2)
   123ee:	0006859b          	sext.w	a1,a3
   123f2:	00d77463          	bgeu	a4,a3,123fa <__svfscanf_r+0x3de>
   123f6:	61e0106f          	j	13a14 <__svfscanf_r+0x19f8>
   123fa:	77fd                	lui	a5,0xfffff
   123fc:	ac878793          	addi	a5,a5,-1336 # ffffffffffffeac8 <__BSS_END__+0xfffffffffffd8690>
   12400:	97a2                	add	a5,a5,s0
   12402:	6641                	lui	a2,0x10
   12404:	e398                	sd	a4,0(a5)
   12406:	1659                	addi	a2,a2,-10
   12408:	ecb669e3          	bltu	a2,a1,122da <__svfscanf_r+0x2be>
   1240c:	77fd                	lui	a5,0xfffff
   1240e:	af078793          	addi	a5,a5,-1296 # ffffffffffffeaf0 <__BSS_END__+0xfffffffffffd86b8>
   12412:	97a2                	add	a5,a5,s0
   12414:	6398                	ld	a4,0(a5)
   12416:	26a1                	addiw	a3,a3,8
   12418:	03069793          	slli	a5,a3,0x30
   1241c:	6308                	ld	a0,0(a4)
   1241e:	777d                	lui	a4,0xfffff
   12420:	93c1                	srli	a5,a5,0x30
   12422:	ae070713          	addi	a4,a4,-1312 # ffffffffffffeae0 <__BSS_END__+0xfffffffffffd86a8>
   12426:	9722                	add	a4,a4,s0
   12428:	00379593          	slli	a1,a5,0x3
   1242c:	e31c                	sd	a5,0(a4)
   1242e:	478060ef          	jal	ra,188a6 <realloc>
   12432:	ea0504e3          	beqz	a0,122da <__svfscanf_r+0x2be>
   12436:	77fd                	lui	a5,0xfffff
   12438:	af078793          	addi	a5,a5,-1296 # ffffffffffffeaf0 <__BSS_END__+0xfffffffffffd86b8>
   1243c:	97a2                	add	a5,a5,s0
   1243e:	6398                	ld	a4,0(a5)
   12440:	77fd                	lui	a5,0xfffff
   12442:	ae078793          	addi	a5,a5,-1312 # ffffffffffffeae0 <__BSS_END__+0xfffffffffffd86a8>
   12446:	97a2                	add	a5,a5,s0
   12448:	639c                	ld	a5,0(a5)
   1244a:	e308                	sd	a0,0(a4)
   1244c:	00f71423          	sh	a5,8(a4)
   12450:	77fd                	lui	a5,0xfffff
   12452:	ac878793          	addi	a5,a5,-1336 # ffffffffffffeac8 <__BSS_END__+0xfffffffffffd8690>
   12456:	97a2                	add	a5,a5,s0
   12458:	6398                	ld	a4,0(a5)
   1245a:	77fd                	lui	a5,0xfffff
   1245c:	af078793          	addi	a5,a5,-1296 # ffffffffffffeaf0 <__BSS_END__+0xfffffffffffd86b8>
   12460:	97a2                	add	a5,a5,s0
   12462:	639c                	ld	a5,0(a5)
   12464:	00371693          	slli	a3,a4,0x3
   12468:	2705                	addiw	a4,a4,1
   1246a:	00e79523          	sh	a4,10(a5)
   1246e:	77fd                	lui	a5,0xfffff
   12470:	ad078793          	addi	a5,a5,-1328 # ffffffffffffead0 <__BSS_END__+0xfffffffffffd8698>
   12474:	97a2                	add	a5,a5,s0
   12476:	639c                	ld	a5,0(a5)
   12478:	9536                	add	a0,a0,a3
   1247a:	777d                	lui	a4,0xfffff
   1247c:	e11c                	sd	a5,0(a0)
   1247e:	77fd                	lui	a5,0xfffff
   12480:	ae078793          	addi	a5,a5,-1312 # ffffffffffffeae0 <__BSS_END__+0xfffffffffffd86a8>
   12484:	97a2                	add	a5,a5,s0
   12486:	0177b023          	sd	s7,0(a5)
   1248a:	77fd                	lui	a5,0xfffff
   1248c:	ab078793          	addi	a5,a5,-1360 # ffffffffffffeab0 <__BSS_END__+0xfffffffffffd8678>
   12490:	97a2                	add	a5,a5,s0
   12492:	ac870713          	addi	a4,a4,-1336 # ffffffffffffeac8 <__BSS_END__+0xfffffffffffd8690>
   12496:	0197b023          	sd	s9,0(a5)
   1249a:	9722                	add	a4,a4,s0
   1249c:	02000793          	li	a5,32
   124a0:	e31c                	sd	a5,0(a4)
   124a2:	000d3703          	ld	a4,0(s10)
   124a6:	00023e37          	lui	t3,0x23
   124aa:	141e0b93          	addi	s7,t3,321 # 23141 <_ctype_+0x1>
   124ae:	00074703          	lbu	a4,0(a4)
   124b2:	975e                	add	a4,a4,s7
   124b4:	00074703          	lbu	a4,0(a4)
   124b8:	8b21                	andi	a4,a4,8
   124ba:	c319                	beqz	a4,124c0 <__svfscanf_r+0x4a4>
   124bc:	7700106f          	j	13c2c <__svfscanf_r+0x1c10>
   124c0:	77fd                	lui	a5,0xfffff
   124c2:	aa078793          	addi	a5,a5,-1376 # ffffffffffffeaa0 <__BSS_END__+0xfffffffffffd8668>
   124c6:	97a2                	add	a5,a5,s0
   124c8:	76fd                	lui	a3,0xfffff
   124ca:	0007b023          	sd	zero,0(a5)
   124ce:	a9868693          	addi	a3,a3,-1384 # ffffffffffffea98 <__BSS_END__+0xfffffffffffd8660>
   124d2:	f9040793          	addi	a5,s0,-112
   124d6:	97d2                	add	a5,a5,s4
   124d8:	96a2                	add	a3,a3,s0
   124da:	b88a0713          	addi	a4,s4,-1144 # ffffffffffffeb88 <__BSS_END__+0xfffffffffffd8750>
   124de:	e29c                	sd	a5,0(a3)
   124e0:	f9040793          	addi	a5,s0,-112
   124e4:	973e                	add	a4,a4,a5
   124e6:	77fd                	lui	a5,0xfffff
   124e8:	a9078793          	addi	a5,a5,-1392 # ffffffffffffea90 <__BSS_END__+0xfffffffffffd8658>
   124ec:	97a2                	add	a5,a5,s0
   124ee:	e398                	sd	a4,0(a5)
   124f0:	475040ef          	jal	ra,17164 <__locale_mb_cur_max>
   124f4:	77fd                	lui	a5,0xfffff
   124f6:	aa078793          	addi	a5,a5,-1376 # ffffffffffffeaa0 <__BSS_END__+0xfffffffffffd8668>
   124fa:	97a2                	add	a5,a5,s0
   124fc:	639c                	ld	a5,0(a5)
   124fe:	daf50ae3          	beq	a0,a5,122b2 <__svfscanf_r+0x296>
   12502:	777d                	lui	a4,0xfffff
   12504:	a9870713          	addi	a4,a4,-1384 # ffffffffffffea98 <__BSS_END__+0xfffffffffffd8660>
   12508:	9722                	add	a4,a4,s0
   1250a:	00073803          	ld	a6,0(a4)
   1250e:	777d                	lui	a4,0xfffff
   12510:	a8870713          	addi	a4,a4,-1400 # ffffffffffffea88 <__BSS_END__+0xfffffffffffd8650>
   12514:	000d3683          	ld	a3,0(s10)
   12518:	00f805b3          	add	a1,a6,a5
   1251c:	9722                	add	a4,a4,s0
   1251e:	2785                	addiw	a5,a5,1
   12520:	c31c                	sw	a5,0(a4)
   12522:	777d                	lui	a4,0xfffff
   12524:	008d2603          	lw	a2,8(s10)
   12528:	ab870713          	addi	a4,a4,-1352 # ffffffffffffeab8 <__BSS_END__+0xfffffffffffd8680>
   1252c:	0006c503          	lbu	a0,0(a3)
   12530:	9722                	add	a4,a4,s0
   12532:	e31c                	sd	a5,0(a4)
   12534:	777d                	lui	a4,0xfffff
   12536:	367d                	addiw	a2,a2,-1
   12538:	0685                	addi	a3,a3,1
   1253a:	a9070713          	addi	a4,a4,-1392 # ffffffffffffea90 <__BSS_END__+0xfffffffffffd8658>
   1253e:	9722                	add	a4,a4,s0
   12540:	c8a58823          	sb	a0,-880(a1) # ffffffffffffdc90 <__BSS_END__+0xfffffffffffd7858>
   12544:	00cd2423          	sw	a2,8(s10)
   12548:	00dd3023          	sd	a3,0(s10)
   1254c:	478d                	li	a5,3
   1254e:	6318                	ld	a4,0(a4)
   12550:	00f91763          	bne	s2,a5,1255e <__svfscanf_r+0x542>
   12554:	b8882683          	lw	a3,-1144(a6)
   12558:	4791                	li	a5,4
   1255a:	02f68163          	beq	a3,a5,1257c <__svfscanf_r+0x560>
   1255e:	77fd                	lui	a5,0xfffff
   12560:	a9078793          	addi	a5,a5,-1392 # ffffffffffffea90 <__BSS_END__+0xfffffffffffd8658>
   12564:	97a2                	add	a5,a5,s0
   12566:	853a                	mv	a0,a4
   12568:	4621                	li	a2,8
   1256a:	4581                	li	a1,0
   1256c:	e398                	sd	a4,0(a5)
   1256e:	d37fd0ef          	jal	ra,102a4 <memset>
   12572:	77fd                	lui	a5,0xfffff
   12574:	a9078793          	addi	a5,a5,-1392 # ffffffffffffea90 <__BSS_END__+0xfffffffffffd8658>
   12578:	97a2                	add	a5,a5,s0
   1257a:	6398                	ld	a4,0(a5)
   1257c:	77fd                	lui	a5,0xfffff
   1257e:	a9078793          	addi	a5,a5,-1392 # ffffffffffffea90 <__BSS_END__+0xfffffffffffd8658>
   12582:	97a2                	add	a5,a5,s0
   12584:	e398                	sd	a4,0(a5)
   12586:	77fd                	lui	a5,0xfffff
   12588:	ab878793          	addi	a5,a5,-1352 # ffffffffffffeab8 <__BSS_END__+0xfffffffffffd8680>
   1258c:	97a2                	add	a5,a5,s0
   1258e:	6394                	ld	a3,0(a5)
   12590:	865a                	mv	a2,s6
   12592:	85e6                	mv	a1,s9
   12594:	854e                	mv	a0,s3
   12596:	3f2050ef          	jal	ra,17988 <_mbrtowc_r>
   1259a:	56fd                	li	a3,-1
   1259c:	892a                	mv	s2,a0
   1259e:	d0d50ae3          	beq	a0,a3,122b2 <__svfscanf_r+0x296>
   125a2:	77fd                	lui	a5,0xfffff
   125a4:	a9078793          	addi	a5,a5,-1392 # ffffffffffffea90 <__BSS_END__+0xfffffffffffd8658>
   125a8:	97a2                	add	a5,a5,s0
   125aa:	6398                	ld	a4,0(a5)
   125ac:	c119                	beqz	a0,125b2 <__svfscanf_r+0x596>
   125ae:	0f10106f          	j	13e9e <__svfscanf_r+0x1e82>
   125b2:	000ca023          	sw	zero,0(s9)
   125b6:	2ad020ef          	jal	ra,15062 <iswspace>
   125ba:	77fd                	lui	a5,0xfffff
   125bc:	a9078793          	addi	a5,a5,-1392 # ffffffffffffea90 <__BSS_END__+0xfffffffffffd8658>
   125c0:	97a2                	add	a5,a5,s0
   125c2:	6398                	ld	a4,0(a5)
   125c4:	c119                	beqz	a0,125ca <__svfscanf_r+0x5ae>
   125c6:	6260106f          	j	13bec <__svfscanf_r+0x1bd0>
   125ca:	77fd                	lui	a5,0xfffff
   125cc:	a8878793          	addi	a5,a5,-1400 # ffffffffffffea88 <__BSS_END__+0xfffffffffffd8650>
   125d0:	97a2                	add	a5,a5,s0
   125d2:	439c                	lw	a5,0(a5)
   125d4:	01878c3b          	addw	s8,a5,s8
   125d8:	1afd                	addi	s5,s5,-1
   125da:	000d8463          	beqz	s11,125e2 <__svfscanf_r+0x5c6>
   125de:	2f70106f          	j	140d4 <__svfscanf_r+0x20b8>
   125e2:	77fd                	lui	a5,0xfffff
   125e4:	ad078793          	addi	a5,a5,-1328 # ffffffffffffead0 <__BSS_END__+0xfffffffffffd8698>
   125e8:	97a2                	add	a5,a5,s0
   125ea:	639c                	ld	a5,0(a5)
   125ec:	0c91                	addi	s9,s9,4
   125ee:	e399                	bnez	a5,125f4 <__svfscanf_r+0x5d8>
   125f0:	2e50106f          	j	140d4 <__svfscanf_r+0x20b8>
   125f4:	767d                	lui	a2,0xfffff
   125f6:	77fd                	lui	a5,0xfffff
   125f8:	ab860613          	addi	a2,a2,-1352 # ffffffffffffeab8 <__BSS_END__+0xfffffffffffd8680>
   125fc:	9622                	add	a2,a2,s0
   125fe:	ab078793          	addi	a5,a5,-1360 # ffffffffffffeab0 <__BSS_END__+0xfffffffffffd8678>
   12602:	00063023          	sd	zero,0(a2)
   12606:	97a2                	add	a5,a5,s0
   12608:	767d                	lui	a2,0xfffff
   1260a:	639c                	ld	a5,0(a5)
   1260c:	ac860613          	addi	a2,a2,-1336 # ffffffffffffeac8 <__BSS_END__+0xfffffffffffd8690>
   12610:	9622                	add	a2,a2,s0
   12612:	6210                	ld	a2,0(a2)
   12614:	40fc87b3          	sub	a5,s9,a5
   12618:	4027d693          	srai	a3,a5,0x2
   1261c:	00c6e463          	bltu	a3,a2,12624 <__svfscanf_r+0x608>
   12620:	4570106f          	j	14276 <__svfscanf_r+0x225a>
   12624:	008d2683          	lw	a3,8(s10)
   12628:	00d04463          	bgtz	a3,12630 <__svfscanf_r+0x614>
   1262c:	2b90106f          	j	140e4 <__svfscanf_r+0x20c8>
   12630:	000d3683          	ld	a3,0(s10)
   12634:	0006c683          	lbu	a3,0(a3)
   12638:	96de                	add	a3,a3,s7
   1263a:	0006c683          	lbu	a3,0(a3)
   1263e:	8aa1                	andi	a3,a3,8
   12640:	c299                	beqz	a3,12646 <__svfscanf_r+0x62a>
   12642:	5ea0106f          	j	13c2c <__svfscanf_r+0x1c10>
   12646:	000a9463          	bnez	s5,1264e <__svfscanf_r+0x632>
   1264a:	5e20106f          	j	13c2c <__svfscanf_r+0x1c10>
   1264e:	77fd                	lui	a5,0xfffff
   12650:	ab878793          	addi	a5,a5,-1352 # ffffffffffffeab8 <__BSS_END__+0xfffffffffffd8680>
   12654:	97a2                	add	a5,a5,s0
   12656:	639c                	ld	a5,0(a5)
   12658:	76fd                	lui	a3,0xfffff
   1265a:	aa068693          	addi	a3,a3,-1376 # ffffffffffffeaa0 <__BSS_END__+0xfffffffffffd8668>
   1265e:	96a2                	add	a3,a3,s0
   12660:	e29c                	sd	a5,0(a3)
   12662:	b551                	j	124e6 <__svfscanf_r+0x4ca>
   12664:	20036313          	ori	t1,t1,512
   12668:	676d                	lui	a4,0x1b
   1266a:	a9c70793          	addi	a5,a4,-1380 # 1aa9c <_strtoul_r>
   1266e:	777d                	lui	a4,0xfffff
   12670:	ac070713          	addi	a4,a4,-1344 # ffffffffffffeac0 <__BSS_END__+0xfffffffffffd8688>
   12674:	9722                	add	a4,a4,s0
   12676:	e31c                	sd	a5,0(a4)
   12678:	84ae                	mv	s1,a1
   1267a:	47c1                	li	a5,16
   1267c:	777d                	lui	a4,0xfffff
   1267e:	ad870713          	addi	a4,a4,-1320 # ffffffffffffead8 <__BSS_END__+0xfffffffffffd86a0>
   12682:	9722                	add	a4,a4,s0
   12684:	e31c                	sd	a5,0(a4)
   12686:	008d2703          	lw	a4,8(s10)
   1268a:	4d8d                	li	s11,3
   1268c:	cce047e3          	bgtz	a4,1235a <__svfscanf_r+0x33e>
   12690:	77fd                	lui	a5,0xfffff
   12692:	ad078793          	addi	a5,a5,-1328 # ffffffffffffead0 <__BSS_END__+0xfffffffffffd8698>
   12696:	97a2                	add	a5,a5,s0
   12698:	85ea                	mv	a1,s10
   1269a:	854e                	mv	a0,s3
   1269c:	0067b023          	sd	t1,0(a5)
   126a0:	62e060ef          	jal	ra,18cce <__srefill_r>
   126a4:	77fd                	lui	a5,0xfffff
   126a6:	ad078793          	addi	a5,a5,-1328 # ffffffffffffead0 <__BSS_END__+0xfffffffffffd8698>
   126aa:	97a2                	add	a5,a5,s0
   126ac:	0007b303          	ld	t1,0(a5)
   126b0:	c00511e3          	bnez	a0,122b2 <__svfscanf_r+0x296>
   126b4:	04037713          	andi	a4,t1,64
   126b8:	ca0715e3          	bnez	a4,12362 <__svfscanf_r+0x346>
   126bc:	000d3603          	ld	a2,0(s10)
   126c0:	00023e37          	lui	t3,0x23
   126c4:	141e0b93          	addi	s7,t3,321 # 23141 <_ctype_+0x1>
   126c8:	00064703          	lbu	a4,0(a2)
   126cc:	975e                	add	a4,a4,s7
   126ce:	00074703          	lbu	a4,0(a4)
   126d2:	8b21                	andi	a4,a4,8
   126d4:	c80707e3          	beqz	a4,12362 <__svfscanf_r+0x346>
   126d8:	008d2703          	lw	a4,8(s10)
   126dc:	2c05                	addiw	s8,s8,1
   126de:	fff7059b          	addiw	a1,a4,-1
   126e2:	00bd2423          	sw	a1,8(s10)
   126e6:	02b05663          	blez	a1,12712 <__svfscanf_r+0x6f6>
   126ea:	0605                	addi	a2,a2,1
   126ec:	00cd3023          	sd	a2,0(s10)
   126f0:	00064703          	lbu	a4,0(a2)
   126f4:	975e                	add	a4,a4,s7
   126f6:	00074703          	lbu	a4,0(a4)
   126fa:	8b21                	andi	a4,a4,8
   126fc:	c60703e3          	beqz	a4,12362 <__svfscanf_r+0x346>
   12700:	008d2703          	lw	a4,8(s10)
   12704:	2c05                	addiw	s8,s8,1
   12706:	fff7059b          	addiw	a1,a4,-1
   1270a:	00bd2423          	sw	a1,8(s10)
   1270e:	fcb04ee3          	bgtz	a1,126ea <__svfscanf_r+0x6ce>
   12712:	77fd                	lui	a5,0xfffff
   12714:	ad078793          	addi	a5,a5,-1328 # ffffffffffffead0 <__BSS_END__+0xfffffffffffd8698>
   12718:	97a2                	add	a5,a5,s0
   1271a:	85ea                	mv	a1,s10
   1271c:	854e                	mv	a0,s3
   1271e:	0067b023          	sd	t1,0(a5)
   12722:	5ac060ef          	jal	ra,18cce <__srefill_r>
   12726:	b80516e3          	bnez	a0,122b2 <__svfscanf_r+0x296>
   1272a:	77fd                	lui	a5,0xfffff
   1272c:	ad078793          	addi	a5,a5,-1328 # ffffffffffffead0 <__BSS_END__+0xfffffffffffd8698>
   12730:	97a2                	add	a5,a5,s0
   12732:	000d3603          	ld	a2,0(s10)
   12736:	0007b303          	ld	t1,0(a5)
   1273a:	b779                	j	126c8 <__svfscanf_r+0x6ac>
   1273c:	00136313          	ori	t1,t1,1
   12740:	84ae                	mv	s1,a1
   12742:	4d89                	li	s11,2
   12744:	b139                	j	12352 <__svfscanf_r+0x336>
   12746:	00136313          	ori	t1,t1,1
   1274a:	04036313          	ori	t1,t1,64
   1274e:	84ae                	mv	s1,a1
   12750:	4d81                	li	s11,0
   12752:	b101                	j	12352 <__svfscanf_r+0x336>
   12754:	00136313          	ori	t1,t1,1
   12758:	676d                	lui	a4,0x1b
   1275a:	a9c70793          	addi	a5,a4,-1380 # 1aa9c <_strtoul_r>
   1275e:	777d                	lui	a4,0xfffff
   12760:	ac070713          	addi	a4,a4,-1344 # ffffffffffffeac0 <__BSS_END__+0xfffffffffffd8688>
   12764:	9722                	add	a4,a4,s0
   12766:	e31c                	sd	a5,0(a4)
   12768:	84ae                	mv	s1,a1
   1276a:	47a1                	li	a5,8
   1276c:	bf01                	j	1267c <__svfscanf_r+0x660>
   1276e:	00136313          	ori	t1,t1,1
   12772:	6769                	lui	a4,0x1a
   12774:	84ae                	mv	s1,a1
   12776:	62070793          	addi	a5,a4,1568 # 1a620 <_strtol_r>
   1277a:	777d                	lui	a4,0xfffff
   1277c:	ac070713          	addi	a4,a4,-1344 # ffffffffffffeac0 <__BSS_END__+0xfffffffffffd8688>
   12780:	9722                	add	a4,a4,s0
   12782:	e31c                	sd	a5,0(a4)
   12784:	47a9                	li	a5,10
   12786:	bddd                	j	1267c <__svfscanf_r+0x660>
   12788:	08f37713          	andi	a4,t1,143
   1278c:	9e0715e3          	bnez	a4,12176 <__svfscanf_r+0x15a>
   12790:	77fd                	lui	a5,0xfffff
   12792:	af078793          	addi	a5,a5,-1296 # ffffffffffffeaf0 <__BSS_END__+0xfffffffffffd86b8>
   12796:	97a2                	add	a5,a5,s0
   12798:	639c                	ld	a5,0(a5)
   1279a:	e399                	bnez	a5,127a0 <__svfscanf_r+0x784>
   1279c:	7620106f          	j	13efe <__svfscanf_r+0x1ee2>
   127a0:	0014c503          	lbu	a0,1(s1)
   127a4:	08036313          	ori	t1,t1,128
   127a8:	84ae                	mv	s1,a1
   127aa:	ba69                	j	12144 <__svfscanf_r+0x128>
   127ac:	00f37713          	andi	a4,t1,15
   127b0:	9c0713e3          	bnez	a4,12176 <__svfscanf_r+0x15a>
   127b4:	0014c503          	lbu	a0,1(s1)
   127b8:	00236313          	ori	t1,t1,2
   127bc:	84ae                	mv	s1,a1
   127be:	b259                	j	12144 <__svfscanf_r+0x128>
   127c0:	9a031be3          	bnez	t1,12176 <__svfscanf_r+0x15a>
   127c4:	9a0a99e3          	bnez	s5,12176 <__svfscanf_r+0x15a>
   127c8:	0014c503          	lbu	a0,1(s1)
   127cc:	4341                	li	t1,16
   127ce:	84ae                	mv	s1,a1
   127d0:	ba95                	j	12144 <__svfscanf_r+0x128>
   127d2:	676d                	lui	a4,0x1b
   127d4:	84ae                	mv	s1,a1
   127d6:	a9c70793          	addi	a5,a4,-1380 # 1aa9c <_strtoul_r>
   127da:	b745                	j	1277a <__svfscanf_r+0x75e>
   127dc:	22036313          	ori	t1,t1,544
   127e0:	b561                	j	12668 <__svfscanf_r+0x64c>
   127e2:	77fd                	lui	a5,0xfffff
   127e4:	ad078793          	addi	a5,a5,-1328 # ffffffffffffead0 <__BSS_END__+0xfffffffffffd8698>
   127e8:	97a2                	add	a5,a5,s0
   127ea:	0067b023          	sd	t1,0(a5)
   127ee:	b90a0513          	addi	a0,s4,-1136
   127f2:	f9040793          	addi	a5,s0,-112
   127f6:	953e                	add	a0,a0,a5
   127f8:	672060ef          	jal	ra,18e6a <__sccl>
   127fc:	77fd                	lui	a5,0xfffff
   127fe:	ad078793          	addi	a5,a5,-1328 # ffffffffffffead0 <__BSS_END__+0xfffffffffffd8698>
   12802:	97a2                	add	a5,a5,s0
   12804:	0007b303          	ld	t1,0(a5)
   12808:	84aa                	mv	s1,a0
   1280a:	4d85                	li	s11,1
   1280c:	04036313          	ori	t1,t1,64
   12810:	b689                	j	12352 <__svfscanf_r+0x336>
   12812:	6769                	lui	a4,0x1a
   12814:	62070793          	addi	a5,a4,1568 # 1a620 <_strtol_r>
   12818:	777d                	lui	a4,0xfffff
   1281a:	ac070713          	addi	a4,a4,-1344 # ffffffffffffeac0 <__BSS_END__+0xfffffffffffd8688>
   1281e:	9722                	add	a4,a4,s0
   12820:	e31c                	sd	a5,0(a4)
   12822:	77fd                	lui	a5,0xfffff
   12824:	ad878793          	addi	a5,a5,-1320 # ffffffffffffead8 <__BSS_END__+0xfffffffffffd86a0>
   12828:	97a2                	add	a5,a5,s0
   1282a:	84ae                	mv	s1,a1
   1282c:	0007b023          	sd	zero,0(a5)
   12830:	4d8d                	li	s11,3
   12832:	b605                	j	12352 <__svfscanf_r+0x336>
   12834:	00f37713          	andi	a4,t1,15
   12838:	92071fe3          	bnez	a4,12176 <__svfscanf_r+0x15a>
   1283c:	0014c503          	lbu	a0,1(s1)
   12840:	01e51463          	bne	a0,t5,12848 <__svfscanf_r+0x82c>
   12844:	6440106f          	j	13e88 <__svfscanf_r+0x1e6c>
   12848:	00436313          	ori	t1,t1,4
   1284c:	84ae                	mv	s1,a1
   1284e:	b8dd                	j	12144 <__svfscanf_r+0x128>
   12850:	01037713          	andi	a4,t1,16
   12854:	84ae                	mv	s1,a1
   12856:	9c071de3          	bnez	a4,12230 <__svfscanf_r+0x214>
   1285a:	77fd                	lui	a5,0xfffff
   1285c:	ae078793          	addi	a5,a5,-1312 # ffffffffffffeae0 <__BSS_END__+0xfffffffffffd86a8>
   12860:	97a2                	add	a5,a5,s0
   12862:	639c                	ld	a5,0(a5)
   12864:	00837713          	andi	a4,t1,8
   12868:	6394                	ld	a3,0(a5)
   1286a:	00878c93          	addi	s9,a5,8
   1286e:	e319                	bnez	a4,12874 <__svfscanf_r+0x858>
   12870:	7760106f          	j	13fe6 <__svfscanf_r+0x1fca>
   12874:	77fd                	lui	a5,0xfffff
   12876:	ae078793          	addi	a5,a5,-1312 # ffffffffffffeae0 <__BSS_END__+0xfffffffffffd86a8>
   1287a:	97a2                	add	a5,a5,s0
   1287c:	01868023          	sb	s8,0(a3)
   12880:	0197b023          	sd	s9,0(a5)
   12884:	b275                	j	12230 <__svfscanf_r+0x214>
   12886:	00f37713          	andi	a4,t1,15
   1288a:	8e0716e3          	bnez	a4,12176 <__svfscanf_r+0x15a>
   1288e:	0014c503          	lbu	a0,1(s1)
   12892:	9dd510e3          	bne	a0,t4,12252 <__svfscanf_r+0x236>
   12896:	0024c503          	lbu	a0,2(s1)
   1289a:	00236313          	ori	t1,t1,2
   1289e:	0489                	addi	s1,s1,2
   128a0:	b055                	j	12144 <__svfscanf_r+0x128>
   128a2:	8bd6                	mv	s7,s5
   128a4:	000a9363          	bnez	s5,128aa <__svfscanf_r+0x88e>
   128a8:	4b85                	li	s7,1
   128aa:	76fd                	lui	a3,0xfffff
   128ac:	ad068693          	addi	a3,a3,-1328 # ffffffffffffead0 <__BSS_END__+0xfffffffffffd8698>
   128b0:	01037793          	andi	a5,t1,16
   128b4:	96a2                	add	a3,a3,s0
   128b6:	00137713          	andi	a4,t1,1
   128ba:	e29c                	sd	a5,0(a3)
   128bc:	30070be3          	beqz	a4,133d2 <__svfscanf_r+0x13b6>
   128c0:	c399                	beqz	a5,128c6 <__svfscanf_r+0x8aa>
   128c2:	4440106f          	j	13d06 <__svfscanf_r+0x1cea>
   128c6:	77fd                	lui	a5,0xfffff
   128c8:	ae078793          	addi	a5,a5,-1312 # ffffffffffffeae0 <__BSS_END__+0xfffffffffffd86a8>
   128cc:	97a2                	add	a5,a5,s0
   128ce:	639c                	ld	a5,0(a5)
   128d0:	76fd                	lui	a3,0xfffff
   128d2:	ab868693          	addi	a3,a3,-1352 # ffffffffffffeab8 <__BSS_END__+0xfffffffffffd8680>
   128d6:	6398                	ld	a4,0(a5)
   128d8:	96a2                	add	a3,a3,s0
   128da:	07a1                	addi	a5,a5,8
   128dc:	e298                	sd	a4,0(a3)
   128de:	76fd                	lui	a3,0xfffff
   128e0:	a9868693          	addi	a3,a3,-1384 # ffffffffffffea98 <__BSS_END__+0xfffffffffffd8660>
   128e4:	96a2                	add	a3,a3,s0
   128e6:	08037313          	andi	t1,t1,128
   128ea:	e29c                	sd	a5,0(a3)
   128ec:	00031463          	bnez	t1,128f4 <__svfscanf_r+0x8d8>
   128f0:	63c0106f          	j	13f2c <__svfscanf_r+0x1f10>
   128f4:	96070ae3          	beqz	a4,12268 <__svfscanf_r+0x24c>
   128f8:	08000513          	li	a0,128
   128fc:	259040ef          	jal	ra,17354 <malloc>
   12900:	8caa                	mv	s9,a0
   12902:	9c0504e3          	beqz	a0,122ca <__svfscanf_r+0x2ae>
   12906:	77fd                	lui	a5,0xfffff
   12908:	af078793          	addi	a5,a5,-1296 # ffffffffffffeaf0 <__BSS_END__+0xfffffffffffd86b8>
   1290c:	97a2                	add	a5,a5,s0
   1290e:	76fd                	lui	a3,0xfffff
   12910:	639c                	ld	a5,0(a5)
   12912:	ab868693          	addi	a3,a3,-1352 # ffffffffffffeab8 <__BSS_END__+0xfffffffffffd8680>
   12916:	96a2                	add	a3,a3,s0
   12918:	6294                	ld	a3,0(a3)
   1291a:	0087d703          	lhu	a4,8(a5)
   1291e:	00a7dd83          	lhu	s11,10(a5)
   12922:	e288                	sd	a0,0(a3)
   12924:	0007061b          	sext.w	a2,a4
   12928:	00ede463          	bltu	s11,a4,12930 <__svfscanf_r+0x914>
   1292c:	1700106f          	j	13a9c <__svfscanf_r+0x1a80>
   12930:	6388                	ld	a0,0(a5)
   12932:	77fd                	lui	a5,0xfffff
   12934:	af078793          	addi	a5,a5,-1296 # ffffffffffffeaf0 <__BSS_END__+0xfffffffffffd86b8>
   12938:	97a2                	add	a5,a5,s0
   1293a:	639c                	ld	a5,0(a5)
   1293c:	003d9713          	slli	a4,s11,0x3
   12940:	2d85                	addiw	s11,s11,1
   12942:	01b79523          	sh	s11,10(a5)
   12946:	77fd                	lui	a5,0xfffff
   12948:	ab878793          	addi	a5,a5,-1352 # ffffffffffffeab8 <__BSS_END__+0xfffffffffffd8680>
   1294c:	97a2                	add	a5,a5,s0
   1294e:	639c                	ld	a5,0(a5)
   12950:	953a                	add	a0,a0,a4
   12952:	777d                	lui	a4,0xfffff
   12954:	e11c                	sd	a5,0(a0)
   12956:	77fd                	lui	a5,0xfffff
   12958:	aa078793          	addi	a5,a5,-1376 # ffffffffffffeaa0 <__BSS_END__+0xfffffffffffd8668>
   1295c:	97a2                	add	a5,a5,s0
   1295e:	ab070713          	addi	a4,a4,-1360 # ffffffffffffeab0 <__BSS_END__+0xfffffffffffd8678>
   12962:	0197b023          	sd	s9,0(a5)
   12966:	9722                	add	a4,a4,s0
   12968:	02000793          	li	a5,32
   1296c:	e31c                	sd	a5,0(a4)
   1296e:	777d                	lui	a4,0xfffff
   12970:	f9040793          	addi	a5,s0,-112
   12974:	ac870713          	addi	a4,a4,-1336 # ffffffffffffeac8 <__BSS_END__+0xfffffffffffd8690>
   12978:	97d2                	add	a5,a5,s4
   1297a:	9722                	add	a4,a4,s0
   1297c:	b88a0d93          	addi	s11,s4,-1144
   12980:	e31c                	sd	a5,0(a4)
   12982:	f9040793          	addi	a5,s0,-112
   12986:	4a81                	li	s5,0
   12988:	9dbe                	add	s11,s11,a5
   1298a:	7da040ef          	jal	ra,17164 <__locale_mb_cur_max>
   1298e:	935502e3          	beq	a0,s5,122b2 <__svfscanf_r+0x296>
   12992:	77fd                	lui	a5,0xfffff
   12994:	000d3683          	ld	a3,0(s10)
   12998:	ac878793          	addi	a5,a5,-1336 # ffffffffffffeac8 <__BSS_END__+0xfffffffffffd8690>
   1299c:	97a2                	add	a5,a5,s0
   1299e:	008d2603          	lw	a2,8(s10)
   129a2:	6398                	ld	a4,0(a5)
   129a4:	0006c503          	lbu	a0,0(a3)
   129a8:	787d                	lui	a6,0xfffff
   129aa:	ae080813          	addi	a6,a6,-1312 # ffffffffffffeae0 <__BSS_END__+0xfffffffffffd86a8>
   129ae:	015705b3          	add	a1,a4,s5
   129b2:	367d                	addiw	a2,a2,-1
   129b4:	0685                	addi	a3,a3,1
   129b6:	2a85                	addiw	s5,s5,1
   129b8:	9822                	add	a6,a6,s0
   129ba:	01582023          	sw	s5,0(a6)
   129be:	c8a58823          	sb	a0,-880(a1)
   129c2:	00cd2423          	sw	a2,8(s10)
   129c6:	00dd3023          	sd	a3,0(s10)
   129ca:	478d                	li	a5,3
   129cc:	00f91763          	bne	s2,a5,129da <__svfscanf_r+0x9be>
   129d0:	b8872703          	lw	a4,-1144(a4)
   129d4:	4791                	li	a5,4
   129d6:	00f70763          	beq	a4,a5,129e4 <__svfscanf_r+0x9c8>
   129da:	4621                	li	a2,8
   129dc:	4581                	li	a1,0
   129de:	856e                	mv	a0,s11
   129e0:	8c5fd0ef          	jal	ra,102a4 <memset>
   129e4:	876e                	mv	a4,s11
   129e6:	86d6                	mv	a3,s5
   129e8:	865a                	mv	a2,s6
   129ea:	85e6                	mv	a1,s9
   129ec:	854e                	mv	a0,s3
   129ee:	79b040ef          	jal	ra,17988 <_mbrtowc_r>
   129f2:	577d                	li	a4,-1
   129f4:	892a                	mv	s2,a0
   129f6:	8ae50ee3          	beq	a0,a4,122b2 <__svfscanf_r+0x296>
   129fa:	c119                	beqz	a0,12a00 <__svfscanf_r+0x9e4>
   129fc:	01e0106f          	j	13a1a <__svfscanf_r+0x19fe>
   12a00:	77fd                	lui	a5,0xfffff
   12a02:	ad078793          	addi	a5,a5,-1328 # ffffffffffffead0 <__BSS_END__+0xfffffffffffd8698>
   12a06:	97a2                	add	a5,a5,s0
   12a08:	639c                	ld	a5,0(a5)
   12a0a:	e399                	bnez	a5,12a10 <__svfscanf_r+0x9f4>
   12a0c:	000ca023          	sw	zero,0(s9)
   12a10:	77fd                	lui	a5,0xfffff
   12a12:	ae078793          	addi	a5,a5,-1312 # ffffffffffffeae0 <__BSS_END__+0xfffffffffffd86a8>
   12a16:	97a2                	add	a5,a5,s0
   12a18:	439c                	lw	a5,0(a5)
   12a1a:	01878c3b          	addw	s8,a5,s8
   12a1e:	1bfd                	addi	s7,s7,-1
   12a20:	77fd                	lui	a5,0xfffff
   12a22:	ad078793          	addi	a5,a5,-1328 # ffffffffffffead0 <__BSS_END__+0xfffffffffffd8698>
   12a26:	97a2                	add	a5,a5,s0
   12a28:	639c                	ld	a5,0(a5)
   12a2a:	eb95                	bnez	a5,12a5e <__svfscanf_r+0xa42>
   12a2c:	77fd                	lui	a5,0xfffff
   12a2e:	ab878793          	addi	a5,a5,-1352 # ffffffffffffeab8 <__BSS_END__+0xfffffffffffd8680>
   12a32:	97a2                	add	a5,a5,s0
   12a34:	639c                	ld	a5,0(a5)
   12a36:	c39d                	beqz	a5,12a5c <__svfscanf_r+0xa40>
   12a38:	77fd                	lui	a5,0xfffff
   12a3a:	aa078793          	addi	a5,a5,-1376 # ffffffffffffeaa0 <__BSS_END__+0xfffffffffffd8668>
   12a3e:	97a2                	add	a5,a5,s0
   12a40:	639c                	ld	a5,0(a5)
   12a42:	40fc8ab3          	sub	s5,s9,a5
   12a46:	77fd                	lui	a5,0xfffff
   12a48:	ab078793          	addi	a5,a5,-1360 # ffffffffffffeab0 <__BSS_END__+0xfffffffffffd8678>
   12a4c:	97a2                	add	a5,a5,s0
   12a4e:	639c                	ld	a5,0(a5)
   12a50:	402ad693          	srai	a3,s5,0x2
   12a54:	00f6e463          	bltu	a3,a5,12a5c <__svfscanf_r+0xa40>
   12a58:	7ef0006f          	j	13a46 <__svfscanf_r+0x1a2a>
   12a5c:	0c91                	addi	s9,s9,4
   12a5e:	008d2683          	lw	a3,8(s10)
   12a62:	4a81                	li	s5,0
   12a64:	00d04463          	bgtz	a3,12a6c <__svfscanf_r+0xa50>
   12a68:	7c50006f          	j	13a2c <__svfscanf_r+0x1a10>
   12a6c:	f00b9fe3          	bnez	s7,1298a <__svfscanf_r+0x96e>
   12a70:	77fd                	lui	a5,0xfffff
   12a72:	ab878793          	addi	a5,a5,-1352 # ffffffffffffeab8 <__BSS_END__+0xfffffffffffd8680>
   12a76:	97a2                	add	a5,a5,s0
   12a78:	639c                	ld	a5,0(a5)
   12a7a:	c39d                	beqz	a5,12aa0 <__svfscanf_r+0xa84>
   12a7c:	77fd                	lui	a5,0xfffff
   12a7e:	aa078793          	addi	a5,a5,-1376 # ffffffffffffeaa0 <__BSS_END__+0xfffffffffffd8668>
   12a82:	97a2                	add	a5,a5,s0
   12a84:	639c                	ld	a5,0(a5)
   12a86:	40fc85b3          	sub	a1,s9,a5
   12a8a:	77fd                	lui	a5,0xfffff
   12a8c:	ab078793          	addi	a5,a5,-1360 # ffffffffffffeab0 <__BSS_END__+0xfffffffffffd8678>
   12a90:	97a2                	add	a5,a5,s0
   12a92:	639c                	ld	a5,0(a5)
   12a94:	4025d713          	srai	a4,a1,0x2
   12a98:	00f77463          	bgeu	a4,a5,12aa0 <__svfscanf_r+0xa84>
   12a9c:	69e0106f          	j	1413a <__svfscanf_r+0x211e>
   12aa0:	77fd                	lui	a5,0xfffff
   12aa2:	ad078793          	addi	a5,a5,-1328 # ffffffffffffead0 <__BSS_END__+0xfffffffffffd8698>
   12aa6:	97a2                	add	a5,a5,s0
   12aa8:	639c                	ld	a5,0(a5)
   12aaa:	ef81                	bnez	a5,12ac2 <__svfscanf_r+0xaa6>
   12aac:	77fd                	lui	a5,0xfffff
   12aae:	ae878793          	addi	a5,a5,-1304 # ffffffffffffeae8 <__BSS_END__+0xfffffffffffd86b0>
   12ab2:	97a2                	add	a5,a5,s0
   12ab4:	639c                	ld	a5,0(a5)
   12ab6:	777d                	lui	a4,0xfffff
   12ab8:	ae870713          	addi	a4,a4,-1304 # ffffffffffffeae8 <__BSS_END__+0xfffffffffffd86b0>
   12abc:	2785                	addiw	a5,a5,1
   12abe:	9722                	add	a4,a4,s0
   12ac0:	e31c                	sd	a5,0(a4)
   12ac2:	77fd                	lui	a5,0xfffff
   12ac4:	a9878793          	addi	a5,a5,-1384 # ffffffffffffea98 <__BSS_END__+0xfffffffffffd8660>
   12ac8:	3710006f          	j	13638 <__svfscanf_r+0x161c>
   12acc:	000a9363          	bnez	s5,12ad2 <__svfscanf_r+0xab6>
   12ad0:	5afd                	li	s5,-1
   12ad2:	76fd                	lui	a3,0xfffff
   12ad4:	ab068693          	addi	a3,a3,-1360 # ffffffffffffeab0 <__BSS_END__+0xfffffffffffd8678>
   12ad8:	01037793          	andi	a5,t1,16
   12adc:	96a2                	add	a3,a3,s0
   12ade:	00137713          	andi	a4,t1,1
   12ae2:	e29c                	sd	a5,0(a3)
   12ae4:	1e0702e3          	beqz	a4,134c8 <__svfscanf_r+0x14ac>
   12ae8:	c399                	beqz	a5,12aee <__svfscanf_r+0xad2>
   12aea:	30a0106f          	j	13df4 <__svfscanf_r+0x1dd8>
   12aee:	77fd                	lui	a5,0xfffff
   12af0:	ae078793          	addi	a5,a5,-1312 # ffffffffffffeae0 <__BSS_END__+0xfffffffffffd86a8>
   12af4:	97a2                	add	a5,a5,s0
   12af6:	639c                	ld	a5,0(a5)
   12af8:	76fd                	lui	a3,0xfffff
   12afa:	aa068693          	addi	a3,a3,-1376 # ffffffffffffeaa0 <__BSS_END__+0xfffffffffffd8668>
   12afe:	6398                	ld	a4,0(a5)
   12b00:	96a2                	add	a3,a3,s0
   12b02:	07a1                	addi	a5,a5,8
   12b04:	e298                	sd	a4,0(a3)
   12b06:	76fd                	lui	a3,0xfffff
   12b08:	a8868693          	addi	a3,a3,-1400 # ffffffffffffea88 <__BSS_END__+0xfffffffffffd8650>
   12b0c:	96a2                	add	a3,a3,s0
   12b0e:	08037313          	andi	t1,t1,128
   12b12:	e29c                	sd	a5,0(a3)
   12b14:	00031463          	bnez	t1,12b1c <__svfscanf_r+0xb00>
   12b18:	4920106f          	j	13faa <__svfscanf_r+0x1f8e>
   12b1c:	f4070663          	beqz	a4,12268 <__svfscanf_r+0x24c>
   12b20:	08000513          	li	a0,128
   12b24:	031040ef          	jal	ra,17354 <malloc>
   12b28:	777d                	lui	a4,0xfffff
   12b2a:	ae070713          	addi	a4,a4,-1312 # ffffffffffffeae0 <__BSS_END__+0xfffffffffffd86a8>
   12b2e:	9722                	add	a4,a4,s0
   12b30:	e308                	sd	a0,0(a4)
   12b32:	f8050c63          	beqz	a0,122ca <__svfscanf_r+0x2ae>
   12b36:	77fd                	lui	a5,0xfffff
   12b38:	af078793          	addi	a5,a5,-1296 # ffffffffffffeaf0 <__BSS_END__+0xfffffffffffd86b8>
   12b3c:	97a2                	add	a5,a5,s0
   12b3e:	76fd                	lui	a3,0xfffff
   12b40:	767d                	lui	a2,0xfffff
   12b42:	639c                	ld	a5,0(a5)
   12b44:	aa068693          	addi	a3,a3,-1376 # ffffffffffffeaa0 <__BSS_END__+0xfffffffffffd8668>
   12b48:	ae060613          	addi	a2,a2,-1312 # ffffffffffffeae0 <__BSS_END__+0xfffffffffffd86a8>
   12b4c:	96a2                	add	a3,a3,s0
   12b4e:	9622                	add	a2,a2,s0
   12b50:	6210                	ld	a2,0(a2)
   12b52:	6294                	ld	a3,0(a3)
   12b54:	0087d703          	lhu	a4,8(a5)
   12b58:	00a7db83          	lhu	s7,10(a5)
   12b5c:	e290                	sd	a2,0(a3)
   12b5e:	0007061b          	sext.w	a2,a4
   12b62:	62ebf7e3          	bgeu	s7,a4,13990 <__svfscanf_r+0x1974>
   12b66:	6388                	ld	a0,0(a5)
   12b68:	77fd                	lui	a5,0xfffff
   12b6a:	af078793          	addi	a5,a5,-1296 # ffffffffffffeaf0 <__BSS_END__+0xfffffffffffd86b8>
   12b6e:	97a2                	add	a5,a5,s0
   12b70:	639c                	ld	a5,0(a5)
   12b72:	003b9713          	slli	a4,s7,0x3
   12b76:	2b85                	addiw	s7,s7,1
   12b78:	01779523          	sh	s7,10(a5)
   12b7c:	77fd                	lui	a5,0xfffff
   12b7e:	aa078793          	addi	a5,a5,-1376 # ffffffffffffeaa0 <__BSS_END__+0xfffffffffffd8668>
   12b82:	97a2                	add	a5,a5,s0
   12b84:	639c                	ld	a5,0(a5)
   12b86:	953a                	add	a0,a0,a4
   12b88:	777d                	lui	a4,0xfffff
   12b8a:	e11c                	sd	a5,0(a0)
   12b8c:	77fd                	lui	a5,0xfffff
   12b8e:	ae078793          	addi	a5,a5,-1312 # ffffffffffffeae0 <__BSS_END__+0xfffffffffffd86a8>
   12b92:	97a2                	add	a5,a5,s0
   12b94:	639c                	ld	a5,0(a5)
   12b96:	a9870713          	addi	a4,a4,-1384 # ffffffffffffea98 <__BSS_END__+0xfffffffffffd8660>
   12b9a:	9722                	add	a4,a4,s0
   12b9c:	e31c                	sd	a5,0(a4)
   12b9e:	777d                	lui	a4,0xfffff
   12ba0:	a9070713          	addi	a4,a4,-1392 # ffffffffffffea90 <__BSS_END__+0xfffffffffffd8658>
   12ba4:	02000793          	li	a5,32
   12ba8:	9722                	add	a4,a4,s0
   12baa:	e31c                	sd	a5,0(a4)
   12bac:	b88a0713          	addi	a4,s4,-1144
   12bb0:	f9040793          	addi	a5,s0,-112
   12bb4:	b80a0d93          	addi	s11,s4,-1152
   12bb8:	9dbe                	add	s11,s11,a5
   12bba:	97ba                	add	a5,a5,a4
   12bbc:	777d                	lui	a4,0xfffff
   12bbe:	ac870713          	addi	a4,a4,-1336 # ffffffffffffeac8 <__BSS_END__+0xfffffffffffd8690>
   12bc2:	9722                	add	a4,a4,s0
   12bc4:	4b81                	li	s7,0
   12bc6:	e31c                	sd	a5,0(a4)
   12bc8:	59c040ef          	jal	ra,17164 <__locale_mb_cur_max>
   12bcc:	ef750363          	beq	a0,s7,122b2 <__svfscanf_r+0x296>
   12bd0:	000d3703          	ld	a4,0(s10)
   12bd4:	008d2683          	lw	a3,8(s10)
   12bd8:	757d                	lui	a0,0xfffff
   12bda:	00074583          	lbu	a1,0(a4)
   12bde:	f9050793          	addi	a5,a0,-112 # ffffffffffffef90 <__BSS_END__+0xfffffffffffd8b58>
   12be2:	787d                	lui	a6,0xfffff
   12be4:	97a2                	add	a5,a5,s0
   12be6:	ad080813          	addi	a6,a6,-1328 # ffffffffffffead0 <__BSS_END__+0xfffffffffffd8698>
   12bea:	0705                	addi	a4,a4,1
   12bec:	01778633          	add	a2,a5,s7
   12bf0:	36fd                	addiw	a3,a3,-1
   12bf2:	001b8c9b          	addiw	s9,s7,1
   12bf6:	9822                	add	a6,a6,s0
   12bf8:	00ed3023          	sd	a4,0(s10)
   12bfc:	01982023          	sw	s9,0(a6)
   12c00:	c8b60823          	sb	a1,-880(a2)
   12c04:	00dd2423          	sw	a3,8(s10)
   12c08:	470d                	li	a4,3
   12c0a:	00e91963          	bne	s2,a4,12c1c <__svfscanf_r+0xc00>
   12c0e:	b1050793          	addi	a5,a0,-1264
   12c12:	97a2                	add	a5,a5,s0
   12c14:	4394                	lw	a3,0(a5)
   12c16:	4711                	li	a4,4
   12c18:	00e68763          	beq	a3,a4,12c26 <__svfscanf_r+0xc0a>
   12c1c:	4621                	li	a2,8
   12c1e:	4581                	li	a1,0
   12c20:	856e                	mv	a0,s11
   12c22:	e82fd0ef          	jal	ra,102a4 <memset>
   12c26:	77fd                	lui	a5,0xfffff
   12c28:	ae078793          	addi	a5,a5,-1312 # ffffffffffffeae0 <__BSS_END__+0xfffffffffffd86a8>
   12c2c:	97a2                	add	a5,a5,s0
   12c2e:	638c                	ld	a1,0(a5)
   12c30:	86e6                	mv	a3,s9
   12c32:	876e                	mv	a4,s11
   12c34:	865a                	mv	a2,s6
   12c36:	854e                	mv	a0,s3
   12c38:	551040ef          	jal	ra,17988 <_mbrtowc_r>
   12c3c:	56fd                	li	a3,-1
   12c3e:	892a                	mv	s2,a0
   12c40:	e6d50963          	beq	a0,a3,122b2 <__svfscanf_r+0x296>
   12c44:	520514e3          	bnez	a0,1396c <__svfscanf_r+0x1950>
   12c48:	77fd                	lui	a5,0xfffff
   12c4a:	ae078793          	addi	a5,a5,-1312 # ffffffffffffeae0 <__BSS_END__+0xfffffffffffd86a8>
   12c4e:	97a2                	add	a5,a5,s0
   12c50:	639c                	ld	a5,0(a5)
   12c52:	4701                	li	a4,0
   12c54:	0007a023          	sw	zero,0(a5)
   12c58:	77fd                	lui	a5,0xfffff
   12c5a:	ab878793          	addi	a5,a5,-1352 # ffffffffffffeab8 <__BSS_END__+0xfffffffffffd8680>
   12c5e:	97a2                	add	a5,a5,s0
   12c60:	e398                	sd	a4,0(a5)
   12c62:	77fd                	lui	a5,0xfffff
   12c64:	ac878793          	addi	a5,a5,-1336 # ffffffffffffeac8 <__BSS_END__+0xfffffffffffd8690>
   12c68:	97a2                	add	a5,a5,s0
   12c6a:	6388                	ld	a0,0(a5)
   12c6c:	4621                	li	a2,8
   12c6e:	4581                	li	a1,0
   12c70:	e34fd0ef          	jal	ra,102a4 <memset>
   12c74:	cd018693          	addi	a3,gp,-816 # 25908 <__global_locale>
   12c78:	77fd                	lui	a5,0xfffff
   12c7a:	ab878793          	addi	a5,a5,-1352 # ffffffffffffeab8 <__BSS_END__+0xfffffffffffd8680>
   12c7e:	97a2                	add	a5,a5,s0
   12c80:	6398                	ld	a4,0(a5)
   12c82:	77fd                	lui	a5,0xfffff
   12c84:	ac878793          	addi	a5,a5,-1336 # ffffffffffffeac8 <__BSS_END__+0xfffffffffffd8690>
   12c88:	97a2                	add	a5,a5,s0
   12c8a:	0e06b303          	ld	t1,224(a3)
   12c8e:	6394                	ld	a3,0(a5)
   12c90:	b78a0593          	addi	a1,s4,-1160
   12c94:	f9040793          	addi	a5,s0,-112
   12c98:	863a                	mv	a2,a4
   12c9a:	95be                	add	a1,a1,a5
   12c9c:	854e                	mv	a0,s3
   12c9e:	9302                	jalr	t1
   12ca0:	4685                	li	a3,1
   12ca2:	4701                	li	a4,0
   12ca4:	00d51863          	bne	a0,a3,12cb4 <__svfscanf_r+0xc98>
   12ca8:	f9040793          	addi	a5,s0,-112
   12cac:	01478733          	add	a4,a5,s4
   12cb0:	b7874703          	lbu	a4,-1160(a4)
   12cb4:	77fd                	lui	a5,0xfffff
   12cb6:	f9078793          	addi	a5,a5,-112 # ffffffffffffef90 <__BSS_END__+0xfffffffffffd8b58>
   12cba:	97a2                	add	a5,a5,s0
   12cbc:	973e                	add	a4,a4,a5
   12cbe:	b9074703          	lbu	a4,-1136(a4)
   12cc2:	e319                	bnez	a4,12cc8 <__svfscanf_r+0xcac>
   12cc4:	3d80106f          	j	1409c <__svfscanf_r+0x2080>
   12cc8:	77fd                	lui	a5,0xfffff
   12cca:	ad078793          	addi	a5,a5,-1328 # ffffffffffffead0 <__BSS_END__+0xfffffffffffd8698>
   12cce:	97a2                	add	a5,a5,s0
   12cd0:	439c                	lw	a5,0(a5)
   12cd2:	470d                	li	a4,3
   12cd4:	01878c3b          	addw	s8,a5,s8
   12cd8:	48e900e3          	beq	s2,a4,13958 <__svfscanf_r+0x193c>
   12cdc:	1afd                	addi	s5,s5,-1
   12cde:	77fd                	lui	a5,0xfffff
   12ce0:	ab078793          	addi	a5,a5,-1360 # ffffffffffffeab0 <__BSS_END__+0xfffffffffffd8678>
   12ce4:	97a2                	add	a5,a5,s0
   12ce6:	639c                	ld	a5,0(a5)
   12ce8:	e3b1                	bnez	a5,12d2c <__svfscanf_r+0xd10>
   12cea:	77fd                	lui	a5,0xfffff
   12cec:	ae078793          	addi	a5,a5,-1312 # ffffffffffffeae0 <__BSS_END__+0xfffffffffffd86a8>
   12cf0:	97a2                	add	a5,a5,s0
   12cf2:	639c                	ld	a5,0(a5)
   12cf4:	777d                	lui	a4,0xfffff
   12cf6:	ae070713          	addi	a4,a4,-1312 # ffffffffffffeae0 <__BSS_END__+0xfffffffffffd86a8>
   12cfa:	9722                	add	a4,a4,s0
   12cfc:	0791                	addi	a5,a5,4
   12cfe:	e31c                	sd	a5,0(a4)
   12d00:	777d                	lui	a4,0xfffff
   12d02:	aa070713          	addi	a4,a4,-1376 # ffffffffffffeaa0 <__BSS_END__+0xfffffffffffd8668>
   12d06:	9722                	add	a4,a4,s0
   12d08:	6318                	ld	a4,0(a4)
   12d0a:	c30d                	beqz	a4,12d2c <__svfscanf_r+0xd10>
   12d0c:	777d                	lui	a4,0xfffff
   12d0e:	a9870713          	addi	a4,a4,-1384 # ffffffffffffea98 <__BSS_END__+0xfffffffffffd8660>
   12d12:	9722                	add	a4,a4,s0
   12d14:	6318                	ld	a4,0(a4)
   12d16:	40e78bb3          	sub	s7,a5,a4
   12d1a:	77fd                	lui	a5,0xfffff
   12d1c:	a9078793          	addi	a5,a5,-1392 # ffffffffffffea90 <__BSS_END__+0xfffffffffffd8658>
   12d20:	97a2                	add	a5,a5,s0
   12d22:	639c                	ld	a5,0(a5)
   12d24:	402bd713          	srai	a4,s7,0x2
   12d28:	76f770e3          	bgeu	a4,a5,13c88 <__svfscanf_r+0x1c6c>
   12d2c:	008d2703          	lw	a4,8(s10)
   12d30:	4b81                	li	s7,0
   12d32:	44e055e3          	blez	a4,1397c <__svfscanf_r+0x1960>
   12d36:	e80a99e3          	bnez	s5,12bc8 <__svfscanf_r+0xbac>
   12d3a:	77fd                	lui	a5,0xfffff
   12d3c:	ab078793          	addi	a5,a5,-1360 # ffffffffffffeab0 <__BSS_END__+0xfffffffffffd8678>
   12d40:	97a2                	add	a5,a5,s0
   12d42:	639c                	ld	a5,0(a5)
   12d44:	efa1                	bnez	a5,12d9c <__svfscanf_r+0xd80>
   12d46:	77fd                	lui	a5,0xfffff
   12d48:	ae078793          	addi	a5,a5,-1312 # ffffffffffffeae0 <__BSS_END__+0xfffffffffffd86a8>
   12d4c:	777d                	lui	a4,0xfffff
   12d4e:	97a2                	add	a5,a5,s0
   12d50:	aa070713          	addi	a4,a4,-1376 # ffffffffffffeaa0 <__BSS_END__+0xfffffffffffd8668>
   12d54:	639c                	ld	a5,0(a5)
   12d56:	9722                	add	a4,a4,s0
   12d58:	6318                	ld	a4,0(a4)
   12d5a:	0007a023          	sw	zero,0(a5)
   12d5e:	c705                	beqz	a4,12d86 <__svfscanf_r+0xd6a>
   12d60:	777d                	lui	a4,0xfffff
   12d62:	a9870713          	addi	a4,a4,-1384 # ffffffffffffea98 <__BSS_END__+0xfffffffffffd8660>
   12d66:	9722                	add	a4,a4,s0
   12d68:	6318                	ld	a4,0(a4)
   12d6a:	40e785b3          	sub	a1,a5,a4
   12d6e:	77fd                	lui	a5,0xfffff
   12d70:	a9078793          	addi	a5,a5,-1392 # ffffffffffffea90 <__BSS_END__+0xfffffffffffd8658>
   12d74:	97a2                	add	a5,a5,s0
   12d76:	639c                	ld	a5,0(a5)
   12d78:	4025d713          	srai	a4,a1,0x2
   12d7c:	0705                	addi	a4,a4,1
   12d7e:	00f77463          	bgeu	a4,a5,12d86 <__svfscanf_r+0xd6a>
   12d82:	4460106f          	j	141c8 <__svfscanf_r+0x21ac>
   12d86:	77fd                	lui	a5,0xfffff
   12d88:	ae878793          	addi	a5,a5,-1304 # ffffffffffffeae8 <__BSS_END__+0xfffffffffffd86b0>
   12d8c:	97a2                	add	a5,a5,s0
   12d8e:	639c                	ld	a5,0(a5)
   12d90:	777d                	lui	a4,0xfffff
   12d92:	ae870713          	addi	a4,a4,-1304 # ffffffffffffeae8 <__BSS_END__+0xfffffffffffd86b0>
   12d96:	2785                	addiw	a5,a5,1
   12d98:	9722                	add	a4,a4,s0
   12d9a:	e31c                	sd	a5,0(a4)
   12d9c:	77fd                	lui	a5,0xfffff
   12d9e:	a8878793          	addi	a5,a5,-1400 # ffffffffffffea88 <__BSS_END__+0xfffffffffffd8650>
   12da2:	0970006f          	j	13638 <__svfscanf_r+0x161c>
   12da6:	77fd                	lui	a5,0xfffff
   12da8:	ad078793          	addi	a5,a5,-1328 # ffffffffffffead0 <__BSS_END__+0xfffffffffffd8698>
   12dac:	97a2                	add	a5,a5,s0
   12dae:	854e                	mv	a0,s3
   12db0:	0067b023          	sd	t1,0(a5)
   12db4:	350040ef          	jal	ra,17104 <_localeconv_r>
   12db8:	611c                	ld	a5,0(a0)
   12dba:	76fd                	lui	a3,0xfffff
   12dbc:	ab068693          	addi	a3,a3,-1360 # ffffffffffffeab0 <__BSS_END__+0xfffffffffffd8678>
   12dc0:	96a2                	add	a3,a3,s0
   12dc2:	e29c                	sd	a5,0(a3)
   12dc4:	77fd                	lui	a5,0xfffff
   12dc6:	aa078793          	addi	a5,a5,-1376 # ffffffffffffeaa0 <__BSS_END__+0xfffffffffffd8668>
   12dca:	97a2                	add	a5,a5,s0
   12dcc:	0007b023          	sd	zero,0(a5)
   12dd0:	77fd                	lui	a5,0xfffff
   12dd2:	6605                	lui	a2,0x1
   12dd4:	ad078793          	addi	a5,a5,-1328 # ffffffffffffead0 <__BSS_END__+0xfffffffffffd8698>
   12dd8:	97a2                	add	a5,a5,s0
   12dda:	fffa8713          	addi	a4,s5,-1
   12dde:	36c60593          	addi	a1,a2,876 # 136c <register_fini-0xed44>
   12de2:	0007b303          	ld	t1,0(a5)
   12de6:	00e5fe63          	bgeu	a1,a4,12e02 <__svfscanf_r+0xde6>
   12dea:	777d                	lui	a4,0xfffff
   12dec:	c937071b          	addiw	a4,a4,-877
   12df0:	015707bb          	addw	a5,a4,s5
   12df4:	777d                	lui	a4,0xfffff
   12df6:	aa070713          	addi	a4,a4,-1376 # ffffffffffffeaa0 <__BSS_END__+0xfffffffffffd8668>
   12dfa:	9722                	add	a4,a4,s0
   12dfc:	e31c                	sd	a5,0(a4)
   12dfe:	36d60a93          	addi	s5,a2,877
   12e02:	77fd                	lui	a5,0xfffff
   12e04:	a9078793          	addi	a5,a5,-1392 # ffffffffffffea90 <__BSS_END__+0xfffffffffffd8658>
   12e08:	97a2                	add	a5,a5,s0
   12e0a:	0007b023          	sd	zero,0(a5)
   12e0e:	77fd                	lui	a5,0xfffff
   12e10:	a9878793          	addi	a5,a5,-1384 # ffffffffffffea98 <__BSS_END__+0xfffffffffffd8660>
   12e14:	97a2                	add	a5,a5,s0
   12e16:	0007b023          	sd	zero,0(a5)
   12e1a:	77fd                	lui	a5,0xfffff
   12e1c:	ac878793          	addi	a5,a5,-1336 # ffffffffffffeac8 <__BSS_END__+0xfffffffffffd8690>
   12e20:	97a2                	add	a5,a5,s0
   12e22:	0007b023          	sd	zero,0(a5)
   12e26:	77fd                	lui	a5,0xfffff
   12e28:	ab878793          	addi	a5,a5,-1352 # ffffffffffffeab8 <__BSS_END__+0xfffffffffffd8680>
   12e2c:	97a2                	add	a5,a5,s0
   12e2e:	777d                	lui	a4,0xfffff
   12e30:	0007b023          	sd	zero,0(a5)
   12e34:	c9070713          	addi	a4,a4,-880 # ffffffffffffec90 <__BSS_END__+0xfffffffffffd8858>
   12e38:	f9040793          	addi	a5,s0,-112
   12e3c:	00023eb7          	lui	t4,0x23
   12e40:	78036d93          	ori	s11,t1,1920
   12e44:	4f01                	li	t5,0
   12e46:	00e78bb3          	add	s7,a5,a4
   12e4a:	04e00613          	li	a2,78
   12e4e:	ea0e8e93          	addi	t4,t4,-352 # 22ea0 <zeroes.0+0x1a8>
   12e52:	000d3583          	ld	a1,0(s10)
   12e56:	0005c503          	lbu	a0,0(a1)
   12e5a:	fd55071b          	addiw	a4,a0,-43
   12e5e:	0ff77713          	andi	a4,a4,255
   12e62:	00e66663          	bltu	a2,a4,12e6e <__svfscanf_r+0xe52>
   12e66:	070a                	slli	a4,a4,0x2
   12e68:	9776                	add	a4,a4,t4
   12e6a:	4318                	lw	a4,0(a4)
   12e6c:	8702                	jr	a4
   12e6e:	77fd                	lui	a5,0xfffff
   12e70:	ab078793          	addi	a5,a5,-1360 # ffffffffffffeab0 <__BSS_END__+0xfffffffffffd8678>
   12e74:	97a2                	add	a5,a5,s0
   12e76:	639c                	ld	a5,0(a5)
   12e78:	0007c703          	lbu	a4,0(a5)
   12e7c:	52a71a63          	bne	a4,a0,133b0 <__svfscanf_r+0x1394>
   12e80:	200df713          	andi	a4,s11,512
   12e84:	52070663          	beqz	a4,133b0 <__svfscanf_r+0x1394>
   12e88:	77fd                	lui	a5,0xfffff
   12e8a:	ac878793          	addi	a5,a5,-1336 # ffffffffffffeac8 <__BSS_END__+0xfffffffffffd8690>
   12e8e:	97a2                	add	a5,a5,s0
   12e90:	639c                	ld	a5,0(a5)
   12e92:	777d                	lui	a4,0xfffff
   12e94:	ab870713          	addi	a4,a4,-1352 # ffffffffffffeab8 <__BSS_END__+0xfffffffffffd8680>
   12e98:	d7fdf313          	andi	t1,s11,-641
   12e9c:	9722                	add	a4,a4,s0
   12e9e:	00030d9b          	sext.w	s11,t1
   12ea2:	e31c                	sd	a5,0(a4)
   12ea4:	00ab8023          	sb	a0,0(s7)
   12ea8:	1afd                	addi	s5,s5,-1
   12eaa:	0b85                	addi	s7,s7,1
   12eac:	008d2703          	lw	a4,8(s10)
   12eb0:	2c05                	addiw	s8,s8,1
   12eb2:	fff7051b          	addiw	a0,a4,-1
   12eb6:	00ad2423          	sw	a0,8(s10)
   12eba:	24a05463          	blez	a0,13102 <__svfscanf_r+0x10e6>
   12ebe:	0585                	addi	a1,a1,1
   12ec0:	00bd3023          	sd	a1,0(s10)
   12ec4:	f80a97e3          	bnez	s5,12e52 <__svfscanf_r+0xe36>
   12ec8:	a1e5                	j	133b0 <__svfscanf_r+0x1394>
   12eca:	019f0733          	add	a4,t5,s9
   12ece:	4e071163          	bnez	a4,133b0 <__svfscanf_r+0x1394>
   12ed2:	e7fdfd93          	andi	s11,s11,-385
   12ed6:	b7f9                	j	12ea4 <__svfscanf_r+0xe88>
   12ed8:	4705                	li	a4,1
   12eda:	4cef1b63          	bne	t5,a4,133b0 <__svfscanf_r+0x1394>
   12ede:	4f09                	li	t5,2
   12ee0:	b7d1                	j	12ea4 <__svfscanf_r+0xe88>
   12ee2:	080df713          	andi	a4,s11,128
   12ee6:	4c070563          	beqz	a4,133b0 <__svfscanf_r+0x1394>
   12eea:	f7fdfd93          	andi	s11,s11,-129
   12eee:	bf5d                	j	12ea4 <__svfscanf_r+0xe88>
   12ef0:	4c0f1c63          	bnez	t5,133c8 <__svfscanf_r+0x13ac>
   12ef4:	77fd                	lui	a5,0xfffff
   12ef6:	ac878793          	addi	a5,a5,-1336 # ffffffffffffeac8 <__BSS_END__+0xfffffffffffd8690>
   12efa:	97a2                	add	a5,a5,s0
   12efc:	639c                	ld	a5,0(a5)
   12efe:	eb89                	bnez	a5,12f10 <__svfscanf_r+0xef4>
   12f00:	700df713          	andi	a4,s11,1792
   12f04:	70000f93          	li	t6,1792
   12f08:	01f71463          	bne	a4,t6,12f10 <__svfscanf_r+0xef4>
   12f0c:	0160106f          	j	13f22 <__svfscanf_r+0x1f06>
   12f10:	4705                	li	a4,1
   12f12:	00ec8563          	beq	s9,a4,12f1c <__svfscanf_r+0xf00>
   12f16:	4711                	li	a4,4
   12f18:	48ec9c63          	bne	s9,a4,133b0 <__svfscanf_r+0x1394>
   12f1c:	001c869b          	addiw	a3,s9,1
   12f20:	0ff6fc93          	andi	s9,a3,255
   12f24:	b741                	j	12ea4 <__svfscanf_r+0xe88>
   12f26:	460c9f63          	bnez	s9,133a4 <__svfscanf_r+0x1388>
   12f2a:	77fd                	lui	a5,0xfffff
   12f2c:	ac878793          	addi	a5,a5,-1336 # ffffffffffffeac8 <__BSS_END__+0xfffffffffffd8690>
   12f30:	97a2                	add	a5,a5,s0
   12f32:	639c                	ld	a5,0(a5)
   12f34:	48079563          	bnez	a5,133be <__svfscanf_r+0x13a2>
   12f38:	700df713          	andi	a4,s11,1792
   12f3c:	70000f93          	li	t6,1792
   12f40:	01f71463          	bne	a4,t6,12f48 <__svfscanf_r+0xf2c>
   12f44:	7d50006f          	j	13f18 <__svfscanf_r+0x1efc>
   12f48:	3f7d                	addiw	t5,t5,-1
   12f4a:	4705                	li	a4,1
   12f4c:	01e76463          	bltu	a4,t5,12f54 <__svfscanf_r+0xf38>
   12f50:	29c0106f          	j	141ec <__svfscanf_r+0x21d0>
   12f54:	fffc871b          	addiw	a4,s9,-1
   12f58:	4619                	li	a2,6
   12f5a:	0ce67de3          	bgeu	a2,a4,13834 <__svfscanf_r+0x1818>
   12f5e:	100df713          	andi	a4,s11,256
   12f62:	c721                	beqz	a4,12faa <__svfscanf_r+0xf8e>
   12f64:	400df713          	andi	a4,s11,1024
   12f68:	c319                	beqz	a4,12f6e <__svfscanf_r+0xf52>
   12f6a:	2e20106f          	j	1424c <__svfscanf_r+0x2230>
   12f6e:	fffbc583          	lbu	a1,-1(s7)
   12f72:	06500693          	li	a3,101
   12f76:	fffb8a93          	addi	s5,s7,-1
   12f7a:	fffc071b          	addiw	a4,s8,-1
   12f7e:	00d58663          	beq	a1,a3,12f8a <__svfscanf_r+0xf6e>
   12f82:	04500693          	li	a3,69
   12f86:	16d59be3          	bne	a1,a3,138fc <__svfscanf_r+0x18e0>
   12f8a:	77fd                	lui	a5,0xfffff
   12f8c:	ad078793          	addi	a5,a5,-1328 # ffffffffffffead0 <__BSS_END__+0xfffffffffffd8698>
   12f90:	97a2                	add	a5,a5,s0
   12f92:	866a                	mv	a2,s10
   12f94:	854e                	mv	a0,s3
   12f96:	e398                	sd	a4,0(a5)
   12f98:	704090ef          	jal	ra,1c69c <_ungetc_r>
   12f9c:	77fd                	lui	a5,0xfffff
   12f9e:	ad078793          	addi	a5,a5,-1328 # ffffffffffffead0 <__BSS_END__+0xfffffffffffd8698>
   12fa2:	97a2                	add	a5,a5,s0
   12fa4:	6398                	ld	a4,0(a5)
   12fa6:	8bd6                	mv	s7,s5
   12fa8:	8c3a                	mv	s8,a4
   12faa:	010df713          	andi	a4,s11,16
   12fae:	a8071163          	bnez	a4,12230 <__svfscanf_r+0x214>
   12fb2:	000b8023          	sb	zero,0(s7)
   12fb6:	600df713          	andi	a4,s11,1536
   12fba:	40000693          	li	a3,1024
   12fbe:	77fd                	lui	a5,0xfffff
   12fc0:	52d701e3          	beq	a4,a3,13ce2 <__svfscanf_r+0x1cc6>
   12fc4:	a9878793          	addi	a5,a5,-1384 # ffffffffffffea98 <__BSS_END__+0xfffffffffffd8660>
   12fc8:	97a2                	add	a5,a5,s0
   12fca:	639c                	ld	a5,0(a5)
   12fcc:	36079ee3          	bnez	a5,13b48 <__svfscanf_r+0x1b2c>
   12fd0:	77fd                	lui	a5,0xfffff
   12fd2:	ae078793          	addi	a5,a5,-1312 # ffffffffffffeae0 <__BSS_END__+0xfffffffffffd86a8>
   12fd6:	97a2                	add	a5,a5,s0
   12fd8:	639c                	ld	a5,0(a5)
   12fda:	002df713          	andi	a4,s11,2
   12fde:	001dfb93          	andi	s7,s11,1
   12fe2:	4601                	li	a2,0
   12fe4:	00878d93          	addi	s11,a5,8
   12fe8:	85da                	mv	a1,s6
   12fea:	854e                	mv	a0,s3
   12fec:	0a070de3          	beqz	a4,138a6 <__svfscanf_r+0x188a>
   12ff0:	2f2070ef          	jal	ra,1a2e2 <_strtold_r>
   12ff4:	2e0b8fe3          	beqz	s7,13af2 <__svfscanf_r+0x1ad6>
   12ff8:	f2000553          	fmv.d.x	fa0,zero
   12ffc:	77fd                	lui	a5,0xfffff
   12ffe:	ae078793          	addi	a5,a5,-1312 # ffffffffffffeae0 <__BSS_END__+0xfffffffffffd86a8>
   13002:	97a2                	add	a5,a5,s0
   13004:	639c                	ld	a5,0(a5)
   13006:	6398                	ld	a4,0(a5)
   13008:	a308                	fsd	fa0,0(a4)
   1300a:	77fd                	lui	a5,0xfffff
   1300c:	ae878793          	addi	a5,a5,-1304 # ffffffffffffeae8 <__BSS_END__+0xfffffffffffd86b0>
   13010:	97a2                	add	a5,a5,s0
   13012:	639c                	ld	a5,0(a5)
   13014:	777d                	lui	a4,0xfffff
   13016:	ae870713          	addi	a4,a4,-1304 # ffffffffffffeae8 <__BSS_END__+0xfffffffffffd86b0>
   1301a:	2785                	addiw	a5,a5,1
   1301c:	9722                	add	a4,a4,s0
   1301e:	e31c                	sd	a5,0(a4)
   13020:	77fd                	lui	a5,0xfffff
   13022:	ae078793          	addi	a5,a5,-1312 # ffffffffffffeae0 <__BSS_END__+0xfffffffffffd86a8>
   13026:	0004c703          	lbu	a4,0(s1)
   1302a:	97a2                	add	a5,a5,s0
   1302c:	01b7b023          	sd	s11,0(a5)
   13030:	f9040793          	addi	a5,s0,-112
   13034:	01478633          	add	a2,a5,s4
   13038:	b6e62e23          	sw	a4,-1156(a2)
   1303c:	0485                	addi	s1,s1,1
   1303e:	8c071463          	bnez	a4,12106 <__svfscanf_r+0xea>
   13042:	934ff06f          	j	12176 <__svfscanf_r+0x15a>
   13046:	4789                	li	a5,2
   13048:	36fc9463          	bne	s9,a5,133b0 <__svfscanf_r+0x1394>
   1304c:	4c8d                	li	s9,3
   1304e:	bd99                	j	12ea4 <__svfscanf_r+0xe88>
   13050:	500df713          	andi	a4,s11,1280
   13054:	40000793          	li	a5,1024
   13058:	00f70d63          	beq	a4,a5,13072 <__svfscanf_r+0x1056>
   1305c:	400df713          	andi	a4,s11,1024
   13060:	34070863          	beqz	a4,133b0 <__svfscanf_r+0x1394>
   13064:	77fd                	lui	a5,0xfffff
   13066:	ac878793          	addi	a5,a5,-1336 # ffffffffffffeac8 <__BSS_END__+0xfffffffffffd8690>
   1306a:	97a2                	add	a5,a5,s0
   1306c:	639c                	ld	a5,0(a5)
   1306e:	ec078de3          	beqz	a5,12f48 <__svfscanf_r+0xf2c>
   13072:	200df713          	andi	a4,s11,512
   13076:	e71d                	bnez	a4,130a4 <__svfscanf_r+0x1088>
   13078:	77fd                	lui	a5,0xfffff
   1307a:	777d                	lui	a4,0xfffff
   1307c:	ac878793          	addi	a5,a5,-1336 # ffffffffffffeac8 <__BSS_END__+0xfffffffffffd8690>
   13080:	ab870713          	addi	a4,a4,-1352 # ffffffffffffeab8 <__BSS_END__+0xfffffffffffd8680>
   13084:	97a2                	add	a5,a5,s0
   13086:	9722                	add	a4,a4,s0
   13088:	6318                	ld	a4,0(a4)
   1308a:	639c                	ld	a5,0(a5)
   1308c:	8f99                	sub	a5,a5,a4
   1308e:	777d                	lui	a4,0xfffff
   13090:	a9870713          	addi	a4,a4,-1384 # ffffffffffffea98 <__BSS_END__+0xfffffffffffd8660>
   13094:	9722                	add	a4,a4,s0
   13096:	e31c                	sd	a5,0(a4)
   13098:	77fd                	lui	a5,0xfffff
   1309a:	a9078793          	addi	a5,a5,-1392 # ffffffffffffea90 <__BSS_END__+0xfffffffffffd8658>
   1309e:	97a2                	add	a5,a5,s0
   130a0:	0177b023          	sd	s7,0(a5)
   130a4:	77fd                	lui	a5,0xfffff
   130a6:	ac878793          	addi	a5,a5,-1336 # ffffffffffffeac8 <__BSS_END__+0xfffffffffffd8690>
   130aa:	87fdf313          	andi	t1,s11,-1921
   130ae:	97a2                	add	a5,a5,s0
   130b0:	18036d93          	ori	s11,t1,384
   130b4:	0007b023          	sd	zero,0(a5)
   130b8:	b3f5                	j	12ea4 <__svfscanf_r+0xe88>
   130ba:	479d                	li	a5,7
   130bc:	2efc9a63          	bne	s9,a5,133b0 <__svfscanf_r+0x1394>
   130c0:	4ca1                	li	s9,8
   130c2:	b3cd                	j	12ea4 <__svfscanf_r+0xe88>
   130c4:	4799                	li	a5,6
   130c6:	2efc9563          	bne	s9,a5,133b0 <__svfscanf_r+0x1394>
   130ca:	4c9d                	li	s9,7
   130cc:	bbe1                	j	12ea4 <__svfscanf_r+0xe88>
   130ce:	100df713          	andi	a4,s11,256
   130d2:	de070ce3          	beqz	a4,12eca <__svfscanf_r+0xeae>
   130d6:	77fd                	lui	a5,0xfffff
   130d8:	ac878793          	addi	a5,a5,-1336 # ffffffffffffeac8 <__BSS_END__+0xfffffffffffd8690>
   130dc:	97a2                	add	a5,a5,s0
   130de:	639c                	ld	a5,0(a5)
   130e0:	777d                	lui	a4,0xfffff
   130e2:	ac870713          	addi	a4,a4,-1336 # ffffffffffffeac8 <__BSS_END__+0xfffffffffffd8690>
   130e6:	0785                	addi	a5,a5,1
   130e8:	9722                	add	a4,a4,s0
   130ea:	e31c                	sd	a5,0(a4)
   130ec:	77fd                	lui	a5,0xfffff
   130ee:	aa078793          	addi	a5,a5,-1376 # ffffffffffffeaa0 <__BSS_END__+0xfffffffffffd8668>
   130f2:	97a2                	add	a5,a5,s0
   130f4:	639c                	ld	a5,0(a5)
   130f6:	f7fdfd93          	andi	s11,s11,-129
   130fa:	72079063          	bnez	a5,1381a <__svfscanf_r+0x17fe>
   130fe:	1afd                	addi	s5,s5,-1
   13100:	b375                	j	12eac <__svfscanf_r+0xe90>
   13102:	77fd                	lui	a5,0xfffff
   13104:	ad078793          	addi	a5,a5,-1328 # ffffffffffffead0 <__BSS_END__+0xfffffffffffd8698>
   13108:	97a2                	add	a5,a5,s0
   1310a:	85ea                	mv	a1,s10
   1310c:	854e                	mv	a0,s3
   1310e:	01e7b023          	sd	t5,0(a5)
   13112:	3bd050ef          	jal	ra,18cce <__srefill_r>
   13116:	77fd                	lui	a5,0xfffff
   13118:	ad078793          	addi	a5,a5,-1328 # ffffffffffffead0 <__BSS_END__+0xfffffffffffd8698>
   1311c:	97a2                	add	a5,a5,s0
   1311e:	0007bf03          	ld	t5,0(a5)
   13122:	000237b7          	lui	a5,0x23
   13126:	04e00613          	li	a2,78
   1312a:	ea078e93          	addi	t4,a5,-352 # 22ea0 <zeroes.0+0x1a8>
   1312e:	28051163          	bnez	a0,133b0 <__svfscanf_r+0x1394>
   13132:	d20a90e3          	bnez	s5,12e52 <__svfscanf_r+0xe36>
   13136:	acad                	j	133b0 <__svfscanf_r+0x1394>
   13138:	77fd                	lui	a5,0xfffff
   1313a:	ac878793          	addi	a5,a5,-1336 # ffffffffffffeac8 <__BSS_END__+0xfffffffffffd8690>
   1313e:	6685                	lui	a3,0x1
   13140:	97a2                	add	a5,a5,s0
   13142:	fffa8713          	addi	a4,s5,-1
   13146:	36c68613          	addi	a2,a3,876 # 136c <register_fini-0xed44>
   1314a:	0007b023          	sd	zero,0(a5)
   1314e:	00e67e63          	bgeu	a2,a4,1316a <__svfscanf_r+0x114e>
   13152:	7bfd                	lui	s7,0xfffff
   13154:	777d                	lui	a4,0xfffff
   13156:	c93b8b9b          	addiw	s7,s7,-877
   1315a:	ac870713          	addi	a4,a4,-1336 # ffffffffffffeac8 <__BSS_END__+0xfffffffffffd8690>
   1315e:	015b87bb          	addw	a5,s7,s5
   13162:	9722                	add	a4,a4,s0
   13164:	e31c                	sd	a5,0(a4)
   13166:	36d68a93          	addi	s5,a3,877
   1316a:	77fd                	lui	a5,0xfffff
   1316c:	ad078793          	addi	a5,a5,-1328 # ffffffffffffead0 <__BSS_END__+0xfffffffffffd8698>
   13170:	6705                	lui	a4,0x1
   13172:	97a2                	add	a5,a5,s0
   13174:	d8070693          	addi	a3,a4,-640 # d80 <register_fini-0xf330>
   13178:	0007b023          	sd	zero,0(a5)
   1317c:	80070793          	addi	a5,a4,-2048
   13180:	777d                	lui	a4,0xfffff
   13182:	ab870713          	addi	a4,a4,-1352 # ffffffffffffeab8 <__BSS_END__+0xfffffffffffd8680>
   13186:	00d36db3          	or	s11,t1,a3
   1318a:	00023637          	lui	a2,0x23
   1318e:	000236b7          	lui	a3,0x23
   13192:	9722                	add	a4,a4,s0
   13194:	8cda                	mv	s9,s6
   13196:	fdc68693          	addi	a3,a3,-36 # 22fdc <zeroes.0+0x2e4>
   1319a:	47fa0e93          	addi	t4,s4,1151
   1319e:	11860b93          	addi	s7,a2,280 # 23118 <basefix.0>
   131a2:	e31c                	sd	a5,0(a4)
   131a4:	000d3583          	ld	a1,0(s10)
   131a8:	04d00f13          	li	t5,77
   131ac:	0005c503          	lbu	a0,0(a1)
   131b0:	fd55071b          	addiw	a4,a0,-43
   131b4:	0ff77713          	andi	a4,a4,255
   131b8:	04ef6163          	bltu	t5,a4,131fa <__svfscanf_r+0x11de>
   131bc:	070a                	slli	a4,a4,0x2
   131be:	9736                	add	a4,a4,a3
   131c0:	4318                	lw	a4,0(a4)
   131c2:	8702                	jr	a4
   131c4:	77fd                	lui	a5,0xfffff
   131c6:	ad878793          	addi	a5,a5,-1320 # ffffffffffffead8 <__BSS_END__+0xfffffffffffd86a0>
   131ca:	97a2                	add	a5,a5,s0
   131cc:	639c                	ld	a5,0(a5)
   131ce:	4729                	li	a4,10
   131d0:	02f75563          	bge	a4,a5,131fa <__svfscanf_r+0x11de>
   131d4:	01ddfdb3          	and	s11,s11,t4
   131d8:	00ac8023          	sb	a0,0(s9)
   131dc:	0c85                	addi	s9,s9,1
   131de:	008d2703          	lw	a4,8(s10)
   131e2:	fff7051b          	addiw	a0,a4,-1
   131e6:	00ad2423          	sw	a0,8(s10)
   131ea:	12a05a63          	blez	a0,1331e <__svfscanf_r+0x1302>
   131ee:	0585                	addi	a1,a1,1
   131f0:	00bd3023          	sd	a1,0(s10)
   131f4:	1afd                	addi	s5,s5,-1
   131f6:	fa0a97e3          	bnez	s5,131a4 <__svfscanf_r+0x1188>
   131fa:	100df713          	andi	a4,s11,256
   131fe:	c719                	beqz	a4,1320c <__svfscanf_r+0x11f0>
   13200:	6f9b6663          	bltu	s6,s9,138ec <__svfscanf_r+0x18d0>
   13204:	016c9463          	bne	s9,s6,1320c <__svfscanf_r+0x11f0>
   13208:	f6ffe06f          	j	12176 <__svfscanf_r+0x15a>
   1320c:	010df713          	andi	a4,s11,16
   13210:	16071163          	bnez	a4,13372 <__svfscanf_r+0x1356>
   13214:	77fd                	lui	a5,0xfffff
   13216:	ad878793          	addi	a5,a5,-1320 # ffffffffffffead8 <__BSS_END__+0xfffffffffffd86a0>
   1321a:	97a2                	add	a5,a5,s0
   1321c:	6394                	ld	a3,0(a5)
   1321e:	77fd                	lui	a5,0xfffff
   13220:	ac078793          	addi	a5,a5,-1344 # ffffffffffffeac0 <__BSS_END__+0xfffffffffffd8688>
   13224:	97a2                	add	a5,a5,s0
   13226:	639c                	ld	a5,0(a5)
   13228:	4601                	li	a2,0
   1322a:	85da                	mv	a1,s6
   1322c:	854e                	mv	a0,s3
   1322e:	000c8023          	sb	zero,0(s9)
   13232:	9782                	jalr	a5
   13234:	77fd                	lui	a5,0xfffff
   13236:	ae078793          	addi	a5,a5,-1312 # ffffffffffffeae0 <__BSS_END__+0xfffffffffffd86a8>
   1323a:	97a2                	add	a5,a5,s0
   1323c:	639c                	ld	a5,0(a5)
   1323e:	020df713          	andi	a4,s11,32
   13242:	00878b93          	addi	s7,a5,8
   13246:	10071363          	bnez	a4,1334c <__svfscanf_r+0x1330>
   1324a:	008df713          	andi	a4,s11,8
   1324e:	080719e3          	bnez	a4,13ae0 <__svfscanf_r+0x1ac4>
   13252:	004df713          	andi	a4,s11,4
   13256:	c375                	beqz	a4,1333a <__svfscanf_r+0x131e>
   13258:	77fd                	lui	a5,0xfffff
   1325a:	ae078793          	addi	a5,a5,-1312 # ffffffffffffeae0 <__BSS_END__+0xfffffffffffd86a8>
   1325e:	97a2                	add	a5,a5,s0
   13260:	639c                	ld	a5,0(a5)
   13262:	6398                	ld	a4,0(a5)
   13264:	00a71023          	sh	a0,0(a4)
   13268:	a0e5                	j	13350 <__svfscanf_r+0x1334>
   1326a:	77fd                	lui	a5,0xfffff
   1326c:	ad878793          	addi	a5,a5,-1320 # ffffffffffffead8 <__BSS_END__+0xfffffffffffd86a0>
   13270:	97a2                	add	a5,a5,s0
   13272:	639c                	ld	a5,0(a5)
   13274:	01ddfdb3          	and	s11,s11,t4
   13278:	00179713          	slli	a4,a5,0x1
   1327c:	975e                	add	a4,a4,s7
   1327e:	00071783          	lh	a5,0(a4)
   13282:	777d                	lui	a4,0xfffff
   13284:	ad870713          	addi	a4,a4,-1320 # ffffffffffffead8 <__BSS_END__+0xfffffffffffd86a0>
   13288:	9722                	add	a4,a4,s0
   1328a:	e31c                	sd	a5,0(a4)
   1328c:	b7b1                	j	131d8 <__svfscanf_r+0x11bc>
   1328e:	600df713          	andi	a4,s11,1536
   13292:	20000f13          	li	t5,512
   13296:	f7e712e3          	bne	a4,t5,131fa <__svfscanf_r+0x11de>
   1329a:	777d                	lui	a4,0xfffff
   1329c:	ad870713          	addi	a4,a4,-1320 # ffffffffffffead8 <__BSS_END__+0xfffffffffffd86a0>
   132a0:	dffdf313          	andi	t1,s11,-513
   132a4:	47c1                	li	a5,16
   132a6:	9722                	add	a4,a4,s0
   132a8:	50036d93          	ori	s11,t1,1280
   132ac:	e31c                	sd	a5,0(a4)
   132ae:	b72d                	j	131d8 <__svfscanf_r+0x11bc>
   132b0:	080df713          	andi	a4,s11,128
   132b4:	d339                	beqz	a4,131fa <__svfscanf_r+0x11de>
   132b6:	f7fdfd93          	andi	s11,s11,-129
   132ba:	bf39                	j	131d8 <__svfscanf_r+0x11bc>
   132bc:	77fd                	lui	a5,0xfffff
   132be:	ad878793          	addi	a5,a5,-1320 # ffffffffffffead8 <__BSS_END__+0xfffffffffffd86a0>
   132c2:	97a2                	add	a5,a5,s0
   132c4:	639c                	ld	a5,0(a5)
   132c6:	00179713          	slli	a4,a5,0x1
   132ca:	975e                	add	a4,a4,s7
   132cc:	00071783          	lh	a5,0(a4)
   132d0:	777d                	lui	a4,0xfffff
   132d2:	ad870713          	addi	a4,a4,-1320 # ffffffffffffead8 <__BSS_END__+0xfffffffffffd86a0>
   132d6:	9722                	add	a4,a4,s0
   132d8:	e31c                	sd	a5,0(a4)
   132da:	4721                	li	a4,8
   132dc:	eef74ce3          	blt	a4,a5,131d4 <__svfscanf_r+0x11b8>
   132e0:	bf29                	j	131fa <__svfscanf_r+0x11de>
   132e2:	77fd                	lui	a5,0xfffff
   132e4:	ab878793          	addi	a5,a5,-1352 # ffffffffffffeab8 <__BSS_END__+0xfffffffffffd8680>
   132e8:	97a2                	add	a5,a5,s0
   132ea:	639c                	ld	a5,0(a5)
   132ec:	00fdf733          	and	a4,s11,a5
   132f0:	ee0704e3          	beqz	a4,131d8 <__svfscanf_r+0x11bc>
   132f4:	77fd                	lui	a5,0xfffff
   132f6:	ad878793          	addi	a5,a5,-1320 # ffffffffffffead8 <__BSS_END__+0xfffffffffffd86a0>
   132fa:	97a2                	add	a5,a5,s0
   132fc:	639c                	ld	a5,0(a5)
   132fe:	eb89                	bnez	a5,13310 <__svfscanf_r+0x12f4>
   13300:	777d                	lui	a4,0xfffff
   13302:	ad870713          	addi	a4,a4,-1320 # ffffffffffffead8 <__BSS_END__+0xfffffffffffd86a0>
   13306:	47a1                	li	a5,8
   13308:	9722                	add	a4,a4,s0
   1330a:	200ded93          	ori	s11,s11,512
   1330e:	e31c                	sd	a5,0(a4)
   13310:	400df713          	andi	a4,s11,1024
   13314:	54070e63          	beqz	a4,13870 <__svfscanf_r+0x1854>
   13318:	a7fdfd93          	andi	s11,s11,-1409
   1331c:	bd75                	j	131d8 <__svfscanf_r+0x11bc>
   1331e:	85ea                	mv	a1,s10
   13320:	854e                	mv	a0,s3
   13322:	1ad050ef          	jal	ra,18cce <__srefill_r>
   13326:	000237b7          	lui	a5,0x23
   1332a:	fdc78693          	addi	a3,a5,-36 # 22fdc <zeroes.0+0x2e4>
   1332e:	77fd                	lui	a5,0xfffff
   13330:	47f78e93          	addi	t4,a5,1151 # fffffffffffff47f <__BSS_END__+0xfffffffffffd9047>
   13334:	ec0500e3          	beqz	a0,131f4 <__svfscanf_r+0x11d8>
   13338:	b5c9                	j	131fa <__svfscanf_r+0x11de>
   1333a:	001df713          	andi	a4,s11,1
   1333e:	640703e3          	beqz	a4,14184 <__svfscanf_r+0x2168>
   13342:	77fd                	lui	a5,0xfffff
   13344:	ae078793          	addi	a5,a5,-1312 # ffffffffffffeae0 <__BSS_END__+0xfffffffffffd86a8>
   13348:	97a2                	add	a5,a5,s0
   1334a:	639c                	ld	a5,0(a5)
   1334c:	6398                	ld	a4,0(a5)
   1334e:	e308                	sd	a0,0(a4)
   13350:	77fd                	lui	a5,0xfffff
   13352:	ae878793          	addi	a5,a5,-1304 # ffffffffffffeae8 <__BSS_END__+0xfffffffffffd86b0>
   13356:	97a2                	add	a5,a5,s0
   13358:	639c                	ld	a5,0(a5)
   1335a:	777d                	lui	a4,0xfffff
   1335c:	ae870713          	addi	a4,a4,-1304 # ffffffffffffeae8 <__BSS_END__+0xfffffffffffd86b0>
   13360:	2785                	addiw	a5,a5,1
   13362:	9722                	add	a4,a4,s0
   13364:	e31c                	sd	a5,0(a4)
   13366:	77fd                	lui	a5,0xfffff
   13368:	ae078793          	addi	a5,a5,-1312 # ffffffffffffeae0 <__BSS_END__+0xfffffffffffd86a8>
   1336c:	97a2                	add	a5,a5,s0
   1336e:	0177b023          	sd	s7,0(a5)
   13372:	77fd                	lui	a5,0xfffff
   13374:	ad078793          	addi	a5,a5,-1328 # ffffffffffffead0 <__BSS_END__+0xfffffffffffd8698>
   13378:	97a2                	add	a5,a5,s0
   1337a:	639c                	ld	a5,0(a5)
   1337c:	0004c703          	lbu	a4,0(s1)
   13380:	416c8e33          	sub	t3,s9,s6
   13384:	0187883b          	addw	a6,a5,s8
   13388:	f9040793          	addi	a5,s0,-112
   1338c:	01478633          	add	a2,a5,s4
   13390:	b6e62e23          	sw	a4,-1156(a2)
   13394:	01c80c3b          	addw	s8,a6,t3
   13398:	0485                	addi	s1,s1,1
   1339a:	c319                	beqz	a4,133a0 <__svfscanf_r+0x1384>
   1339c:	d6bfe06f          	j	12106 <__svfscanf_r+0xea>
   133a0:	dd7fe06f          	j	12176 <__svfscanf_r+0x15a>
   133a4:	ffdc871b          	addiw	a4,s9,-3
   133a8:	0fd77713          	andi	a4,a4,253
   133ac:	b60708e3          	beqz	a4,12f1c <__svfscanf_r+0xf00>
   133b0:	77fd                	lui	a5,0xfffff
   133b2:	ac878793          	addi	a5,a5,-1336 # ffffffffffffeac8 <__BSS_END__+0xfffffffffffd8690>
   133b6:	97a2                	add	a5,a5,s0
   133b8:	639c                	ld	a5,0(a5)
   133ba:	b80787e3          	beqz	a5,12f48 <__svfscanf_r+0xf2c>
   133be:	effdf313          	andi	t1,s11,-257
   133c2:	00030d9b          	sext.w	s11,t1
   133c6:	b649                	j	12f48 <__svfscanf_r+0xf2c>
   133c8:	4789                	li	a5,2
   133ca:	b4ff13e3          	bne	t5,a5,12f10 <__svfscanf_r+0xef4>
   133ce:	4f0d                	li	t5,3
   133d0:	bcd1                	j	12ea4 <__svfscanf_r+0xe88>
   133d2:	77fd                	lui	a5,0xfffff
   133d4:	ad078793          	addi	a5,a5,-1328 # ffffffffffffead0 <__BSS_END__+0xfffffffffffd8698>
   133d8:	97a2                	add	a5,a5,s0
   133da:	639c                	ld	a5,0(a5)
   133dc:	260794e3          	bnez	a5,13e44 <__svfscanf_r+0x1e28>
   133e0:	77fd                	lui	a5,0xfffff
   133e2:	ae078793          	addi	a5,a5,-1312 # ffffffffffffeae0 <__BSS_END__+0xfffffffffffd86a8>
   133e6:	97a2                	add	a5,a5,s0
   133e8:	639c                	ld	a5,0(a5)
   133ea:	777d                	lui	a4,0xfffff
   133ec:	ae070713          	addi	a4,a4,-1312 # ffffffffffffeae0 <__BSS_END__+0xfffffffffffd86a8>
   133f0:	0007bd83          	ld	s11,0(a5)
   133f4:	9722                	add	a4,a4,s0
   133f6:	07a1                	addi	a5,a5,8
   133f8:	08037313          	andi	t1,t1,128
   133fc:	e31c                	sd	a5,0(a4)
   133fe:	4c030963          	beqz	t1,138d0 <__svfscanf_r+0x18b4>
   13402:	000d9463          	bnez	s11,1340a <__svfscanf_r+0x13ee>
   13406:	d71fe06f          	j	12176 <__svfscanf_r+0x15a>
   1340a:	855e                	mv	a0,s7
   1340c:	749030ef          	jal	ra,17354 <malloc>
   13410:	8aaa                	mv	s5,a0
   13412:	540505e3          	beqz	a0,1415c <__svfscanf_r+0x2140>
   13416:	77fd                	lui	a5,0xfffff
   13418:	af078793          	addi	a5,a5,-1296 # ffffffffffffeaf0 <__BSS_END__+0xfffffffffffd86b8>
   1341c:	97a2                	add	a5,a5,s0
   1341e:	639c                	ld	a5,0(a5)
   13420:	00adb023          	sd	a0,0(s11)
   13424:	0087d683          	lhu	a3,8(a5)
   13428:	0007bc83          	ld	s9,0(a5)
   1342c:	00a7d703          	lhu	a4,10(a5)
   13430:	0006859b          	sext.w	a1,a3
   13434:	8366                	mv	t1,s9
   13436:	04d76d63          	bltu	a4,a3,13490 <__svfscanf_r+0x1474>
   1343a:	77fd                	lui	a5,0xfffff
   1343c:	ac878793          	addi	a5,a5,-1336 # ffffffffffffeac8 <__BSS_END__+0xfffffffffffd8690>
   13440:	97a2                	add	a5,a5,s0
   13442:	6641                	lui	a2,0x10
   13444:	e398                	sd	a4,0(a5)
   13446:	1659                	addi	a2,a2,-10
   13448:	5cb66ee3          	bltu	a2,a1,14224 <__svfscanf_r+0x2208>
   1344c:	26a1                	addiw	a3,a3,8
   1344e:	16c2                	slli	a3,a3,0x30
   13450:	77fd                	lui	a5,0xfffff
   13452:	92c1                	srli	a3,a3,0x30
   13454:	ad078793          	addi	a5,a5,-1328 # ffffffffffffead0 <__BSS_END__+0xfffffffffffd8698>
   13458:	97a2                	add	a5,a5,s0
   1345a:	8566                	mv	a0,s9
   1345c:	00369593          	slli	a1,a3,0x3
   13460:	e394                	sd	a3,0(a5)
   13462:	444050ef          	jal	ra,188a6 <realloc>
   13466:	77fd                	lui	a5,0xfffff
   13468:	ad078793          	addi	a5,a5,-1328 # ffffffffffffead0 <__BSS_END__+0xfffffffffffd8698>
   1346c:	97a2                	add	a5,a5,s0
   1346e:	6394                	ld	a3,0(a5)
   13470:	77fd                	lui	a5,0xfffff
   13472:	ac878793          	addi	a5,a5,-1336 # ffffffffffffeac8 <__BSS_END__+0xfffffffffffd8690>
   13476:	97a2                	add	a5,a5,s0
   13478:	6398                	ld	a4,0(a5)
   1347a:	77fd                	lui	a5,0xfffff
   1347c:	af078793          	addi	a5,a5,-1296 # ffffffffffffeaf0 <__BSS_END__+0xfffffffffffd86b8>
   13480:	97a2                	add	a5,a5,s0
   13482:	639c                	ld	a5,0(a5)
   13484:	8caa                	mv	s9,a0
   13486:	58050de3          	beqz	a0,14220 <__svfscanf_r+0x2204>
   1348a:	e388                	sd	a0,0(a5)
   1348c:	00d79423          	sh	a3,8(a5)
   13490:	77fd                	lui	a5,0xfffff
   13492:	af078793          	addi	a5,a5,-1296 # ffffffffffffeaf0 <__BSS_END__+0xfffffffffffd86b8>
   13496:	97a2                	add	a5,a5,s0
   13498:	639c                	ld	a5,0(a5)
   1349a:	00371693          	slli	a3,a4,0x3
   1349e:	96e6                	add	a3,a3,s9
   134a0:	2705                	addiw	a4,a4,1
   134a2:	00e79523          	sh	a4,10(a5)
   134a6:	01b6b023          	sd	s11,0(a3)
   134aa:	85d6                	mv	a1,s5
   134ac:	876a                	mv	a4,s10
   134ae:	86de                	mv	a3,s7
   134b0:	4605                	li	a2,1
   134b2:	854e                	mv	a0,s3
   134b4:	5d6010ef          	jal	ra,14a8a <_fread_r>
   134b8:	8aaa                	mv	s5,a0
   134ba:	680503e3          	beqz	a0,14340 <__svfscanf_r+0x2324>
   134be:	6f756163          	bltu	a0,s7,13ba0 <__svfscanf_r+0x1b84>
   134c2:	018a8c3b          	addw	s8,s5,s8
   134c6:	a60d                	j	137e8 <__svfscanf_r+0x17cc>
   134c8:	77fd                	lui	a5,0xfffff
   134ca:	ab078793          	addi	a5,a5,-1360 # ffffffffffffeab0 <__BSS_END__+0xfffffffffffd8678>
   134ce:	97a2                	add	a5,a5,s0
   134d0:	639c                	ld	a5,0(a5)
   134d2:	060799e3          	bnez	a5,13d44 <__svfscanf_r+0x1d28>
   134d6:	77fd                	lui	a5,0xfffff
   134d8:	ae078793          	addi	a5,a5,-1312 # ffffffffffffeae0 <__BSS_END__+0xfffffffffffd86a8>
   134dc:	97a2                	add	a5,a5,s0
   134de:	639c                	ld	a5,0(a5)
   134e0:	777d                	lui	a4,0xfffff
   134e2:	ac870713          	addi	a4,a4,-1336 # ffffffffffffeac8 <__BSS_END__+0xfffffffffffd8690>
   134e6:	0007bc83          	ld	s9,0(a5)
   134ea:	9722                	add	a4,a4,s0
   134ec:	07a1                	addi	a5,a5,8
   134ee:	08037313          	andi	t1,t1,128
   134f2:	e31c                	sd	a5,0(a4)
   134f4:	260306e3          	beqz	t1,13f60 <__svfscanf_r+0x1f44>
   134f8:	000c9463          	bnez	s9,13500 <__svfscanf_r+0x14e4>
   134fc:	c7bfe06f          	j	12176 <__svfscanf_r+0x15a>
   13500:	02000513          	li	a0,32
   13504:	651030ef          	jal	ra,17354 <malloc>
   13508:	8baa                	mv	s7,a0
   1350a:	440509e3          	beqz	a0,1415c <__svfscanf_r+0x2140>
   1350e:	77fd                	lui	a5,0xfffff
   13510:	af078793          	addi	a5,a5,-1296 # ffffffffffffeaf0 <__BSS_END__+0xfffffffffffd86b8>
   13514:	97a2                	add	a5,a5,s0
   13516:	639c                	ld	a5,0(a5)
   13518:	017cb023          	sd	s7,0(s9)
   1351c:	0087d583          	lhu	a1,8(a5)
   13520:	6388                	ld	a0,0(a5)
   13522:	00a7d683          	lhu	a3,10(a5)
   13526:	00058e1b          	sext.w	t3,a1
   1352a:	832a                	mv	t1,a0
   1352c:	4ab6f263          	bgeu	a3,a1,139d0 <__svfscanf_r+0x19b4>
   13530:	77fd                	lui	a5,0xfffff
   13532:	af078793          	addi	a5,a5,-1296 # ffffffffffffeaf0 <__BSS_END__+0xfffffffffffd86b8>
   13536:	97a2                	add	a5,a5,s0
   13538:	639c                	ld	a5,0(a5)
   1353a:	00369713          	slli	a4,a3,0x3
   1353e:	972a                	add	a4,a4,a0
   13540:	2685                	addiw	a3,a3,1
   13542:	00d79523          	sh	a3,10(a5)
   13546:	01973023          	sd	s9,0(a4)
   1354a:	02000313          	li	t1,32
   1354e:	000d3703          	ld	a4,0(s10)
   13552:	f9040793          	addi	a5,s0,-112
   13556:	01478e33          	add	t3,a5,s4
   1355a:	00074683          	lbu	a3,0(a4)
   1355e:	96f2                	add	a3,a3,t3
   13560:	b906c683          	lbu	a3,-1136(a3)
   13564:	e299                	bnez	a3,1356a <__svfscanf_r+0x154e>
   13566:	c11fe06f          	j	12176 <__svfscanf_r+0x15a>
   1356a:	8dde                	mv	s11,s7
   1356c:	a02d                	j	13596 <__svfscanf_r+0x157a>
   1356e:	41b706b3          	sub	a3,a4,s11
   13572:	8bba                	mv	s7,a4
   13574:	0e66f763          	bgeu	a3,t1,13662 <__svfscanf_r+0x1646>
   13578:	1afd                	addi	s5,s5,-1
   1357a:	060a8a63          	beqz	s5,135ee <__svfscanf_r+0x15d2>
   1357e:	008d2703          	lw	a4,8(s10)
   13582:	02e05d63          	blez	a4,135bc <__svfscanf_r+0x15a0>
   13586:	000d3703          	ld	a4,0(s10)
   1358a:	00074683          	lbu	a3,0(a4)
   1358e:	96f2                	add	a3,a3,t3
   13590:	b906c683          	lbu	a3,-1136(a3)
   13594:	cea9                	beqz	a3,135ee <__svfscanf_r+0x15d2>
   13596:	008d2683          	lw	a3,8(s10)
   1359a:	00170593          	addi	a1,a4,1
   1359e:	00bd3023          	sd	a1,0(s10)
   135a2:	36fd                	addiw	a3,a3,-1
   135a4:	00dd2423          	sw	a3,8(s10)
   135a8:	00074683          	lbu	a3,0(a4)
   135ac:	001b8713          	addi	a4,s7,1 # fffffffffffff001 <__BSS_END__+0xfffffffffffd8bc9>
   135b0:	00db8023          	sb	a3,0(s7)
   135b4:	fa0c9de3          	bnez	s9,1356e <__svfscanf_r+0x1552>
   135b8:	8bba                	mv	s7,a4
   135ba:	bf7d                	j	13578 <__svfscanf_r+0x155c>
   135bc:	77fd                	lui	a5,0xfffff
   135be:	ae078793          	addi	a5,a5,-1312 # ffffffffffffeae0 <__BSS_END__+0xfffffffffffd86a8>
   135c2:	97a2                	add	a5,a5,s0
   135c4:	85ea                	mv	a1,s10
   135c6:	854e                	mv	a0,s3
   135c8:	0067b023          	sd	t1,0(a5)
   135cc:	702050ef          	jal	ra,18cce <__srefill_r>
   135d0:	77fd                	lui	a5,0xfffff
   135d2:	ae078793          	addi	a5,a5,-1312 # ffffffffffffeae0 <__BSS_END__+0xfffffffffffd86a8>
   135d6:	97a2                	add	a5,a5,s0
   135d8:	0007b303          	ld	t1,0(a5)
   135dc:	77fd                	lui	a5,0xfffff
   135de:	f9078e13          	addi	t3,a5,-112 # ffffffffffffef90 <__BSS_END__+0xfffffffffffd8b58>
   135e2:	9e22                	add	t3,t3,s0
   135e4:	d14d                	beqz	a0,13586 <__svfscanf_r+0x156a>
   135e6:	01bb9463          	bne	s7,s11,135ee <__svfscanf_r+0x15d2>
   135ea:	cc9fe06f          	j	122b2 <__svfscanf_r+0x296>
   135ee:	41bb8dbb          	subw	s11,s7,s11
   135f2:	000d9463          	bnez	s11,135fa <__svfscanf_r+0x15de>
   135f6:	b81fe06f          	j	12176 <__svfscanf_r+0x15a>
   135fa:	000b8023          	sb	zero,0(s7)
   135fe:	000c8d63          	beqz	s9,13618 <__svfscanf_r+0x15fc>
   13602:	001d859b          	addiw	a1,s11,1
   13606:	0065f963          	bgeu	a1,t1,13618 <__svfscanf_r+0x15fc>
   1360a:	000cb503          	ld	a0,0(s9)
   1360e:	298050ef          	jal	ra,188a6 <realloc>
   13612:	c119                	beqz	a0,13618 <__svfscanf_r+0x15fc>
   13614:	00acb023          	sd	a0,0(s9)
   13618:	77fd                	lui	a5,0xfffff
   1361a:	ae878793          	addi	a5,a5,-1304 # ffffffffffffeae8 <__BSS_END__+0xfffffffffffd86b0>
   1361e:	97a2                	add	a5,a5,s0
   13620:	639c                	ld	a5,0(a5)
   13622:	777d                	lui	a4,0xfffff
   13624:	ae870713          	addi	a4,a4,-1304 # ffffffffffffeae8 <__BSS_END__+0xfffffffffffd86b0>
   13628:	2785                	addiw	a5,a5,1
   1362a:	9722                	add	a4,a4,s0
   1362c:	e31c                	sd	a5,0(a4)
   1362e:	77fd                	lui	a5,0xfffff
   13630:	01bc0c3b          	addw	s8,s8,s11
   13634:	ac878793          	addi	a5,a5,-1336 # ffffffffffffeac8 <__BSS_END__+0xfffffffffffd8690>
   13638:	97a2                	add	a5,a5,s0
   1363a:	639c                	ld	a5,0(a5)
   1363c:	777d                	lui	a4,0xfffff
   1363e:	ae070713          	addi	a4,a4,-1312 # ffffffffffffeae0 <__BSS_END__+0xfffffffffffd86a8>
   13642:	9722                	add	a4,a4,s0
   13644:	e31c                	sd	a5,0(a4)
   13646:	0004c703          	lbu	a4,0(s1)
   1364a:	f9040793          	addi	a5,s0,-112
   1364e:	01478633          	add	a2,a5,s4
   13652:	b6e62e23          	sw	a4,-1156(a2) # fb7c <register_fini-0x534>
   13656:	0485                	addi	s1,s1,1
   13658:	c319                	beqz	a4,1365e <__svfscanf_r+0x1642>
   1365a:	aadfe06f          	j	12106 <__svfscanf_r+0xea>
   1365e:	b19fe06f          	j	12176 <__svfscanf_r+0x15a>
   13662:	77fd                	lui	a5,0xfffff
   13664:	ad078793          	addi	a5,a5,-1328 # ffffffffffffead0 <__BSS_END__+0xfffffffffffd8698>
   13668:	97a2                	add	a5,a5,s0
   1366a:	e394                	sd	a3,0(a5)
   1366c:	77fd                	lui	a5,0xfffff
   1366e:	0306                	slli	t1,t1,0x1
   13670:	ae078793          	addi	a5,a5,-1312 # ffffffffffffeae0 <__BSS_END__+0xfffffffffffd86a8>
   13674:	856e                	mv	a0,s11
   13676:	97a2                	add	a5,a5,s0
   13678:	859a                	mv	a1,t1
   1367a:	0067b023          	sd	t1,0(a5)
   1367e:	228050ef          	jal	ra,188a6 <realloc>
   13682:	8daa                	mv	s11,a0
   13684:	2c050ce3          	beqz	a0,1415c <__svfscanf_r+0x2140>
   13688:	77fd                	lui	a5,0xfffff
   1368a:	ad078793          	addi	a5,a5,-1328 # ffffffffffffead0 <__BSS_END__+0xfffffffffffd8698>
   1368e:	97a2                	add	a5,a5,s0
   13690:	6394                	ld	a3,0(a5)
   13692:	77fd                	lui	a5,0xfffff
   13694:	ae078793          	addi	a5,a5,-1312 # ffffffffffffeae0 <__BSS_END__+0xfffffffffffd86a8>
   13698:	97a2                	add	a5,a5,s0
   1369a:	0007b303          	ld	t1,0(a5)
   1369e:	77fd                	lui	a5,0xfffff
   136a0:	f9078e13          	addi	t3,a5,-112 # ffffffffffffef90 <__BSS_END__+0xfffffffffffd8b58>
   136a4:	00d50bb3          	add	s7,a0,a3
   136a8:	00acb023          	sd	a0,0(s9)
   136ac:	9e22                	add	t3,t3,s0
   136ae:	b5e9                	j	13578 <__svfscanf_r+0x155c>
   136b0:	160d91e3          	bnez	s11,14012 <__svfscanf_r+0x1ff6>
   136b4:	77fd                	lui	a5,0xfffff
   136b6:	ae078793          	addi	a5,a5,-1312 # ffffffffffffeae0 <__BSS_END__+0xfffffffffffd86a8>
   136ba:	97a2                	add	a5,a5,s0
   136bc:	639c                	ld	a5,0(a5)
   136be:	777d                	lui	a4,0xfffff
   136c0:	ae070713          	addi	a4,a4,-1312 # ffffffffffffeae0 <__BSS_END__+0xfffffffffffd86a8>
   136c4:	0007bc83          	ld	s9,0(a5)
   136c8:	9722                	add	a4,a4,s0
   136ca:	07a1                	addi	a5,a5,8
   136cc:	08037313          	andi	t1,t1,128
   136d0:	e31c                	sd	a5,0(a4)
   136d2:	7c030263          	beqz	t1,13e96 <__svfscanf_r+0x1e7a>
   136d6:	000c9463          	bnez	s9,136de <__svfscanf_r+0x16c2>
   136da:	a9dfe06f          	j	12176 <__svfscanf_r+0x15a>
   136de:	02000513          	li	a0,32
   136e2:	473030ef          	jal	ra,17354 <malloc>
   136e6:	87aa                	mv	a5,a0
   136e8:	26050ae3          	beqz	a0,1415c <__svfscanf_r+0x2140>
   136ec:	777d                	lui	a4,0xfffff
   136ee:	af070713          	addi	a4,a4,-1296 # ffffffffffffeaf0 <__BSS_END__+0xfffffffffffd86b8>
   136f2:	9722                	add	a4,a4,s0
   136f4:	6318                	ld	a4,0(a4)
   136f6:	00fcb023          	sd	a5,0(s9)
   136fa:	00875603          	lhu	a2,8(a4)
   136fe:	6308                	ld	a0,0(a4)
   13700:	00a75b83          	lhu	s7,10(a4)
   13704:	00060e1b          	sext.w	t3,a2
   13708:	832a                	mv	t1,a0
   1370a:	20cbf563          	bgeu	s7,a2,13914 <__svfscanf_r+0x18f8>
   1370e:	777d                	lui	a4,0xfffff
   13710:	af070713          	addi	a4,a4,-1296 # ffffffffffffeaf0 <__BSS_END__+0xfffffffffffd86b8>
   13714:	9722                	add	a4,a4,s0
   13716:	6318                	ld	a4,0(a4)
   13718:	003b9613          	slli	a2,s7,0x3
   1371c:	001b869b          	addiw	a3,s7,1
   13720:	9532                	add	a0,a0,a2
   13722:	00d71523          	sh	a3,10(a4)
   13726:	01953023          	sd	s9,0(a0)
   1372a:	02000693          	li	a3,32
   1372e:	000d3583          	ld	a1,0(s10)
   13732:	00023e37          	lui	t3,0x23
   13736:	141e0b93          	addi	s7,t3,321 # 23141 <_ctype_+0x1>
   1373a:	0005c603          	lbu	a2,0(a1)
   1373e:	8dbe                	mv	s11,a5
   13740:	965e                	add	a2,a2,s7
   13742:	00064603          	lbu	a2,0(a2)
   13746:	8a21                	andi	a2,a2,8
   13748:	5a061c63          	bnez	a2,13d00 <__svfscanf_r+0x1ce4>
   1374c:	008d2603          	lw	a2,8(s10)
   13750:	00158513          	addi	a0,a1,1
   13754:	00ad3023          	sd	a0,0(s10)
   13758:	367d                	addiw	a2,a2,-1
   1375a:	00cd2423          	sw	a2,8(s10)
   1375e:	0005c583          	lbu	a1,0(a1)
   13762:	00178613          	addi	a2,a5,1
   13766:	00b78023          	sb	a1,0(a5)
   1376a:	000c8663          	beqz	s9,13776 <__svfscanf_r+0x175a>
   1376e:	41b607b3          	sub	a5,a2,s11
   13772:	38d7fa63          	bgeu	a5,a3,13b06 <__svfscanf_r+0x1aea>
   13776:	1afd                	addi	s5,s5,-1
   13778:	040a8a63          	beqz	s5,137cc <__svfscanf_r+0x17b0>
   1377c:	008d2583          	lw	a1,8(s10)
   13780:	00b05d63          	blez	a1,1379a <__svfscanf_r+0x177e>
   13784:	000d3583          	ld	a1,0(s10)
   13788:	0005c503          	lbu	a0,0(a1)
   1378c:	955e                	add	a0,a0,s7
   1378e:	00054503          	lbu	a0,0(a0)
   13792:	8921                	andi	a0,a0,8
   13794:	ed05                	bnez	a0,137cc <__svfscanf_r+0x17b0>
   13796:	87b2                	mv	a5,a2
   13798:	bf55                	j	1374c <__svfscanf_r+0x1730>
   1379a:	77fd                	lui	a5,0xfffff
   1379c:	ac878793          	addi	a5,a5,-1336 # ffffffffffffeac8 <__BSS_END__+0xfffffffffffd8690>
   137a0:	97a2                	add	a5,a5,s0
   137a2:	e394                	sd	a3,0(a5)
   137a4:	77fd                	lui	a5,0xfffff
   137a6:	ad078793          	addi	a5,a5,-1328 # ffffffffffffead0 <__BSS_END__+0xfffffffffffd8698>
   137aa:	97a2                	add	a5,a5,s0
   137ac:	85ea                	mv	a1,s10
   137ae:	854e                	mv	a0,s3
   137b0:	e390                	sd	a2,0(a5)
   137b2:	51c050ef          	jal	ra,18cce <__srefill_r>
   137b6:	77fd                	lui	a5,0xfffff
   137b8:	ad078793          	addi	a5,a5,-1328 # ffffffffffffead0 <__BSS_END__+0xfffffffffffd8698>
   137bc:	97a2                	add	a5,a5,s0
   137be:	6390                	ld	a2,0(a5)
   137c0:	77fd                	lui	a5,0xfffff
   137c2:	ac878793          	addi	a5,a5,-1336 # ffffffffffffeac8 <__BSS_END__+0xfffffffffffd8690>
   137c6:	97a2                	add	a5,a5,s0
   137c8:	6394                	ld	a3,0(a5)
   137ca:	dd4d                	beqz	a0,13784 <__svfscanf_r+0x1768>
   137cc:	41b605b3          	sub	a1,a2,s11
   137d0:	00058d9b          	sext.w	s11,a1
   137d4:	87b2                	mv	a5,a2
   137d6:	0585                	addi	a1,a1,1
   137d8:	00078023          	sb	zero,0(a5)
   137dc:	000c8463          	beqz	s9,137e4 <__svfscanf_r+0x17c8>
   137e0:	3ad5e763          	bltu	a1,a3,13b8e <__svfscanf_r+0x1b72>
   137e4:	01bc0c3b          	addw	s8,s8,s11
   137e8:	77fd                	lui	a5,0xfffff
   137ea:	ae878793          	addi	a5,a5,-1304 # ffffffffffffeae8 <__BSS_END__+0xfffffffffffd86b0>
   137ee:	97a2                	add	a5,a5,s0
   137f0:	639c                	ld	a5,0(a5)
   137f2:	777d                	lui	a4,0xfffff
   137f4:	ae870713          	addi	a4,a4,-1304 # ffffffffffffeae8 <__BSS_END__+0xfffffffffffd86b0>
   137f8:	2785                	addiw	a5,a5,1
   137fa:	9722                	add	a4,a4,s0
   137fc:	e31c                	sd	a5,0(a4)
   137fe:	0004c703          	lbu	a4,0(s1)
   13802:	f9040793          	addi	a5,s0,-112
   13806:	01478633          	add	a2,a5,s4
   1380a:	b6e62e23          	sw	a4,-1156(a2)
   1380e:	0485                	addi	s1,s1,1
   13810:	c319                	beqz	a4,13816 <__svfscanf_r+0x17fa>
   13812:	8f5fe06f          	j	12106 <__svfscanf_r+0xea>
   13816:	961fe06f          	j	12176 <__svfscanf_r+0x15a>
   1381a:	77fd                	lui	a5,0xfffff
   1381c:	aa078793          	addi	a5,a5,-1376 # ffffffffffffeaa0 <__BSS_END__+0xfffffffffffd8668>
   13820:	97a2                	add	a5,a5,s0
   13822:	639c                	ld	a5,0(a5)
   13824:	777d                	lui	a4,0xfffff
   13826:	aa070713          	addi	a4,a4,-1376 # ffffffffffffeaa0 <__BSS_END__+0xfffffffffffd8668>
   1382a:	37fd                	addiw	a5,a5,-1
   1382c:	9722                	add	a4,a4,s0
   1382e:	e31c                	sd	a5,0(a4)
   13830:	e7cff06f          	j	12eac <__svfscanf_r+0xe90>
   13834:	4709                	li	a4,2
   13836:	2b977ae3          	bgeu	a4,s9,142ea <__svfscanf_r+0x22ce>
   1383a:	470d                	li	a4,3
   1383c:	f2ec8163          	beq	s9,a4,12f5e <__svfscanf_r+0xf42>
   13840:	ffcc869b          	addiw	a3,s9,-4
   13844:	0ff6f793          	andi	a5,a3,255
   13848:	8cbe                	mv	s9,a5
   1384a:	fff7c793          	not	a5,a5
   1384e:	00fb8ab3          	add	s5,s7,a5
   13852:	fffbc583          	lbu	a1,-1(s7)
   13856:	866a                	mv	a2,s10
   13858:	1bfd                	addi	s7,s7,-1
   1385a:	854e                	mv	a0,s3
   1385c:	641080ef          	jal	ra,1c69c <_ungetc_r>
   13860:	ff7a99e3          	bne	s5,s7,13852 <__svfscanf_r+0x1836>
   13864:	fffc081b          	addiw	a6,s8,-1
   13868:	41980c3b          	subw	s8,a6,s9
   1386c:	ef2ff06f          	j	12f5e <__svfscanf_r+0xf42>
   13870:	77fd                	lui	a5,0xfffff
   13872:	ac878793          	addi	a5,a5,-1336 # ffffffffffffeac8 <__BSS_END__+0xfffffffffffd8690>
   13876:	97a2                	add	a5,a5,s0
   13878:	639c                	ld	a5,0(a5)
   1387a:	c7fdfd93          	andi	s11,s11,-897
   1387e:	cb81                	beqz	a5,1388e <__svfscanf_r+0x1872>
   13880:	777d                	lui	a4,0xfffff
   13882:	ac870713          	addi	a4,a4,-1336 # ffffffffffffeac8 <__BSS_END__+0xfffffffffffd8690>
   13886:	37fd                	addiw	a5,a5,-1
   13888:	9722                	add	a4,a4,s0
   1388a:	e31c                	sd	a5,0(a4)
   1388c:	0a85                	addi	s5,s5,1
   1388e:	77fd                	lui	a5,0xfffff
   13890:	ad078793          	addi	a5,a5,-1328 # ffffffffffffead0 <__BSS_END__+0xfffffffffffd8698>
   13894:	97a2                	add	a5,a5,s0
   13896:	639c                	ld	a5,0(a5)
   13898:	777d                	lui	a4,0xfffff
   1389a:	ad070713          	addi	a4,a4,-1328 # ffffffffffffead0 <__BSS_END__+0xfffffffffffd8698>
   1389e:	2785                	addiw	a5,a5,1
   138a0:	9722                	add	a4,a4,s0
   138a2:	e31c                	sd	a5,0(a4)
   138a4:	ba2d                	j	131de <__svfscanf_r+0x11c2>
   138a6:	105060ef          	jal	ra,1a1aa <_strtod_r>
   138aa:	f40b9963          	bnez	s7,12ffc <__svfscanf_r+0xfe0>
   138ae:	77fd                	lui	a5,0xfffff
   138b0:	ae078793          	addi	a5,a5,-1312 # ffffffffffffeae0 <__BSS_END__+0xfffffffffffd86a8>
   138b4:	97a2                	add	a5,a5,s0
   138b6:	639c                	ld	a5,0(a5)
   138b8:	a2a52753          	feq.d	a4,fa0,fa0
   138bc:	0007bb83          	ld	s7,0(a5)
   138c0:	24070ae3          	beqz	a4,14314 <__svfscanf_r+0x22f8>
   138c4:	40157553          	fcvt.s.d	fa0,fa0
   138c8:	00aba027          	fsw	fa0,0(s7)
   138cc:	f3eff06f          	j	1300a <__svfscanf_r+0xfee>
   138d0:	876a                	mv	a4,s10
   138d2:	86de                	mv	a3,s7
   138d4:	4605                	li	a2,1
   138d6:	85ee                	mv	a1,s11
   138d8:	854e                	mv	a0,s3
   138da:	1b0010ef          	jal	ra,14a8a <_fread_r>
   138de:	8aaa                	mv	s5,a0
   138e0:	e119                	bnez	a0,138e6 <__svfscanf_r+0x18ca>
   138e2:	9d1fe06f          	j	122b2 <__svfscanf_r+0x296>
   138e6:	018a8c3b          	addw	s8,s5,s8
   138ea:	bdfd                	j	137e8 <__svfscanf_r+0x17cc>
   138ec:	fffcc583          	lbu	a1,-1(s9)
   138f0:	866a                	mv	a2,s10
   138f2:	854e                	mv	a0,s3
   138f4:	1cfd                	addi	s9,s9,-1
   138f6:	5a7080ef          	jal	ra,1c69c <_ungetc_r>
   138fa:	b229                	j	13204 <__svfscanf_r+0x11e8>
   138fc:	866a                	mv	a2,s10
   138fe:	854e                	mv	a0,s3
   13900:	59d080ef          	jal	ra,1c69c <_ungetc_r>
   13904:	ffebc583          	lbu	a1,-2(s7)
   13908:	ffeb8a93          	addi	s5,s7,-2
   1390c:	ffec071b          	addiw	a4,s8,-2
   13910:	e7aff06f          	j	12f8a <__svfscanf_r+0xf6e>
   13914:	777d                	lui	a4,0xfffff
   13916:	ad070713          	addi	a4,a4,-1328 # ffffffffffffead0 <__BSS_END__+0xfffffffffffd8698>
   1391a:	9722                	add	a4,a4,s0
   1391c:	65c1                	lui	a1,0x10
   1391e:	e31c                	sd	a5,0(a4)
   13920:	15d9                	addi	a1,a1,-10
   13922:	11c5e1e3          	bltu	a1,t3,14224 <__svfscanf_r+0x2208>
   13926:	2621                	addiw	a2,a2,8
   13928:	03061d93          	slli	s11,a2,0x30
   1392c:	030ddd93          	srli	s11,s11,0x30
   13930:	003d9593          	slli	a1,s11,0x3
   13934:	773040ef          	jal	ra,188a6 <realloc>
   13938:	77fd                	lui	a5,0xfffff
   1393a:	ad078793          	addi	a5,a5,-1328 # ffffffffffffead0 <__BSS_END__+0xfffffffffffd8698>
   1393e:	97a2                	add	a5,a5,s0
   13940:	639c                	ld	a5,0(a5)
   13942:	0c050ae3          	beqz	a0,14216 <__svfscanf_r+0x21fa>
   13946:	777d                	lui	a4,0xfffff
   13948:	af070713          	addi	a4,a4,-1296 # ffffffffffffeaf0 <__BSS_END__+0xfffffffffffd86b8>
   1394c:	9722                	add	a4,a4,s0
   1394e:	6318                	ld	a4,0(a4)
   13950:	e308                	sd	a0,0(a4)
   13952:	01b71423          	sh	s11,8(a4)
   13956:	bb65                	j	1370e <__svfscanf_r+0x16f2>
   13958:	77fd                	lui	a5,0xfffff
   1395a:	b1078793          	addi	a5,a5,-1264 # ffffffffffffeb10 <__BSS_END__+0xfffffffffffd86d8>
   1395e:	97a2                	add	a5,a5,s0
   13960:	4394                	lw	a3,0(a5)
   13962:	4711                	li	a4,4
   13964:	b6e69c63          	bne	a3,a4,12cdc <__svfscanf_r+0xcc0>
   13968:	b76ff06f          	j	12cde <__svfscanf_r+0xcc2>
   1396c:	5779                	li	a4,-2
   1396e:	1ee51ae3          	bne	a0,a4,14362 <__svfscanf_r+0x2346>
   13972:	008d2703          	lw	a4,8(s10)
   13976:	8be6                	mv	s7,s9
   13978:	a4e04863          	bgtz	a4,12bc8 <__svfscanf_r+0xbac>
   1397c:	85ea                	mv	a1,s10
   1397e:	854e                	mv	a0,s3
   13980:	34e050ef          	jal	ra,18cce <__srefill_r>
   13984:	ba050963          	beqz	a0,12d36 <__svfscanf_r+0xd1a>
   13988:	ba0b8963          	beqz	s7,12d3a <__svfscanf_r+0xd1e>
   1398c:	927fe06f          	j	122b2 <__svfscanf_r+0x296>
   13990:	66c1                	lui	a3,0x10
   13992:	16d9                	addi	a3,a3,-10
   13994:	00c6f463          	bgeu	a3,a2,1399c <__svfscanf_r+0x1980>
   13998:	943fe06f          	j	122da <__svfscanf_r+0x2be>
   1399c:	77fd                	lui	a5,0xfffff
   1399e:	af078793          	addi	a5,a5,-1296 # ffffffffffffeaf0 <__BSS_END__+0xfffffffffffd86b8>
   139a2:	97a2                	add	a5,a5,s0
   139a4:	0007bd83          	ld	s11,0(a5)
   139a8:	2721                	addiw	a4,a4,8
   139aa:	03071c93          	slli	s9,a4,0x30
   139ae:	000db503          	ld	a0,0(s11)
   139b2:	030cdc93          	srli	s9,s9,0x30
   139b6:	003c9593          	slli	a1,s9,0x3
   139ba:	6ed040ef          	jal	ra,188a6 <realloc>
   139be:	e119                	bnez	a0,139c4 <__svfscanf_r+0x19a8>
   139c0:	91bfe06f          	j	122da <__svfscanf_r+0x2be>
   139c4:	00adb023          	sd	a0,0(s11)
   139c8:	019d9423          	sh	s9,8(s11)
   139cc:	99cff06f          	j	12b68 <__svfscanf_r+0xb4c>
   139d0:	77fd                	lui	a5,0xfffff
   139d2:	ae078793          	addi	a5,a5,-1312 # ffffffffffffeae0 <__BSS_END__+0xfffffffffffd86a8>
   139d6:	97a2                	add	a5,a5,s0
   139d8:	6741                	lui	a4,0x10
   139da:	e394                	sd	a3,0(a5)
   139dc:	1759                	addi	a4,a4,-10
   139de:	05c763e3          	bltu	a4,t3,14224 <__svfscanf_r+0x2208>
   139e2:	25a1                	addiw	a1,a1,8
   139e4:	03059d93          	slli	s11,a1,0x30
   139e8:	030ddd93          	srli	s11,s11,0x30
   139ec:	003d9593          	slli	a1,s11,0x3
   139f0:	6b7040ef          	jal	ra,188a6 <realloc>
   139f4:	77fd                	lui	a5,0xfffff
   139f6:	ae078793          	addi	a5,a5,-1312 # ffffffffffffeae0 <__BSS_END__+0xfffffffffffd86a8>
   139fa:	97a2                	add	a5,a5,s0
   139fc:	6394                	ld	a3,0(a5)
   139fe:	77fd                	lui	a5,0xfffff
   13a00:	af078793          	addi	a5,a5,-1296 # ffffffffffffeaf0 <__BSS_END__+0xfffffffffffd86b8>
   13a04:	97a2                	add	a5,a5,s0
   13a06:	639c                	ld	a5,0(a5)
   13a08:	00050ce3          	beqz	a0,14220 <__svfscanf_r+0x2204>
   13a0c:	e388                	sd	a0,0(a5)
   13a0e:	01b79423          	sh	s11,8(a5)
   13a12:	be39                	j	13530 <__svfscanf_r+0x1514>
   13a14:	6388                	ld	a0,0(a5)
   13a16:	a45fe06f          	j	1245a <__svfscanf_r+0x43e>
   13a1a:	5779                	li	a4,-2
   13a1c:	18e51e63          	bne	a0,a4,13bb8 <__svfscanf_r+0x1b9c>
   13a20:	008d2703          	lw	a4,8(s10)
   13a24:	00e05463          	blez	a4,13a2c <__svfscanf_r+0x1a10>
   13a28:	f63fe06f          	j	1298a <__svfscanf_r+0x96e>
   13a2c:	85ea                	mv	a1,s10
   13a2e:	854e                	mv	a0,s3
   13a30:	29e050ef          	jal	ra,18cce <__srefill_r>
   13a34:	e119                	bnez	a0,13a3a <__svfscanf_r+0x1a1e>
   13a36:	836ff06f          	j	12a6c <__svfscanf_r+0xa50>
   13a3a:	000a9463          	bnez	s5,13a42 <__svfscanf_r+0x1a26>
   13a3e:	832ff06f          	j	12a70 <__svfscanf_r+0xa54>
   13a42:	871fe06f          	j	122b2 <__svfscanf_r+0x296>
   13a46:	77fd                	lui	a5,0xfffff
   13a48:	aa078793          	addi	a5,a5,-1376 # ffffffffffffeaa0 <__BSS_END__+0xfffffffffffd8668>
   13a4c:	97a2                	add	a5,a5,s0
   13a4e:	6388                	ld	a0,0(a5)
   13a50:	77fd                	lui	a5,0xfffff
   13a52:	ab078793          	addi	a5,a5,-1360 # ffffffffffffeab0 <__BSS_END__+0xfffffffffffd8678>
   13a56:	97a2                	add	a5,a5,s0
   13a58:	639c                	ld	a5,0(a5)
   13a5a:	00379593          	slli	a1,a5,0x3
   13a5e:	649040ef          	jal	ra,188a6 <realloc>
   13a62:	777d                	lui	a4,0xfffff
   13a64:	aa070713          	addi	a4,a4,-1376 # ffffffffffffeaa0 <__BSS_END__+0xfffffffffffd8668>
   13a68:	9722                	add	a4,a4,s0
   13a6a:	e308                	sd	a0,0(a4)
   13a6c:	e119                	bnez	a0,13a72 <__svfscanf_r+0x1a56>
   13a6e:	85dfe06f          	j	122ca <__svfscanf_r+0x2ae>
   13a72:	777d                	lui	a4,0xfffff
   13a74:	ab870713          	addi	a4,a4,-1352 # ffffffffffffeab8 <__BSS_END__+0xfffffffffffd8680>
   13a78:	9722                	add	a4,a4,s0
   13a7a:	77fd                	lui	a5,0xfffff
   13a7c:	6318                	ld	a4,0(a4)
