
fiboncci_32:     file format elf32-littleriscv


Disassembly of section .text:

00010074 <register_fini>:
   10074:	00000793          	li	a5,0
   10078:	c791                	beqz	a5,10084 <register_fini+0x10>
   1007a:	6555                	lui	a0,0x15
   1007c:	85e50513          	addi	a0,a0,-1954 # 1485e <__libc_fini_array>
   10080:	5f00d06f          	j	1d670 <atexit>
   10084:	8082                	ret

00010086 <_start>:
   10086:	00019197          	auipc	gp,0x19
   1008a:	a7218193          	addi	gp,gp,-1422 # 28af8 <__global_pointer$>
   1008e:	23e18513          	addi	a0,gp,574 # 28d36 <__bss_start>
   10092:	29c18613          	addi	a2,gp,668 # 28d94 <__BSS_END__>
   10096:	8e09                	sub	a2,a2,a0
   10098:	4581                	li	a1,0
   1009a:	2a45                	jal	1024a <memset>
   1009c:	0000d517          	auipc	a0,0xd
   100a0:	5d450513          	addi	a0,a0,1492 # 1d670 <atexit>
   100a4:	c519                	beqz	a0,100b2 <_start+0x2c>
   100a6:	00004517          	auipc	a0,0x4
   100aa:	7b850513          	addi	a0,a0,1976 # 1485e <__libc_fini_array>
   100ae:	5c20d0ef          	jal	ra,1d670 <atexit>
   100b2:	221d                	jal	101d8 <__libc_init_array>
   100b4:	4502                	lw	a0,0(sp)
   100b6:	004c                	addi	a1,sp,4
   100b8:	4601                	li	a2,0
   100ba:	20d9                	jal	10180 <main>
   100bc:	a8fd                	j	101ba <exit>

000100be <__do_global_dtors_aux>:
   100be:	2581c703          	lbu	a4,600(gp) # 28d50 <completed.1>
   100c2:	e71d                	bnez	a4,100f0 <__do_global_dtors_aux+0x32>
   100c4:	1141                	addi	sp,sp,-16
   100c6:	c422                	sw	s0,8(sp)
   100c8:	843e                	mv	s0,a5
   100ca:	c606                	sw	ra,12(sp)
   100cc:	00000793          	li	a5,0
   100d0:	cb89                	beqz	a5,100e2 <__do_global_dtors_aux+0x24>
   100d2:	00028537          	lui	a0,0x28
   100d6:	2a850513          	addi	a0,a0,680 # 282a8 <__EH_FRAME_BEGIN__>
   100da:	00000097          	auipc	ra,0x0
   100de:	000000e7          	jalr	zero # 0 <register_fini-0x10074>
   100e2:	4785                	li	a5,1
   100e4:	40b2                	lw	ra,12(sp)
   100e6:	24f18c23          	sb	a5,600(gp) # 28d50 <completed.1>
   100ea:	4422                	lw	s0,8(sp)
   100ec:	0141                	addi	sp,sp,16
   100ee:	8082                	ret
   100f0:	8082                	ret

000100f2 <frame_dummy>:
   100f2:	00000793          	li	a5,0
   100f6:	cb99                	beqz	a5,1010c <frame_dummy+0x1a>
   100f8:	00028537          	lui	a0,0x28
   100fc:	25c18593          	addi	a1,gp,604 # 28d54 <object.0>
   10100:	2a850513          	addi	a0,a0,680 # 282a8 <__EH_FRAME_BEGIN__>
   10104:	00000317          	auipc	t1,0x0
   10108:	00000067          	jr	zero # 0 <register_fini-0x10074>
   1010c:	8082                	ret

0001010e <fib>:
   1010e:	7179                	addi	sp,sp,-48
   10110:	d622                	sw	s0,44(sp)
   10112:	1800                	addi	s0,sp,48
   10114:	fca42e23          	sw	a0,-36(s0)
   10118:	fdc42703          	lw	a4,-36(s0)
   1011c:	4785                	li	a5,1
   1011e:	00f70763          	beq	a4,a5,1012c <fib+0x1e>
   10122:	fdc42703          	lw	a4,-36(s0)
   10126:	4789                	li	a5,2
   10128:	00f71463          	bne	a4,a5,10130 <fib+0x22>
   1012c:	4785                	li	a5,1
   1012e:	a0a9                	j	10178 <fib+0x6a>
   10130:	4785                	li	a5,1
   10132:	fef42623          	sw	a5,-20(s0)
   10136:	4785                	li	a5,1
   10138:	fef42423          	sw	a5,-24(s0)
   1013c:	fe042223          	sw	zero,-28(s0)
   10140:	a02d                	j	1016a <fib+0x5c>
   10142:	fe442703          	lw	a4,-28(s0)
   10146:	fec42783          	lw	a5,-20(s0)
   1014a:	97ba                	add	a5,a5,a4
   1014c:	fef42223          	sw	a5,-28(s0)
   10150:	fe842783          	lw	a5,-24(s0)
   10154:	fef42623          	sw	a5,-20(s0)
   10158:	fe442783          	lw	a5,-28(s0)
   1015c:	fef42423          	sw	a5,-24(s0)
   10160:	fdc42783          	lw	a5,-36(s0)
   10164:	17fd                	addi	a5,a5,-1
   10166:	fcf42e23          	sw	a5,-36(s0)
   1016a:	fdc42703          	lw	a4,-36(s0)
   1016e:	4785                	li	a5,1
   10170:	fce7c9e3          	blt	a5,a4,10142 <fib+0x34>
   10174:	fe442783          	lw	a5,-28(s0)
   10178:	853e                	mv	a0,a5
   1017a:	5432                	lw	s0,44(sp)
   1017c:	6145                	addi	sp,sp,48
   1017e:	8082                	ret

00010180 <main>:
   10180:	1101                	addi	sp,sp,-32
   10182:	ce06                	sw	ra,28(sp)
   10184:	cc22                	sw	s0,24(sp)
   10186:	1000                	addi	s0,sp,32
   10188:	fec40793          	addi	a5,s0,-20
   1018c:	85be                	mv	a1,a5
   1018e:	000267b7          	lui	a5,0x26
   10192:	c8078513          	addi	a0,a5,-896 # 25c80 <__clzsi2+0x3e>
   10196:	225d                	jal	1033c <scanf>
   10198:	fec42783          	lw	a5,-20(s0)
   1019c:	853e                	mv	a0,a5
   1019e:	3f85                	jal	1010e <fib>
   101a0:	87aa                	mv	a5,a0
   101a2:	85be                	mv	a1,a5
   101a4:	000267b7          	lui	a5,0x26
   101a8:	c8078513          	addi	a0,a5,-896 # 25c80 <__clzsi2+0x3e>
   101ac:	229d                	jal	10312 <printf>
   101ae:	4781                	li	a5,0
   101b0:	853e                	mv	a0,a5
   101b2:	40f2                	lw	ra,28(sp)
   101b4:	4462                	lw	s0,24(sp)
   101b6:	6105                	addi	sp,sp,32
   101b8:	8082                	ret

000101ba <exit>:
   101ba:	1141                	addi	sp,sp,-16
   101bc:	4581                	li	a1,0
   101be:	c422                	sw	s0,8(sp)
   101c0:	c606                	sw	ra,12(sp)
   101c2:	842a                	mv	s0,a0
   101c4:	138040ef          	jal	ra,142fc <__call_exitprocs>
   101c8:	2281a503          	lw	a0,552(gp) # 28d20 <_global_impure_ptr>
   101cc:	5d5c                	lw	a5,60(a0)
   101ce:	c391                	beqz	a5,101d2 <exit+0x18>
   101d0:	9782                	jalr	a5
   101d2:	8522                	mv	a0,s0
   101d4:	37c110ef          	jal	ra,21550 <_exit>

000101d8 <__libc_init_array>:
   101d8:	1141                	addi	sp,sp,-16
   101da:	c422                	sw	s0,8(sp)
   101dc:	c04a                	sw	s2,0(sp)
   101de:	00028437          	lui	s0,0x28
   101e2:	00028937          	lui	s2,0x28
   101e6:	2e840793          	addi	a5,s0,744 # 282e8 <__init_array_start>
   101ea:	2e890913          	addi	s2,s2,744 # 282e8 <__init_array_start>
   101ee:	40f90933          	sub	s2,s2,a5
   101f2:	c606                	sw	ra,12(sp)
   101f4:	c226                	sw	s1,4(sp)
   101f6:	40295913          	srai	s2,s2,0x2
   101fa:	00090b63          	beqz	s2,10210 <__libc_init_array+0x38>
   101fe:	2e840413          	addi	s0,s0,744
   10202:	4481                	li	s1,0
   10204:	401c                	lw	a5,0(s0)
   10206:	0485                	addi	s1,s1,1
   10208:	0411                	addi	s0,s0,4
   1020a:	9782                	jalr	a5
   1020c:	fe991ce3          	bne	s2,s1,10204 <__libc_init_array+0x2c>
   10210:	00028437          	lui	s0,0x28
   10214:	00028937          	lui	s2,0x28
   10218:	2e840793          	addi	a5,s0,744 # 282e8 <__init_array_start>
   1021c:	2f090913          	addi	s2,s2,752 # 282f0 <__do_global_dtors_aux_fini_array_entry>
   10220:	40f90933          	sub	s2,s2,a5
   10224:	40295913          	srai	s2,s2,0x2
   10228:	00090b63          	beqz	s2,1023e <__libc_init_array+0x66>
   1022c:	2e840413          	addi	s0,s0,744
   10230:	4481                	li	s1,0
   10232:	401c                	lw	a5,0(s0)
   10234:	0485                	addi	s1,s1,1
   10236:	0411                	addi	s0,s0,4
   10238:	9782                	jalr	a5
   1023a:	fe991ce3          	bne	s2,s1,10232 <__libc_init_array+0x5a>
   1023e:	40b2                	lw	ra,12(sp)
   10240:	4422                	lw	s0,8(sp)
   10242:	4492                	lw	s1,4(sp)
   10244:	4902                	lw	s2,0(sp)
   10246:	0141                	addi	sp,sp,16
   10248:	8082                	ret

0001024a <memset>:
   1024a:	433d                	li	t1,15
   1024c:	872a                	mv	a4,a0
   1024e:	02c37363          	bgeu	t1,a2,10274 <memset+0x2a>
   10252:	00f77793          	andi	a5,a4,15
   10256:	efbd                	bnez	a5,102d4 <memset+0x8a>
   10258:	e5ad                	bnez	a1,102c2 <memset+0x78>
   1025a:	ff067693          	andi	a3,a2,-16
   1025e:	8a3d                	andi	a2,a2,15
   10260:	96ba                	add	a3,a3,a4
   10262:	c30c                	sw	a1,0(a4)
   10264:	c34c                	sw	a1,4(a4)
   10266:	c70c                	sw	a1,8(a4)
   10268:	c74c                	sw	a1,12(a4)
   1026a:	0741                	addi	a4,a4,16
   1026c:	fed76be3          	bltu	a4,a3,10262 <memset+0x18>
   10270:	e211                	bnez	a2,10274 <memset+0x2a>
   10272:	8082                	ret
   10274:	40c306b3          	sub	a3,t1,a2
   10278:	068a                	slli	a3,a3,0x2
   1027a:	00000297          	auipc	t0,0x0
   1027e:	9696                	add	a3,a3,t0
   10280:	00a68067          	jr	10(a3)
   10284:	00b70723          	sb	a1,14(a4)
   10288:	00b706a3          	sb	a1,13(a4)
   1028c:	00b70623          	sb	a1,12(a4)
   10290:	00b705a3          	sb	a1,11(a4)
   10294:	00b70523          	sb	a1,10(a4)
   10298:	00b704a3          	sb	a1,9(a4)
   1029c:	00b70423          	sb	a1,8(a4)
   102a0:	00b703a3          	sb	a1,7(a4)
   102a4:	00b70323          	sb	a1,6(a4)
   102a8:	00b702a3          	sb	a1,5(a4)
   102ac:	00b70223          	sb	a1,4(a4)
   102b0:	00b701a3          	sb	a1,3(a4)
   102b4:	00b70123          	sb	a1,2(a4)
   102b8:	00b700a3          	sb	a1,1(a4)
   102bc:	00b70023          	sb	a1,0(a4)
   102c0:	8082                	ret
   102c2:	0ff5f593          	andi	a1,a1,255
   102c6:	00859693          	slli	a3,a1,0x8
   102ca:	8dd5                	or	a1,a1,a3
   102cc:	01059693          	slli	a3,a1,0x10
   102d0:	8dd5                	or	a1,a1,a3
   102d2:	b761                	j	1025a <memset+0x10>
   102d4:	00279693          	slli	a3,a5,0x2
   102d8:	00000297          	auipc	t0,0x0
   102dc:	9696                	add	a3,a3,t0
   102de:	8286                	mv	t0,ra
   102e0:	fa8680e7          	jalr	-88(a3)
   102e4:	8096                	mv	ra,t0
   102e6:	17c1                	addi	a5,a5,-16
   102e8:	8f1d                	sub	a4,a4,a5
   102ea:	963e                	add	a2,a2,a5
   102ec:	f8c374e3          	bgeu	t1,a2,10274 <memset+0x2a>
   102f0:	b7a5                	j	10258 <memset+0xe>

000102f2 <_printf_r>:
   102f2:	7139                	addi	sp,sp,-64
   102f4:	d432                	sw	a2,40(sp)
   102f6:	d636                	sw	a3,44(sp)
   102f8:	d83a                	sw	a4,48(sp)
   102fa:	da3e                	sw	a5,52(sp)
   102fc:	dc42                	sw	a6,56(sp)
   102fe:	de46                	sw	a7,60(sp)
   10300:	862e                	mv	a2,a1
   10302:	450c                	lw	a1,8(a0)
   10304:	1034                	addi	a3,sp,40
   10306:	ce06                	sw	ra,28(sp)
   10308:	c636                	sw	a3,12(sp)
   1030a:	2041                	jal	1038a <_vfprintf_r>
   1030c:	40f2                	lw	ra,28(sp)
   1030e:	6121                	addi	sp,sp,64
   10310:	8082                	ret

00010312 <printf>:
   10312:	2301a303          	lw	t1,560(gp) # 28d28 <_impure_ptr>
   10316:	7139                	addi	sp,sp,-64
   10318:	d432                	sw	a2,40(sp)
   1031a:	d636                	sw	a3,44(sp)
   1031c:	d22e                	sw	a1,36(sp)
   1031e:	d83a                	sw	a4,48(sp)
   10320:	da3e                	sw	a5,52(sp)
   10322:	dc42                	sw	a6,56(sp)
   10324:	de46                	sw	a7,60(sp)
   10326:	00832583          	lw	a1,8(t1) # 1010c <frame_dummy+0x1a>
   1032a:	1054                	addi	a3,sp,36
   1032c:	862a                	mv	a2,a0
   1032e:	851a                	mv	a0,t1
   10330:	ce06                	sw	ra,28(sp)
   10332:	c636                	sw	a3,12(sp)
   10334:	2899                	jal	1038a <_vfprintf_r>
   10336:	40f2                	lw	ra,28(sp)
   10338:	6121                	addi	sp,sp,64
   1033a:	8082                	ret

0001033c <scanf>:
   1033c:	2301a303          	lw	t1,560(gp) # 28d28 <_impure_ptr>
   10340:	7139                	addi	sp,sp,-64
   10342:	d432                	sw	a2,40(sp)
   10344:	d636                	sw	a3,44(sp)
   10346:	d22e                	sw	a1,36(sp)
   10348:	d83a                	sw	a4,48(sp)
   1034a:	da3e                	sw	a5,52(sp)
   1034c:	dc42                	sw	a6,56(sp)
   1034e:	de46                	sw	a7,60(sp)
   10350:	00432583          	lw	a1,4(t1)
   10354:	1054                	addi	a3,sp,36
   10356:	862a                	mv	a2,a0
   10358:	851a                	mv	a0,t1
   1035a:	ce06                	sw	ra,28(sp)
   1035c:	c636                	sw	a3,12(sp)
   1035e:	673030ef          	jal	ra,141d0 <_vfscanf_r>
   10362:	40f2                	lw	ra,28(sp)
   10364:	6121                	addi	sp,sp,64
   10366:	8082                	ret

00010368 <_scanf_r>:
   10368:	7139                	addi	sp,sp,-64
   1036a:	d432                	sw	a2,40(sp)
   1036c:	d636                	sw	a3,44(sp)
   1036e:	d83a                	sw	a4,48(sp)
   10370:	da3e                	sw	a5,52(sp)
   10372:	dc42                	sw	a6,56(sp)
   10374:	de46                	sw	a7,60(sp)
   10376:	862e                	mv	a2,a1
   10378:	414c                	lw	a1,4(a0)
   1037a:	1034                	addi	a3,sp,40
   1037c:	ce06                	sw	ra,28(sp)
   1037e:	c636                	sw	a3,12(sp)
   10380:	651030ef          	jal	ra,141d0 <_vfscanf_r>
   10384:	40f2                	lw	ra,28(sp)
   10386:	6121                	addi	sp,sp,64
   10388:	8082                	ret

0001038a <_vfprintf_r>:
   1038a:	7141                	addi	sp,sp,-496
   1038c:	1e112623          	sw	ra,492(sp)
   10390:	1f212023          	sw	s2,480(sp)
   10394:	1d812423          	sw	s8,456(sp)
   10398:	1da12023          	sw	s10,448(sp)
   1039c:	8c2e                	mv	s8,a1
   1039e:	8932                	mv	s2,a2
   103a0:	ca36                	sw	a3,20(sp)
   103a2:	1e812423          	sw	s0,488(sp)
   103a6:	1e912223          	sw	s1,484(sp)
   103aa:	1d312e23          	sw	s3,476(sp)
   103ae:	1d412c23          	sw	s4,472(sp)
   103b2:	1d512a23          	sw	s5,468(sp)
   103b6:	1d612823          	sw	s6,464(sp)
   103ba:	1d712623          	sw	s7,460(sp)
   103be:	1d912223          	sw	s9,452(sp)
   103c2:	1bb12e23          	sw	s11,444(sp)
   103c6:	8d2a                	mv	s10,a0
   103c8:	26b060ef          	jal	ra,16e32 <_localeconv_r>
   103cc:	411c                	lw	a5,0(a0)
   103ce:	853e                	mv	a0,a5
   103d0:	d83e                	sw	a5,48(sp)
   103d2:	295080ef          	jal	ra,18e66 <strlen>
   103d6:	d62a                	sw	a0,44(sp)
   103d8:	d982                	sw	zero,240(sp)
   103da:	db82                	sw	zero,244(sp)
   103dc:	dd82                	sw	zero,248(sp)
   103de:	df82                	sw	zero,252(sp)
   103e0:	000d0663          	beqz	s10,103ec <_vfprintf_r+0x62>
   103e4:	038d2783          	lw	a5,56(s10)
   103e8:	66078063          	beqz	a5,10a48 <_vfprintf_r+0x6be>
   103ec:	00cc1683          	lh	a3,12(s8)
   103f0:	6609                	lui	a2,0x2
   103f2:	01069793          	slli	a5,a3,0x10
   103f6:	83c1                	srli	a5,a5,0x10
   103f8:	00c7f5b3          	and	a1,a5,a2
   103fc:	e185                	bnez	a1,1041c <_vfprintf_r+0x92>
   103fe:	064c2583          	lw	a1,100(s8)
   10402:	00c6e7b3          	or	a5,a3,a2
   10406:	07c2                	slli	a5,a5,0x10
   10408:	76f9                	lui	a3,0xffffe
   1040a:	87c1                	srai	a5,a5,0x10
   1040c:	16fd                	addi	a3,a3,-1
   1040e:	8eed                	and	a3,a3,a1
   10410:	00fc1623          	sh	a5,12(s8)
   10414:	07c2                	slli	a5,a5,0x10
   10416:	06dc2223          	sw	a3,100(s8)
   1041a:	83c1                	srli	a5,a5,0x10
   1041c:	0087f693          	andi	a3,a5,8
   10420:	22068363          	beqz	a3,10646 <_vfprintf_r+0x2bc>
   10424:	010c2683          	lw	a3,16(s8)
   10428:	20068f63          	beqz	a3,10646 <_vfprintf_r+0x2bc>
   1042c:	8be9                	andi	a5,a5,26
   1042e:	46a9                	li	a3,10
   10430:	22d78863          	beq	a5,a3,10660 <_vfprintf_r+0x2d6>
   10434:	027c                	addi	a5,sp,268
   10436:	d3be                	sw	a5,228(sp)
   10438:	88be                	mv	a7,a5
   1043a:	000267b7          	lui	a5,0x26
   1043e:	cc878793          	addi	a5,a5,-824 # 25cc8 <__clzsi2+0x86>
   10442:	cc3e                	sw	a5,24(sp)
   10444:	000267b7          	lui	a5,0x26
   10448:	e4478793          	addi	a5,a5,-444 # 25e44 <zeroes.0>
   1044c:	8b4a                	mv	s6,s2
   1044e:	c43e                	sw	a5,8(sp)
   10450:	000b4783          	lbu	a5,0(s6)
   10454:	d782                	sw	zero,236(sp)
   10456:	d582                	sw	zero,232(sp)
   10458:	d002                	sw	zero,32(sp)
   1045a:	da02                	sw	zero,52(sp)
   1045c:	dc02                	sw	zero,56(sp)
   1045e:	de02                	sw	zero,60(sp)
   10460:	c482                	sw	zero,72(sp)
   10462:	c682                	sw	zero,76(sp)
   10464:	c602                	sw	zero,12(sp)
   10466:	18078863          	beqz	a5,105f6 <_vfprintf_r+0x26c>
   1046a:	845a                	mv	s0,s6
   1046c:	02500713          	li	a4,37
   10470:	22e78e63          	beq	a5,a4,106ac <_vfprintf_r+0x322>
   10474:	00144783          	lbu	a5,1(s0)
   10478:	0405                	addi	s0,s0,1
   1047a:	fbfd                	bnez	a5,10470 <_vfprintf_r+0xe6>
   1047c:	416404b3          	sub	s1,s0,s6
   10480:	17640b63          	beq	s0,s6,105f6 <_vfprintf_r+0x26c>
   10484:	573e                	lw	a4,236(sp)
   10486:	57ae                	lw	a5,232(sp)
   10488:	0168a023          	sw	s6,0(a7)
   1048c:	9726                	add	a4,a4,s1
   1048e:	0785                	addi	a5,a5,1
   10490:	0098a223          	sw	s1,4(a7)
   10494:	d7ba                	sw	a4,236(sp)
   10496:	d5be                	sw	a5,232(sp)
   10498:	471d                	li	a4,7
   1049a:	08a1                	addi	a7,a7,8
   1049c:	20f74f63          	blt	a4,a5,106ba <_vfprintf_r+0x330>
   104a0:	4732                	lw	a4,12(sp)
   104a2:	00044783          	lbu	a5,0(s0)
   104a6:	9726                	add	a4,a4,s1
   104a8:	c63a                	sw	a4,12(sp)
   104aa:	14078663          	beqz	a5,105f6 <_vfprintf_r+0x26c>
   104ae:	00144483          	lbu	s1,1(s0)
   104b2:	0c0103a3          	sb	zero,199(sp)
   104b6:	0405                	addi	s0,s0,1
   104b8:	5dfd                	li	s11,-1
   104ba:	4981                	li	s3,0
   104bc:	4a01                	li	s4,0
   104be:	05a00913          	li	s2,90
   104c2:	4aa5                	li	s5,9
   104c4:	02a00b93          	li	s7,42
   104c8:	8cc6                	mv	s9,a7
   104ca:	0405                	addi	s0,s0,1
   104cc:	fe048793          	addi	a5,s1,-32
   104d0:	02f96b63          	bltu	s2,a5,10506 <_vfprintf_r+0x17c>
   104d4:	4762                	lw	a4,24(sp)
   104d6:	078a                	slli	a5,a5,0x2
   104d8:	97ba                	add	a5,a5,a4
   104da:	439c                	lw	a5,0(a5)
   104dc:	8782                	jr	a5
   104de:	4981                	li	s3,0
   104e0:	fd048693          	addi	a3,s1,-48
   104e4:	00044483          	lbu	s1,0(s0)
   104e8:	00299793          	slli	a5,s3,0x2
   104ec:	97ce                	add	a5,a5,s3
   104ee:	0786                	slli	a5,a5,0x1
   104f0:	00f689b3          	add	s3,a3,a5
   104f4:	fd048693          	addi	a3,s1,-48
   104f8:	0405                	addi	s0,s0,1
   104fa:	fedaf5e3          	bgeu	s5,a3,104e4 <_vfprintf_r+0x15a>
   104fe:	fe048793          	addi	a5,s1,-32
   10502:	fcf979e3          	bgeu	s2,a5,104d4 <_vfprintf_r+0x14a>
   10506:	88e6                	mv	a7,s9
   10508:	c4fd                	beqz	s1,105f6 <_vfprintf_r+0x26c>
   1050a:	14910623          	sb	s1,332(sp)
   1050e:	0c0103a3          	sb	zero,199(sp)
   10512:	4a85                	li	s5,1
   10514:	4c85                	li	s9,1
   10516:	14c10b13          	addi	s6,sp,332
   1051a:	c802                	sw	zero,16(sp)
   1051c:	4d81                	li	s11,0
   1051e:	d402                	sw	zero,40(sp)
   10520:	d202                	sw	zero,36(sp)
   10522:	ce02                	sw	zero,28(sp)
   10524:	002a7b93          	andi	s7,s4,2
   10528:	000b8363          	beqz	s7,1052e <_vfprintf_r+0x1a4>
   1052c:	0a89                	addi	s5,s5,2
   1052e:	084a7913          	andi	s2,s4,132
   10532:	57be                	lw	a5,236(sp)
   10534:	00091663          	bnez	s2,10540 <_vfprintf_r+0x1b6>
   10538:	415986b3          	sub	a3,s3,s5
   1053c:	22d04ee3          	bgtz	a3,10f78 <_vfprintf_r+0xbee>
   10540:	0c714703          	lbu	a4,199(sp)
   10544:	c30d                	beqz	a4,10566 <_vfprintf_r+0x1dc>
   10546:	572e                	lw	a4,232(sp)
   10548:	0c710693          	addi	a3,sp,199
   1054c:	00d8a023          	sw	a3,0(a7)
   10550:	0785                	addi	a5,a5,1
   10552:	4685                	li	a3,1
   10554:	0705                	addi	a4,a4,1
   10556:	00d8a223          	sw	a3,4(a7)
   1055a:	d7be                	sw	a5,236(sp)
   1055c:	d5ba                	sw	a4,232(sp)
   1055e:	469d                	li	a3,7
   10560:	08a1                	addi	a7,a7,8
   10562:	38e6c063          	blt	a3,a4,108e2 <_vfprintf_r+0x558>
   10566:	020b8163          	beqz	s7,10588 <_vfprintf_r+0x1fe>
   1056a:	572e                	lw	a4,232(sp)
   1056c:	01b4                	addi	a3,sp,200
   1056e:	00d8a023          	sw	a3,0(a7)
   10572:	0789                	addi	a5,a5,2
   10574:	4689                	li	a3,2
   10576:	0705                	addi	a4,a4,1
   10578:	00d8a223          	sw	a3,4(a7)
   1057c:	d7be                	sw	a5,236(sp)
   1057e:	d5ba                	sw	a4,232(sp)
   10580:	469d                	li	a3,7
   10582:	08a1                	addi	a7,a7,8
   10584:	28e6c6e3          	blt	a3,a4,11010 <_vfprintf_r+0xc86>
   10588:	08000713          	li	a4,128
   1058c:	0ce90be3          	beq	s2,a4,10e62 <_vfprintf_r+0xad8>
   10590:	419d8db3          	sub	s11,s11,s9
   10594:	15b047e3          	bgtz	s11,10ee2 <_vfprintf_r+0xb58>
   10598:	100a7713          	andi	a4,s4,256
   1059c:	7e071d63          	bnez	a4,10d96 <_vfprintf_r+0xa0c>
   105a0:	572e                	lw	a4,232(sp)
   105a2:	97e6                	add	a5,a5,s9
   105a4:	0168a023          	sw	s6,0(a7)
   105a8:	0705                	addi	a4,a4,1
   105aa:	0198a223          	sw	s9,4(a7)
   105ae:	d7be                	sw	a5,236(sp)
   105b0:	d5ba                	sw	a4,232(sp)
   105b2:	469d                	li	a3,7
   105b4:	40e6c063          	blt	a3,a4,109b4 <_vfprintf_r+0x62a>
   105b8:	08a1                	addi	a7,a7,8
   105ba:	004a7a13          	andi	s4,s4,4
   105be:	000a0663          	beqz	s4,105ca <_vfprintf_r+0x240>
   105c2:	415984b3          	sub	s1,s3,s5
   105c6:	40904263          	bgtz	s1,109ca <_vfprintf_r+0x640>
   105ca:	0159d363          	bge	s3,s5,105d0 <_vfprintf_r+0x246>
   105ce:	89d6                	mv	s3,s5
   105d0:	4732                	lw	a4,12(sp)
   105d2:	974e                	add	a4,a4,s3
   105d4:	c63a                	sw	a4,12(sp)
   105d6:	180791e3          	bnez	a5,10f58 <_vfprintf_r+0xbce>
   105da:	47c2                	lw	a5,16(sp)
   105dc:	d582                	sw	zero,232(sp)
   105de:	c789                	beqz	a5,105e8 <_vfprintf_r+0x25e>
   105e0:	45c2                	lw	a1,16(sp)
   105e2:	856a                	mv	a0,s10
   105e4:	514040ef          	jal	ra,14af8 <_free_r>
   105e8:	10c10893          	addi	a7,sp,268
   105ec:	8b22                	mv	s6,s0
   105ee:	000b4783          	lbu	a5,0(s6)
   105f2:	e6079ce3          	bnez	a5,1046a <_vfprintf_r+0xe0>
   105f6:	57be                	lw	a5,236(sp)
   105f8:	c399                	beqz	a5,105fe <_vfprintf_r+0x274>
   105fa:	2d60106f          	j	118d0 <_vfprintf_r+0x1546>
   105fe:	00cc5783          	lhu	a5,12(s8)
   10602:	0407f793          	andi	a5,a5,64
   10606:	c399                	beqz	a5,1060c <_vfprintf_r+0x282>
   10608:	7a00106f          	j	11da8 <_vfprintf_r+0x1a1e>
   1060c:	1ec12083          	lw	ra,492(sp)
   10610:	1e812403          	lw	s0,488(sp)
   10614:	4532                	lw	a0,12(sp)
   10616:	1e412483          	lw	s1,484(sp)
   1061a:	1e012903          	lw	s2,480(sp)
   1061e:	1dc12983          	lw	s3,476(sp)
   10622:	1d812a03          	lw	s4,472(sp)
   10626:	1d412a83          	lw	s5,468(sp)
   1062a:	1d012b03          	lw	s6,464(sp)
   1062e:	1cc12b83          	lw	s7,460(sp)
   10632:	1c812c03          	lw	s8,456(sp)
   10636:	1c412c83          	lw	s9,452(sp)
   1063a:	1c012d03          	lw	s10,448(sp)
   1063e:	1bc12d83          	lw	s11,444(sp)
   10642:	617d                	addi	sp,sp,496
   10644:	8082                	ret
   10646:	85e2                	mv	a1,s8
   10648:	856a                	mv	a0,s10
   1064a:	3bd030ef          	jal	ra,14206 <__swsetup_r>
   1064e:	c119                	beqz	a0,10654 <_vfprintf_r+0x2ca>
   10650:	7580106f          	j	11da8 <_vfprintf_r+0x1a1e>
   10654:	00cc5783          	lhu	a5,12(s8)
   10658:	46a9                	li	a3,10
   1065a:	8be9                	andi	a5,a5,26
   1065c:	dcd79ce3          	bne	a5,a3,10434 <_vfprintf_r+0xaa>
   10660:	00ec1783          	lh	a5,14(s8)
   10664:	dc07c8e3          	bltz	a5,10434 <_vfprintf_r+0xaa>
   10668:	46d2                	lw	a3,20(sp)
   1066a:	864a                	mv	a2,s2
   1066c:	85e2                	mv	a1,s8
   1066e:	856a                	mv	a0,s10
   10670:	217010ef          	jal	ra,12086 <__sbprintf>
   10674:	c62a                	sw	a0,12(sp)
   10676:	bf59                	j	1060c <_vfprintf_r+0x282>
   10678:	856a                	mv	a0,s10
   1067a:	7b8060ef          	jal	ra,16e32 <_localeconv_r>
   1067e:	415c                	lw	a5,4(a0)
   10680:	853e                	mv	a0,a5
   10682:	c6be                	sw	a5,76(sp)
   10684:	7e2080ef          	jal	ra,18e66 <strlen>
   10688:	87aa                	mv	a5,a0
   1068a:	856a                	mv	a0,s10
   1068c:	84be                	mv	s1,a5
   1068e:	c4be                	sw	a5,72(sp)
   10690:	7a2060ef          	jal	ra,16e32 <_localeconv_r>
   10694:	451c                	lw	a5,8(a0)
   10696:	de3e                	sw	a5,60(sp)
   10698:	38049de3          	bnez	s1,11232 <_vfprintf_r+0xea8>
   1069c:	00044483          	lbu	s1,0(s0)
   106a0:	b52d                	j	104ca <_vfprintf_r+0x140>
   106a2:	00044483          	lbu	s1,0(s0)
   106a6:	020a6a13          	ori	s4,s4,32
   106aa:	b505                	j	104ca <_vfprintf_r+0x140>
   106ac:	416404b3          	sub	s1,s0,s6
   106b0:	dd641ae3          	bne	s0,s6,10484 <_vfprintf_r+0xfa>
   106b4:	00044783          	lbu	a5,0(s0)
   106b8:	bbcd                	j	104aa <_vfprintf_r+0x120>
   106ba:	11d0                	addi	a2,sp,228
   106bc:	85e2                	mv	a1,s8
   106be:	856a                	mv	a0,s10
   106c0:	1440c0ef          	jal	ra,1c804 <__sprint_r>
   106c4:	fd0d                	bnez	a0,105fe <_vfprintf_r+0x274>
   106c6:	10c10893          	addi	a7,sp,268
   106ca:	bbd9                	j	104a0 <_vfprintf_r+0x116>
   106cc:	008a7793          	andi	a5,s4,8
   106d0:	88e6                	mv	a7,s9
   106d2:	38079ce3          	bnez	a5,1126a <_vfprintf_r+0xee0>
   106d6:	47d2                	lw	a5,20(sp)
   106d8:	1908                	addi	a0,sp,176
   106da:	c866                	sw	s9,16(sp)
   106dc:	079d                	addi	a5,a5,7
   106de:	9be1                	andi	a5,a5,-8
   106e0:	438c                	lw	a1,0(a5)
   106e2:	43d0                	lw	a2,4(a5)
   106e4:	07a1                	addi	a5,a5,8
   106e6:	ca3e                	sw	a5,20(sp)
   106e8:	05e150ef          	jal	ra,25746 <__extenddftf2>
   106ec:	57ca                	lw	a5,176(sp)
   106ee:	48c2                	lw	a7,16(sp)
   106f0:	d9be                	sw	a5,240(sp)
   106f2:	57da                	lw	a5,180(sp)
   106f4:	dbbe                	sw	a5,244(sp)
   106f6:	57ea                	lw	a5,184(sp)
   106f8:	ddbe                	sw	a5,248(sp)
   106fa:	57fa                	lw	a5,188(sp)
   106fc:	dfbe                	sw	a5,252(sp)
   106fe:	1988                	addi	a0,sp,240
   10700:	c846                	sw	a7,16(sp)
   10702:	6e0060ef          	jal	ra,16de2 <_ldcheck>
   10706:	c7aa                	sw	a0,204(sp)
   10708:	4789                	li	a5,2
   1070a:	48c2                	lw	a7,16(sp)
   1070c:	64f501e3          	beq	a0,a5,1154e <_vfprintf_r+0x11c4>
   10710:	4785                	li	a5,1
   10712:	76f504e3          	beq	a0,a5,1167a <_vfprintf_r+0x12f0>
   10716:	06100793          	li	a5,97
   1071a:	00f49463          	bne	s1,a5,10722 <_vfprintf_r+0x398>
   1071e:	6a40106f          	j	11dc2 <_vfprintf_r+0x1a38>
   10722:	04100793          	li	a5,65
   10726:	00f49463          	bne	s1,a5,1072e <_vfprintf_r+0x3a4>
   1072a:	1ce0106f          	j	118f8 <_vfprintf_r+0x156e>
   1072e:	fdf4f713          	andi	a4,s1,-33
   10732:	57fd                	li	a5,-1
   10734:	d43a                	sw	a4,40(sp)
   10736:	00fd9463          	bne	s11,a5,1073e <_vfprintf_r+0x3b4>
   1073a:	7820106f          	j	11ebc <_vfprintf_r+0x1b32>
   1073e:	04700793          	li	a5,71
   10742:	00f71463          	bne	a4,a5,1074a <_vfprintf_r+0x3c0>
   10746:	7680106f          	j	11eae <_vfprintf_r+0x1b24>
   1074a:	5bfe                	lw	s7,252(sp)
   1074c:	c8d2                	sw	s4,80(sp)
   1074e:	5e4e                	lw	t3,240(sp)
   10750:	5ede                	lw	t4,244(sp)
   10752:	5f6e                	lw	t5,248(sp)
   10754:	100a6793          	ori	a5,s4,256
   10758:	000bd463          	bgez	s7,10760 <_vfprintf_r+0x3d6>
   1075c:	4540106f          	j	11bb0 <_vfprintf_r+0x1826>
   10760:	cc82                	sw	zero,88(sp)
   10762:	8a3e                	mv	s4,a5
   10764:	c802                	sw	zero,16(sp)
   10766:	5722                	lw	a4,40(sp)
   10768:	04600793          	li	a5,70
   1076c:	00f71463          	bne	a4,a5,10774 <_vfprintf_r+0x3ea>
   10770:	46e0106f          	j	11bde <_vfprintf_r+0x1854>
   10774:	04500793          	li	a5,69
   10778:	c0c6                	sw	a7,64(sp)
   1077a:	00f71463          	bne	a4,a5,10782 <_vfprintf_r+0x3f8>
   1077e:	6ea0106f          	j	11e68 <_vfprintf_r+0x1ade>
   10782:	0b010a93          	addi	s5,sp,176
   10786:	099c                	addi	a5,sp,208
   10788:	01f8                	addi	a4,sp,204
   1078a:	0dc10813          	addi	a6,sp,220
   1078e:	86ee                	mv	a3,s11
   10790:	4609                	li	a2,2
   10792:	85d6                	mv	a1,s5
   10794:	856a                	mv	a0,s10
   10796:	d972                	sw	t3,176(sp)
   10798:	d272                	sw	t3,36(sp)
   1079a:	db76                	sw	t4,180(sp)
   1079c:	d076                	sw	t4,32(sp)
   1079e:	dd7a                	sw	t5,184(sp)
   107a0:	ce7a                	sw	t5,28(sp)
   107a2:	df5e                	sw	s7,188(sp)
   107a4:	06d050ef          	jal	ra,16010 <_ldtoa_r>
   107a8:	5722                	lw	a4,40(sp)
   107aa:	04700793          	li	a5,71
   107ae:	4f72                	lw	t5,28(sp)
   107b0:	5e82                	lw	t4,32(sp)
   107b2:	5e12                	lw	t3,36(sp)
   107b4:	4886                	lw	a7,64(sp)
   107b6:	8b2a                	mv	s6,a0
   107b8:	00f70463          	beq	a4,a5,107c0 <_vfprintf_r+0x436>
   107bc:	0a70106f          	j	12062 <_vfprintf_r+0x1cd8>
   107c0:	47c6                	lw	a5,80(sp)
   107c2:	8b85                	andi	a5,a5,1
   107c4:	c399                	beqz	a5,107ca <_vfprintf_r+0x440>
   107c6:	6de0106f          	j	11ea4 <_vfprintf_r+0x1b1a>
   107ca:	46fe                	lw	a3,220(sp)
   107cc:	416687b3          	sub	a5,a3,s6
   107d0:	d03e                	sw	a5,32(sp)
   107d2:	473e                	lw	a4,204(sp)
   107d4:	04700793          	li	a5,71
   107d8:	ce3a                	sw	a4,28(sp)
   107da:	5722                	lw	a4,40(sp)
   107dc:	00f71463          	bne	a4,a5,107e4 <_vfprintf_r+0x45a>
   107e0:	3640106f          	j	11b44 <_vfprintf_r+0x17ba>
   107e4:	5722                	lw	a4,40(sp)
   107e6:	04600793          	li	a5,70
   107ea:	00f71463          	bne	a4,a5,107f2 <_vfprintf_r+0x468>
   107ee:	55a0106f          	j	11d48 <_vfprintf_r+0x19be>
   107f2:	47f2                	lw	a5,28(sp)
   107f4:	55a2                	lw	a1,40(sp)
   107f6:	04100613          	li	a2,65
   107fa:	17fd                	addi	a5,a5,-1
   107fc:	c7be                	sw	a5,204(sp)
   107fe:	0ff4f713          	andi	a4,s1,255
   10802:	4681                	li	a3,0
   10804:	00c59663          	bne	a1,a2,10810 <_vfprintf_r+0x486>
   10808:	073d                	addi	a4,a4,15
   1080a:	0ff77713          	andi	a4,a4,255
   1080e:	4685                	li	a3,1
   10810:	0ce10a23          	sb	a4,212(sp)
   10814:	02b00713          	li	a4,43
   10818:	0007d763          	bgez	a5,10826 <_vfprintf_r+0x49c>
   1081c:	4772                	lw	a4,28(sp)
   1081e:	4785                	li	a5,1
   10820:	8f99                	sub	a5,a5,a4
   10822:	02d00713          	li	a4,45
   10826:	0ce10aa3          	sb	a4,213(sp)
   1082a:	4725                	li	a4,9
   1082c:	00f74463          	blt	a4,a5,10834 <_vfprintf_r+0x4aa>
   10830:	6fa0106f          	j	11f2a <_vfprintf_r+0x1ba0>
   10834:	0e310513          	addi	a0,sp,227
   10838:	85aa                	mv	a1,a0
   1083a:	46a9                	li	a3,10
   1083c:	06300e13          	li	t3,99
   10840:	02d7e733          	rem	a4,a5,a3
   10844:	862e                	mv	a2,a1
   10846:	883e                	mv	a6,a5
   10848:	15fd                	addi	a1,a1,-1
   1084a:	03070713          	addi	a4,a4,48
   1084e:	fee60fa3          	sb	a4,-1(a2) # 1fff <register_fini-0xe075>
   10852:	02d7c7b3          	div	a5,a5,a3
   10856:	ff0e45e3          	blt	t3,a6,10840 <_vfprintf_r+0x4b6>
   1085a:	03078793          	addi	a5,a5,48
   1085e:	0ff7f693          	andi	a3,a5,255
   10862:	fed58fa3          	sb	a3,-1(a1)
   10866:	ffe60793          	addi	a5,a2,-2
   1086a:	00a7e463          	bltu	a5,a0,10872 <_vfprintf_r+0x4e8>
   1086e:	7ec0106f          	j	1205a <_vfprintf_r+0x1cd0>
   10872:	0d610713          	addi	a4,sp,214
   10876:	a019                	j	1087c <_vfprintf_r+0x4f2>
   10878:	0007c683          	lbu	a3,0(a5)
   1087c:	00d70023          	sb	a3,0(a4)
   10880:	0785                	addi	a5,a5,1
   10882:	0705                	addi	a4,a4,1
   10884:	fea79ae3          	bne	a5,a0,10878 <_vfprintf_r+0x4ee>
   10888:	0e510793          	addi	a5,sp,229
   1088c:	0d610713          	addi	a4,sp,214
   10890:	8f91                	sub	a5,a5,a2
   10892:	97ba                	add	a5,a5,a4
   10894:	09d8                	addi	a4,sp,212
   10896:	8f99                	sub	a5,a5,a4
   10898:	dc3e                	sw	a5,56(sp)
   1089a:	56e2                	lw	a3,56(sp)
   1089c:	5702                	lw	a4,32(sp)
   1089e:	4785                	li	a5,1
   108a0:	00e68cb3          	add	s9,a3,a4
   108a4:	00e7c463          	blt	a5,a4,108ac <_vfprintf_r+0x522>
   108a8:	7580106f          	j	12000 <_vfprintf_r+0x1c76>
   108ac:	57b2                	lw	a5,44(sp)
   108ae:	9cbe                	add	s9,s9,a5
   108b0:	47c6                	lw	a5,80(sp)
   108b2:	fffcca93          	not	s5,s9
   108b6:	41fada93          	srai	s5,s5,0x1f
   108ba:	bff7fa13          	andi	s4,a5,-1025
   108be:	100a6a13          	ori	s4,s4,256
   108c2:	015cfab3          	and	s5,s9,s5
   108c6:	d402                	sw	zero,40(sp)
   108c8:	d202                	sw	zero,36(sp)
   108ca:	ce02                	sw	zero,28(sp)
   108cc:	47e6                	lw	a5,88(sp)
   108ce:	e399                	bnez	a5,108d4 <_vfprintf_r+0x54a>
   108d0:	28c0106f          	j	11b5c <_vfprintf_r+0x17d2>
   108d4:	02d00793          	li	a5,45
   108d8:	0cf103a3          	sb	a5,199(sp)
   108dc:	4d81                	li	s11,0
   108de:	0a85                	addi	s5,s5,1
   108e0:	b191                	j	10524 <_vfprintf_r+0x19a>
   108e2:	11d0                	addi	a2,sp,228
   108e4:	85e2                	mv	a1,s8
   108e6:	856a                	mv	a0,s10
   108e8:	71d0b0ef          	jal	ra,1c804 <__sprint_r>
   108ec:	66051d63          	bnez	a0,10f66 <_vfprintf_r+0xbdc>
   108f0:	57be                	lw	a5,236(sp)
   108f2:	10c10893          	addi	a7,sp,268
   108f6:	b985                	j	10566 <_vfprintf_r+0x1dc>
   108f8:	572e                	lw	a4,232(sp)
   108fa:	00178c93          	addi	s9,a5,1
   108fe:	5782                	lw	a5,32(sp)
   10900:	4685                	li	a3,1
   10902:	0168a023          	sw	s6,0(a7)
   10906:	00170493          	addi	s1,a4,1
   1090a:	00888913          	addi	s2,a7,8
   1090e:	00f6dee3          	bge	a3,a5,1112a <_vfprintf_r+0xda0>
   10912:	4785                	li	a5,1
   10914:	00f8a223          	sw	a5,4(a7)
   10918:	d7e6                	sw	s9,236(sp)
   1091a:	d5a6                	sw	s1,232(sp)
   1091c:	479d                	li	a5,7
   1091e:	2c97c9e3          	blt	a5,s1,113f0 <_vfprintf_r+0x1066>
   10922:	57b2                	lw	a5,44(sp)
   10924:	5742                	lw	a4,48(sp)
   10926:	0485                	addi	s1,s1,1
   10928:	9cbe                	add	s9,s9,a5
   1092a:	00f92223          	sw	a5,4(s2)
   1092e:	00e92023          	sw	a4,0(s2)
   10932:	d7e6                	sw	s9,236(sp)
   10934:	d5a6                	sw	s1,232(sp)
   10936:	479d                	li	a5,7
   10938:	0921                	addi	s2,s2,8
   1093a:	2c97c8e3          	blt	a5,s1,1140a <_vfprintf_r+0x1080>
   1093e:	57ce                	lw	a5,240(sp)
   10940:	00148693          	addi	a3,s1,1
   10944:	110c                	addi	a1,sp,160
   10946:	d93e                	sw	a5,176(sp)
   10948:	57de                	lw	a5,244(sp)
   1094a:	1908                	addi	a0,sp,176
   1094c:	ce36                	sw	a3,28(sp)
   1094e:	db3e                	sw	a5,180(sp)
   10950:	57ee                	lw	a5,248(sp)
   10952:	d102                	sw	zero,160(sp)
   10954:	d302                	sw	zero,164(sp)
   10956:	dd3e                	sw	a5,184(sp)
   10958:	57fe                	lw	a5,252(sp)
   1095a:	d502                	sw	zero,168(sp)
   1095c:	d702                	sw	zero,172(sp)
   1095e:	df3e                	sw	a5,188(sp)
   10960:	7ad120ef          	jal	ra,2390c <__eqtf2>
   10964:	46f2                	lw	a3,28(sp)
   10966:	5782                	lw	a5,32(sp)
   10968:	00890893          	addi	a7,s2,8
   1096c:	8736                	mv	a4,a3
   1096e:	fff78d93          	addi	s11,a5,-1
   10972:	7c050a63          	beqz	a0,11146 <_vfprintf_r+0xdbc>
   10976:	001b0813          	addi	a6,s6,1
   1097a:	9cee                	add	s9,s9,s11
   1097c:	01092023          	sw	a6,0(s2)
   10980:	01b92223          	sw	s11,4(s2)
   10984:	d7e6                	sw	s9,236(sp)
   10986:	d5b6                	sw	a3,232(sp)
   10988:	479d                	li	a5,7
   1098a:	12d7cce3          	blt	a5,a3,112c2 <_vfprintf_r+0xf38>
   1098e:	01090793          	addi	a5,s2,16
   10992:	00248713          	addi	a4,s1,2
   10996:	8946                	mv	s2,a7
   10998:	88be                	mv	a7,a5
   1099a:	5662                	lw	a2,56(sp)
   1099c:	09d4                	addi	a3,sp,212
   1099e:	00d92023          	sw	a3,0(s2)
   109a2:	019607b3          	add	a5,a2,s9
   109a6:	00c92223          	sw	a2,4(s2)
   109aa:	d7be                	sw	a5,236(sp)
   109ac:	d5ba                	sw	a4,232(sp)
   109ae:	469d                	li	a3,7
   109b0:	c0e6d5e3          	bge	a3,a4,105ba <_vfprintf_r+0x230>
   109b4:	11d0                	addi	a2,sp,228
   109b6:	85e2                	mv	a1,s8
   109b8:	856a                	mv	a0,s10
   109ba:	64b0b0ef          	jal	ra,1c804 <__sprint_r>
   109be:	5a051463          	bnez	a0,10f66 <_vfprintf_r+0xbdc>
   109c2:	57be                	lw	a5,236(sp)
   109c4:	10c10893          	addi	a7,sp,268
   109c8:	becd                	j	105ba <_vfprintf_r+0x230>
   109ca:	46c1                	li	a3,16
   109cc:	572e                	lw	a4,232(sp)
   109ce:	0096c463          	blt	a3,s1,109d6 <_vfprintf_r+0x64c>
   109d2:	3de0106f          	j	11db0 <_vfprintf_r+0x1a26>
   109d6:	000266b7          	lui	a3,0x26
   109da:	e3468e93          	addi	t4,a3,-460 # 25e34 <blanks.1>
   109de:	4941                	li	s2,16
   109e0:	4a1d                	li	s4,7
   109e2:	8b76                	mv	s6,t4
   109e4:	a021                	j	109ec <_vfprintf_r+0x662>
   109e6:	14c1                	addi	s1,s1,-16
   109e8:	02995b63          	bge	s2,s1,10a1e <_vfprintf_r+0x694>
   109ec:	07c1                	addi	a5,a5,16
   109ee:	0705                	addi	a4,a4,1
   109f0:	0168a023          	sw	s6,0(a7)
   109f4:	0128a223          	sw	s2,4(a7)
   109f8:	d7be                	sw	a5,236(sp)
   109fa:	d5ba                	sw	a4,232(sp)
   109fc:	08a1                	addi	a7,a7,8
   109fe:	feea54e3          	bge	s4,a4,109e6 <_vfprintf_r+0x65c>
   10a02:	11d0                	addi	a2,sp,228
   10a04:	85e2                	mv	a1,s8
   10a06:	856a                	mv	a0,s10
   10a08:	5fd0b0ef          	jal	ra,1c804 <__sprint_r>
   10a0c:	54051d63          	bnez	a0,10f66 <_vfprintf_r+0xbdc>
   10a10:	14c1                	addi	s1,s1,-16
   10a12:	57be                	lw	a5,236(sp)
   10a14:	572e                	lw	a4,232(sp)
   10a16:	10c10893          	addi	a7,sp,268
   10a1a:	fc9949e3          	blt	s2,s1,109ec <_vfprintf_r+0x662>
   10a1e:	8eda                	mv	t4,s6
   10a20:	97a6                	add	a5,a5,s1
   10a22:	0705                	addi	a4,a4,1
   10a24:	01d8a023          	sw	t4,0(a7)
   10a28:	0098a223          	sw	s1,4(a7)
   10a2c:	d7be                	sw	a5,236(sp)
   10a2e:	d5ba                	sw	a4,232(sp)
   10a30:	469d                	li	a3,7
   10a32:	b8e6dce3          	bge	a3,a4,105ca <_vfprintf_r+0x240>
   10a36:	11d0                	addi	a2,sp,228
   10a38:	85e2                	mv	a1,s8
   10a3a:	856a                	mv	a0,s10
   10a3c:	5c90b0ef          	jal	ra,1c804 <__sprint_r>
   10a40:	52051363          	bnez	a0,10f66 <_vfprintf_r+0xbdc>
   10a44:	57be                	lw	a5,236(sp)
   10a46:	b651                	j	105ca <_vfprintf_r+0x240>
   10a48:	856a                	mv	a0,s10
   10a4a:	5ed030ef          	jal	ra,14836 <__sinit>
   10a4e:	ba79                	j	103ec <_vfprintf_r+0x62>
   10a50:	4752                	lw	a4,20(sp)
   10a52:	88e6                	mv	a7,s9
   10a54:	0c0103a3          	sb	zero,199(sp)
   10a58:	431c                	lw	a5,0(a4)
   10a5a:	0711                	addi	a4,a4,4
   10a5c:	ca3a                	sw	a4,20(sp)
   10a5e:	14f10623          	sb	a5,332(sp)
   10a62:	4a85                	li	s5,1
   10a64:	4c85                	li	s9,1
   10a66:	14c10b13          	addi	s6,sp,332
   10a6a:	bc45                	j	1051a <_vfprintf_r+0x190>
   10a6c:	47d2                	lw	a5,20(sp)
   10a6e:	0c0103a3          	sb	zero,199(sp)
   10a72:	88e6                	mv	a7,s9
   10a74:	0007ab03          	lw	s6,0(a5)
   10a78:	00478913          	addi	s2,a5,4
   10a7c:	100b00e3          	beqz	s6,1137c <_vfprintf_r+0xff2>
   10a80:	57fd                	li	a5,-1
   10a82:	36fd86e3          	beq	s11,a5,115ee <_vfprintf_r+0x1264>
   10a86:	866e                	mv	a2,s11
   10a88:	4581                	li	a1,0
   10a8a:	855a                	mv	a0,s6
   10a8c:	ca66                	sw	s9,20(sp)
   10a8e:	493060ef          	jal	ra,17720 <memchr>
   10a92:	c82a                	sw	a0,16(sp)
   10a94:	48d2                	lw	a7,20(sp)
   10a96:	e119                	bnez	a0,10a9c <_vfprintf_r+0x712>
   10a98:	23e0106f          	j	11cd6 <_vfprintf_r+0x194c>
   10a9c:	47c2                	lw	a5,16(sp)
   10a9e:	ca4a                	sw	s2,20(sp)
   10aa0:	c802                	sw	zero,16(sp)
   10aa2:	41678cb3          	sub	s9,a5,s6
   10aa6:	0c714783          	lbu	a5,199(sp)
   10aaa:	fffcca93          	not	s5,s9
   10aae:	41fada93          	srai	s5,s5,0x1f
   10ab2:	d402                	sw	zero,40(sp)
   10ab4:	d202                	sw	zero,36(sp)
   10ab6:	ce02                	sw	zero,28(sp)
   10ab8:	015cfab3          	and	s5,s9,s5
   10abc:	4d81                	li	s11,0
   10abe:	a60783e3          	beqz	a5,10524 <_vfprintf_r+0x19a>
   10ac2:	0a85                	addi	s5,s5,1
   10ac4:	b485                	j	10524 <_vfprintf_r+0x19a>
   10ac6:	00044483          	lbu	s1,0(s0)
   10aca:	06800793          	li	a5,104
   10ace:	0af480e3          	beq	s1,a5,1136e <_vfprintf_r+0xfe4>
   10ad2:	040a6a13          	ori	s4,s4,64
   10ad6:	bad5                	j	104ca <_vfprintf_r+0x140>
   10ad8:	46d2                	lw	a3,20(sp)
   10ada:	020a7793          	andi	a5,s4,32
   10ade:	88e6                	mv	a7,s9
   10ae0:	4298                	lw	a4,0(a3)
   10ae2:	0691                	addi	a3,a3,4
   10ae4:	ca36                	sw	a3,20(sp)
   10ae6:	76079363          	bnez	a5,1124c <_vfprintf_r+0xec2>
   10aea:	010a7793          	andi	a5,s4,16
   10aee:	2a079ae3          	bnez	a5,115a2 <_vfprintf_r+0x1218>
   10af2:	040a7793          	andi	a5,s4,64
   10af6:	580794e3          	bnez	a5,1187e <_vfprintf_r+0x14f4>
   10afa:	200a7a13          	andi	s4,s4,512
   10afe:	2a0a02e3          	beqz	s4,115a2 <_vfprintf_r+0x1218>
   10b02:	47b2                	lw	a5,12(sp)
   10b04:	8b22                	mv	s6,s0
   10b06:	00f70023          	sb	a5,0(a4)
   10b0a:	b4d5                	j	105ee <_vfprintf_r+0x264>
   10b0c:	00044483          	lbu	s1,0(s0)
   10b10:	06c00793          	li	a5,108
   10b14:	02f484e3          	beq	s1,a5,1133c <_vfprintf_r+0xfb2>
   10b18:	010a6a13          	ori	s4,s4,16
   10b1c:	b27d                	j	104ca <_vfprintf_r+0x140>
   10b1e:	4752                	lw	a4,20(sp)
   10b20:	77e1                	lui	a5,0xffff8
   10b22:	8307c793          	xori	a5,a5,-2000
   10b26:	0cf11423          	sh	a5,200(sp)
   10b2a:	00470793          	addi	a5,a4,4
   10b2e:	88e6                	mv	a7,s9
   10b30:	ca3e                	sw	a5,20(sp)
   10b32:	00072c83          	lw	s9,0(a4)
   10b36:	000267b7          	lui	a5,0x26
   10b3a:	c9478793          	addi	a5,a5,-876 # 25c94 <__clzsi2+0x52>
   10b3e:	da3e                	sw	a5,52(sp)
   10b40:	4901                	li	s2,0
   10b42:	002a6b93          	ori	s7,s4,2
   10b46:	4789                	li	a5,2
   10b48:	07800493          	li	s1,120
   10b4c:	0c0103a3          	sb	zero,199(sp)
   10b50:	56fd                	li	a3,-1
   10b52:	1add8363          	beq	s11,a3,10cf8 <_vfprintf_r+0x96e>
   10b56:	012ce6b3          	or	a3,s9,s2
   10b5a:	f7fbfa13          	andi	s4,s7,-129
   10b5e:	18069c63          	bnez	a3,10cf6 <_vfprintf_r+0x96c>
   10b62:	1e0d9663          	bnez	s11,10d4e <_vfprintf_r+0x9c4>
   10b66:	ebf9                	bnez	a5,10c3c <_vfprintf_r+0x8b2>
   10b68:	001bfc93          	andi	s9,s7,1
   10b6c:	1b010b13          	addi	s6,sp,432
   10b70:	6a0c9a63          	bnez	s9,11224 <_vfprintf_r+0xe9a>
   10b74:	0c714783          	lbu	a5,199(sp)
   10b78:	8aee                	mv	s5,s11
   10b7a:	019dd363          	bge	s11,s9,10b80 <_vfprintf_r+0x7f6>
   10b7e:	8ae6                	mv	s5,s9
   10b80:	c802                	sw	zero,16(sp)
   10b82:	d402                	sw	zero,40(sp)
   10b84:	d202                	sw	zero,36(sp)
   10b86:	ce02                	sw	zero,28(sp)
   10b88:	ff8d                	bnez	a5,10ac2 <_vfprintf_r+0x738>
   10b8a:	ba69                	j	10524 <_vfprintf_r+0x19a>
   10b8c:	88e6                	mv	a7,s9
   10b8e:	010a6a13          	ori	s4,s4,16
   10b92:	020a7793          	andi	a5,s4,32
   10b96:	5e078d63          	beqz	a5,11190 <_vfprintf_r+0xe06>
   10b9a:	47d2                	lw	a5,20(sp)
   10b9c:	00778b13          	addi	s6,a5,7
   10ba0:	ff8b7b13          	andi	s6,s6,-8
   10ba4:	000b2c83          	lw	s9,0(s6)
   10ba8:	004b2903          	lw	s2,4(s6)
   10bac:	008b0793          	addi	a5,s6,8
   10bb0:	ca3e                	sw	a5,20(sp)
   10bb2:	bffa7b93          	andi	s7,s4,-1025
   10bb6:	4781                	li	a5,0
   10bb8:	bf51                	j	10b4c <_vfprintf_r+0x7c2>
   10bba:	88e6                	mv	a7,s9
   10bbc:	010a6b93          	ori	s7,s4,16
   10bc0:	020bf793          	andi	a5,s7,32
   10bc4:	62078863          	beqz	a5,111f4 <_vfprintf_r+0xe6a>
   10bc8:	47d2                	lw	a5,20(sp)
   10bca:	00778b13          	addi	s6,a5,7
   10bce:	ff8b7b13          	andi	s6,s6,-8
   10bd2:	008b0793          	addi	a5,s6,8
   10bd6:	ca3e                	sw	a5,20(sp)
   10bd8:	000b2c83          	lw	s9,0(s6)
   10bdc:	004b2903          	lw	s2,4(s6)
   10be0:	4785                	li	a5,1
   10be2:	b7ad                	j	10b4c <_vfprintf_r+0x7c2>
   10be4:	00044483          	lbu	s1,0(s0)
   10be8:	080a6a13          	ori	s4,s4,128
   10bec:	b8f9                	j	104ca <_vfprintf_r+0x140>
   10bee:	00044483          	lbu	s1,0(s0)
   10bf2:	008a6a13          	ori	s4,s4,8
   10bf6:	b8d1                	j	104ca <_vfprintf_r+0x140>
   10bf8:	88e6                	mv	a7,s9
   10bfa:	010a6a13          	ori	s4,s4,16
   10bfe:	020a7793          	andi	a5,s4,32
   10c02:	5a078763          	beqz	a5,111b0 <_vfprintf_r+0xe26>
   10c06:	47d2                	lw	a5,20(sp)
   10c08:	00778b13          	addi	s6,a5,7
   10c0c:	ff8b7b13          	andi	s6,s6,-8
   10c10:	004b2783          	lw	a5,4(s6)
   10c14:	000b2c83          	lw	s9,0(s6)
   10c18:	008b0713          	addi	a4,s6,8
   10c1c:	ca3a                	sw	a4,20(sp)
   10c1e:	893e                	mv	s2,a5
   10c20:	5a07cb63          	bltz	a5,111d6 <_vfprintf_r+0xe4c>
   10c24:	57fd                	li	a5,-1
   10c26:	8bd2                	mv	s7,s4
   10c28:	00fd8f63          	beq	s11,a5,10c46 <_vfprintf_r+0x8bc>
   10c2c:	012ce7b3          	or	a5,s9,s2
   10c30:	f7fa7b93          	andi	s7,s4,-129
   10c34:	eb89                	bnez	a5,10c46 <_vfprintf_r+0x8bc>
   10c36:	000d9d63          	bnez	s11,10c50 <_vfprintf_r+0x8c6>
   10c3a:	8a5e                	mv	s4,s7
   10c3c:	4d81                	li	s11,0
   10c3e:	4c81                	li	s9,0
   10c40:	1b010b13          	addi	s6,sp,432
   10c44:	bf05                	j	10b74 <_vfprintf_r+0x7ea>
   10c46:	7c091f63          	bnez	s2,11424 <_vfprintf_r+0x109a>
   10c4a:	47a5                	li	a5,9
   10c4c:	7d97ec63          	bltu	a5,s9,11424 <_vfprintf_r+0x109a>
   10c50:	030c8c93          	addi	s9,s9,48
   10c54:	1b9107a3          	sb	s9,431(sp)
   10c58:	8a5e                	mv	s4,s7
   10c5a:	4c85                	li	s9,1
   10c5c:	1af10b13          	addi	s6,sp,431
   10c60:	bf11                	j	10b74 <_vfprintf_r+0x7ea>
   10c62:	47d2                	lw	a5,20(sp)
   10c64:	00044483          	lbu	s1,0(s0)
   10c68:	0007a983          	lw	s3,0(a5)
   10c6c:	0791                	addi	a5,a5,4
   10c6e:	ca3e                	sw	a5,20(sp)
   10c70:	8409dde3          	bgez	s3,104ca <_vfprintf_r+0x140>
   10c74:	413009b3          	neg	s3,s3
   10c78:	004a6a13          	ori	s4,s4,4
   10c7c:	b0b9                	j	104ca <_vfprintf_r+0x140>
   10c7e:	00044483          	lbu	s1,0(s0)
   10c82:	001a6a13          	ori	s4,s4,1
   10c86:	b091                	j	104ca <_vfprintf_r+0x140>
   10c88:	0c714783          	lbu	a5,199(sp)
   10c8c:	00044483          	lbu	s1,0(s0)
   10c90:	82079de3          	bnez	a5,104ca <_vfprintf_r+0x140>
   10c94:	02000793          	li	a5,32
   10c98:	0cf103a3          	sb	a5,199(sp)
   10c9c:	82fff06f          	j	104ca <_vfprintf_r+0x140>
   10ca0:	00044483          	lbu	s1,0(s0)
   10ca4:	004a6a13          	ori	s4,s4,4
   10ca8:	823ff06f          	j	104ca <_vfprintf_r+0x140>
   10cac:	02b00793          	li	a5,43
   10cb0:	00044483          	lbu	s1,0(s0)
   10cb4:	0cf103a3          	sb	a5,199(sp)
   10cb8:	813ff06f          	j	104ca <_vfprintf_r+0x140>
   10cbc:	00044483          	lbu	s1,0(s0)
   10cc0:	00140713          	addi	a4,s0,1
   10cc4:	01749463          	bne	s1,s7,10ccc <_vfprintf_r+0x942>
   10cc8:	3720106f          	j	1203a <_vfprintf_r+0x1cb0>
   10ccc:	fd048693          	addi	a3,s1,-48
   10cd0:	843a                	mv	s0,a4
   10cd2:	4d81                	li	s11,0
   10cd4:	fedaec63          	bltu	s5,a3,104cc <_vfprintf_r+0x142>
   10cd8:	00044483          	lbu	s1,0(s0)
   10cdc:	002d9793          	slli	a5,s11,0x2
   10ce0:	97ee                	add	a5,a5,s11
   10ce2:	0786                	slli	a5,a5,0x1
   10ce4:	00d78db3          	add	s11,a5,a3
   10ce8:	fd048693          	addi	a3,s1,-48
   10cec:	0405                	addi	s0,s0,1
   10cee:	fedaf5e3          	bgeu	s5,a3,10cd8 <_vfprintf_r+0x94e>
   10cf2:	fdaff06f          	j	104cc <_vfprintf_r+0x142>
   10cf6:	8bd2                	mv	s7,s4
   10cf8:	4685                	li	a3,1
   10cfa:	f4d786e3          	beq	a5,a3,10c46 <_vfprintf_r+0x8bc>
   10cfe:	4689                	li	a3,2
   10d00:	06d78063          	beq	a5,a3,10d60 <_vfprintf_r+0x9d6>
   10d04:	1b010b13          	addi	s6,sp,432
   10d08:	01d91713          	slli	a4,s2,0x1d
   10d0c:	007cf793          	andi	a5,s9,7
   10d10:	003cdc93          	srli	s9,s9,0x3
   10d14:	03078793          	addi	a5,a5,48
   10d18:	01976cb3          	or	s9,a4,s9
   10d1c:	00395913          	srli	s2,s2,0x3
   10d20:	fefb0fa3          	sb	a5,-1(s6)
   10d24:	012ce733          	or	a4,s9,s2
   10d28:	865a                	mv	a2,s6
   10d2a:	1b7d                	addi	s6,s6,-1
   10d2c:	ff71                	bnez	a4,10d08 <_vfprintf_r+0x97e>
   10d2e:	001bf693          	andi	a3,s7,1
   10d32:	cea9                	beqz	a3,10d8c <_vfprintf_r+0xa02>
   10d34:	03000693          	li	a3,48
   10d38:	04d78a63          	beq	a5,a3,10d8c <_vfprintf_r+0xa02>
   10d3c:	1679                	addi	a2,a2,-2
   10d3e:	1b1c                	addi	a5,sp,432
   10d40:	fedb0fa3          	sb	a3,-1(s6)
   10d44:	40c78cb3          	sub	s9,a5,a2
   10d48:	8a5e                	mv	s4,s7
   10d4a:	8b32                	mv	s6,a2
   10d4c:	b525                	j	10b74 <_vfprintf_r+0x7ea>
   10d4e:	4705                	li	a4,1
   10d50:	00e79463          	bne	a5,a4,10d58 <_vfprintf_r+0x9ce>
   10d54:	0680106f          	j	11dbc <_vfprintf_r+0x1a32>
   10d58:	4709                	li	a4,2
   10d5a:	8bd2                	mv	s7,s4
   10d5c:	fae794e3          	bne	a5,a4,10d04 <_vfprintf_r+0x97a>
   10d60:	56d2                	lw	a3,52(sp)
   10d62:	1b010b13          	addi	s6,sp,432
   10d66:	00fcf793          	andi	a5,s9,15
   10d6a:	97b6                	add	a5,a5,a3
   10d6c:	0007c703          	lbu	a4,0(a5)
   10d70:	004cdc93          	srli	s9,s9,0x4
   10d74:	01c91793          	slli	a5,s2,0x1c
   10d78:	0197ecb3          	or	s9,a5,s9
   10d7c:	00495913          	srli	s2,s2,0x4
   10d80:	feeb0fa3          	sb	a4,-1(s6)
   10d84:	012ce7b3          	or	a5,s9,s2
   10d88:	1b7d                	addi	s6,s6,-1
   10d8a:	fff1                	bnez	a5,10d66 <_vfprintf_r+0x9dc>
   10d8c:	1b1c                	addi	a5,sp,432
   10d8e:	41678cb3          	sub	s9,a5,s6
   10d92:	8a5e                	mv	s4,s7
   10d94:	b3c5                	j	10b74 <_vfprintf_r+0x7ea>
   10d96:	06500713          	li	a4,101
   10d9a:	b4975fe3          	bge	a4,s1,108f8 <_vfprintf_r+0x56e>
   10d9e:	574e                	lw	a4,240(sp)
   10da0:	110c                	addi	a1,sp,160
   10da2:	1908                	addi	a0,sp,176
   10da4:	d93a                	sw	a4,176(sp)
   10da6:	575e                	lw	a4,244(sp)
   10da8:	c2c6                	sw	a7,68(sp)
   10daa:	c0be                	sw	a5,64(sp)
   10dac:	db3a                	sw	a4,180(sp)
   10dae:	576e                	lw	a4,248(sp)
   10db0:	d102                	sw	zero,160(sp)
   10db2:	d302                	sw	zero,164(sp)
   10db4:	dd3a                	sw	a4,184(sp)
   10db6:	577e                	lw	a4,252(sp)
   10db8:	d502                	sw	zero,168(sp)
   10dba:	d702                	sw	zero,172(sp)
   10dbc:	df3a                	sw	a4,188(sp)
   10dbe:	34f120ef          	jal	ra,2390c <__eqtf2>
   10dc2:	4786                	lw	a5,64(sp)
   10dc4:	4896                	lw	a7,68(sp)
   10dc6:	26051063          	bnez	a0,11026 <_vfprintf_r+0xc9c>
   10dca:	572e                	lw	a4,232(sp)
   10dcc:	000266b7          	lui	a3,0x26
   10dd0:	cc468693          	addi	a3,a3,-828 # 25cc4 <__clzsi2+0x82>
   10dd4:	00d8a023          	sw	a3,0(a7)
   10dd8:	0785                	addi	a5,a5,1
   10dda:	4685                	li	a3,1
   10ddc:	0705                	addi	a4,a4,1
   10dde:	00d8a223          	sw	a3,4(a7)
   10de2:	d7be                	sw	a5,236(sp)
   10de4:	d5ba                	sw	a4,232(sp)
   10de6:	469d                	li	a3,7
   10de8:	08a1                	addi	a7,a7,8
   10dea:	72e6c763          	blt	a3,a4,11518 <_vfprintf_r+0x118e>
   10dee:	473e                	lw	a4,204(sp)
   10df0:	5682                	lw	a3,32(sp)
   10df2:	42d75263          	bge	a4,a3,11216 <_vfprintf_r+0xe8c>
   10df6:	5742                	lw	a4,48(sp)
   10df8:	56b2                	lw	a3,44(sp)
   10dfa:	08a1                	addi	a7,a7,8
   10dfc:	fee8ac23          	sw	a4,-8(a7)
   10e00:	572e                	lw	a4,232(sp)
   10e02:	97b6                	add	a5,a5,a3
   10e04:	fed8ae23          	sw	a3,-4(a7)
   10e08:	0705                	addi	a4,a4,1
   10e0a:	d7be                	sw	a5,236(sp)
   10e0c:	d5ba                	sw	a4,232(sp)
   10e0e:	469d                	li	a3,7
   10e10:	52e6cd63          	blt	a3,a4,1134a <_vfprintf_r+0xfc0>
   10e14:	5702                	lw	a4,32(sp)
   10e16:	fff70493          	addi	s1,a4,-1
   10e1a:	fa905063          	blez	s1,105ba <_vfprintf_r+0x230>
   10e1e:	46c1                	li	a3,16
   10e20:	572e                	lw	a4,232(sp)
   10e22:	7096d663          	bge	a3,s1,1152e <_vfprintf_r+0x11a4>
   10e26:	4941                	li	s2,16
   10e28:	4c9d                	li	s9,7
   10e2a:	a021                	j	10e32 <_vfprintf_r+0xaa8>
   10e2c:	14c1                	addi	s1,s1,-16
   10e2e:	70995063          	bge	s2,s1,1152e <_vfprintf_r+0x11a4>
   10e32:	46a2                	lw	a3,8(sp)
   10e34:	07c1                	addi	a5,a5,16
   10e36:	0705                	addi	a4,a4,1
   10e38:	00d8a023          	sw	a3,0(a7)
   10e3c:	0128a223          	sw	s2,4(a7)
   10e40:	d7be                	sw	a5,236(sp)
   10e42:	d5ba                	sw	a4,232(sp)
   10e44:	08a1                	addi	a7,a7,8
   10e46:	feecd3e3          	bge	s9,a4,10e2c <_vfprintf_r+0xaa2>
   10e4a:	11d0                	addi	a2,sp,228
   10e4c:	85e2                	mv	a1,s8
   10e4e:	856a                	mv	a0,s10
   10e50:	1b50b0ef          	jal	ra,1c804 <__sprint_r>
   10e54:	10051963          	bnez	a0,10f66 <_vfprintf_r+0xbdc>
   10e58:	57be                	lw	a5,236(sp)
   10e5a:	572e                	lw	a4,232(sp)
   10e5c:	10c10893          	addi	a7,sp,268
   10e60:	b7f1                	j	10e2c <_vfprintf_r+0xaa2>
   10e62:	41598933          	sub	s2,s3,s5
   10e66:	f3205563          	blez	s2,10590 <_vfprintf_r+0x206>
   10e6a:	4641                	li	a2,16
   10e6c:	572e                	lw	a4,232(sp)
   10e6e:	05265263          	bge	a2,s2,10eb2 <_vfprintf_r+0xb28>
   10e72:	4e41                	li	t3,16
   10e74:	4b9d                	li	s7,7
   10e76:	a021                	j	10e7e <_vfprintf_r+0xaf4>
   10e78:	1941                	addi	s2,s2,-16
   10e7a:	032e5c63          	bge	t3,s2,10eb2 <_vfprintf_r+0xb28>
   10e7e:	46a2                	lw	a3,8(sp)
   10e80:	07c1                	addi	a5,a5,16
   10e82:	0705                	addi	a4,a4,1
   10e84:	00d8a023          	sw	a3,0(a7)
   10e88:	01c8a223          	sw	t3,4(a7)
   10e8c:	d7be                	sw	a5,236(sp)
   10e8e:	d5ba                	sw	a4,232(sp)
   10e90:	08a1                	addi	a7,a7,8
   10e92:	feebd3e3          	bge	s7,a4,10e78 <_vfprintf_r+0xaee>
   10e96:	11d0                	addi	a2,sp,228
   10e98:	85e2                	mv	a1,s8
   10e9a:	856a                	mv	a0,s10
   10e9c:	1690b0ef          	jal	ra,1c804 <__sprint_r>
   10ea0:	e179                	bnez	a0,10f66 <_vfprintf_r+0xbdc>
   10ea2:	4e41                	li	t3,16
   10ea4:	1941                	addi	s2,s2,-16
   10ea6:	57be                	lw	a5,236(sp)
   10ea8:	572e                	lw	a4,232(sp)
   10eaa:	10c10893          	addi	a7,sp,268
   10eae:	fd2e48e3          	blt	t3,s2,10e7e <_vfprintf_r+0xaf4>
   10eb2:	46a2                	lw	a3,8(sp)
   10eb4:	97ca                	add	a5,a5,s2
   10eb6:	0705                	addi	a4,a4,1
   10eb8:	00d8a023          	sw	a3,0(a7)
   10ebc:	0128a223          	sw	s2,4(a7)
   10ec0:	d7be                	sw	a5,236(sp)
   10ec2:	d5ba                	sw	a4,232(sp)
   10ec4:	469d                	li	a3,7
   10ec6:	08a1                	addi	a7,a7,8
   10ec8:	ece6d463          	bge	a3,a4,10590 <_vfprintf_r+0x206>
   10ecc:	11d0                	addi	a2,sp,228
   10ece:	85e2                	mv	a1,s8
   10ed0:	856a                	mv	a0,s10
   10ed2:	1330b0ef          	jal	ra,1c804 <__sprint_r>
   10ed6:	e941                	bnez	a0,10f66 <_vfprintf_r+0xbdc>
   10ed8:	57be                	lw	a5,236(sp)
   10eda:	10c10893          	addi	a7,sp,268
   10ede:	eb2ff06f          	j	10590 <_vfprintf_r+0x206>
   10ee2:	4641                	li	a2,16
   10ee4:	572e                	lw	a4,232(sp)
   10ee6:	05b65163          	bge	a2,s11,10f28 <_vfprintf_r+0xb9e>
   10eea:	4bc1                	li	s7,16
   10eec:	491d                	li	s2,7
   10eee:	a021                	j	10ef6 <_vfprintf_r+0xb6c>
   10ef0:	1dc1                	addi	s11,s11,-16
   10ef2:	03bbdb63          	bge	s7,s11,10f28 <_vfprintf_r+0xb9e>
   10ef6:	46a2                	lw	a3,8(sp)
   10ef8:	07c1                	addi	a5,a5,16
   10efa:	0705                	addi	a4,a4,1
   10efc:	00d8a023          	sw	a3,0(a7)
   10f00:	0178a223          	sw	s7,4(a7)
   10f04:	d7be                	sw	a5,236(sp)
   10f06:	d5ba                	sw	a4,232(sp)
   10f08:	08a1                	addi	a7,a7,8
   10f0a:	fee953e3          	bge	s2,a4,10ef0 <_vfprintf_r+0xb66>
   10f0e:	11d0                	addi	a2,sp,228
   10f10:	85e2                	mv	a1,s8
   10f12:	856a                	mv	a0,s10
   10f14:	0f10b0ef          	jal	ra,1c804 <__sprint_r>
   10f18:	e539                	bnez	a0,10f66 <_vfprintf_r+0xbdc>
   10f1a:	1dc1                	addi	s11,s11,-16
   10f1c:	57be                	lw	a5,236(sp)
   10f1e:	572e                	lw	a4,232(sp)
   10f20:	10c10893          	addi	a7,sp,268
   10f24:	fdbbc9e3          	blt	s7,s11,10ef6 <_vfprintf_r+0xb6c>
   10f28:	46a2                	lw	a3,8(sp)
   10f2a:	97ee                	add	a5,a5,s11
   10f2c:	0705                	addi	a4,a4,1
   10f2e:	00d8a023          	sw	a3,0(a7)
   10f32:	01b8a223          	sw	s11,4(a7)
   10f36:	d7be                	sw	a5,236(sp)
   10f38:	d5ba                	sw	a4,232(sp)
   10f3a:	469d                	li	a3,7
   10f3c:	08a1                	addi	a7,a7,8
   10f3e:	e4e6dd63          	bge	a3,a4,10598 <_vfprintf_r+0x20e>
   10f42:	11d0                	addi	a2,sp,228
   10f44:	85e2                	mv	a1,s8
   10f46:	856a                	mv	a0,s10
   10f48:	0bd0b0ef          	jal	ra,1c804 <__sprint_r>
   10f4c:	ed09                	bnez	a0,10f66 <_vfprintf_r+0xbdc>
   10f4e:	57be                	lw	a5,236(sp)
   10f50:	10c10893          	addi	a7,sp,268
   10f54:	e44ff06f          	j	10598 <_vfprintf_r+0x20e>
   10f58:	11d0                	addi	a2,sp,228
   10f5a:	85e2                	mv	a1,s8
   10f5c:	856a                	mv	a0,s10
   10f5e:	0a70b0ef          	jal	ra,1c804 <__sprint_r>
   10f62:	e6050c63          	beqz	a0,105da <_vfprintf_r+0x250>
   10f66:	4bc2                	lw	s7,16(sp)
   10f68:	e80b8b63          	beqz	s7,105fe <_vfprintf_r+0x274>
   10f6c:	85de                	mv	a1,s7
   10f6e:	856a                	mv	a0,s10
   10f70:	389030ef          	jal	ra,14af8 <_free_r>
   10f74:	e8aff06f          	j	105fe <_vfprintf_r+0x274>
   10f78:	4641                	li	a2,16
   10f7a:	572e                	lw	a4,232(sp)
   10f7c:	54d657e3          	bge	a2,a3,11cca <_vfprintf_r+0x1940>
   10f80:	00026637          	lui	a2,0x26
   10f84:	e3460e93          	addi	t4,a2,-460 # 25e34 <blanks.1>
   10f88:	c0a2                	sw	s0,64(sp)
   10f8a:	c2a6                	sw	s1,68(sp)
   10f8c:	846a                	mv	s0,s10
   10f8e:	84e2                	mv	s1,s8
   10f90:	4e41                	li	t3,16
   10f92:	429d                	li	t0,7
   10f94:	8c36                	mv	s8,a3
   10f96:	8d76                	mv	s10,t4
   10f98:	a021                	j	10fa0 <_vfprintf_r+0xc16>
   10f9a:	1c41                	addi	s8,s8,-16
   10f9c:	038e5d63          	bge	t3,s8,10fd6 <_vfprintf_r+0xc4c>
   10fa0:	07c1                	addi	a5,a5,16
   10fa2:	0705                	addi	a4,a4,1
   10fa4:	01a8a023          	sw	s10,0(a7)
   10fa8:	01c8a223          	sw	t3,4(a7)
   10fac:	d7be                	sw	a5,236(sp)
   10fae:	d5ba                	sw	a4,232(sp)
   10fb0:	08a1                	addi	a7,a7,8
   10fb2:	fee2d4e3          	bge	t0,a4,10f9a <_vfprintf_r+0xc10>
   10fb6:	11d0                	addi	a2,sp,228
   10fb8:	85a6                	mv	a1,s1
   10fba:	8522                	mv	a0,s0
   10fbc:	0490b0ef          	jal	ra,1c804 <__sprint_r>
   10fc0:	52051e63          	bnez	a0,114fc <_vfprintf_r+0x1172>
   10fc4:	4e41                	li	t3,16
   10fc6:	1c41                	addi	s8,s8,-16
   10fc8:	57be                	lw	a5,236(sp)
   10fca:	572e                	lw	a4,232(sp)
   10fcc:	10c10893          	addi	a7,sp,268
   10fd0:	429d                	li	t0,7
   10fd2:	fd8e47e3          	blt	t3,s8,10fa0 <_vfprintf_r+0xc16>
   10fd6:	86e2                	mv	a3,s8
   10fd8:	8eea                	mv	t4,s10
   10fda:	8c26                	mv	s8,s1
   10fdc:	8d22                	mv	s10,s0
   10fde:	4496                	lw	s1,68(sp)
   10fe0:	4406                	lw	s0,64(sp)
   10fe2:	97b6                	add	a5,a5,a3
   10fe4:	0705                	addi	a4,a4,1
   10fe6:	00d8a223          	sw	a3,4(a7)
   10fea:	01d8a023          	sw	t4,0(a7)
   10fee:	d7be                	sw	a5,236(sp)
   10ff0:	d5ba                	sw	a4,232(sp)
   10ff2:	469d                	li	a3,7
   10ff4:	08a1                	addi	a7,a7,8
   10ff6:	d4e6d563          	bge	a3,a4,10540 <_vfprintf_r+0x1b6>
   10ffa:	11d0                	addi	a2,sp,228
   10ffc:	85e2                	mv	a1,s8
   10ffe:	856a                	mv	a0,s10
   11000:	0050b0ef          	jal	ra,1c804 <__sprint_r>
   11004:	f12d                	bnez	a0,10f66 <_vfprintf_r+0xbdc>
   11006:	57be                	lw	a5,236(sp)
   11008:	10c10893          	addi	a7,sp,268
   1100c:	d34ff06f          	j	10540 <_vfprintf_r+0x1b6>
   11010:	11d0                	addi	a2,sp,228
   11012:	85e2                	mv	a1,s8
   11014:	856a                	mv	a0,s10
   11016:	7ee0b0ef          	jal	ra,1c804 <__sprint_r>
   1101a:	f531                	bnez	a0,10f66 <_vfprintf_r+0xbdc>
   1101c:	57be                	lw	a5,236(sp)
   1101e:	10c10893          	addi	a7,sp,268
   11022:	d66ff06f          	j	10588 <_vfprintf_r+0x1fe>
   11026:	463e                	lw	a2,204(sp)
   11028:	48c05163          	blez	a2,114aa <_vfprintf_r+0x1120>
   1102c:	4772                	lw	a4,28(sp)
   1102e:	5682                	lw	a3,32(sp)
   11030:	84ba                	mv	s1,a4
   11032:	26e6c563          	blt	a3,a4,1129c <_vfprintf_r+0xf12>
   11036:	00905f63          	blez	s1,11054 <_vfprintf_r+0xcca>
   1103a:	572e                	lw	a4,232(sp)
   1103c:	97a6                	add	a5,a5,s1
   1103e:	0168a023          	sw	s6,0(a7)
   11042:	0705                	addi	a4,a4,1
   11044:	0098a223          	sw	s1,4(a7)
   11048:	d7be                	sw	a5,236(sp)
   1104a:	d5ba                	sw	a4,232(sp)
   1104c:	469d                	li	a3,7
   1104e:	08a1                	addi	a7,a7,8
   11050:	7ee6cd63          	blt	a3,a4,1184a <_vfprintf_r+0x14c0>
   11054:	fff4c713          	not	a4,s1
   11058:	877d                	srai	a4,a4,0x1f
   1105a:	8cf9                	and	s1,s1,a4
   1105c:	4772                	lw	a4,28(sp)
   1105e:	409704b3          	sub	s1,a4,s1
   11062:	32904963          	bgtz	s1,11394 <_vfprintf_r+0x100a>
   11066:	46f2                	lw	a3,28(sp)
   11068:	400a7713          	andi	a4,s4,1024
   1106c:	00db0db3          	add	s11,s6,a3
   11070:	64071b63          	bnez	a4,116c6 <_vfprintf_r+0x133c>
   11074:	44be                	lw	s1,204(sp)
   11076:	5702                	lw	a4,32(sp)
   11078:	00e4c663          	blt	s1,a4,11084 <_vfprintf_r+0xcfa>
   1107c:	001a7713          	andi	a4,s4,1
   11080:	7e070363          	beqz	a4,11866 <_vfprintf_r+0x14dc>
   11084:	5742                	lw	a4,48(sp)
   11086:	56b2                	lw	a3,44(sp)
   11088:	461d                	li	a2,7
   1108a:	00e8a023          	sw	a4,0(a7)
   1108e:	572e                	lw	a4,232(sp)
   11090:	97b6                	add	a5,a5,a3
   11092:	00d8a223          	sw	a3,4(a7)
   11096:	0705                	addi	a4,a4,1
   11098:	d7be                	sw	a5,236(sp)
   1109a:	d5ba                	sw	a4,232(sp)
   1109c:	08a1                	addi	a7,a7,8
   1109e:	40e649e3          	blt	a2,a4,11cb0 <_vfprintf_r+0x1926>
   110a2:	5682                	lw	a3,32(sp)
   110a4:	00db0733          	add	a4,s6,a3
   110a8:	409684b3          	sub	s1,a3,s1
   110ac:	41b70733          	sub	a4,a4,s11
   110b0:	8926                	mv	s2,s1
   110b2:	00975363          	bge	a4,s1,110b8 <_vfprintf_r+0xd2e>
   110b6:	893a                	mv	s2,a4
   110b8:	01205f63          	blez	s2,110d6 <_vfprintf_r+0xd4c>
   110bc:	572e                	lw	a4,232(sp)
   110be:	97ca                	add	a5,a5,s2
   110c0:	01b8a023          	sw	s11,0(a7)
   110c4:	0705                	addi	a4,a4,1
   110c6:	0128a223          	sw	s2,4(a7)
   110ca:	d7be                	sw	a5,236(sp)
   110cc:	d5ba                	sw	a4,232(sp)
   110ce:	469d                	li	a3,7
   110d0:	08a1                	addi	a7,a7,8
   110d2:	42e6c0e3          	blt	a3,a4,11cf2 <_vfprintf_r+0x1968>
   110d6:	fff94713          	not	a4,s2
   110da:	877d                	srai	a4,a4,0x1f
   110dc:	00e97733          	and	a4,s2,a4
   110e0:	8c99                	sub	s1,s1,a4
   110e2:	cc905c63          	blez	s1,105ba <_vfprintf_r+0x230>
   110e6:	46c1                	li	a3,16
   110e8:	572e                	lw	a4,232(sp)
   110ea:	4496d263          	bge	a3,s1,1152e <_vfprintf_r+0x11a4>
   110ee:	4941                	li	s2,16
   110f0:	4c9d                	li	s9,7
   110f2:	a021                	j	110fa <_vfprintf_r+0xd70>
   110f4:	14c1                	addi	s1,s1,-16
   110f6:	42995c63          	bge	s2,s1,1152e <_vfprintf_r+0x11a4>
   110fa:	46a2                	lw	a3,8(sp)
   110fc:	07c1                	addi	a5,a5,16
   110fe:	0705                	addi	a4,a4,1
   11100:	00d8a023          	sw	a3,0(a7)
   11104:	0128a223          	sw	s2,4(a7)
   11108:	d7be                	sw	a5,236(sp)
   1110a:	d5ba                	sw	a4,232(sp)
   1110c:	08a1                	addi	a7,a7,8
   1110e:	feecd3e3          	bge	s9,a4,110f4 <_vfprintf_r+0xd6a>
   11112:	11d0                	addi	a2,sp,228
   11114:	85e2                	mv	a1,s8
   11116:	856a                	mv	a0,s10
   11118:	6ec0b0ef          	jal	ra,1c804 <__sprint_r>
   1111c:	e40515e3          	bnez	a0,10f66 <_vfprintf_r+0xbdc>
   11120:	57be                	lw	a5,236(sp)
   11122:	572e                	lw	a4,232(sp)
   11124:	10c10893          	addi	a7,sp,268
   11128:	b7f1                	j	110f4 <_vfprintf_r+0xd6a>
   1112a:	001a7793          	andi	a5,s4,1
   1112e:	fe079263          	bnez	a5,10912 <_vfprintf_r+0x588>
   11132:	00d8a223          	sw	a3,4(a7)
   11136:	d7e6                	sw	s9,236(sp)
   11138:	d5a6                	sw	s1,232(sp)
   1113a:	479d                	li	a5,7
   1113c:	1897c363          	blt	a5,s1,112c2 <_vfprintf_r+0xf38>
   11140:	0709                	addi	a4,a4,2
   11142:	08c1                	addi	a7,a7,16
   11144:	b899                	j	1099a <_vfprintf_r+0x610>
   11146:	85b05ae3          	blez	s11,1099a <_vfprintf_r+0x610>
   1114a:	4641                	li	a2,16
   1114c:	6fb654e3          	bge	a2,s11,12034 <_vfprintf_r+0x1caa>
   11150:	4741                	li	a4,16
   11152:	4b1d                	li	s6,7
   11154:	84b6                	mv	s1,a3
   11156:	a029                	j	11160 <_vfprintf_r+0xdd6>
   11158:	1dc1                	addi	s11,s11,-16
   1115a:	15b75563          	bge	a4,s11,112a4 <_vfprintf_r+0xf1a>
   1115e:	0485                	addi	s1,s1,1
   11160:	47a2                	lw	a5,8(sp)
   11162:	0cc1                	addi	s9,s9,16
   11164:	00e92223          	sw	a4,4(s2)
   11168:	00f92023          	sw	a5,0(s2)
   1116c:	d7e6                	sw	s9,236(sp)
   1116e:	d5a6                	sw	s1,232(sp)
   11170:	0921                	addi	s2,s2,8
   11172:	fe9b53e3          	bge	s6,s1,11158 <_vfprintf_r+0xdce>
   11176:	11d0                	addi	a2,sp,228
   11178:	85e2                	mv	a1,s8
   1117a:	856a                	mv	a0,s10
   1117c:	6880b0ef          	jal	ra,1c804 <__sprint_r>
   11180:	de0513e3          	bnez	a0,10f66 <_vfprintf_r+0xbdc>
   11184:	5cbe                	lw	s9,236(sp)
   11186:	54ae                	lw	s1,232(sp)
   11188:	10c10913          	addi	s2,sp,268
   1118c:	4741                	li	a4,16
   1118e:	b7e9                	j	11158 <_vfprintf_r+0xdce>
   11190:	46d2                	lw	a3,20(sp)
   11192:	010a7793          	andi	a5,s4,16
   11196:	00468713          	addi	a4,a3,4
   1119a:	e7f5                	bnez	a5,11286 <_vfprintf_r+0xefc>
   1119c:	040a7793          	andi	a5,s4,64
   111a0:	48078b63          	beqz	a5,11636 <_vfprintf_r+0x12ac>
   111a4:	47d2                	lw	a5,20(sp)
   111a6:	4901                	li	s2,0
   111a8:	ca3a                	sw	a4,20(sp)
   111aa:	0007dc83          	lhu	s9,0(a5)
   111ae:	b411                	j	10bb2 <_vfprintf_r+0x828>
   111b0:	46d2                	lw	a3,20(sp)
   111b2:	010a7793          	andi	a5,s4,16
   111b6:	00468713          	addi	a4,a3,4
   111ba:	e3cd                	bnez	a5,1125c <_vfprintf_r+0xed2>
   111bc:	040a7793          	andi	a5,s4,64
   111c0:	48078663          	beqz	a5,1164c <_vfprintf_r+0x12c2>
   111c4:	47d2                	lw	a5,20(sp)
   111c6:	ca3a                	sw	a4,20(sp)
   111c8:	00079c83          	lh	s9,0(a5)
   111cc:	41fcd913          	srai	s2,s9,0x1f
   111d0:	87ca                	mv	a5,s2
   111d2:	a407d9e3          	bgez	a5,10c24 <_vfprintf_r+0x89a>
   111d6:	019037b3          	snez	a5,s9
   111da:	41200933          	neg	s2,s2
   111de:	40f90933          	sub	s2,s2,a5
   111e2:	02d00793          	li	a5,45
   111e6:	0cf103a3          	sb	a5,199(sp)
   111ea:	41900cb3          	neg	s9,s9
   111ee:	8bd2                	mv	s7,s4
   111f0:	4785                	li	a5,1
   111f2:	bab9                	j	10b50 <_vfprintf_r+0x7c6>
   111f4:	4752                	lw	a4,20(sp)
   111f6:	010bf793          	andi	a5,s7,16
   111fa:	00470693          	addi	a3,a4,4
   111fe:	ebc9                	bnez	a5,11290 <_vfprintf_r+0xf06>
   11200:	040bf793          	andi	a5,s7,64
   11204:	40078d63          	beqz	a5,1161e <_vfprintf_r+0x1294>
   11208:	47d2                	lw	a5,20(sp)
   1120a:	4901                	li	s2,0
   1120c:	ca36                	sw	a3,20(sp)
   1120e:	0007dc83          	lhu	s9,0(a5)
   11212:	4785                	li	a5,1
   11214:	ba25                	j	10b4c <_vfprintf_r+0x7c2>
   11216:	001a7713          	andi	a4,s4,1
   1121a:	ba070063          	beqz	a4,105ba <_vfprintf_r+0x230>
   1121e:	bee1                	j	10df6 <_vfprintf_r+0xa6c>
   11220:	88e6                	mv	a7,s9
   11222:	baf1                	j	10bfe <_vfprintf_r+0x874>
   11224:	03000793          	li	a5,48
   11228:	1af107a3          	sb	a5,431(sp)
   1122c:	1af10b13          	addi	s6,sp,431
   11230:	b291                	j	10b74 <_vfprintf_r+0x7ea>
   11232:	57f2                	lw	a5,60(sp)
   11234:	00044483          	lbu	s1,0(s0)
   11238:	a8078963          	beqz	a5,104ca <_vfprintf_r+0x140>
   1123c:	0007c783          	lbu	a5,0(a5)
   11240:	a8078563          	beqz	a5,104ca <_vfprintf_r+0x140>
   11244:	400a6a13          	ori	s4,s4,1024
   11248:	a82ff06f          	j	104ca <_vfprintf_r+0x140>
   1124c:	46b2                	lw	a3,12(sp)
   1124e:	8b22                	mv	s6,s0
   11250:	41f6d793          	srai	a5,a3,0x1f
   11254:	c314                	sw	a3,0(a4)
   11256:	c35c                	sw	a5,4(a4)
   11258:	b96ff06f          	j	105ee <_vfprintf_r+0x264>
   1125c:	0006ac83          	lw	s9,0(a3)
   11260:	ca3a                	sw	a4,20(sp)
   11262:	41fcd913          	srai	s2,s9,0x1f
   11266:	87ca                	mv	a5,s2
   11268:	ba65                	j	10c20 <_vfprintf_r+0x896>
   1126a:	4752                	lw	a4,20(sp)
   1126c:	431c                	lw	a5,0(a4)
   1126e:	0711                	addi	a4,a4,4
   11270:	ca3a                	sw	a4,20(sp)
   11272:	4390                	lw	a2,0(a5)
   11274:	43d4                	lw	a3,4(a5)
   11276:	4798                	lw	a4,8(a5)
   11278:	47dc                	lw	a5,12(a5)
   1127a:	d9b2                	sw	a2,240(sp)
   1127c:	dbb6                	sw	a3,244(sp)
   1127e:	ddba                	sw	a4,248(sp)
   11280:	dfbe                	sw	a5,252(sp)
   11282:	c7cff06f          	j	106fe <_vfprintf_r+0x374>
   11286:	0006ac83          	lw	s9,0(a3)
   1128a:	4901                	li	s2,0
   1128c:	ca3a                	sw	a4,20(sp)
   1128e:	b215                	j	10bb2 <_vfprintf_r+0x828>
   11290:	00072c83          	lw	s9,0(a4)
   11294:	4901                	li	s2,0
   11296:	ca36                	sw	a3,20(sp)
   11298:	4785                	li	a5,1
   1129a:	b84d                	j	10b4c <_vfprintf_r+0x7c2>
   1129c:	84b6                	mv	s1,a3
   1129e:	d8904ee3          	bgtz	s1,1103a <_vfprintf_r+0xcb0>
   112a2:	bb4d                	j	11054 <_vfprintf_r+0xcca>
   112a4:	00148713          	addi	a4,s1,1
   112a8:	00890693          	addi	a3,s2,8
   112ac:	47a2                	lw	a5,8(sp)
   112ae:	9cee                	add	s9,s9,s11
   112b0:	01b92223          	sw	s11,4(s2)
   112b4:	00f92023          	sw	a5,0(s2)
   112b8:	d7e6                	sw	s9,236(sp)
   112ba:	d5ba                	sw	a4,232(sp)
   112bc:	479d                	li	a5,7
   112be:	54e7df63          	bge	a5,a4,1181c <_vfprintf_r+0x1492>
   112c2:	11d0                	addi	a2,sp,228
   112c4:	85e2                	mv	a1,s8
   112c6:	856a                	mv	a0,s10
   112c8:	53c0b0ef          	jal	ra,1c804 <__sprint_r>
   112cc:	c8051de3          	bnez	a0,10f66 <_vfprintf_r+0xbdc>
   112d0:	572e                	lw	a4,232(sp)
   112d2:	5cbe                	lw	s9,236(sp)
   112d4:	11410893          	addi	a7,sp,276
   112d8:	0705                	addi	a4,a4,1
   112da:	10c10913          	addi	s2,sp,268
   112de:	ebcff06f          	j	1099a <_vfprintf_r+0x610>
   112e2:	88e6                	mv	a7,s9
   112e4:	8bd2                	mv	s7,s4
   112e6:	b8e9                	j	10bc0 <_vfprintf_r+0x836>
   112e8:	000267b7          	lui	a5,0x26
   112ec:	c9478793          	addi	a5,a5,-876 # 25c94 <__clzsi2+0x52>
   112f0:	88e6                	mv	a7,s9
   112f2:	da3e                	sw	a5,52(sp)
   112f4:	020a7793          	andi	a5,s4,32
   112f8:	c3e5                	beqz	a5,113d8 <_vfprintf_r+0x104e>
   112fa:	47d2                	lw	a5,20(sp)
   112fc:	00778b13          	addi	s6,a5,7
   11300:	ff8b7b13          	andi	s6,s6,-8
   11304:	000b2c83          	lw	s9,0(s6)
   11308:	004b2903          	lw	s2,4(s6)
   1130c:	008b0793          	addi	a5,s6,8
   11310:	ca3e                	sw	a5,20(sp)
   11312:	001a7793          	andi	a5,s4,1
   11316:	cf81                	beqz	a5,1132e <_vfprintf_r+0xfa4>
   11318:	012ce7b3          	or	a5,s9,s2
   1131c:	cb89                	beqz	a5,1132e <_vfprintf_r+0xfa4>
   1131e:	03000793          	li	a5,48
   11322:	0cf10423          	sb	a5,200(sp)
   11326:	0c9104a3          	sb	s1,201(sp)
   1132a:	002a6a13          	ori	s4,s4,2
   1132e:	bffa7b93          	andi	s7,s4,-1025
   11332:	4789                	li	a5,2
   11334:	819ff06f          	j	10b4c <_vfprintf_r+0x7c2>
   11338:	88e6                	mv	a7,s9
   1133a:	b8a1                	j	10b92 <_vfprintf_r+0x808>
   1133c:	00144483          	lbu	s1,1(s0)
   11340:	020a6a13          	ori	s4,s4,32
   11344:	0405                	addi	s0,s0,1
   11346:	984ff06f          	j	104ca <_vfprintf_r+0x140>
   1134a:	11d0                	addi	a2,sp,228
   1134c:	85e2                	mv	a1,s8
   1134e:	856a                	mv	a0,s10
   11350:	4b40b0ef          	jal	ra,1c804 <__sprint_r>
   11354:	c00519e3          	bnez	a0,10f66 <_vfprintf_r+0xbdc>
   11358:	57be                	lw	a5,236(sp)
   1135a:	10c10893          	addi	a7,sp,268
   1135e:	bc5d                	j	10e14 <_vfprintf_r+0xa8a>
   11360:	000267b7          	lui	a5,0x26
   11364:	ca878793          	addi	a5,a5,-856 # 25ca8 <__clzsi2+0x66>
   11368:	88e6                	mv	a7,s9
   1136a:	da3e                	sw	a5,52(sp)
   1136c:	b761                	j	112f4 <_vfprintf_r+0xf6a>
   1136e:	00144483          	lbu	s1,1(s0)
   11372:	200a6a13          	ori	s4,s4,512
   11376:	0405                	addi	s0,s0,1
   11378:	952ff06f          	j	104ca <_vfprintf_r+0x140>
   1137c:	4799                	li	a5,6
   1137e:	8cee                	mv	s9,s11
   11380:	4fb7e163          	bltu	a5,s11,11862 <_vfprintf_r+0x14d8>
   11384:	00026837          	lui	a6,0x26
   11388:	8ae6                	mv	s5,s9
   1138a:	ca4a                	sw	s2,20(sp)
   1138c:	cbc80b13          	addi	s6,a6,-836 # 25cbc <__clzsi2+0x7a>
   11390:	98aff06f          	j	1051a <_vfprintf_r+0x190>
   11394:	46c1                	li	a3,16
   11396:	572e                	lw	a4,232(sp)
   11398:	2e96df63          	bge	a3,s1,11696 <_vfprintf_r+0x130c>
   1139c:	4cc1                	li	s9,16
   1139e:	4d9d                	li	s11,7
   113a0:	a021                	j	113a8 <_vfprintf_r+0x101e>
   113a2:	14c1                	addi	s1,s1,-16
   113a4:	2e9cd963          	bge	s9,s1,11696 <_vfprintf_r+0x130c>
   113a8:	46a2                	lw	a3,8(sp)
   113aa:	07c1                	addi	a5,a5,16
   113ac:	0705                	addi	a4,a4,1
   113ae:	00d8a023          	sw	a3,0(a7)
   113b2:	0198a223          	sw	s9,4(a7)
   113b6:	d7be                	sw	a5,236(sp)
   113b8:	d5ba                	sw	a4,232(sp)
   113ba:	08a1                	addi	a7,a7,8
   113bc:	feedd3e3          	bge	s11,a4,113a2 <_vfprintf_r+0x1018>
   113c0:	11d0                	addi	a2,sp,228
   113c2:	85e2                	mv	a1,s8
   113c4:	856a                	mv	a0,s10
   113c6:	43e0b0ef          	jal	ra,1c804 <__sprint_r>
   113ca:	b8051ee3          	bnez	a0,10f66 <_vfprintf_r+0xbdc>
   113ce:	57be                	lw	a5,236(sp)
   113d0:	572e                	lw	a4,232(sp)
   113d2:	10c10893          	addi	a7,sp,268
   113d6:	b7f1                	j	113a2 <_vfprintf_r+0x1018>
   113d8:	46d2                	lw	a3,20(sp)
   113da:	010a7793          	andi	a5,s4,16
   113de:	00468713          	addi	a4,a3,4
   113e2:	12078163          	beqz	a5,11504 <_vfprintf_r+0x117a>
   113e6:	0006ac83          	lw	s9,0(a3)
   113ea:	4901                	li	s2,0
   113ec:	ca3a                	sw	a4,20(sp)
   113ee:	b715                	j	11312 <_vfprintf_r+0xf88>
   113f0:	11d0                	addi	a2,sp,228
   113f2:	85e2                	mv	a1,s8
   113f4:	856a                	mv	a0,s10
   113f6:	40e0b0ef          	jal	ra,1c804 <__sprint_r>
   113fa:	b60516e3          	bnez	a0,10f66 <_vfprintf_r+0xbdc>
   113fe:	5cbe                	lw	s9,236(sp)
   11400:	54ae                	lw	s1,232(sp)
   11402:	10c10913          	addi	s2,sp,268
   11406:	d1cff06f          	j	10922 <_vfprintf_r+0x598>
   1140a:	11d0                	addi	a2,sp,228
   1140c:	85e2                	mv	a1,s8
   1140e:	856a                	mv	a0,s10
   11410:	3f40b0ef          	jal	ra,1c804 <__sprint_r>
   11414:	b40519e3          	bnez	a0,10f66 <_vfprintf_r+0xbdc>
   11418:	5cbe                	lw	s9,236(sp)
   1141a:	54ae                	lw	s1,232(sp)
   1141c:	10c10913          	addi	s2,sp,268
   11420:	d1eff06f          	j	1093e <_vfprintf_r+0x5b4>
   11424:	1b010b13          	addi	s6,sp,432
   11428:	4781                	li	a5,0
   1142a:	c822                	sw	s0,16(sp)
   1142c:	ce26                	sw	s1,28(sp)
   1142e:	845a                	mv	s0,s6
   11430:	d24e                	sw	s3,36(sp)
   11432:	8b62                	mv	s6,s8
   11434:	84e6                	mv	s1,s9
   11436:	89ca                	mv	s3,s2
   11438:	5cf2                	lw	s9,60(sp)
   1143a:	400bfa13          	andi	s4,s7,1024
   1143e:	0ff00a93          	li	s5,255
   11442:	8c46                	mv	s8,a7
   11444:	893e                	mv	s2,a5
   11446:	a819                	j	1145c <_vfprintf_r+0x10d2>
   11448:	4629                	li	a2,10
   1144a:	4681                	li	a3,0
   1144c:	8526                	mv	a0,s1
   1144e:	85ce                	mv	a1,s3
   11450:	2ec100ef          	jal	ra,2173c <__udivdi3>
   11454:	3c098063          	beqz	s3,11814 <_vfprintf_r+0x148a>
   11458:	84aa                	mv	s1,a0
   1145a:	89ae                	mv	s3,a1
   1145c:	4629                	li	a2,10
   1145e:	4681                	li	a3,0
   11460:	8526                	mv	a0,s1
   11462:	85ce                	mv	a1,s3
   11464:	638100ef          	jal	ra,21a9c <__umoddi3>
   11468:	03050513          	addi	a0,a0,48
   1146c:	fea40fa3          	sb	a0,-1(s0)
   11470:	0905                	addi	s2,s2,1
   11472:	147d                	addi	s0,s0,-1
   11474:	fc0a0ae3          	beqz	s4,11448 <_vfprintf_r+0x10be>
   11478:	000cc683          	lbu	a3,0(s9)
   1147c:	fcd916e3          	bne	s2,a3,11448 <_vfprintf_r+0x10be>
   11480:	fd5904e3          	beq	s2,s5,11448 <_vfprintf_r+0x10be>
   11484:	36099463          	bnez	s3,117ec <_vfprintf_r+0x1462>
   11488:	47a5                	li	a5,9
   1148a:	3697e163          	bltu	a5,s1,117ec <_vfprintf_r+0x1462>
   1148e:	88e2                	mv	a7,s8
   11490:	1b1c                	addi	a5,sp,432
   11492:	8c5a                	mv	s8,s6
   11494:	8b22                	mv	s6,s0
   11496:	de66                	sw	s9,60(sp)
   11498:	44f2                	lw	s1,28(sp)
   1149a:	5992                	lw	s3,36(sp)
   1149c:	4442                	lw	s0,16(sp)
   1149e:	d04a                	sw	s2,32(sp)
   114a0:	41678cb3          	sub	s9,a5,s6
   114a4:	8a5e                	mv	s4,s7
   114a6:	eceff06f          	j	10b74 <_vfprintf_r+0x7ea>
   114aa:	572e                	lw	a4,232(sp)
   114ac:	000266b7          	lui	a3,0x26
   114b0:	cc468693          	addi	a3,a3,-828 # 25cc4 <__clzsi2+0x82>
   114b4:	00d8a023          	sw	a3,0(a7)
   114b8:	0785                	addi	a5,a5,1
   114ba:	4685                	li	a3,1
   114bc:	0705                	addi	a4,a4,1
   114be:	00d8a223          	sw	a3,4(a7)
   114c2:	d7be                	sw	a5,236(sp)
   114c4:	d5ba                	sw	a4,232(sp)
   114c6:	469d                	li	a3,7
   114c8:	08a1                	addi	a7,a7,8
   114ca:	34e6cf63          	blt	a3,a4,11828 <_vfprintf_r+0x149e>
   114ce:	ee79                	bnez	a2,115ac <_vfprintf_r+0x1222>
   114d0:	5682                	lw	a3,32(sp)
   114d2:	001a7713          	andi	a4,s4,1
   114d6:	8f55                	or	a4,a4,a3
   114d8:	8e070163          	beqz	a4,105ba <_vfprintf_r+0x230>
   114dc:	5742                	lw	a4,48(sp)
   114de:	56b2                	lw	a3,44(sp)
   114e0:	00e8a023          	sw	a4,0(a7)
   114e4:	572e                	lw	a4,232(sp)
   114e6:	97b6                	add	a5,a5,a3
   114e8:	00d8a223          	sw	a3,4(a7)
   114ec:	0705                	addi	a4,a4,1
   114ee:	d7be                	sw	a5,236(sp)
   114f0:	d5ba                	sw	a4,232(sp)
   114f2:	469d                	li	a3,7
   114f4:	3ee6c563          	blt	a3,a4,118de <_vfprintf_r+0x1554>
   114f8:	08a1                	addi	a7,a7,8
   114fa:	a8d1                	j	115ce <_vfprintf_r+0x1244>
   114fc:	4bc2                	lw	s7,16(sp)
   114fe:	8d22                	mv	s10,s0
   11500:	8c26                	mv	s8,s1
   11502:	b49d                	j	10f68 <_vfprintf_r+0xbde>
   11504:	040a7793          	andi	a5,s4,64
   11508:	14078f63          	beqz	a5,11666 <_vfprintf_r+0x12dc>
   1150c:	47d2                	lw	a5,20(sp)
   1150e:	4901                	li	s2,0
   11510:	ca3a                	sw	a4,20(sp)
   11512:	0007dc83          	lhu	s9,0(a5)
   11516:	bbf5                	j	11312 <_vfprintf_r+0xf88>
   11518:	11d0                	addi	a2,sp,228
   1151a:	85e2                	mv	a1,s8
   1151c:	856a                	mv	a0,s10
   1151e:	2e60b0ef          	jal	ra,1c804 <__sprint_r>
   11522:	a40512e3          	bnez	a0,10f66 <_vfprintf_r+0xbdc>
   11526:	57be                	lw	a5,236(sp)
   11528:	10c10893          	addi	a7,sp,268
   1152c:	b0c9                	j	10dee <_vfprintf_r+0xa64>
   1152e:	46a2                	lw	a3,8(sp)
   11530:	97a6                	add	a5,a5,s1
   11532:	0098a223          	sw	s1,4(a7)
   11536:	00d8a023          	sw	a3,0(a7)
   1153a:	0705                	addi	a4,a4,1
   1153c:	d7be                	sw	a5,236(sp)
   1153e:	d5ba                	sw	a4,232(sp)
   11540:	469d                	li	a3,7
   11542:	00e6c463          	blt	a3,a4,1154a <_vfprintf_r+0x11c0>
   11546:	872ff06f          	j	105b8 <_vfprintf_r+0x22e>
   1154a:	c6aff06f          	j	109b4 <_vfprintf_r+0x62a>
   1154e:	57ce                	lw	a5,240(sp)
   11550:	110c                	addi	a1,sp,160
   11552:	1908                	addi	a0,sp,176
   11554:	d93e                	sw	a5,176(sp)
   11556:	57de                	lw	a5,244(sp)
   11558:	d102                	sw	zero,160(sp)
   1155a:	d302                	sw	zero,164(sp)
   1155c:	db3e                	sw	a5,180(sp)
   1155e:	57ee                	lw	a5,248(sp)
   11560:	d502                	sw	zero,168(sp)
   11562:	d702                	sw	zero,172(sp)
   11564:	dd3e                	sw	a5,184(sp)
   11566:	57fe                	lw	a5,252(sp)
   11568:	df3e                	sw	a5,188(sp)
   1156a:	53c120ef          	jal	ra,23aa6 <__letf2>
   1156e:	48c2                	lw	a7,16(sp)
   11570:	72054b63          	bltz	a0,11ca6 <_vfprintf_r+0x191c>
   11574:	0c714783          	lbu	a5,199(sp)
   11578:	04700713          	li	a4,71
   1157c:	2c975263          	bge	a4,s1,11840 <_vfprintf_r+0x14b6>
   11580:	00026837          	lui	a6,0x26
   11584:	c8880b13          	addi	s6,a6,-888 # 25c88 <__clzsi2+0x46>
   11588:	c802                	sw	zero,16(sp)
   1158a:	d402                	sw	zero,40(sp)
   1158c:	d202                	sw	zero,36(sp)
   1158e:	ce02                	sw	zero,28(sp)
   11590:	f7fa7a13          	andi	s4,s4,-129
   11594:	4a8d                	li	s5,3
   11596:	4c8d                	li	s9,3
   11598:	4d81                	li	s11,0
   1159a:	d2079463          	bnez	a5,10ac2 <_vfprintf_r+0x738>
   1159e:	f87fe06f          	j	10524 <_vfprintf_r+0x19a>
   115a2:	47b2                	lw	a5,12(sp)
   115a4:	8b22                	mv	s6,s0
   115a6:	c31c                	sw	a5,0(a4)
   115a8:	846ff06f          	j	105ee <_vfprintf_r+0x264>
   115ac:	5742                	lw	a4,48(sp)
   115ae:	56b2                	lw	a3,44(sp)
   115b0:	08a1                	addi	a7,a7,8
   115b2:	fee8ac23          	sw	a4,-8(a7)
   115b6:	572e                	lw	a4,232(sp)
   115b8:	97b6                	add	a5,a5,a3
   115ba:	fed8ae23          	sw	a3,-4(a7)
   115be:	0705                	addi	a4,a4,1
   115c0:	d7be                	sw	a5,236(sp)
   115c2:	d5ba                	sw	a4,232(sp)
   115c4:	469d                	li	a3,7
   115c6:	30e6cc63          	blt	a3,a4,118de <_vfprintf_r+0x1554>
   115ca:	78064c63          	bltz	a2,11d62 <_vfprintf_r+0x19d8>
   115ce:	5682                	lw	a3,32(sp)
   115d0:	0705                	addi	a4,a4,1
   115d2:	0168a023          	sw	s6,0(a7)
   115d6:	97b6                	add	a5,a5,a3
   115d8:	00d8a223          	sw	a3,4(a7)
   115dc:	d7be                	sw	a5,236(sp)
   115de:	d5ba                	sw	a4,232(sp)
   115e0:	469d                	li	a3,7
   115e2:	00e6c463          	blt	a3,a4,115ea <_vfprintf_r+0x1260>
   115e6:	fd3fe06f          	j	105b8 <_vfprintf_r+0x22e>
   115ea:	bcaff06f          	j	109b4 <_vfprintf_r+0x62a>
   115ee:	855a                	mv	a0,s6
   115f0:	c0e6                	sw	s9,64(sp)
   115f2:	075070ef          	jal	ra,18e66 <strlen>
   115f6:	0c714783          	lbu	a5,199(sp)
   115fa:	fff54a93          	not	s5,a0
   115fe:	41fada93          	srai	s5,s5,0x1f
   11602:	ca4a                	sw	s2,20(sp)
   11604:	c802                	sw	zero,16(sp)
   11606:	d402                	sw	zero,40(sp)
   11608:	d202                	sw	zero,36(sp)
   1160a:	ce02                	sw	zero,28(sp)
   1160c:	4886                	lw	a7,64(sp)
   1160e:	8caa                	mv	s9,a0
   11610:	01557ab3          	and	s5,a0,s5
   11614:	4d81                	li	s11,0
   11616:	ca079663          	bnez	a5,10ac2 <_vfprintf_r+0x738>
   1161a:	f0bfe06f          	j	10524 <_vfprintf_r+0x19a>
   1161e:	200bf793          	andi	a5,s7,512
   11622:	28078a63          	beqz	a5,118b6 <_vfprintf_r+0x152c>
   11626:	47d2                	lw	a5,20(sp)
   11628:	4901                	li	s2,0
   1162a:	ca36                	sw	a3,20(sp)
   1162c:	0007cc83          	lbu	s9,0(a5)
   11630:	4785                	li	a5,1
   11632:	d1aff06f          	j	10b4c <_vfprintf_r+0x7c2>
   11636:	200a7793          	andi	a5,s4,512
   1163a:	26078763          	beqz	a5,118a8 <_vfprintf_r+0x151e>
   1163e:	47d2                	lw	a5,20(sp)
   11640:	4901                	li	s2,0
   11642:	ca3a                	sw	a4,20(sp)
   11644:	0007cc83          	lbu	s9,0(a5)
   11648:	d6aff06f          	j	10bb2 <_vfprintf_r+0x828>
   1164c:	200a7793          	andi	a5,s4,512
   11650:	24078363          	beqz	a5,11896 <_vfprintf_r+0x150c>
   11654:	47d2                	lw	a5,20(sp)
   11656:	ca3a                	sw	a4,20(sp)
   11658:	00078c83          	lb	s9,0(a5)
   1165c:	41fcd913          	srai	s2,s9,0x1f
   11660:	87ca                	mv	a5,s2
   11662:	dbeff06f          	j	10c20 <_vfprintf_r+0x896>
   11666:	200a7793          	andi	a5,s4,512
   1166a:	22078063          	beqz	a5,1188a <_vfprintf_r+0x1500>
   1166e:	47d2                	lw	a5,20(sp)
   11670:	4901                	li	s2,0
   11672:	ca3a                	sw	a4,20(sp)
   11674:	0007cc83          	lbu	s9,0(a5)
   11678:	b969                	j	11312 <_vfprintf_r+0xf88>
   1167a:	57fe                	lw	a5,252(sp)
   1167c:	2407c563          	bltz	a5,118c6 <_vfprintf_r+0x153c>
   11680:	0c714783          	lbu	a5,199(sp)
   11684:	04700713          	li	a4,71
   11688:	6a975a63          	bge	a4,s1,11d3c <_vfprintf_r+0x19b2>
   1168c:	00026837          	lui	a6,0x26
   11690:	c9080b13          	addi	s6,a6,-880 # 25c90 <__clzsi2+0x4e>
   11694:	bdd5                	j	11588 <_vfprintf_r+0x11fe>
   11696:	46a2                	lw	a3,8(sp)
   11698:	97a6                	add	a5,a5,s1
   1169a:	0705                	addi	a4,a4,1
   1169c:	00d8a023          	sw	a3,0(a7)
   116a0:	0098a223          	sw	s1,4(a7)
   116a4:	d7be                	sw	a5,236(sp)
   116a6:	d5ba                	sw	a4,232(sp)
   116a8:	469d                	li	a3,7
   116aa:	08a1                	addi	a7,a7,8
   116ac:	9ae6dde3          	bge	a3,a4,11066 <_vfprintf_r+0xcdc>
   116b0:	11d0                	addi	a2,sp,228
   116b2:	85e2                	mv	a1,s8
   116b4:	856a                	mv	a0,s10
   116b6:	14e0b0ef          	jal	ra,1c804 <__sprint_r>
   116ba:	8a0516e3          	bnez	a0,10f66 <_vfprintf_r+0xbdc>
   116be:	57be                	lw	a5,236(sp)
   116c0:	10c10893          	addi	a7,sp,268
   116c4:	b24d                	j	11066 <_vfprintf_r+0xcdc>
   116c6:	5702                	lw	a4,32(sp)
   116c8:	5c92                	lw	s9,36(sp)
   116ca:	ce52                	sw	s4,28(sp)
   116cc:	c0a2                	sw	s0,64(sp)
   116ce:	c2ce                	sw	s3,68(sp)
   116d0:	d256                	sw	s5,36(sp)
   116d2:	59a2                	lw	s3,40(sp)
   116d4:	d45a                	sw	s6,40(sp)
   116d6:	00eb0bb3          	add	s7,s6,a4
   116da:	5472                	lw	s0,60(sp)
   116dc:	4a26                	lw	s4,72(sp)
   116de:	4ab6                	lw	s5,76(sp)
   116e0:	449d                	li	s1,7
   116e2:	4941                	li	s2,16
   116e4:	8b62                	mv	s6,s8
   116e6:	060c8663          	beqz	s9,11752 <_vfprintf_r+0x13c8>
   116ea:	06099663          	bnez	s3,11756 <_vfprintf_r+0x13cc>
   116ee:	147d                	addi	s0,s0,-1
   116f0:	1cfd                	addi	s9,s9,-1
   116f2:	572e                	lw	a4,232(sp)
   116f4:	97d2                	add	a5,a5,s4
   116f6:	0158a023          	sw	s5,0(a7)
   116fa:	0705                	addi	a4,a4,1
   116fc:	0148a223          	sw	s4,4(a7)
   11700:	d7be                	sw	a5,236(sp)
   11702:	d5ba                	sw	a4,232(sp)
   11704:	08a1                	addi	a7,a7,8
   11706:	0ae4cb63          	blt	s1,a4,117bc <_vfprintf_r+0x1432>
   1170a:	00044683          	lbu	a3,0(s0)
   1170e:	41bb8633          	sub	a2,s7,s11
   11712:	8c36                	mv	s8,a3
   11714:	00d65363          	bge	a2,a3,1171a <_vfprintf_r+0x1390>
   11718:	8c32                	mv	s8,a2
   1171a:	03805063          	blez	s8,1173a <_vfprintf_r+0x13b0>
   1171e:	56ae                	lw	a3,232(sp)
   11720:	97e2                	add	a5,a5,s8
   11722:	01b8a023          	sw	s11,0(a7)
   11726:	0685                	addi	a3,a3,1
   11728:	0188a223          	sw	s8,4(a7)
   1172c:	d7be                	sw	a5,236(sp)
   1172e:	d5b6                	sw	a3,232(sp)
   11730:	0ad4c163          	blt	s1,a3,117d2 <_vfprintf_r+0x1448>
   11734:	00044683          	lbu	a3,0(s0)
   11738:	08a1                	addi	a7,a7,8
   1173a:	fffc4613          	not	a2,s8
   1173e:	867d                	srai	a2,a2,0x1f
   11740:	00cc7733          	and	a4,s8,a2
   11744:	40e68c33          	sub	s8,a3,a4
   11748:	01804963          	bgtz	s8,1175a <_vfprintf_r+0x13d0>
   1174c:	9db6                	add	s11,s11,a3
   1174e:	f80c9ee3          	bnez	s9,116ea <_vfprintf_r+0x1360>
   11752:	3c098b63          	beqz	s3,11b28 <_vfprintf_r+0x179e>
   11756:	19fd                	addi	s3,s3,-1
   11758:	bf69                	j	116f2 <_vfprintf_r+0x1368>
   1175a:	56ae                	lw	a3,232(sp)
   1175c:	01894663          	blt	s2,s8,11768 <_vfprintf_r+0x13de>
   11760:	a835                	j	1179c <_vfprintf_r+0x1412>
   11762:	1c41                	addi	s8,s8,-16
   11764:	03895c63          	bge	s2,s8,1179c <_vfprintf_r+0x1412>
   11768:	4722                	lw	a4,8(sp)
   1176a:	07c1                	addi	a5,a5,16
   1176c:	0685                	addi	a3,a3,1
   1176e:	00e8a023          	sw	a4,0(a7)
   11772:	0128a223          	sw	s2,4(a7)
   11776:	d7be                	sw	a5,236(sp)
   11778:	d5b6                	sw	a3,232(sp)
   1177a:	08a1                	addi	a7,a7,8
   1177c:	fed4d3e3          	bge	s1,a3,11762 <_vfprintf_r+0x13d8>
   11780:	11d0                	addi	a2,sp,228
   11782:	85da                	mv	a1,s6
   11784:	856a                	mv	a0,s10
   11786:	07e0b0ef          	jal	ra,1c804 <__sprint_r>
   1178a:	40051f63          	bnez	a0,11ba8 <_vfprintf_r+0x181e>
   1178e:	1c41                	addi	s8,s8,-16
   11790:	57be                	lw	a5,236(sp)
   11792:	56ae                	lw	a3,232(sp)
   11794:	10c10893          	addi	a7,sp,268
   11798:	fd8948e3          	blt	s2,s8,11768 <_vfprintf_r+0x13de>
   1179c:	4722                	lw	a4,8(sp)
   1179e:	97e2                	add	a5,a5,s8
   117a0:	0685                	addi	a3,a3,1
   117a2:	00e8a023          	sw	a4,0(a7)
   117a6:	0188a223          	sw	s8,4(a7)
   117aa:	d7be                	sw	a5,236(sp)
   117ac:	d5b6                	sw	a3,232(sp)
   117ae:	40d4cb63          	blt	s1,a3,11bc4 <_vfprintf_r+0x183a>
   117b2:	00044683          	lbu	a3,0(s0)
   117b6:	08a1                	addi	a7,a7,8
   117b8:	9db6                	add	s11,s11,a3
   117ba:	bf51                	j	1174e <_vfprintf_r+0x13c4>
   117bc:	11d0                	addi	a2,sp,228
   117be:	85da                	mv	a1,s6
   117c0:	856a                	mv	a0,s10
   117c2:	0420b0ef          	jal	ra,1c804 <__sprint_r>
   117c6:	3e051163          	bnez	a0,11ba8 <_vfprintf_r+0x181e>
   117ca:	57be                	lw	a5,236(sp)
   117cc:	10c10893          	addi	a7,sp,268
   117d0:	bf2d                	j	1170a <_vfprintf_r+0x1380>
   117d2:	11d0                	addi	a2,sp,228
   117d4:	85da                	mv	a1,s6
   117d6:	856a                	mv	a0,s10
   117d8:	02c0b0ef          	jal	ra,1c804 <__sprint_r>
   117dc:	3c051663          	bnez	a0,11ba8 <_vfprintf_r+0x181e>
   117e0:	00044683          	lbu	a3,0(s0)
   117e4:	57be                	lw	a5,236(sp)
   117e6:	10c10893          	addi	a7,sp,268
   117ea:	bf81                	j	1173a <_vfprintf_r+0x13b0>
   117ec:	47a6                	lw	a5,72(sp)
   117ee:	45b6                	lw	a1,76(sp)
   117f0:	4901                	li	s2,0
   117f2:	8c1d                	sub	s0,s0,a5
   117f4:	863e                	mv	a2,a5
   117f6:	8522                	mv	a0,s0
   117f8:	6d0070ef          	jal	ra,18ec8 <strncpy>
   117fc:	001cc583          	lbu	a1,1(s9)
   11800:	4629                	li	a2,10
   11802:	4681                	li	a3,0
   11804:	00b03833          	snez	a6,a1
   11808:	8526                	mv	a0,s1
   1180a:	85ce                	mv	a1,s3
   1180c:	9cc2                	add	s9,s9,a6
   1180e:	72f0f0ef          	jal	ra,2173c <__udivdi3>
   11812:	b199                	j	11458 <_vfprintf_r+0x10ce>
   11814:	47a5                	li	a5,9
   11816:	c497e1e3          	bltu	a5,s1,11458 <_vfprintf_r+0x10ce>
   1181a:	b995                	j	1148e <_vfprintf_r+0x1104>
   1181c:	0705                	addi	a4,a4,1
   1181e:	00868893          	addi	a7,a3,8
   11822:	8936                	mv	s2,a3
   11824:	976ff06f          	j	1099a <_vfprintf_r+0x610>
   11828:	11d0                	addi	a2,sp,228
   1182a:	85e2                	mv	a1,s8
   1182c:	856a                	mv	a0,s10
   1182e:	7d70a0ef          	jal	ra,1c804 <__sprint_r>
   11832:	f2051a63          	bnez	a0,10f66 <_vfprintf_r+0xbdc>
   11836:	463e                	lw	a2,204(sp)
   11838:	57be                	lw	a5,236(sp)
   1183a:	10c10893          	addi	a7,sp,268
   1183e:	b941                	j	114ce <_vfprintf_r+0x1144>
   11840:	00026837          	lui	a6,0x26
   11844:	c8480b13          	addi	s6,a6,-892 # 25c84 <__clzsi2+0x42>
   11848:	b381                	j	11588 <_vfprintf_r+0x11fe>
   1184a:	11d0                	addi	a2,sp,228
   1184c:	85e2                	mv	a1,s8
   1184e:	856a                	mv	a0,s10
   11850:	7b50a0ef          	jal	ra,1c804 <__sprint_r>
   11854:	f0051963          	bnez	a0,10f66 <_vfprintf_r+0xbdc>
   11858:	57be                	lw	a5,236(sp)
   1185a:	10c10893          	addi	a7,sp,268
   1185e:	ff6ff06f          	j	11054 <_vfprintf_r+0xcca>
   11862:	4c99                	li	s9,6
   11864:	b605                	j	11384 <_vfprintf_r+0xffa>
   11866:	5702                	lw	a4,32(sp)
   11868:	00eb0833          	add	a6,s6,a4
   1186c:	409704b3          	sub	s1,a4,s1
   11870:	41b806b3          	sub	a3,a6,s11
   11874:	8926                	mv	s2,s1
   11876:	8696d0e3          	bge	a3,s1,110d6 <_vfprintf_r+0xd4c>
   1187a:	8936                	mv	s2,a3
   1187c:	b8a9                	j	110d6 <_vfprintf_r+0xd4c>
   1187e:	47b2                	lw	a5,12(sp)
   11880:	8b22                	mv	s6,s0
   11882:	00f71023          	sh	a5,0(a4)
   11886:	d69fe06f          	j	105ee <_vfprintf_r+0x264>
   1188a:	47d2                	lw	a5,20(sp)
   1188c:	4901                	li	s2,0
   1188e:	ca3a                	sw	a4,20(sp)
   11890:	0007ac83          	lw	s9,0(a5)
   11894:	bcbd                	j	11312 <_vfprintf_r+0xf88>
   11896:	47d2                	lw	a5,20(sp)
   11898:	ca3a                	sw	a4,20(sp)
   1189a:	0007ac83          	lw	s9,0(a5)
   1189e:	41fcd913          	srai	s2,s9,0x1f
   118a2:	87ca                	mv	a5,s2
   118a4:	b7cff06f          	j	10c20 <_vfprintf_r+0x896>
   118a8:	47d2                	lw	a5,20(sp)
   118aa:	4901                	li	s2,0
   118ac:	ca3a                	sw	a4,20(sp)
   118ae:	0007ac83          	lw	s9,0(a5)
   118b2:	b00ff06f          	j	10bb2 <_vfprintf_r+0x828>
   118b6:	47d2                	lw	a5,20(sp)
   118b8:	4901                	li	s2,0
   118ba:	ca36                	sw	a3,20(sp)
   118bc:	0007ac83          	lw	s9,0(a5)
   118c0:	4785                	li	a5,1
   118c2:	a8aff06f          	j	10b4c <_vfprintf_r+0x7c2>
   118c6:	02d00793          	li	a5,45
   118ca:	0cf103a3          	sb	a5,199(sp)
   118ce:	bb5d                	j	11684 <_vfprintf_r+0x12fa>
   118d0:	11d0                	addi	a2,sp,228
   118d2:	85e2                	mv	a1,s8
   118d4:	856a                	mv	a0,s10
   118d6:	72f0a0ef          	jal	ra,1c804 <__sprint_r>
   118da:	d25fe06f          	j	105fe <_vfprintf_r+0x274>
   118de:	11d0                	addi	a2,sp,228
   118e0:	85e2                	mv	a1,s8
   118e2:	856a                	mv	a0,s10
   118e4:	7210a0ef          	jal	ra,1c804 <__sprint_r>
   118e8:	e6051f63          	bnez	a0,10f66 <_vfprintf_r+0xbdc>
   118ec:	463e                	lw	a2,204(sp)
   118ee:	57be                	lw	a5,236(sp)
   118f0:	572e                	lw	a4,232(sp)
   118f2:	10c10893          	addi	a7,sp,268
   118f6:	b9d1                	j	115ca <_vfprintf_r+0x1240>
   118f8:	03000793          	li	a5,48
   118fc:	0cf10423          	sb	a5,200(sp)
   11900:	05800793          	li	a5,88
   11904:	002a6713          	ori	a4,s4,2
   11908:	0cf104a3          	sb	a5,201(sp)
   1190c:	c8ba                	sw	a4,80(sp)
   1190e:	06300793          	li	a5,99
   11912:	c802                	sw	zero,16(sp)
   11914:	14c10b13          	addi	s6,sp,332
   11918:	4fb7c563          	blt	a5,s11,11e02 <_vfprintf_r+0x1a78>
   1191c:	5bfe                	lw	s7,252(sp)
   1191e:	fdf4f793          	andi	a5,s1,-33
   11922:	d43e                	sw	a5,40(sp)
   11924:	cc82                	sw	zero,88(sp)
   11926:	5e4e                	lw	t3,240(sp)
   11928:	5ede                	lw	t4,244(sp)
   1192a:	5f6e                	lw	t5,248(sp)
   1192c:	102a6a13          	ori	s4,s4,258
   11930:	280bc263          	bltz	s7,11bb4 <_vfprintf_r+0x182a>
   11934:	06100793          	li	a5,97
   11938:	60f48e63          	beq	s1,a5,11f54 <_vfprintf_r+0x1bca>
   1193c:	04100793          	li	a5,65
   11940:	00f48463          	beq	s1,a5,11948 <_vfprintf_r+0x15be>
   11944:	e23fe06f          	j	10766 <_vfprintf_r+0x3dc>
   11948:	0b010a93          	addi	s5,sp,176
   1194c:	8556                	mv	a0,s5
   1194e:	cac6                	sw	a7,84(sp)
   11950:	d972                	sw	t3,176(sp)
   11952:	db76                	sw	t4,180(sp)
   11954:	dd7a                	sw	t5,184(sp)
   11956:	df5e                	sw	s7,188(sp)
   11958:	05a140ef          	jal	ra,259b2 <__trunctfdf2>
   1195c:	01f0                	addi	a2,sp,204
   1195e:	194070ef          	jal	ra,18af2 <frexp>
   11962:	862e                	mv	a2,a1
   11964:	85aa                	mv	a1,a0
   11966:	8556                	mv	a0,s5
   11968:	5df130ef          	jal	ra,25746 <__extenddftf2>
   1196c:	57ca                	lw	a5,176(sp)
   1196e:	0a010c93          	addi	s9,sp,160
   11972:	09010913          	addi	s2,sp,144
   11976:	c93e                	sw	a5,144(sp)
   11978:	57da                	lw	a5,180(sp)
   1197a:	0110                	addi	a2,sp,128
   1197c:	85ca                	mv	a1,s2
   1197e:	cb3e                	sw	a5,148(sp)
   11980:	57ea                	lw	a5,184(sp)
   11982:	8566                	mv	a0,s9
   11984:	c0b2                	sw	a2,64(sp)
   11986:	cd3e                	sw	a5,152(sp)
   11988:	57fa                	lw	a5,188(sp)
   1198a:	c102                	sw	zero,128(sp)
   1198c:	c302                	sw	zero,132(sp)
   1198e:	cf3e                	sw	a5,156(sp)
   11990:	3ffc07b7          	lui	a5,0x3ffc0
   11994:	c73e                	sw	a5,140(sp)
   11996:	c502                	sw	zero,136(sp)
   11998:	202120ef          	jal	ra,23b9a <__multf3>
   1199c:	568a                	lw	a3,160(sp)
   1199e:	5e1a                	lw	t3,164(sp)
   119a0:	5eaa                	lw	t4,168(sp)
   119a2:	5f3a                	lw	t5,172(sp)
   119a4:	85e6                	mv	a1,s9
   119a6:	8556                	mv	a0,s5
   119a8:	d936                	sw	a3,176(sp)
   119aa:	c2b6                	sw	a3,68(sp)
   119ac:	db72                	sw	t3,180(sp)
   119ae:	d272                	sw	t3,36(sp)
   119b0:	dd76                	sw	t4,184(sp)
   119b2:	d076                	sw	t4,32(sp)
   119b4:	df7a                	sw	t5,188(sp)
   119b6:	ce7a                	sw	t5,28(sp)
   119b8:	d102                	sw	zero,160(sp)
   119ba:	d302                	sw	zero,164(sp)
   119bc:	d502                	sw	zero,168(sp)
   119be:	d702                	sw	zero,172(sp)
   119c0:	74d110ef          	jal	ra,2390c <__eqtf2>
   119c4:	4f72                	lw	t5,28(sp)
   119c6:	5e82                	lw	t4,32(sp)
   119c8:	5e12                	lw	t3,36(sp)
   119ca:	4696                	lw	a3,68(sp)
   119cc:	48d6                	lw	a7,84(sp)
   119ce:	e119                	bnez	a0,119d4 <_vfprintf_r+0x164a>
   119d0:	4785                	li	a5,1
   119d2:	c7be                	sw	a5,204(sp)
   119d4:	000267b7          	lui	a5,0x26
   119d8:	ca878793          	addi	a5,a5,-856 # 25ca8 <__clzsi2+0x66>
   119dc:	d23e                	sw	a5,36(sp)
   119de:	fffd8713          	addi	a4,s11,-1
   119e2:	ced2                	sw	s4,92(sp)
   119e4:	d2a6                	sw	s1,100(sp)
   119e6:	d6ee                	sw	s11,108(sp)
   119e8:	daea                	sw	s10,116(sp)
   119ea:	dce2                	sw	s8,120(sp)
   119ec:	d0a2                	sw	s0,96(sp)
   119ee:	d4ce                	sw	s3,104(sp)
   119f0:	d8c6                	sw	a7,112(sp)
   119f2:	8c5a                	mv	s8,s6
   119f4:	8bba                	mv	s7,a4
   119f6:	deda                	sw	s6,124(sp)
   119f8:	8d36                	mv	s10,a3
   119fa:	8df2                	mv	s11,t3
   119fc:	84f6                	mv	s1,t4
   119fe:	8a7a                	mv	s4,t5
   11a00:	a01d                	j	11a26 <_vfprintf_r+0x169c>
   11a02:	85e6                	mv	a1,s9
   11a04:	8556                	mv	a0,s5
   11a06:	d032                	sw	a2,32(sp)
   11a08:	ce7e                	sw	t6,28(sp)
   11a0a:	dd7e                	sw	t6,184(sp)
   11a0c:	df32                	sw	a2,188(sp)
   11a0e:	d95a                	sw	s6,176(sp)
   11a10:	db4e                	sw	s3,180(sp)
   11a12:	d102                	sw	zero,160(sp)
   11a14:	d302                	sw	zero,164(sp)
   11a16:	d502                	sw	zero,168(sp)
   11a18:	d702                	sw	zero,172(sp)
   11a1a:	6f3110ef          	jal	ra,2390c <__eqtf2>
   11a1e:	1bfd                	addi	s7,s7,-1
   11a20:	8fa6                	mv	t6,s1
   11a22:	8652                	mv	a2,s4
   11a24:	c151                	beqz	a0,11aa8 <_vfprintf_r+0x171e>
   11a26:	400307b7          	lui	a5,0x40030
   11a2a:	864a                	mv	a2,s2
   11a2c:	85e6                	mv	a1,s9
   11a2e:	8556                	mv	a0,s5
   11a30:	cf3e                	sw	a5,156(sp)
   11a32:	d16a                	sw	s10,160(sp)
   11a34:	d36e                	sw	s11,164(sp)
   11a36:	d526                	sw	s1,168(sp)
   11a38:	d752                	sw	s4,172(sp)
   11a3a:	c902                	sw	zero,144(sp)
   11a3c:	cb02                	sw	zero,148(sp)
   11a3e:	cd02                	sw	zero,152(sp)
   11a40:	15a120ef          	jal	ra,23b9a <__multf3>
   11a44:	8556                	mv	a0,s5
   11a46:	2c9130ef          	jal	ra,2550e <__fixtfsi>
   11a4a:	85aa                	mv	a1,a0
   11a4c:	842a                	mv	s0,a0
   11a4e:	8556                	mv	a0,s5
   11a50:	59ca                	lw	s3,176(sp)
   11a52:	54da                	lw	s1,180(sp)
   11a54:	5b6a                	lw	s6,184(sp)
   11a56:	5a7a                	lw	s4,188(sp)
   11a58:	373130ef          	jal	ra,255ca <__floatsitf>
   11a5c:	56ca                	lw	a3,176(sp)
   11a5e:	4606                	lw	a2,64(sp)
   11a60:	85ca                	mv	a1,s2
   11a62:	c136                	sw	a3,128(sp)
   11a64:	56da                	lw	a3,180(sp)
   11a66:	8566                	mv	a0,s9
   11a68:	c94e                	sw	s3,144(sp)
   11a6a:	c336                	sw	a3,132(sp)
   11a6c:	56ea                	lw	a3,184(sp)
   11a6e:	cb26                	sw	s1,148(sp)
   11a70:	cd5a                	sw	s6,152(sp)
   11a72:	c536                	sw	a3,136(sp)
   11a74:	56fa                	lw	a3,188(sp)
   11a76:	cf52                	sw	s4,156(sp)
   11a78:	c736                	sw	a3,140(sp)
   11a7a:	42f120ef          	jal	ra,246a8 <__subtf3>
   11a7e:	5792                	lw	a5,36(sp)
   11a80:	5b0a                	lw	s6,160(sp)
   11a82:	599a                	lw	s3,164(sp)
   11a84:	008786b3          	add	a3,a5,s0
   11a88:	0006c683          	lbu	a3,0(a3)
   11a8c:	5faa                	lw	t6,168(sp)
   11a8e:	563a                	lw	a2,172(sp)
   11a90:	cae2                	sw	s8,84(sp)
   11a92:	00dc0023          	sb	a3,0(s8)
   11a96:	c2de                	sw	s7,68(sp)
   11a98:	57fd                	li	a5,-1
   11a9a:	0c05                	addi	s8,s8,1
   11a9c:	8d5a                	mv	s10,s6
   11a9e:	8dce                	mv	s11,s3
   11aa0:	84fe                	mv	s1,t6
   11aa2:	8a32                	mv	s4,a2
   11aa4:	f4fb9fe3          	bne	s7,a5,11a02 <_vfprintf_r+0x1678>
   11aa8:	58c6                	lw	a7,112(sp)
   11aaa:	83da                	mv	t2,s6
   11aac:	82ce                	mv	t0,s3
   11aae:	3ffe0937          	lui	s2,0x3ffe0
   11ab2:	85e6                	mv	a1,s9
   11ab4:	8556                	mv	a0,s5
   11ab6:	d046                	sw	a7,32(sp)
   11ab8:	ce22                	sw	s0,28(sp)
   11aba:	4a76                	lw	s4,92(sp)
   11abc:	5496                	lw	s1,100(sp)
   11abe:	5406                	lw	s0,96(sp)
   11ac0:	d91e                	sw	t2,176(sp)
   11ac2:	d29e                	sw	t2,100(sp)
   11ac4:	db16                	sw	t0,180(sp)
   11ac6:	d096                	sw	t0,96(sp)
   11ac8:	dd7e                	sw	t6,184(sp)
   11aca:	cefe                	sw	t6,92(sp)
   11acc:	df32                	sw	a2,188(sp)
   11ace:	c0b2                	sw	a2,64(sp)
   11ad0:	d102                	sw	zero,160(sp)
   11ad2:	d302                	sw	zero,164(sp)
   11ad4:	d502                	sw	zero,168(sp)
   11ad6:	d74a                	sw	s2,172(sp)
   11ad8:	6db110ef          	jal	ra,239b2 <__getf2>
   11adc:	8be2                	mv	s7,s8
   11ade:	5db6                	lw	s11,108(sp)
   11ae0:	5d56                	lw	s10,116(sp)
   11ae2:	5c66                	lw	s8,120(sp)
   11ae4:	5b76                	lw	s6,124(sp)
   11ae6:	59a6                	lw	s3,104(sp)
   11ae8:	5882                	lw	a7,32(sp)
   11aea:	32a04863          	bgtz	a0,11e1a <_vfprintf_r+0x1a90>
   11aee:	85e6                	mv	a1,s9
   11af0:	8556                	mv	a0,s5
   11af2:	61b110ef          	jal	ra,2390c <__eqtf2>
   11af6:	5882                	lw	a7,32(sp)
   11af8:	e511                	bnez	a0,11b04 <_vfprintf_r+0x177a>
   11afa:	47f2                	lw	a5,28(sp)
   11afc:	0017fc93          	andi	s9,a5,1
   11b00:	300c9d63          	bnez	s9,11e1a <_vfprintf_r+0x1a90>
   11b04:	4796                	lw	a5,68(sp)
   11b06:	03000693          	li	a3,48
   11b0a:	00178713          	addi	a4,a5,1 # 40030001 <__BSS_END__+0x4000726d>
   11b0e:	975e                	add	a4,a4,s7
   11b10:	0007c763          	bltz	a5,11b1e <_vfprintf_r+0x1794>
   11b14:	0b85                	addi	s7,s7,1
   11b16:	fedb8fa3          	sb	a3,-1(s7)
   11b1a:	ff771de3          	bne	a4,s7,11b14 <_vfprintf_r+0x178a>
   11b1e:	416b87b3          	sub	a5,s7,s6
   11b22:	d03e                	sw	a5,32(sp)
   11b24:	caffe06f          	j	107d2 <_vfprintf_r+0x448>
   11b28:	5702                	lw	a4,32(sp)
   11b2a:	8c5a                	mv	s8,s6
   11b2c:	5b22                	lw	s6,40(sp)
   11b2e:	de22                	sw	s0,60(sp)
   11b30:	4a72                	lw	s4,28(sp)
   11b32:	975a                	add	a4,a4,s6
   11b34:	4406                	lw	s0,64(sp)
   11b36:	4996                	lw	s3,68(sp)
   11b38:	5a92                	lw	s5,36(sp)
   11b3a:	d3b77d63          	bgeu	a4,s11,11074 <_vfprintf_r+0xcea>
   11b3e:	8dba                	mv	s11,a4
   11b40:	d34ff06f          	j	11074 <_vfprintf_r+0xcea>
   11b44:	4772                	lw	a4,28(sp)
   11b46:	57f5                	li	a5,-3
   11b48:	00f74463          	blt	a4,a5,11b50 <_vfprintf_r+0x17c6>
   11b4c:	02edd063          	bge	s11,a4,11b6c <_vfprintf_r+0x17e2>
   11b50:	14f9                	addi	s1,s1,-2
   11b52:	fdf4f793          	andi	a5,s1,-33
   11b56:	d43e                	sw	a5,40(sp)
   11b58:	c9bfe06f          	j	107f2 <_vfprintf_r+0x468>
   11b5c:	0c714783          	lbu	a5,199(sp)
   11b60:	4d81                	li	s11,0
   11b62:	c399                	beqz	a5,11b68 <_vfprintf_r+0x17de>
   11b64:	f5ffe06f          	j	10ac2 <_vfprintf_r+0x738>
   11b68:	9bdfe06f          	j	10524 <_vfprintf_r+0x19a>
   11b6c:	4772                	lw	a4,28(sp)
   11b6e:	5782                	lw	a5,32(sp)
   11b70:	1af74163          	blt	a4,a5,11d12 <_vfprintf_r+0x1988>
   11b74:	47c6                	lw	a5,80(sp)
   11b76:	8cba                	mv	s9,a4
   11b78:	8b85                	andi	a5,a5,1
   11b7a:	c781                	beqz	a5,11b82 <_vfprintf_r+0x17f8>
   11b7c:	57b2                	lw	a5,44(sp)
   11b7e:	00f70cb3          	add	s9,a4,a5
   11b82:	47c6                	lw	a5,80(sp)
   11b84:	4007f793          	andi	a5,a5,1024
   11b88:	c781                	beqz	a5,11b90 <_vfprintf_r+0x1806>
   11b8a:	47f2                	lw	a5,28(sp)
   11b8c:	34f04263          	bgtz	a5,11ed0 <_vfprintf_r+0x1b46>
   11b90:	fffcca93          	not	s5,s9
   11b94:	41fada93          	srai	s5,s5,0x1f
   11b98:	015cfab3          	and	s5,s9,s5
   11b9c:	06700493          	li	s1,103
   11ba0:	d402                	sw	zero,40(sp)
   11ba2:	d202                	sw	zero,36(sp)
   11ba4:	d29fe06f          	j	108cc <_vfprintf_r+0x542>
   11ba8:	4bc2                	lw	s7,16(sp)
   11baa:	8c5a                	mv	s8,s6
   11bac:	bbcff06f          	j	10f68 <_vfprintf_r+0xbde>
   11bb0:	c802                	sw	zero,16(sp)
   11bb2:	8a3e                	mv	s4,a5
   11bb4:	800007b7          	lui	a5,0x80000
   11bb8:	0177cbb3          	xor	s7,a5,s7
   11bbc:	02d00793          	li	a5,45
   11bc0:	ccbe                	sw	a5,88(sp)
   11bc2:	bb8d                	j	11934 <_vfprintf_r+0x15aa>
   11bc4:	11d0                	addi	a2,sp,228
   11bc6:	85da                	mv	a1,s6
   11bc8:	856a                	mv	a0,s10
   11bca:	43b0a0ef          	jal	ra,1c804 <__sprint_r>
   11bce:	fd69                	bnez	a0,11ba8 <_vfprintf_r+0x181e>
   11bd0:	00044683          	lbu	a3,0(s0)
   11bd4:	57be                	lw	a5,236(sp)
   11bd6:	10c10893          	addi	a7,sp,268
   11bda:	9db6                	add	s11,s11,a3
   11bdc:	be8d                	j	1174e <_vfprintf_r+0x13c4>
   11bde:	0b010a93          	addi	s5,sp,176
   11be2:	099c                	addi	a5,sp,208
   11be4:	01f8                	addi	a4,sp,204
   11be6:	0dc10813          	addi	a6,sp,220
   11bea:	86ee                	mv	a3,s11
   11bec:	460d                	li	a2,3
   11bee:	85d6                	mv	a1,s5
   11bf0:	856a                	mv	a0,s10
   11bf2:	c0c6                	sw	a7,64(sp)
   11bf4:	d972                	sw	t3,176(sp)
   11bf6:	d272                	sw	t3,36(sp)
   11bf8:	db76                	sw	t4,180(sp)
   11bfa:	d076                	sw	t4,32(sp)
   11bfc:	dd7a                	sw	t5,184(sp)
   11bfe:	ce7a                	sw	t5,28(sp)
   11c00:	df5e                	sw	s7,188(sp)
   11c02:	40e040ef          	jal	ra,16010 <_ldtoa_r>
   11c06:	00054703          	lbu	a4,0(a0)
   11c0a:	03000793          	li	a5,48
   11c0e:	4f72                	lw	t5,28(sp)
   11c10:	5e82                	lw	t4,32(sp)
   11c12:	5e12                	lw	t3,36(sp)
   11c14:	4886                	lw	a7,64(sp)
   11c16:	8b2a                	mv	s6,a0
   11c18:	0a010c93          	addi	s9,sp,160
   11c1c:	04f70963          	beq	a4,a5,11c6e <_vfprintf_r+0x18e4>
   11c20:	47be                	lw	a5,204(sp)
   11c22:	97ee                	add	a5,a5,s11
   11c24:	00fb0933          	add	s2,s6,a5
   11c28:	85e6                	mv	a1,s9
   11c2a:	8556                	mv	a0,s5
   11c2c:	ce46                	sw	a7,28(sp)
   11c2e:	d972                	sw	t3,176(sp)
   11c30:	db76                	sw	t4,180(sp)
   11c32:	dd7a                	sw	t5,184(sp)
   11c34:	df5e                	sw	s7,188(sp)
   11c36:	d102                	sw	zero,160(sp)
   11c38:	d302                	sw	zero,164(sp)
   11c3a:	d502                	sw	zero,168(sp)
   11c3c:	d702                	sw	zero,172(sp)
   11c3e:	4cf110ef          	jal	ra,2390c <__eqtf2>
   11c42:	48f2                	lw	a7,28(sp)
   11c44:	86ca                	mv	a3,s2
   11c46:	e119                	bnez	a0,11c4c <_vfprintf_r+0x18c2>
   11c48:	b85fe06f          	j	107cc <_vfprintf_r+0x442>
   11c4c:	46fe                	lw	a3,220(sp)
   11c4e:	0126e463          	bltu	a3,s2,11c56 <_vfprintf_r+0x18cc>
   11c52:	b7bfe06f          	j	107cc <_vfprintf_r+0x442>
   11c56:	03000713          	li	a4,48
   11c5a:	00168793          	addi	a5,a3,1
   11c5e:	cfbe                	sw	a5,220(sp)
   11c60:	00e68023          	sb	a4,0(a3)
   11c64:	46fe                	lw	a3,220(sp)
   11c66:	ff26eae3          	bltu	a3,s2,11c5a <_vfprintf_r+0x18d0>
   11c6a:	b63fe06f          	j	107cc <_vfprintf_r+0x442>
   11c6e:	0a010c93          	addi	s9,sp,160
   11c72:	85e6                	mv	a1,s9
   11c74:	8556                	mv	a0,s5
   11c76:	c0c6                	sw	a7,64(sp)
   11c78:	d972                	sw	t3,176(sp)
   11c7a:	d272                	sw	t3,36(sp)
   11c7c:	db76                	sw	t4,180(sp)
   11c7e:	d076                	sw	t4,32(sp)
   11c80:	dd7a                	sw	t5,184(sp)
   11c82:	ce7a                	sw	t5,28(sp)
   11c84:	df5e                	sw	s7,188(sp)
   11c86:	d102                	sw	zero,160(sp)
   11c88:	d302                	sw	zero,164(sp)
   11c8a:	d502                	sw	zero,168(sp)
   11c8c:	d702                	sw	zero,172(sp)
   11c8e:	47f110ef          	jal	ra,2390c <__eqtf2>
   11c92:	4f72                	lw	t5,28(sp)
   11c94:	5e82                	lw	t4,32(sp)
   11c96:	5e12                	lw	t3,36(sp)
   11c98:	4886                	lw	a7,64(sp)
   11c9a:	d159                	beqz	a0,11c20 <_vfprintf_r+0x1896>
   11c9c:	4785                	li	a5,1
   11c9e:	41b787b3          	sub	a5,a5,s11
   11ca2:	c7be                	sw	a5,204(sp)
   11ca4:	bfbd                	j	11c22 <_vfprintf_r+0x1898>
   11ca6:	02d00793          	li	a5,45
   11caa:	0cf103a3          	sb	a5,199(sp)
   11cae:	b0e9                	j	11578 <_vfprintf_r+0x11ee>
   11cb0:	11d0                	addi	a2,sp,228
   11cb2:	85e2                	mv	a1,s8
   11cb4:	856a                	mv	a0,s10
   11cb6:	34f0a0ef          	jal	ra,1c804 <__sprint_r>
   11cba:	aa051663          	bnez	a0,10f66 <_vfprintf_r+0xbdc>
   11cbe:	44be                	lw	s1,204(sp)
   11cc0:	57be                	lw	a5,236(sp)
   11cc2:	10c10893          	addi	a7,sp,268
   11cc6:	bdcff06f          	j	110a2 <_vfprintf_r+0xd18>
   11cca:	00026637          	lui	a2,0x26
   11cce:	e3460e93          	addi	t4,a2,-460 # 25e34 <blanks.1>
   11cd2:	b10ff06f          	j	10fe2 <_vfprintf_r+0xc58>
   11cd6:	0c714783          	lbu	a5,199(sp)
   11cda:	ca4a                	sw	s2,20(sp)
   11cdc:	d402                	sw	zero,40(sp)
   11cde:	d202                	sw	zero,36(sp)
   11ce0:	ce02                	sw	zero,28(sp)
   11ce2:	8aee                	mv	s5,s11
   11ce4:	8cee                	mv	s9,s11
   11ce6:	4d81                	li	s11,0
   11ce8:	c399                	beqz	a5,11cee <_vfprintf_r+0x1964>
   11cea:	dd9fe06f          	j	10ac2 <_vfprintf_r+0x738>
   11cee:	837fe06f          	j	10524 <_vfprintf_r+0x19a>
   11cf2:	11d0                	addi	a2,sp,228
   11cf4:	85e2                	mv	a1,s8
   11cf6:	856a                	mv	a0,s10
   11cf8:	30d0a0ef          	jal	ra,1c804 <__sprint_r>
   11cfc:	a6051563          	bnez	a0,10f66 <_vfprintf_r+0xbdc>
   11d00:	44be                	lw	s1,204(sp)
   11d02:	5702                	lw	a4,32(sp)
   11d04:	57be                	lw	a5,236(sp)
   11d06:	10c10893          	addi	a7,sp,268
   11d0a:	409704b3          	sub	s1,a4,s1
   11d0e:	bc8ff06f          	j	110d6 <_vfprintf_r+0xd4c>
   11d12:	5782                	lw	a5,32(sp)
   11d14:	5732                	lw	a4,44(sp)
   11d16:	06700493          	li	s1,103
   11d1a:	00e78cb3          	add	s9,a5,a4
   11d1e:	47f2                	lw	a5,28(sp)
   11d20:	2cf05663          	blez	a5,11fec <_vfprintf_r+0x1c62>
   11d24:	47c6                	lw	a5,80(sp)
   11d26:	4007f793          	andi	a5,a5,1024
   11d2a:	1a079563          	bnez	a5,11ed4 <_vfprintf_r+0x1b4a>
   11d2e:	fffcca93          	not	s5,s9
   11d32:	41fada93          	srai	s5,s5,0x1f
   11d36:	015cfab3          	and	s5,s9,s5
   11d3a:	b59d                	j	11ba0 <_vfprintf_r+0x1816>
   11d3c:	00026837          	lui	a6,0x26
   11d40:	c8c80b13          	addi	s6,a6,-884 # 25c8c <__clzsi2+0x4a>
   11d44:	845ff06f          	j	11588 <_vfprintf_r+0x11fe>
   11d48:	47c6                	lw	a5,80(sp)
   11d4a:	4772                	lw	a4,28(sp)
   11d4c:	8b85                	andi	a5,a5,1
   11d4e:	01b7e7b3          	or	a5,a5,s11
   11d52:	2ae05e63          	blez	a4,1200e <_vfprintf_r+0x1c84>
   11d56:	16079663          	bnez	a5,11ec2 <_vfprintf_r+0x1b38>
   11d5a:	4cf2                	lw	s9,28(sp)
   11d5c:	06600493          	li	s1,102
   11d60:	b7d1                	j	11d24 <_vfprintf_r+0x199a>
   11d62:	56c1                	li	a3,-16
   11d64:	40c004b3          	neg	s1,a2
   11d68:	06d65463          	bge	a2,a3,11dd0 <_vfprintf_r+0x1a46>
   11d6c:	4941                	li	s2,16
   11d6e:	4c9d                	li	s9,7
   11d70:	a021                	j	11d78 <_vfprintf_r+0x19ee>
   11d72:	14c1                	addi	s1,s1,-16
   11d74:	04995e63          	bge	s2,s1,11dd0 <_vfprintf_r+0x1a46>
   11d78:	46a2                	lw	a3,8(sp)
   11d7a:	07c1                	addi	a5,a5,16
   11d7c:	0705                	addi	a4,a4,1
   11d7e:	00d8a023          	sw	a3,0(a7)
   11d82:	0128a223          	sw	s2,4(a7)
   11d86:	d7be                	sw	a5,236(sp)
   11d88:	d5ba                	sw	a4,232(sp)
   11d8a:	08a1                	addi	a7,a7,8
   11d8c:	feecd3e3          	bge	s9,a4,11d72 <_vfprintf_r+0x19e8>
   11d90:	11d0                	addi	a2,sp,228
   11d92:	85e2                	mv	a1,s8
   11d94:	856a                	mv	a0,s10
   11d96:	26f0a0ef          	jal	ra,1c804 <__sprint_r>
   11d9a:	9c051663          	bnez	a0,10f66 <_vfprintf_r+0xbdc>
   11d9e:	57be                	lw	a5,236(sp)
   11da0:	572e                	lw	a4,232(sp)
   11da2:	10c10893          	addi	a7,sp,268
   11da6:	b7f1                	j	11d72 <_vfprintf_r+0x19e8>
   11da8:	57fd                	li	a5,-1
   11daa:	c63e                	sw	a5,12(sp)
   11dac:	861fe06f          	j	1060c <_vfprintf_r+0x282>
   11db0:	000266b7          	lui	a3,0x26
   11db4:	e3468e93          	addi	t4,a3,-460 # 25e34 <blanks.1>
   11db8:	c69fe06f          	j	10a20 <_vfprintf_r+0x696>
   11dbc:	8bd2                	mv	s7,s4
   11dbe:	e93fe06f          	j	10c50 <_vfprintf_r+0x8c6>
   11dc2:	03000793          	li	a5,48
   11dc6:	0cf10423          	sb	a5,200(sp)
   11dca:	07800793          	li	a5,120
   11dce:	be1d                	j	11904 <_vfprintf_r+0x157a>
   11dd0:	46a2                	lw	a3,8(sp)
   11dd2:	97a6                	add	a5,a5,s1
   11dd4:	0705                	addi	a4,a4,1
   11dd6:	00d8a023          	sw	a3,0(a7)
   11dda:	0098a223          	sw	s1,4(a7)
   11dde:	d7be                	sw	a5,236(sp)
   11de0:	d5ba                	sw	a4,232(sp)
   11de2:	469d                	li	a3,7
   11de4:	f0e6da63          	bge	a3,a4,114f8 <_vfprintf_r+0x116e>
   11de8:	11d0                	addi	a2,sp,228
   11dea:	85e2                	mv	a1,s8
   11dec:	856a                	mv	a0,s10
   11dee:	2170a0ef          	jal	ra,1c804 <__sprint_r>
   11df2:	96051a63          	bnez	a0,10f66 <_vfprintf_r+0xbdc>
   11df6:	57be                	lw	a5,236(sp)
   11df8:	572e                	lw	a4,232(sp)
   11dfa:	10c10893          	addi	a7,sp,268
   11dfe:	fd0ff06f          	j	115ce <_vfprintf_r+0x1244>
   11e02:	001d8593          	addi	a1,s11,1
   11e06:	856a                	mv	a0,s10
   11e08:	c846                	sw	a7,16(sp)
   11e0a:	280050ef          	jal	ra,1708a <_malloc_r>
   11e0e:	48c2                	lw	a7,16(sp)
   11e10:	8b2a                	mv	s6,a0
   11e12:	24050a63          	beqz	a0,12066 <_vfprintf_r+0x1cdc>
   11e16:	c82a                	sw	a0,16(sp)
   11e18:	b611                	j	1191c <_vfprintf_r+0x1592>
   11e1a:	47d6                	lw	a5,84(sp)
   11e1c:	875e                	mv	a4,s7
   11e1e:	cfbe                	sw	a5,220(sp)
   11e20:	5792                	lw	a5,36(sp)
   11e22:	fffbc683          	lbu	a3,-1(s7)
   11e26:	00f7c603          	lbu	a2,15(a5) # 8000000f <__BSS_END__+0x7ffd727b>
   11e2a:	00c69e63          	bne	a3,a2,11e46 <_vfprintf_r+0x1abc>
   11e2e:	03000593          	li	a1,48
   11e32:	feb70fa3          	sb	a1,-1(a4)
   11e36:	477e                	lw	a4,220(sp)
   11e38:	fff70793          	addi	a5,a4,-1
   11e3c:	cfbe                	sw	a5,220(sp)
   11e3e:	fff74683          	lbu	a3,-1(a4)
   11e42:	fed608e3          	beq	a2,a3,11e32 <_vfprintf_r+0x1aa8>
   11e46:	00168613          	addi	a2,a3,1
   11e4a:	03900593          	li	a1,57
   11e4e:	0ff67613          	andi	a2,a2,255
   11e52:	00b68563          	beq	a3,a1,11e5c <_vfprintf_r+0x1ad2>
   11e56:	fec70fa3          	sb	a2,-1(a4)
   11e5a:	b1d1                	j	11b1e <_vfprintf_r+0x1794>
   11e5c:	5792                	lw	a5,36(sp)
   11e5e:	00a7c603          	lbu	a2,10(a5)
   11e62:	fec70fa3          	sb	a2,-1(a4)
   11e66:	b965                	j	11b1e <_vfprintf_r+0x1794>
   11e68:	001d8913          	addi	s2,s11,1
   11e6c:	0b010a93          	addi	s5,sp,176
   11e70:	0dc10813          	addi	a6,sp,220
   11e74:	099c                	addi	a5,sp,208
   11e76:	01f8                	addi	a4,sp,204
   11e78:	86ca                	mv	a3,s2
   11e7a:	4609                	li	a2,2
   11e7c:	85d6                	mv	a1,s5
   11e7e:	856a                	mv	a0,s10
   11e80:	d972                	sw	t3,176(sp)
   11e82:	d272                	sw	t3,36(sp)
   11e84:	db76                	sw	t4,180(sp)
   11e86:	d076                	sw	t4,32(sp)
   11e88:	dd7a                	sw	t5,184(sp)
   11e8a:	ce7a                	sw	t5,28(sp)
   11e8c:	df5e                	sw	s7,188(sp)
   11e8e:	182040ef          	jal	ra,16010 <_ldtoa_r>
   11e92:	4f72                	lw	t5,28(sp)
   11e94:	5e82                	lw	t4,32(sp)
   11e96:	5e12                	lw	t3,36(sp)
   11e98:	4886                	lw	a7,64(sp)
   11e9a:	8b2a                	mv	s6,a0
   11e9c:	995a                	add	s2,s2,s6
   11e9e:	0a010c93          	addi	s9,sp,160
   11ea2:	b359                	j	11c28 <_vfprintf_r+0x189e>
   11ea4:	01bb0933          	add	s2,s6,s11
   11ea8:	0a010c93          	addi	s9,sp,160
   11eac:	bbb5                	j	11c28 <_vfprintf_r+0x189e>
   11eae:	000d8463          	beqz	s11,11eb6 <_vfprintf_r+0x1b2c>
   11eb2:	899fe06f          	j	1074a <_vfprintf_r+0x3c0>
   11eb6:	4d85                	li	s11,1
   11eb8:	893fe06f          	j	1074a <_vfprintf_r+0x3c0>
   11ebc:	4d99                	li	s11,6
   11ebe:	88dfe06f          	j	1074a <_vfprintf_r+0x3c0>
   11ec2:	57b2                	lw	a5,44(sp)
   11ec4:	06600493          	li	s1,102
   11ec8:	00f70cb3          	add	s9,a4,a5
   11ecc:	9cee                	add	s9,s9,s11
   11ece:	bd99                	j	11d24 <_vfprintf_r+0x199a>
   11ed0:	06700493          	li	s1,103
   11ed4:	5672                	lw	a2,60(sp)
   11ed6:	0ff00713          	li	a4,255
   11eda:	00064783          	lbu	a5,0(a2)
   11ede:	16e78b63          	beq	a5,a4,12054 <_vfprintf_r+0x1cca>
   11ee2:	46f2                	lw	a3,28(sp)
   11ee4:	4501                	li	a0,0
   11ee6:	4581                	li	a1,0
   11ee8:	00d7da63          	bge	a5,a3,11efc <_vfprintf_r+0x1b72>
   11eec:	8e9d                	sub	a3,a3,a5
   11eee:	00164783          	lbu	a5,1(a2)
   11ef2:	cb85                	beqz	a5,11f22 <_vfprintf_r+0x1b98>
   11ef4:	0585                	addi	a1,a1,1
   11ef6:	0605                	addi	a2,a2,1
   11ef8:	fee798e3          	bne	a5,a4,11ee8 <_vfprintf_r+0x1b5e>
   11efc:	ce36                	sw	a3,28(sp)
   11efe:	de32                	sw	a2,60(sp)
   11f00:	d22e                	sw	a1,36(sp)
   11f02:	d42a                	sw	a0,40(sp)
   11f04:	5722                	lw	a4,40(sp)
   11f06:	5792                	lw	a5,36(sp)
   11f08:	97ba                	add	a5,a5,a4
   11f0a:	4726                	lw	a4,72(sp)
   11f0c:	02e787b3          	mul	a5,a5,a4
   11f10:	9cbe                	add	s9,s9,a5
   11f12:	fffcca93          	not	s5,s9
   11f16:	41fada93          	srai	s5,s5,0x1f
   11f1a:	015cfab3          	and	s5,s9,s5
   11f1e:	9affe06f          	j	108cc <_vfprintf_r+0x542>
   11f22:	00064783          	lbu	a5,0(a2)
   11f26:	0505                	addi	a0,a0,1
   11f28:	bfc1                	j	11ef8 <_vfprintf_r+0x1b6e>
   11f2a:	0d610713          	addi	a4,sp,214
   11f2e:	e699                	bnez	a3,11f3c <_vfprintf_r+0x1bb2>
   11f30:	03000713          	li	a4,48
   11f34:	0ce10b23          	sb	a4,214(sp)
   11f38:	0d710713          	addi	a4,sp,215
   11f3c:	1b14                	addi	a3,sp,432
   11f3e:	03078793          	addi	a5,a5,48
   11f42:	40d706b3          	sub	a3,a4,a3
   11f46:	00f70023          	sb	a5,0(a4)
   11f4a:	0dd68793          	addi	a5,a3,221
   11f4e:	dc3e                	sw	a5,56(sp)
   11f50:	94bfe06f          	j	1089a <_vfprintf_r+0x510>
   11f54:	0b010a93          	addi	s5,sp,176
   11f58:	8556                	mv	a0,s5
   11f5a:	cac6                	sw	a7,84(sp)
   11f5c:	d972                	sw	t3,176(sp)
   11f5e:	db76                	sw	t4,180(sp)
   11f60:	dd7a                	sw	t5,184(sp)
   11f62:	df5e                	sw	s7,188(sp)
   11f64:	24f130ef          	jal	ra,259b2 <__trunctfdf2>
   11f68:	01f0                	addi	a2,sp,204
   11f6a:	389060ef          	jal	ra,18af2 <frexp>
   11f6e:	862e                	mv	a2,a1
   11f70:	85aa                	mv	a1,a0
   11f72:	8556                	mv	a0,s5
   11f74:	7d2130ef          	jal	ra,25746 <__extenddftf2>
   11f78:	57ca                	lw	a5,176(sp)
   11f7a:	0a010c93          	addi	s9,sp,160
   11f7e:	09010913          	addi	s2,sp,144
   11f82:	c93e                	sw	a5,144(sp)
   11f84:	57da                	lw	a5,180(sp)
   11f86:	0110                	addi	a2,sp,128
   11f88:	85ca                	mv	a1,s2
   11f8a:	cb3e                	sw	a5,148(sp)
   11f8c:	57ea                	lw	a5,184(sp)
   11f8e:	8566                	mv	a0,s9
   11f90:	c0b2                	sw	a2,64(sp)
   11f92:	cd3e                	sw	a5,152(sp)
   11f94:	57fa                	lw	a5,188(sp)
   11f96:	c102                	sw	zero,128(sp)
   11f98:	c302                	sw	zero,132(sp)
   11f9a:	cf3e                	sw	a5,156(sp)
   11f9c:	3ffc07b7          	lui	a5,0x3ffc0
   11fa0:	c73e                	sw	a5,140(sp)
   11fa2:	c502                	sw	zero,136(sp)
   11fa4:	3f7110ef          	jal	ra,23b9a <__multf3>
   11fa8:	568a                	lw	a3,160(sp)
   11faa:	5e1a                	lw	t3,164(sp)
   11fac:	5eaa                	lw	t4,168(sp)
   11fae:	5f3a                	lw	t5,172(sp)
   11fb0:	85e6                	mv	a1,s9
   11fb2:	8556                	mv	a0,s5
   11fb4:	d936                	sw	a3,176(sp)
   11fb6:	c2b6                	sw	a3,68(sp)
   11fb8:	db72                	sw	t3,180(sp)
   11fba:	d272                	sw	t3,36(sp)
   11fbc:	dd76                	sw	t4,184(sp)
   11fbe:	d076                	sw	t4,32(sp)
   11fc0:	df7a                	sw	t5,188(sp)
   11fc2:	ce7a                	sw	t5,28(sp)
   11fc4:	d102                	sw	zero,160(sp)
   11fc6:	d302                	sw	zero,164(sp)
   11fc8:	d502                	sw	zero,168(sp)
   11fca:	d702                	sw	zero,172(sp)
   11fcc:	141110ef          	jal	ra,2390c <__eqtf2>
   11fd0:	4f72                	lw	t5,28(sp)
   11fd2:	5e82                	lw	t4,32(sp)
   11fd4:	5e12                	lw	t3,36(sp)
   11fd6:	4696                	lw	a3,68(sp)
   11fd8:	48d6                	lw	a7,84(sp)
   11fda:	e119                	bnez	a0,11fe0 <_vfprintf_r+0x1c56>
   11fdc:	4785                	li	a5,1
   11fde:	c7be                	sw	a5,204(sp)
   11fe0:	000267b7          	lui	a5,0x26
   11fe4:	c9478793          	addi	a5,a5,-876 # 25c94 <__clzsi2+0x52>
   11fe8:	d23e                	sw	a5,36(sp)
   11fea:	bad5                	j	119de <_vfprintf_r+0x1654>
   11fec:	40fc8cb3          	sub	s9,s9,a5
   11ff0:	0c85                	addi	s9,s9,1
   11ff2:	fffcca93          	not	s5,s9
   11ff6:	41fada93          	srai	s5,s5,0x1f
   11ffa:	015cfab3          	and	s5,s9,s5
   11ffe:	b64d                	j	11ba0 <_vfprintf_r+0x1816>
   12000:	47c6                	lw	a5,80(sp)
   12002:	8b85                	andi	a5,a5,1
   12004:	e399                	bnez	a5,1200a <_vfprintf_r+0x1c80>
   12006:	8abfe06f          	j	108b0 <_vfprintf_r+0x526>
   1200a:	8a3fe06f          	j	108ac <_vfprintf_r+0x522>
   1200e:	e791                	bnez	a5,1201a <_vfprintf_r+0x1c90>
   12010:	4a85                	li	s5,1
   12012:	06600493          	li	s1,102
   12016:	4c85                	li	s9,1
   12018:	b661                	j	11ba0 <_vfprintf_r+0x1816>
   1201a:	57b2                	lw	a5,44(sp)
   1201c:	06600493          	li	s1,102
   12020:	00178c93          	addi	s9,a5,1
   12024:	9cee                	add	s9,s9,s11
   12026:	fffcca93          	not	s5,s9
   1202a:	41fada93          	srai	s5,s5,0x1f
   1202e:	015cfab3          	and	s5,s9,s5
   12032:	b6bd                	j	11ba0 <_vfprintf_r+0x1816>
   12034:	86c6                	mv	a3,a7
   12036:	a76ff06f          	j	112ac <_vfprintf_r+0xf22>
   1203a:	47d2                	lw	a5,20(sp)
   1203c:	0007ad83          	lw	s11,0(a5)
   12040:	0791                	addi	a5,a5,4
   12042:	000dd363          	bgez	s11,12048 <_vfprintf_r+0x1cbe>
   12046:	5dfd                	li	s11,-1
   12048:	00144483          	lbu	s1,1(s0)
   1204c:	ca3e                	sw	a5,20(sp)
   1204e:	843a                	mv	s0,a4
   12050:	c7afe06f          	j	104ca <_vfprintf_r+0x140>
   12054:	d402                	sw	zero,40(sp)
   12056:	d202                	sw	zero,36(sp)
   12058:	b575                	j	11f04 <_vfprintf_r+0x1b7a>
   1205a:	4789                	li	a5,2
   1205c:	dc3e                	sw	a5,56(sp)
   1205e:	83dfe06f          	j	1089a <_vfprintf_r+0x510>
   12062:	896e                	mv	s2,s11
   12064:	bd25                	j	11e9c <_vfprintf_r+0x1b12>
   12066:	00cc5783          	lhu	a5,12(s8)
   1206a:	0407e793          	ori	a5,a5,64
   1206e:	00fc1623          	sh	a5,12(s8)
   12072:	d8cfe06f          	j	105fe <_vfprintf_r+0x274>

00012076 <vfprintf>:
   12076:	87aa                	mv	a5,a0
   12078:	2301a503          	lw	a0,560(gp) # 28d28 <_impure_ptr>
   1207c:	86b2                	mv	a3,a2
   1207e:	862e                	mv	a2,a1
   12080:	85be                	mv	a1,a5
   12082:	b08fe06f          	j	1038a <_vfprintf_r>

00012086 <__sbprintf>:
   12086:	00c5d783          	lhu	a5,12(a1)
   1208a:	0645ae03          	lw	t3,100(a1)
   1208e:	00e5d303          	lhu	t1,14(a1)
   12092:	01c5a883          	lw	a7,28(a1)
   12096:	0245a803          	lw	a6,36(a1)
   1209a:	b8010113          	addi	sp,sp,-1152
   1209e:	9bf5                	andi	a5,a5,-3
   120a0:	40000713          	li	a4,1024
   120a4:	46812c23          	sw	s0,1144(sp)
   120a8:	00f11a23          	sh	a5,20(sp)
   120ac:	842e                	mv	s0,a1
   120ae:	189c                	addi	a5,sp,112
   120b0:	002c                	addi	a1,sp,8
   120b2:	46912a23          	sw	s1,1140(sp)
   120b6:	47212823          	sw	s2,1136(sp)
   120ba:	46112e23          	sw	ra,1148(sp)
   120be:	892a                	mv	s2,a0
   120c0:	d6f2                	sw	t3,108(sp)
   120c2:	00611b23          	sh	t1,22(sp)
   120c6:	d246                	sw	a7,36(sp)
   120c8:	d642                	sw	a6,44(sp)
   120ca:	c43e                	sw	a5,8(sp)
   120cc:	cc3e                	sw	a5,24(sp)
   120ce:	c83a                	sw	a4,16(sp)
   120d0:	ce3a                	sw	a4,28(sp)
   120d2:	d002                	sw	zero,32(sp)
   120d4:	ab6fe0ef          	jal	ra,1038a <_vfprintf_r>
   120d8:	84aa                	mv	s1,a0
   120da:	02055963          	bgez	a0,1210c <__sbprintf+0x86>
   120de:	01415783          	lhu	a5,20(sp)
   120e2:	0407f793          	andi	a5,a5,64
   120e6:	c799                	beqz	a5,120f4 <__sbprintf+0x6e>
   120e8:	00c45783          	lhu	a5,12(s0)
   120ec:	0407e793          	ori	a5,a5,64
   120f0:	00f41623          	sh	a5,12(s0)
   120f4:	47c12083          	lw	ra,1148(sp)
   120f8:	47812403          	lw	s0,1144(sp)
   120fc:	47012903          	lw	s2,1136(sp)
   12100:	8526                	mv	a0,s1
   12102:	47412483          	lw	s1,1140(sp)
   12106:	48010113          	addi	sp,sp,1152
   1210a:	8082                	ret
   1210c:	002c                	addi	a1,sp,8
   1210e:	854a                	mv	a0,s2
   12110:	43e020ef          	jal	ra,1454e <_fflush_r>
   12114:	d569                	beqz	a0,120de <__sbprintf+0x58>
   12116:	54fd                	li	s1,-1
   12118:	b7d9                	j	120de <__sbprintf+0x58>

0001211a <__svfscanf_r>:
   1211a:	ae010113          	addi	sp,sp,-1312
   1211e:	50812c23          	sw	s0,1304(sp)
   12122:	4f812c23          	sw	s8,1272(sp)
   12126:	4f912a23          	sw	s9,1268(sp)
   1212a:	50112e23          	sw	ra,1308(sp)
   1212e:	50912a23          	sw	s1,1300(sp)
   12132:	51212823          	sw	s2,1296(sp)
   12136:	51312623          	sw	s3,1292(sp)
   1213a:	51412423          	sw	s4,1288(sp)
   1213e:	51512223          	sw	s5,1284(sp)
   12142:	51612023          	sw	s6,1280(sp)
   12146:	4f712e23          	sw	s7,1276(sp)
   1214a:	4fa12823          	sw	s10,1264(sp)
   1214e:	4fb12623          	sw	s11,1260(sp)
   12152:	52010413          	addi	s0,sp,1312
   12156:	00c59703          	lh	a4,12(a1)
   1215a:	77fd                	lui	a5,0xfffff
   1215c:	b1078793          	addi	a5,a5,-1264 # ffffeb10 <__BSS_END__+0xfffd5d7c>
   12160:	97a2                	add	a5,a5,s0
   12162:	737d                	lui	t1,0xfffff
   12164:	c394                	sw	a3,0(a5)
   12166:	01271793          	slli	a5,a4,0x12
   1216a:	911a                	add	sp,sp,t1
   1216c:	8cae                	mv	s9,a1
   1216e:	8c2a                	mv	s8,a0
   12170:	0007cc63          	bltz	a5,12188 <__svfscanf_r+0x6e>
   12174:	51f4                	lw	a3,100(a1)
   12176:	6589                	lui	a1,0x2
   12178:	8f4d                	or	a4,a4,a1
   1217a:	75f9                	lui	a1,0xffffe
   1217c:	15fd                	addi	a1,a1,-1
   1217e:	8eed                	and	a3,a3,a1
   12180:	00ec9623          	sh	a4,12(s9)
   12184:	06dca223          	sw	a3,100(s9)
   12188:	00064703          	lbu	a4,0(a2)
   1218c:	fc040793          	addi	a5,s0,-64
   12190:	76fd                	lui	a3,0xfffff
   12192:	96be                	add	a3,a3,a5
   12194:	b6e6ae23          	sw	a4,-1156(a3) # ffffeb7c <__BSS_END__+0xfffd5de8>
   12198:	00160b13          	addi	s6,a2,1
   1219c:	77fd                	lui	a5,0xfffff
   1219e:	e319                	bnez	a4,121a4 <__svfscanf_r+0x8a>
   121a0:	4390106f          	j	13dd8 <__svfscanf_r+0x1cbe>
   121a4:	b8078693          	addi	a3,a5,-1152 # ffffeb80 <__BSS_END__+0xfffd5dec>
   121a8:	b0478793          	addi	a5,a5,-1276
   121ac:	97a2                	add	a5,a5,s0
   121ae:	0007a023          	sw	zero,0(a5)
   121b2:	77fd                	lui	a5,0xfffff
   121b4:	b1c78793          	addi	a5,a5,-1252 # ffffeb1c <__BSS_END__+0xfffd5d88>
   121b8:	97a2                	add	a5,a5,s0
   121ba:	0007a023          	sw	zero,0(a5)
   121be:	77fd                	lui	a5,0xfffff
   121c0:	b0c78793          	addi	a5,a5,-1268 # ffffeb0c <__BSS_END__+0xfffd5d78>
   121c4:	97a2                	add	a5,a5,s0
   121c6:	0007a023          	sw	zero,0(a5)
   121ca:	77fd                	lui	a5,0xfffff
   121cc:	00026637          	lui	a2,0x26
   121d0:	b1878793          	addi	a5,a5,-1256 # ffffeb18 <__BSS_END__+0xfffd5d84>
   121d4:	97a2                	add	a5,a5,s0
   121d6:	24d60d93          	addi	s11,a2,589 # 2624d <_ctype_+0x1>
   121da:	00026637          	lui	a2,0x26
   121de:	0007a023          	sw	zero,0(a5)
   121e2:	e5c60793          	addi	a5,a2,-420 # 25e5c <zeroes.0+0x18>
   121e6:	767d                	lui	a2,0xfffff
   121e8:	b1460613          	addi	a2,a2,-1260 # ffffeb14 <__BSS_END__+0xfffd5d80>
   121ec:	9622                	add	a2,a2,s0
   121ee:	c21c                	sw	a5,0(a2)
   121f0:	fc040793          	addi	a5,s0,-64
   121f4:	97b6                	add	a5,a5,a3
   121f6:	76fd                	lui	a3,0xfffff
   121f8:	afc68693          	addi	a3,a3,-1284 # ffffeafc <__BSS_END__+0xfffd5d68>
   121fc:	96a2                	add	a3,a3,s0
   121fe:	c29c                	sw	a5,0(a3)
   12200:	77fd                	lui	a5,0xfffff
   12202:	b0078793          	addi	a5,a5,-1280 # ffffeb00 <__BSS_END__+0xfffd5d6c>
   12206:	4d01                	li	s10,0
   12208:	97a2                	add	a5,a5,s0
   1220a:	4b81                	li	s7,0
   1220c:	01a7a023          	sw	s10,0(a5)
   12210:	00ed86b3          	add	a3,s11,a4
   12214:	0006c683          	lbu	a3,0(a3)
   12218:	0086f493          	andi	s1,a3,8
   1221c:	e8e1                	bnez	s1,122ec <__svfscanf_r+0x1d2>
   1221e:	02500613          	li	a2,37
   12222:	02c71e63          	bne	a4,a2,1225e <__svfscanf_r+0x144>
   12226:	000b4603          	lbu	a2,0(s6)
   1222a:	4a01                	li	s4,0
   1222c:	4d01                	li	s10,0
   1222e:	05500513          	li	a0,85
   12232:	06800e13          	li	t3,104
   12236:	06c00313          	li	t1,108
   1223a:	fdb60793          	addi	a5,a2,-37
   1223e:	0ff7f793          	andi	a5,a5,255
   12242:	001b0593          	addi	a1,s6,1
   12246:	1af56163          	bltu	a0,a5,123e8 <__svfscanf_r+0x2ce>
   1224a:	777d                	lui	a4,0xfffff
   1224c:	b1470713          	addi	a4,a4,-1260 # ffffeb14 <__BSS_END__+0xfffd5d80>
   12250:	9722                	add	a4,a4,s0
   12252:	4318                	lw	a4,0(a4)
   12254:	078a                	slli	a5,a5,0x2
   12256:	97ba                	add	a5,a5,a4
   12258:	439c                	lw	a5,0(a5)
   1225a:	8782                	jr	a5
   1225c:	8b2e                	mv	s6,a1
   1225e:	004ca703          	lw	a4,4(s9)
   12262:	10e05463          	blez	a4,1236a <__svfscanf_r+0x250>
   12266:	000ca703          	lw	a4,0(s9)
   1226a:	fffb4683          	lbu	a3,-1(s6)
   1226e:	00074603          	lbu	a2,0(a4)
   12272:	0cd60663          	beq	a2,a3,1233e <__svfscanf_r+0x224>
   12276:	77fd                	lui	a5,0xfffff
   12278:	b1c78793          	addi	a5,a5,-1252 # ffffeb1c <__BSS_END__+0xfffd5d88>
   1227c:	97a2                	add	a5,a5,s0
   1227e:	439c                	lw	a5,0(a5)
   12280:	cf89                	beqz	a5,1229a <__svfscanf_r+0x180>
   12282:	77fd                	lui	a5,0xfffff
   12284:	b1c78793          	addi	a5,a5,-1252 # ffffeb1c <__BSS_END__+0xfffd5d88>
   12288:	97a2                	add	a5,a5,s0
   1228a:	439c                	lw	a5,0(a5)
   1228c:	0007a903          	lw	s2,0(a5)
   12290:	00090563          	beqz	s2,1229a <__svfscanf_r+0x180>
   12294:	854a                	mv	a0,s2
   12296:	5eb040ef          	jal	ra,17080 <free>
   1229a:	77fd                	lui	a5,0xfffff
   1229c:	b1878793          	addi	a5,a5,-1256 # ffffeb18 <__BSS_END__+0xfffd5d84>
   122a0:	737d                	lui	t1,0xfffff
   122a2:	97a2                	add	a5,a5,s0
   122a4:	ae030313          	addi	t1,t1,-1312 # ffffeae0 <__BSS_END__+0xfffd5d4c>
   122a8:	4388                	lw	a0,0(a5)
   122aa:	00640133          	add	sp,s0,t1
   122ae:	6305                	lui	t1,0x1
   122b0:	911a                	add	sp,sp,t1
   122b2:	51c12083          	lw	ra,1308(sp)
   122b6:	51812403          	lw	s0,1304(sp)
   122ba:	51412483          	lw	s1,1300(sp)
   122be:	51012903          	lw	s2,1296(sp)
   122c2:	50c12983          	lw	s3,1292(sp)
   122c6:	50812a03          	lw	s4,1288(sp)
   122ca:	50412a83          	lw	s5,1284(sp)
   122ce:	50012b03          	lw	s6,1280(sp)
   122d2:	4fc12b83          	lw	s7,1276(sp)
   122d6:	4f812c03          	lw	s8,1272(sp)
   122da:	4f412c83          	lw	s9,1268(sp)
   122de:	4f012d03          	lw	s10,1264(sp)
   122e2:	4ec12d83          	lw	s11,1260(sp)
   122e6:	52010113          	addi	sp,sp,1312
   122ea:	8082                	ret
   122ec:	004ca703          	lw	a4,4(s9)
   122f0:	02e05663          	blez	a4,1231c <__svfscanf_r+0x202>
   122f4:	000ca783          	lw	a5,0(s9)
   122f8:	0007c703          	lbu	a4,0(a5)
   122fc:	976e                	add	a4,a4,s11
   122fe:	00074703          	lbu	a4,0(a4)
   12302:	8b21                	andi	a4,a4,8
   12304:	c30d                	beqz	a4,12326 <__svfscanf_r+0x20c>
   12306:	004ca703          	lw	a4,4(s9)
   1230a:	0785                	addi	a5,a5,1
   1230c:	00fca023          	sw	a5,0(s9)
   12310:	177d                	addi	a4,a4,-1
   12312:	00eca223          	sw	a4,4(s9)
   12316:	0b85                	addi	s7,s7,1
   12318:	fce04ee3          	bgtz	a4,122f4 <__svfscanf_r+0x1da>
   1231c:	85e6                	mv	a1,s9
   1231e:	8562                	mv	a0,s8
   12320:	588060ef          	jal	ra,188a8 <__srefill_r>
   12324:	d961                	beqz	a0,122f4 <__svfscanf_r+0x1da>
   12326:	000b4703          	lbu	a4,0(s6)
   1232a:	fc040793          	addi	a5,s0,-64
   1232e:	76fd                	lui	a3,0xfffff
   12330:	96be                	add	a3,a3,a5
   12332:	b6e6ae23          	sw	a4,-1156(a3) # ffffeb7c <__BSS_END__+0xfffd5de8>
   12336:	0b05                	addi	s6,s6,1
   12338:	ec071ce3          	bnez	a4,12210 <__svfscanf_r+0xf6>
   1233c:	bf2d                	j	12276 <__svfscanf_r+0x15c>
   1233e:	004ca683          	lw	a3,4(s9)
   12342:	0705                	addi	a4,a4,1
   12344:	00eca023          	sw	a4,0(s9)
   12348:	fff68713          	addi	a4,a3,-1
   1234c:	00eca223          	sw	a4,4(s9)
   12350:	000b4703          	lbu	a4,0(s6)
   12354:	fc040793          	addi	a5,s0,-64
   12358:	76fd                	lui	a3,0xfffff
   1235a:	96be                	add	a3,a3,a5
   1235c:	b6e6ae23          	sw	a4,-1156(a3) # ffffeb7c <__BSS_END__+0xfffd5de8>
   12360:	0b85                	addi	s7,s7,1
   12362:	0b05                	addi	s6,s6,1
   12364:	ea0716e3          	bnez	a4,12210 <__svfscanf_r+0xf6>
   12368:	b739                	j	12276 <__svfscanf_r+0x15c>
   1236a:	85e6                	mv	a1,s9
   1236c:	8562                	mv	a0,s8
   1236e:	53a060ef          	jal	ra,188a8 <__srefill_r>
   12372:	ee050ae3          	beqz	a0,12266 <__svfscanf_r+0x14c>
   12376:	77fd                	lui	a5,0xfffff
   12378:	b1878793          	addi	a5,a5,-1256 # ffffeb18 <__BSS_END__+0xfffd5d84>
   1237c:	97a2                	add	a5,a5,s0
   1237e:	439c                	lw	a5,0(a5)
   12380:	c799                	beqz	a5,1238e <__svfscanf_r+0x274>
   12382:	00ccd783          	lhu	a5,12(s9)
   12386:	0407f793          	andi	a5,a5,64
   1238a:	ee0786e3          	beqz	a5,12276 <__svfscanf_r+0x15c>
   1238e:	77fd                	lui	a5,0xfffff
   12390:	b1c78793          	addi	a5,a5,-1252 # ffffeb1c <__BSS_END__+0xfffd5d88>
   12394:	97a2                	add	a5,a5,s0
   12396:	439c                	lw	a5,0(a5)
   12398:	e399                	bnez	a5,1239e <__svfscanf_r+0x284>
   1239a:	5030106f          	j	1409c <__svfscanf_r+0x1f82>
   1239e:	77fd                	lui	a5,0xfffff
   123a0:	b1c78793          	addi	a5,a5,-1252 # ffffeb1c <__BSS_END__+0xfffd5d88>
   123a4:	97a2                	add	a5,a5,s0
   123a6:	439c                	lw	a5,0(a5)
   123a8:	0007a903          	lw	s2,0(a5)
   123ac:	77fd                	lui	a5,0xfffff
   123ae:	b1c78793          	addi	a5,a5,-1252 # ffffeb1c <__BSS_END__+0xfffd5d88>
   123b2:	97a2                	add	a5,a5,s0
   123b4:	439c                	lw	a5,0(a5)
   123b6:	0067da03          	lhu	s4,6(a5)
   123ba:	020a0063          	beqz	s4,123da <__svfscanf_r+0x2c0>
   123be:	84ca                	mv	s1,s2
   123c0:	4981                	li	s3,0
   123c2:	409c                	lw	a5,0(s1)
   123c4:	0491                	addi	s1,s1,4
   123c6:	0985                	addi	s3,s3,1
   123c8:	4388                	lw	a0,0(a5)
   123ca:	4b7040ef          	jal	ra,17080 <free>
   123ce:	ffc4a783          	lw	a5,-4(s1)
   123d2:	0007a023          	sw	zero,0(a5)
   123d6:	ff3a16e3          	bne	s4,s3,123c2 <__svfscanf_r+0x2a8>
   123da:	777d                	lui	a4,0xfffff
   123dc:	b1870713          	addi	a4,a4,-1256 # ffffeb18 <__BSS_END__+0xfffd5d84>
   123e0:	57fd                	li	a5,-1
   123e2:	9722                	add	a4,a4,s0
   123e4:	c31c                	sw	a5,0(a4)
   123e6:	b56d                	j	12290 <__svfscanf_r+0x176>
   123e8:	77fd                	lui	a5,0xfffff
   123ea:	b1c78793          	addi	a5,a5,-1252 # ffffeb1c <__BSS_END__+0xfffd5d88>
   123ee:	97a2                	add	a5,a5,s0
   123f0:	439c                	lw	a5,0(a5)
   123f2:	ea0784e3          	beqz	a5,1229a <__svfscanf_r+0x180>
   123f6:	0007a903          	lw	s2,0(a5)
   123fa:	bd59                	j	12290 <__svfscanf_r+0x176>
   123fc:	08fa7793          	andi	a5,s4,143
   12400:	e6079be3          	bnez	a5,12276 <__svfscanf_r+0x15c>
   12404:	002d1793          	slli	a5,s10,0x2
   12408:	97ea                	add	a5,a5,s10
   1240a:	0786                	slli	a5,a5,0x1
   1240c:	963e                	add	a2,a2,a5
   1240e:	fd060d13          	addi	s10,a2,-48
   12412:	001b4603          	lbu	a2,1(s6)
   12416:	8b2e                	mv	s6,a1
   12418:	b50d                	j	1223a <__svfscanf_r+0x120>
   1241a:	8b2e                	mv	s6,a1
   1241c:	4911                	li	s2,4
   1241e:	004ca703          	lw	a4,4(s9)
   12422:	2ae05963          	blez	a4,126d4 <__svfscanf_r+0x5ba>
   12426:	040a7713          	andi	a4,s4,64
   1242a:	2a070f63          	beqz	a4,126e8 <__svfscanf_r+0x5ce>
   1242e:	470d                	li	a4,3
   12430:	22e909e3          	beq	s2,a4,12e62 <__svfscanf_r+0xd48>
   12434:	4711                	li	a4,4
   12436:	6ee90c63          	beq	s2,a4,12b2e <__svfscanf_r+0xa14>
   1243a:	4705                	li	a4,1
   1243c:	42e90963          	beq	s2,a4,1286e <__svfscanf_r+0x754>
   12440:	4709                	li	a4,2
   12442:	42e911e3          	bne	s2,a4,13064 <__svfscanf_r+0xf4a>
   12446:	000d1363          	bnez	s10,1244c <__svfscanf_r+0x332>
   1244a:	5d7d                	li	s10,-1
   1244c:	001a7493          	andi	s1,s4,1
   12450:	010a7913          	andi	s2,s4,16
   12454:	e099                	bnez	s1,1245a <__svfscanf_r+0x340>
   12456:	0e20106f          	j	13538 <__svfscanf_r+0x141e>
   1245a:	00090463          	beqz	s2,12462 <__svfscanf_r+0x348>
   1245e:	6de0106f          	j	13b3c <__svfscanf_r+0x1a22>
   12462:	77fd                	lui	a5,0xfffff
   12464:	b1078793          	addi	a5,a5,-1264 # ffffeb10 <__BSS_END__+0xfffd5d7c>
   12468:	97a2                	add	a5,a5,s0
   1246a:	439c                	lw	a5,0(a5)
   1246c:	080a7313          	andi	t1,s4,128
   12470:	00478993          	addi	s3,a5,4
   12474:	0007aa03          	lw	s4,0(a5)
   12478:	00031463          	bnez	t1,12480 <__svfscanf_r+0x366>
   1247c:	1170106f          	j	13d92 <__svfscanf_r+0x1c78>
   12480:	f60a04e3          	beqz	s4,123e8 <__svfscanf_r+0x2ce>
   12484:	08000513          	li	a0,128
   12488:	3f1040ef          	jal	ra,17078 <malloc>
   1248c:	8aaa                	mv	s5,a0
   1248e:	f00500e3          	beqz	a0,1238e <__svfscanf_r+0x274>
   12492:	77fd                	lui	a5,0xfffff
   12494:	b1c78793          	addi	a5,a5,-1252 # ffffeb1c <__BSS_END__+0xfffd5d88>
   12498:	97a2                	add	a5,a5,s0
   1249a:	439c                	lw	a5,0(a5)
   1249c:	00aa2023          	sw	a0,0(s4)
   124a0:	0067d483          	lhu	s1,6(a5)
   124a4:	0047d703          	lhu	a4,4(a5)
   124a8:	00e4e463          	bltu	s1,a4,124b0 <__svfscanf_r+0x396>
   124ac:	49e0106f          	j	1394a <__svfscanf_r+0x1830>
   124b0:	4388                	lw	a0,0(a5)
   124b2:	77fd                	lui	a5,0xfffff
   124b4:	b1c78793          	addi	a5,a5,-1252 # ffffeb1c <__BSS_END__+0xfffd5d88>
   124b8:	97a2                	add	a5,a5,s0
   124ba:	439c                	lw	a5,0(a5)
   124bc:	00249713          	slli	a4,s1,0x2
   124c0:	0485                	addi	s1,s1,1
   124c2:	00979323          	sh	s1,6(a5)
   124c6:	77fd                	lui	a5,0xfffff
   124c8:	b1078793          	addi	a5,a5,-1264 # ffffeb10 <__BSS_END__+0xfffd5d7c>
   124cc:	97a2                	add	a5,a5,s0
   124ce:	0137a023          	sw	s3,0(a5)
   124d2:	77fd                	lui	a5,0xfffff
   124d4:	953a                	add	a0,a0,a4
   124d6:	af878793          	addi	a5,a5,-1288 # ffffeaf8 <__BSS_END__+0xfffd5d64>
   124da:	777d                	lui	a4,0xfffff
   124dc:	97a2                	add	a5,a5,s0
   124de:	b0870713          	addi	a4,a4,-1272 # ffffeb08 <__BSS_END__+0xfffd5d74>
   124e2:	0157a023          	sw	s5,0(a5)
   124e6:	9722                	add	a4,a4,s0
   124e8:	02000793          	li	a5,32
   124ec:	01452023          	sw	s4,0(a0)
   124f0:	c31c                	sw	a5,0(a4)
   124f2:	000ca703          	lw	a4,0(s9)
   124f6:	00074703          	lbu	a4,0(a4)
   124fa:	976e                	add	a4,a4,s11
   124fc:	00074703          	lbu	a4,0(a4)
   12500:	8b21                	andi	a4,a4,8
   12502:	12071f63          	bnez	a4,12640 <__svfscanf_r+0x526>
   12506:	777d                	lui	a4,0xfffff
   12508:	fc040693          	addi	a3,s0,-64
   1250c:	b8870793          	addi	a5,a4,-1144 # ffffeb88 <__BSS_END__+0xfffd5df4>
   12510:	c9070313          	addi	t1,a4,-880
   12514:	9736                	add	a4,a4,a3
   12516:	76fd                	lui	a3,0xfffff
   12518:	af468693          	addi	a3,a3,-1292 # ffffeaf4 <__BSS_END__+0xfffd5d60>
   1251c:	96a2                	add	a3,a3,s0
   1251e:	c298                	sw	a4,0(a3)
   12520:	fc040713          	addi	a4,s0,-64
   12524:	006704b3          	add	s1,a4,t1
   12528:	97ba                	add	a5,a5,a4
   1252a:	777d                	lui	a4,0xfffff
   1252c:	af070713          	addi	a4,a4,-1296 # ffffeaf0 <__BSS_END__+0xfffd5d5c>
   12530:	9722                	add	a4,a4,s0
   12532:	01672023          	sw	s6,0(a4)
   12536:	4981                	li	s3,0
   12538:	8b4a                	mv	s6,s2
   1253a:	8926                	mv	s2,s1
   1253c:	84be                	mv	s1,a5
   1253e:	155040ef          	jal	ra,16e92 <__locale_mb_cur_max>
   12542:	e3350ae3          	beq	a0,s3,12376 <__svfscanf_r+0x25c>
   12546:	000ca703          	lw	a4,0(s9)
   1254a:	77fd                	lui	a5,0xfffff
   1254c:	af478793          	addi	a5,a5,-1292 # ffffeaf4 <__BSS_END__+0xfffd5d60>
   12550:	00074583          	lbu	a1,0(a4)
   12554:	0705                	addi	a4,a4,1
   12556:	97a2                	add	a5,a5,s0
   12558:	00eca023          	sw	a4,0(s9)
   1255c:	777d                	lui	a4,0xfffff
   1255e:	004ca683          	lw	a3,4(s9)
   12562:	439c                	lw	a5,0(a5)
   12564:	b0070713          	addi	a4,a4,-1280 # ffffeb00 <__BSS_END__+0xfffd5d6c>
   12568:	9722                	add	a4,a4,s0
   1256a:	4318                	lw	a4,0(a4)
   1256c:	01378633          	add	a2,a5,s3
   12570:	16fd                	addi	a3,a3,-1
   12572:	00dca223          	sw	a3,4(s9)
   12576:	c8b60823          	sb	a1,-880(a2)
   1257a:	468d                	li	a3,3
   1257c:	0985                	addi	s3,s3,1
   1257e:	00d71763          	bne	a4,a3,1258c <__svfscanf_r+0x472>
   12582:	b887a703          	lw	a4,-1144(a5)
   12586:	4791                	li	a5,4
   12588:	00f70763          	beq	a4,a5,12596 <__svfscanf_r+0x47c>
   1258c:	4621                	li	a2,8
   1258e:	4581                	li	a1,0
   12590:	8526                	mv	a0,s1
   12592:	cb9fd0ef          	jal	ra,1024a <memset>
   12596:	8726                	mv	a4,s1
   12598:	86ce                	mv	a3,s3
   1259a:	864a                	mv	a2,s2
   1259c:	85d6                	mv	a1,s5
   1259e:	8562                	mv	a0,s8
   125a0:	094050ef          	jal	ra,17634 <_mbrtowc_r>
   125a4:	777d                	lui	a4,0xfffff
   125a6:	b0070713          	addi	a4,a4,-1280 # ffffeb00 <__BSS_END__+0xfffd5d6c>
   125aa:	9722                	add	a4,a4,s0
   125ac:	c308                	sw	a0,0(a4)
   125ae:	56fd                	li	a3,-1
   125b0:	dcd503e3          	beq	a0,a3,12376 <__svfscanf_r+0x25c>
   125b4:	c119                	beqz	a0,125ba <__svfscanf_r+0x4a0>
   125b6:	6c60106f          	j	13c7c <__svfscanf_r+0x1b62>
   125ba:	77fd                	lui	a5,0xfffff
   125bc:	aec78793          	addi	a5,a5,-1300 # ffffeaec <__BSS_END__+0xfffd5d58>
   125c0:	97a2                	add	a5,a5,s0
   125c2:	000aa023          	sw	zero,0(s5)
   125c6:	0137a023          	sw	s3,0(a5)
   125ca:	03b020ef          	jal	ra,14e04 <iswspace>
   125ce:	c119                	beqz	a0,125d4 <__svfscanf_r+0x4ba>
   125d0:	16f0106f          	j	13f3e <__svfscanf_r+0x1e24>
   125d4:	9bce                	add	s7,s7,s3
   125d6:	1d7d                	addi	s10,s10,-1
   125d8:	000b0463          	beqz	s6,125e0 <__svfscanf_r+0x4c6>
   125dc:	11d0106f          	j	13ef8 <__svfscanf_r+0x1dde>
   125e0:	0a91                	addi	s5,s5,4
   125e2:	000a1463          	bnez	s4,125ea <__svfscanf_r+0x4d0>
   125e6:	1130106f          	j	13ef8 <__svfscanf_r+0x1dde>
   125ea:	77fd                	lui	a5,0xfffff
   125ec:	af878793          	addi	a5,a5,-1288 # ffffeaf8 <__BSS_END__+0xfffd5d64>
   125f0:	97a2                	add	a5,a5,s0
   125f2:	439c                	lw	a5,0(a5)
   125f4:	4981                	li	s3,0
   125f6:	40fa8733          	sub	a4,s5,a5
   125fa:	77fd                	lui	a5,0xfffff
   125fc:	b0878793          	addi	a5,a5,-1272 # ffffeb08 <__BSS_END__+0xfffd5d74>
   12600:	97a2                	add	a5,a5,s0
   12602:	439c                	lw	a5,0(a5)
   12604:	40275693          	srai	a3,a4,0x2
   12608:	00f6e463          	bltu	a3,a5,12610 <__svfscanf_r+0x4f6>
   1260c:	22f0106f          	j	1403a <__svfscanf_r+0x1f20>
   12610:	004ca703          	lw	a4,4(s9)
   12614:	00e04463          	bgtz	a4,1261c <__svfscanf_r+0x502>
   12618:	0ff0106f          	j	13f16 <__svfscanf_r+0x1dfc>
   1261c:	000ca703          	lw	a4,0(s9)
   12620:	00074703          	lbu	a4,0(a4)
   12624:	976e                	add	a4,a4,s11
   12626:	00074703          	lbu	a4,0(a4)
   1262a:	8b21                	andi	a4,a4,8
   1262c:	e319                	bnez	a4,12632 <__svfscanf_r+0x518>
   1262e:	f00d18e3          	bnez	s10,1253e <__svfscanf_r+0x424>
   12632:	77fd                	lui	a5,0xfffff
   12634:	af078793          	addi	a5,a5,-1296 # ffffeaf0 <__BSS_END__+0xfffd5d5c>
   12638:	97a2                	add	a5,a5,s0
   1263a:	895a                	mv	s2,s6
   1263c:	0007ab03          	lw	s6,0(a5)
   12640:	ce0913e3          	bnez	s2,12326 <__svfscanf_r+0x20c>
   12644:	000aa023          	sw	zero,0(s5)
   12648:	020a0563          	beqz	s4,12672 <__svfscanf_r+0x558>
   1264c:	77fd                	lui	a5,0xfffff
   1264e:	af878793          	addi	a5,a5,-1288 # ffffeaf8 <__BSS_END__+0xfffd5d64>
   12652:	97a2                	add	a5,a5,s0
   12654:	439c                	lw	a5,0(a5)
   12656:	40fa85b3          	sub	a1,s5,a5
   1265a:	77fd                	lui	a5,0xfffff
   1265c:	b0878793          	addi	a5,a5,-1272 # ffffeb08 <__BSS_END__+0xfffd5d74>
   12660:	97a2                	add	a5,a5,s0
   12662:	439c                	lw	a5,0(a5)
   12664:	4025d713          	srai	a4,a1,0x2
   12668:	0705                	addi	a4,a4,1
   1266a:	00f77463          	bgeu	a4,a5,12672 <__svfscanf_r+0x558>
   1266e:	0910106f          	j	13efe <__svfscanf_r+0x1de4>
   12672:	77fd                	lui	a5,0xfffff
   12674:	b1878793          	addi	a5,a5,-1256 # ffffeb18 <__BSS_END__+0xfffd5d84>
   12678:	97a2                	add	a5,a5,s0
   1267a:	439c                	lw	a5,0(a5)
   1267c:	777d                	lui	a4,0xfffff
   1267e:	b1870713          	addi	a4,a4,-1256 # ffffeb18 <__BSS_END__+0xfffd5d84>
   12682:	0785                	addi	a5,a5,1
   12684:	9722                	add	a4,a4,s0
   12686:	c31c                	sw	a5,0(a4)
   12688:	b979                	j	12326 <__svfscanf_r+0x20c>
   1268a:	00fa7793          	andi	a5,s4,15
   1268e:	be0794e3          	bnez	a5,12276 <__svfscanf_r+0x15c>
   12692:	001b4603          	lbu	a2,1(s6)
   12696:	002a6a13          	ori	s4,s4,2
   1269a:	8b2e                	mv	s6,a1
   1269c:	be79                	j	1223a <__svfscanf_r+0x120>
   1269e:	00fa7793          	andi	a5,s4,15
   126a2:	d60788e3          	beqz	a5,12412 <__svfscanf_r+0x2f8>
   126a6:	bec1                	j	12276 <__svfscanf_r+0x15c>
   126a8:	200a6a13          	ori	s4,s4,512
   126ac:	676d                	lui	a4,0x1b
   126ae:	8cc70793          	addi	a5,a4,-1844 # 1a8cc <_strtoul_r>
   126b2:	777d                	lui	a4,0xfffff
   126b4:	b0470713          	addi	a4,a4,-1276 # ffffeb04 <__BSS_END__+0xfffd5d70>
   126b8:	9722                	add	a4,a4,s0
   126ba:	c31c                	sw	a5,0(a4)
   126bc:	8b2e                	mv	s6,a1
   126be:	47c1                	li	a5,16
   126c0:	777d                	lui	a4,0xfffff
   126c2:	b0c70713          	addi	a4,a4,-1268 # ffffeb0c <__BSS_END__+0xfffd5d78>
   126c6:	9722                	add	a4,a4,s0
   126c8:	c31c                	sw	a5,0(a4)
   126ca:	004ca703          	lw	a4,4(s9)
   126ce:	490d                	li	s2,3
   126d0:	d4e04be3          	bgtz	a4,12426 <__svfscanf_r+0x30c>
   126d4:	85e6                	mv	a1,s9
   126d6:	8562                	mv	a0,s8
   126d8:	1d0060ef          	jal	ra,188a8 <__srefill_r>
   126dc:	c8051de3          	bnez	a0,12376 <__svfscanf_r+0x25c>
   126e0:	040a7713          	andi	a4,s4,64
   126e4:	d40715e3          	bnez	a4,1242e <__svfscanf_r+0x314>
   126e8:	000ca603          	lw	a2,0(s9)
   126ec:	00064703          	lbu	a4,0(a2)
   126f0:	976e                	add	a4,a4,s11
   126f2:	00074703          	lbu	a4,0(a4)
   126f6:	8b21                	andi	a4,a4,8
   126f8:	ef09                	bnez	a4,12712 <__svfscanf_r+0x5f8>
   126fa:	bb15                	j	1242e <__svfscanf_r+0x314>
   126fc:	0605                	addi	a2,a2,1
   126fe:	00cca023          	sw	a2,0(s9)
   12702:	00064783          	lbu	a5,0(a2)
   12706:	97ee                	add	a5,a5,s11
   12708:	0007c783          	lbu	a5,0(a5)
   1270c:	8ba1                	andi	a5,a5,8
   1270e:	d20780e3          	beqz	a5,1242e <__svfscanf_r+0x314>
   12712:	004ca783          	lw	a5,4(s9)
   12716:	0b85                	addi	s7,s7,1
   12718:	17fd                	addi	a5,a5,-1
   1271a:	00fca223          	sw	a5,4(s9)
   1271e:	fcf04fe3          	bgtz	a5,126fc <__svfscanf_r+0x5e2>
   12722:	85e6                	mv	a1,s9
   12724:	8562                	mv	a0,s8
   12726:	182060ef          	jal	ra,188a8 <__srefill_r>
   1272a:	c40516e3          	bnez	a0,12376 <__svfscanf_r+0x25c>
   1272e:	000ca603          	lw	a2,0(s9)
   12732:	bfc1                	j	12702 <__svfscanf_r+0x5e8>
   12734:	001a6a13          	ori	s4,s4,1
   12738:	040a6a13          	ori	s4,s4,64
   1273c:	8b2e                	mv	s6,a1
   1273e:	4901                	li	s2,0
   12740:	b9f9                	j	1241e <__svfscanf_r+0x304>
   12742:	001a6a13          	ori	s4,s4,1
   12746:	8b2e                	mv	s6,a1
   12748:	4909                	li	s2,2
   1274a:	b9d1                	j	1241e <__svfscanf_r+0x304>
   1274c:	001a6a13          	ori	s4,s4,1
   12750:	676d                	lui	a4,0x1b
   12752:	8cc70793          	addi	a5,a4,-1844 # 1a8cc <_strtoul_r>
   12756:	777d                	lui	a4,0xfffff
   12758:	b0470713          	addi	a4,a4,-1276 # ffffeb04 <__BSS_END__+0xfffd5d70>
   1275c:	9722                	add	a4,a4,s0
   1275e:	c31c                	sw	a5,0(a4)
   12760:	8b2e                	mv	s6,a1
   12762:	47a1                	li	a5,8
   12764:	bfb1                	j	126c0 <__svfscanf_r+0x5a6>
   12766:	001a6a13          	ori	s4,s4,1
   1276a:	6769                	lui	a4,0x1a
   1276c:	8b2e                	mv	s6,a1
   1276e:	3b670793          	addi	a5,a4,950 # 1a3b6 <_strtol_r>
   12772:	777d                	lui	a4,0xfffff
   12774:	b0470713          	addi	a4,a4,-1276 # ffffeb04 <__BSS_END__+0xfffd5d70>
   12778:	9722                	add	a4,a4,s0
   1277a:	c31c                	sw	a5,0(a4)
   1277c:	47a9                	li	a5,10
   1277e:	b789                	j	126c0 <__svfscanf_r+0x5a6>
   12780:	00fa7793          	andi	a5,s4,15
   12784:	ae0799e3          	bnez	a5,12276 <__svfscanf_r+0x15c>
   12788:	001b4603          	lbu	a2,1(s6)
   1278c:	01c61463          	bne	a2,t3,12794 <__svfscanf_r+0x67a>
   12790:	4de0106f          	j	13c6e <__svfscanf_r+0x1b54>
   12794:	004a6a13          	ori	s4,s4,4
   12798:	8b2e                	mv	s6,a1
   1279a:	b445                	j	1223a <__svfscanf_r+0x120>
   1279c:	676d                	lui	a4,0x1b
   1279e:	8b2e                	mv	s6,a1
   127a0:	8cc70793          	addi	a5,a4,-1844 # 1a8cc <_strtoul_r>
   127a4:	b7f9                	j	12772 <__svfscanf_r+0x658>
   127a6:	77fd                	lui	a5,0xfffff
   127a8:	b9078513          	addi	a0,a5,-1136 # ffffeb90 <__BSS_END__+0xfffd5dfc>
   127ac:	fc040793          	addi	a5,s0,-64
   127b0:	953e                	add	a0,a0,a5
   127b2:	288060ef          	jal	ra,18a3a <__sccl>
   127b6:	8b2a                	mv	s6,a0
   127b8:	040a6a13          	ori	s4,s4,64
   127bc:	4905                	li	s2,1
   127be:	b185                	j	1241e <__svfscanf_r+0x304>
   127c0:	6769                	lui	a4,0x1a
   127c2:	3b670793          	addi	a5,a4,950 # 1a3b6 <_strtol_r>
   127c6:	777d                	lui	a4,0xfffff
   127c8:	b0470713          	addi	a4,a4,-1276 # ffffeb04 <__BSS_END__+0xfffd5d70>
   127cc:	9722                	add	a4,a4,s0
   127ce:	c31c                	sw	a5,0(a4)
   127d0:	77fd                	lui	a5,0xfffff
   127d2:	b0c78793          	addi	a5,a5,-1268 # ffffeb0c <__BSS_END__+0xfffd5d78>
   127d6:	97a2                	add	a5,a5,s0
   127d8:	8b2e                	mv	s6,a1
   127da:	0007a023          	sw	zero,0(a5)
   127de:	490d                	li	s2,3
   127e0:	b93d                	j	1241e <__svfscanf_r+0x304>
   127e2:	00fa7793          	andi	a5,s4,15
   127e6:	a80798e3          	bnez	a5,12276 <__svfscanf_r+0x15c>
   127ea:	001b4603          	lbu	a2,1(s6)
   127ee:	00661463          	bne	a2,t1,127f6 <__svfscanf_r+0x6dc>
   127f2:	46e0106f          	j	13c60 <__svfscanf_r+0x1b46>
   127f6:	001a6a13          	ori	s4,s4,1
   127fa:	8b2e                	mv	s6,a1
   127fc:	bc3d                	j	1223a <__svfscanf_r+0x120>
   127fe:	08fa7793          	andi	a5,s4,143
   12802:	a6079ae3          	bnez	a5,12276 <__svfscanf_r+0x15c>
   12806:	77fd                	lui	a5,0xfffff
   12808:	b1c78793          	addi	a5,a5,-1252 # ffffeb1c <__BSS_END__+0xfffd5d88>
   1280c:	97a2                	add	a5,a5,s0
   1280e:	439c                	lw	a5,0(a5)
   12810:	e399                	bnez	a5,12816 <__svfscanf_r+0x6fc>
   12812:	4dc0106f          	j	13cee <__svfscanf_r+0x1bd4>
   12816:	001b4603          	lbu	a2,1(s6)
   1281a:	080a6a13          	ori	s4,s4,128
   1281e:	8b2e                	mv	s6,a1
   12820:	bc29                	j	1223a <__svfscanf_r+0x120>
   12822:	010a7713          	andi	a4,s4,16
   12826:	8b2e                	mv	s6,a1
   12828:	ae071fe3          	bnez	a4,12326 <__svfscanf_r+0x20c>
   1282c:	77fd                	lui	a5,0xfffff
   1282e:	b1078793          	addi	a5,a5,-1264 # ffffeb10 <__BSS_END__+0xfffd5d7c>
   12832:	97a2                	add	a5,a5,s0
   12834:	439c                	lw	a5,0(a5)
   12836:	008a7713          	andi	a4,s4,8
   1283a:	4394                	lw	a3,0(a5)
   1283c:	00478613          	addi	a2,a5,4
   12840:	e319                	bnez	a4,12846 <__svfscanf_r+0x72c>
   12842:	57c0106f          	j	13dbe <__svfscanf_r+0x1ca4>
   12846:	77fd                	lui	a5,0xfffff
   12848:	b1078793          	addi	a5,a5,-1264 # ffffeb10 <__BSS_END__+0xfffd5d7c>
   1284c:	97a2                	add	a5,a5,s0
   1284e:	01768023          	sb	s7,0(a3)
   12852:	c390                	sw	a2,0(a5)
   12854:	bcc9                	j	12326 <__svfscanf_r+0x20c>
   12856:	220a6a13          	ori	s4,s4,544
   1285a:	bd89                	j	126ac <__svfscanf_r+0x592>
   1285c:	014d6d33          	or	s10,s10,s4
   12860:	a00d1be3          	bnez	s10,12276 <__svfscanf_r+0x15c>
   12864:	001b4603          	lbu	a2,1(s6)
   12868:	4a41                	li	s4,16
   1286a:	8b2e                	mv	s6,a1
   1286c:	b2f9                	j	1223a <__svfscanf_r+0x120>
   1286e:	000d1363          	bnez	s10,12874 <__svfscanf_r+0x75a>
   12872:	5d7d                	li	s10,-1
   12874:	76fd                	lui	a3,0xfffff
   12876:	af868693          	addi	a3,a3,-1288 # ffffeaf8 <__BSS_END__+0xfffd5d64>
   1287a:	010a7793          	andi	a5,s4,16
   1287e:	96a2                	add	a3,a3,s0
   12880:	001a7713          	andi	a4,s4,1
   12884:	c29c                	sw	a5,0(a3)
   12886:	360709e3          	beqz	a4,133f8 <__svfscanf_r+0x12de>
   1288a:	c399                	beqz	a5,12890 <__svfscanf_r+0x776>
   1288c:	2dc0106f          	j	13b68 <__svfscanf_r+0x1a4e>
   12890:	77fd                	lui	a5,0xfffff
   12892:	b1078793          	addi	a5,a5,-1264 # ffffeb10 <__BSS_END__+0xfffd5d7c>
   12896:	97a2                	add	a5,a5,s0
   12898:	439c                	lw	a5,0(a5)
   1289a:	76fd                	lui	a3,0xfffff
   1289c:	af468693          	addi	a3,a3,-1292 # ffffeaf4 <__BSS_END__+0xfffd5d60>
   128a0:	4398                	lw	a4,0(a5)
   128a2:	96a2                	add	a3,a3,s0
   128a4:	0791                	addi	a5,a5,4
   128a6:	c298                	sw	a4,0(a3)
   128a8:	76fd                	lui	a3,0xfffff
   128aa:	ae868693          	addi	a3,a3,-1304 # ffffeae8 <__BSS_END__+0xfffd5d54>
   128ae:	96a2                	add	a3,a3,s0
   128b0:	080a7313          	andi	t1,s4,128
   128b4:	c29c                	sw	a5,0(a3)
   128b6:	00031463          	bnez	t1,128be <__svfscanf_r+0x7a4>
   128ba:	4660106f          	j	13d20 <__svfscanf_r+0x1c06>
   128be:	b20705e3          	beqz	a4,123e8 <__svfscanf_r+0x2ce>
   128c2:	08000513          	li	a0,128
   128c6:	7b2040ef          	jal	ra,17078 <malloc>
   128ca:	89aa                	mv	s3,a0
   128cc:	ac0501e3          	beqz	a0,1238e <__svfscanf_r+0x274>
   128d0:	77fd                	lui	a5,0xfffff
   128d2:	b1c78793          	addi	a5,a5,-1252 # ffffeb1c <__BSS_END__+0xfffd5d88>
   128d6:	97a2                	add	a5,a5,s0
   128d8:	76fd                	lui	a3,0xfffff
   128da:	439c                	lw	a5,0(a5)
   128dc:	af468693          	addi	a3,a3,-1292 # ffffeaf4 <__BSS_END__+0xfffd5d60>
   128e0:	96a2                	add	a3,a3,s0
   128e2:	4294                	lw	a3,0(a3)
   128e4:	0067d903          	lhu	s2,6(a5)
   128e8:	0047d703          	lhu	a4,4(a5)
   128ec:	c288                	sw	a0,0(a3)
   128ee:	00e96463          	bltu	s2,a4,128f6 <__svfscanf_r+0x7dc>
   128f2:	0b00106f          	j	139a2 <__svfscanf_r+0x1888>
   128f6:	4388                	lw	a0,0(a5)
   128f8:	77fd                	lui	a5,0xfffff
   128fa:	b1c78793          	addi	a5,a5,-1252 # ffffeb1c <__BSS_END__+0xfffd5d88>
   128fe:	97a2                	add	a5,a5,s0
   12900:	439c                	lw	a5,0(a5)
   12902:	00291713          	slli	a4,s2,0x2
   12906:	0905                	addi	s2,s2,1
   12908:	01279323          	sh	s2,6(a5)
   1290c:	77fd                	lui	a5,0xfffff
   1290e:	af478793          	addi	a5,a5,-1292 # ffffeaf4 <__BSS_END__+0xfffd5d60>
   12912:	97a2                	add	a5,a5,s0
   12914:	439c                	lw	a5,0(a5)
   12916:	953a                	add	a0,a0,a4
   12918:	777d                	lui	a4,0xfffff
   1291a:	c11c                	sw	a5,0(a0)
   1291c:	77fd                	lui	a5,0xfffff
   1291e:	aec78793          	addi	a5,a5,-1300 # ffffeaec <__BSS_END__+0xfffd5d58>
   12922:	97a2                	add	a5,a5,s0
   12924:	af070713          	addi	a4,a4,-1296 # ffffeaf0 <__BSS_END__+0xfffd5d5c>
   12928:	0137a023          	sw	s3,0(a5)
   1292c:	9722                	add	a4,a4,s0
   1292e:	02000793          	li	a5,32
   12932:	c31c                	sw	a5,0(a4)
   12934:	77fd                	lui	a5,0xfffff
   12936:	c9078a13          	addi	s4,a5,-880 # ffffec90 <__BSS_END__+0xfffd5efc>
   1293a:	b8878a93          	addi	s5,a5,-1144
   1293e:	fc040793          	addi	a5,s0,-64
   12942:	9a3e                	add	s4,s4,a5
   12944:	9abe                	add	s5,s5,a5
   12946:	77fd                	lui	a5,0xfffff
   12948:	ae478793          	addi	a5,a5,-1308 # ffffeae4 <__BSS_END__+0xfffd5d50>
   1294c:	97a2                	add	a5,a5,s0
   1294e:	0167a023          	sw	s6,0(a5)
   12952:	77fd                	lui	a5,0xfffff
   12954:	b0078793          	addi	a5,a5,-1280 # ffffeb00 <__BSS_END__+0xfffd5d6c>
   12958:	97a2                	add	a5,a5,s0
   1295a:	8b66                	mv	s6,s9
   1295c:	0007ac83          	lw	s9,0(a5)
   12960:	77fd                	lui	a5,0xfffff
   12962:	afc78793          	addi	a5,a5,-1284 # ffffeafc <__BSS_END__+0xfffd5d68>
   12966:	97a2                	add	a5,a5,s0
   12968:	4384                	lw	s1,0(a5)
   1296a:	4901                	li	s2,0
   1296c:	526040ef          	jal	ra,16e92 <__locale_mb_cur_max>
   12970:	01251463          	bne	a0,s2,12978 <__svfscanf_r+0x85e>
   12974:	1080106f          	j	13a7c <__svfscanf_r+0x1962>
   12978:	000b2703          	lw	a4,0(s6)
   1297c:	004b2683          	lw	a3,4(s6)
   12980:	757d                	lui	a0,0xfffff
   12982:	00074583          	lbu	a1,0(a4)
   12986:	fc050793          	addi	a5,a0,-64 # ffffefc0 <__BSS_END__+0xfffd622c>
   1298a:	97a2                	add	a5,a5,s0
   1298c:	01278633          	add	a2,a5,s2
   12990:	0705                	addi	a4,a4,1
   12992:	16fd                	addi	a3,a3,-1
   12994:	00eb2023          	sw	a4,0(s6)
   12998:	c8b60823          	sb	a1,-880(a2)
   1299c:	00db2223          	sw	a3,4(s6)
   129a0:	470d                	li	a4,3
   129a2:	0905                	addi	s2,s2,1
   129a4:	00ec9963          	bne	s9,a4,129b6 <__svfscanf_r+0x89c>
   129a8:	b4050793          	addi	a5,a0,-1216
   129ac:	97a2                	add	a5,a5,s0
   129ae:	4394                	lw	a3,0(a5)
   129b0:	4711                	li	a4,4
   129b2:	00e68763          	beq	a3,a4,129c0 <__svfscanf_r+0x8a6>
   129b6:	4621                	li	a2,8
   129b8:	4581                	li	a1,0
   129ba:	8526                	mv	a0,s1
   129bc:	88ffd0ef          	jal	ra,1024a <memset>
   129c0:	86ca                	mv	a3,s2
   129c2:	8726                	mv	a4,s1
   129c4:	8652                	mv	a2,s4
   129c6:	85ce                	mv	a1,s3
   129c8:	8562                	mv	a0,s8
   129ca:	46b040ef          	jal	ra,17634 <_mbrtowc_r>
   129ce:	56fd                	li	a3,-1
   129d0:	8caa                	mv	s9,a0
   129d2:	884a                	mv	a6,s2
   129d4:	00d51463          	bne	a0,a3,129dc <__svfscanf_r+0x8c2>
   129d8:	0a40106f          	j	13a7c <__svfscanf_r+0x1962>
   129dc:	720517e3          	bnez	a0,1390a <__svfscanf_r+0x17f0>
   129e0:	0009a023          	sw	zero,0(s3)
   129e4:	4701                	li	a4,0
   129e6:	77fd                	lui	a5,0xfffff
   129e8:	b0878793          	addi	a5,a5,-1272 # ffffeb08 <__BSS_END__+0xfffd5d74>
   129ec:	97a2                	add	a5,a5,s0
   129ee:	0107a023          	sw	a6,0(a5)
   129f2:	77fd                	lui	a5,0xfffff
   129f4:	b1078793          	addi	a5,a5,-1264 # ffffeb10 <__BSS_END__+0xfffd5d7c>
   129f8:	97a2                	add	a5,a5,s0
   129fa:	4621                	li	a2,8
   129fc:	4581                	li	a1,0
   129fe:	8556                	mv	a0,s5
   12a00:	c398                	sw	a4,0(a5)
   12a02:	849fd0ef          	jal	ra,1024a <memset>
   12a06:	c2818693          	addi	a3,gp,-984 # 28720 <__global_locale>
   12a0a:	77fd                	lui	a5,0xfffff
   12a0c:	b7878593          	addi	a1,a5,-1160 # ffffeb78 <__BSS_END__+0xfffd5de4>
   12a10:	b1078793          	addi	a5,a5,-1264
   12a14:	97a2                	add	a5,a5,s0
   12a16:	4398                	lw	a4,0(a5)
   12a18:	0e06a883          	lw	a7,224(a3)
   12a1c:	fc040793          	addi	a5,s0,-64
   12a20:	863a                	mv	a2,a4
   12a22:	86d6                	mv	a3,s5
   12a24:	95be                	add	a1,a1,a5
   12a26:	8562                	mv	a0,s8
   12a28:	9882                	jalr	a7
   12a2a:	77fd                	lui	a5,0xfffff
   12a2c:	b0878793          	addi	a5,a5,-1272 # ffffeb08 <__BSS_END__+0xfffd5d74>
   12a30:	97a2                	add	a5,a5,s0
   12a32:	4685                	li	a3,1
   12a34:	0007a803          	lw	a6,0(a5)
   12a38:	4701                	li	a4,0
   12a3a:	00d51863          	bne	a0,a3,12a4a <__svfscanf_r+0x930>
   12a3e:	fc040793          	addi	a5,s0,-64
   12a42:	777d                	lui	a4,0xfffff
   12a44:	973e                	add	a4,a4,a5
   12a46:	b7874703          	lbu	a4,-1160(a4) # ffffeb78 <__BSS_END__+0xfffd5de4>
   12a4a:	77fd                	lui	a5,0xfffff
   12a4c:	fc078793          	addi	a5,a5,-64 # ffffefc0 <__BSS_END__+0xfffd622c>
   12a50:	97a2                	add	a5,a5,s0
   12a52:	973e                	add	a4,a4,a5
   12a54:	b9074703          	lbu	a4,-1136(a4)
   12a58:	e319                	bnez	a4,12a5e <__svfscanf_r+0x944>
   12a5a:	4560106f          	j	13eb0 <__svfscanf_r+0x1d96>
   12a5e:	470d                	li	a4,3
   12a60:	9bca                	add	s7,s7,s2
   12a62:	68ec8ae3          	beq	s9,a4,138f6 <__svfscanf_r+0x17dc>
   12a66:	1d7d                	addi	s10,s10,-1
   12a68:	77fd                	lui	a5,0xfffff
   12a6a:	af878793          	addi	a5,a5,-1288 # ffffeaf8 <__BSS_END__+0xfffd5d64>
   12a6e:	97a2                	add	a5,a5,s0
   12a70:	439c                	lw	a5,0(a5)
   12a72:	eb95                	bnez	a5,12aa6 <__svfscanf_r+0x98c>
   12a74:	77fd                	lui	a5,0xfffff
   12a76:	af478793          	addi	a5,a5,-1292 # ffffeaf4 <__BSS_END__+0xfffd5d60>
   12a7a:	97a2                	add	a5,a5,s0
   12a7c:	439c                	lw	a5,0(a5)
   12a7e:	0991                	addi	s3,s3,4
   12a80:	c39d                	beqz	a5,12aa6 <__svfscanf_r+0x98c>
   12a82:	77fd                	lui	a5,0xfffff
   12a84:	aec78793          	addi	a5,a5,-1300 # ffffeaec <__BSS_END__+0xfffd5d58>
   12a88:	97a2                	add	a5,a5,s0
   12a8a:	439c                	lw	a5,0(a5)
   12a8c:	40f98933          	sub	s2,s3,a5
   12a90:	77fd                	lui	a5,0xfffff
   12a92:	af078793          	addi	a5,a5,-1296 # ffffeaf0 <__BSS_END__+0xfffd5d5c>
   12a96:	97a2                	add	a5,a5,s0
   12a98:	439c                	lw	a5,0(a5)
   12a9a:	40295713          	srai	a4,s2,0x2
   12a9e:	00f76463          	bltu	a4,a5,12aa6 <__svfscanf_r+0x98c>
   12aa2:	7e10006f          	j	13a82 <__svfscanf_r+0x1968>
   12aa6:	004b2703          	lw	a4,4(s6)
   12aaa:	4901                	li	s2,0
   12aac:	66e058e3          	blez	a4,1391c <__svfscanf_r+0x1802>
   12ab0:	ea0d1ee3          	bnez	s10,1296c <__svfscanf_r+0x852>
   12ab4:	77fd                	lui	a5,0xfffff
   12ab6:	b0078793          	addi	a5,a5,-1280 # ffffeb00 <__BSS_END__+0xfffd5d6c>
   12aba:	97a2                	add	a5,a5,s0
   12abc:	0197a023          	sw	s9,0(a5)
   12ac0:	77fd                	lui	a5,0xfffff
   12ac2:	ae478793          	addi	a5,a5,-1308 # ffffeae4 <__BSS_END__+0xfffd5d50>
   12ac6:	97a2                	add	a5,a5,s0
   12ac8:	8cda                	mv	s9,s6
   12aca:	0007ab03          	lw	s6,0(a5)
   12ace:	77fd                	lui	a5,0xfffff
   12ad0:	af878793          	addi	a5,a5,-1288 # ffffeaf8 <__BSS_END__+0xfffd5d64>
   12ad4:	97a2                	add	a5,a5,s0
   12ad6:	439c                	lw	a5,0(a5)
   12ad8:	e7b9                	bnez	a5,12b26 <__svfscanf_r+0xa0c>
   12ada:	77fd                	lui	a5,0xfffff
   12adc:	af478793          	addi	a5,a5,-1292 # ffffeaf4 <__BSS_END__+0xfffd5d60>
   12ae0:	97a2                	add	a5,a5,s0
   12ae2:	439c                	lw	a5,0(a5)
   12ae4:	0009a023          	sw	zero,0(s3)
   12ae8:	c785                	beqz	a5,12b10 <__svfscanf_r+0x9f6>
   12aea:	77fd                	lui	a5,0xfffff
   12aec:	aec78793          	addi	a5,a5,-1300 # ffffeaec <__BSS_END__+0xfffd5d58>
   12af0:	97a2                	add	a5,a5,s0
   12af2:	439c                	lw	a5,0(a5)
   12af4:	40f985b3          	sub	a1,s3,a5
   12af8:	77fd                	lui	a5,0xfffff
   12afa:	af078793          	addi	a5,a5,-1296 # ffffeaf0 <__BSS_END__+0xfffd5d5c>
   12afe:	97a2                	add	a5,a5,s0
   12b00:	439c                	lw	a5,0(a5)
   12b02:	4025d713          	srai	a4,a1,0x2
   12b06:	0705                	addi	a4,a4,1
   12b08:	00f77463          	bgeu	a4,a5,12b10 <__svfscanf_r+0x9f6>
   12b0c:	4de0106f          	j	13fea <__svfscanf_r+0x1ed0>
   12b10:	77fd                	lui	a5,0xfffff
   12b12:	b1878793          	addi	a5,a5,-1256 # ffffeb18 <__BSS_END__+0xfffd5d84>
   12b16:	97a2                	add	a5,a5,s0
   12b18:	439c                	lw	a5,0(a5)
   12b1a:	777d                	lui	a4,0xfffff
   12b1c:	b1870713          	addi	a4,a4,-1256 # ffffeb18 <__BSS_END__+0xfffd5d84>
   12b20:	0785                	addi	a5,a5,1
   12b22:	9722                	add	a4,a4,s0
   12b24:	c31c                	sw	a5,0(a4)
   12b26:	77fd                	lui	a5,0xfffff
   12b28:	ae878793          	addi	a5,a5,-1304 # ffffeae8 <__BSS_END__+0xfffd5d54>
   12b2c:	af89                	j	1327e <__svfscanf_r+0x1164>
   12b2e:	8562                	mv	a0,s8
   12b30:	302040ef          	jal	ra,16e32 <_localeconv_r>
   12b34:	411c                	lw	a5,0(a0)
   12b36:	76fd                	lui	a3,0xfffff
   12b38:	af868693          	addi	a3,a3,-1288 # ffffeaf8 <__BSS_END__+0xfffd5d64>
   12b3c:	96a2                	add	a3,a3,s0
   12b3e:	c29c                	sw	a5,0(a3)
   12b40:	77fd                	lui	a5,0xfffff
   12b42:	af478793          	addi	a5,a5,-1292 # ffffeaf4 <__BSS_END__+0xfffd5d60>
   12b46:	6605                	lui	a2,0x1
   12b48:	97a2                	add	a5,a5,s0
   12b4a:	fffd0713          	addi	a4,s10,-1
   12b4e:	36c60593          	addi	a1,a2,876 # 136c <register_fini-0xed08>
   12b52:	0007a023          	sw	zero,0(a5)
   12b56:	00e5fe63          	bgeu	a1,a4,12b72 <__svfscanf_r+0xa58>
   12b5a:	77fd                	lui	a5,0xfffff
   12b5c:	c9378713          	addi	a4,a5,-877 # ffffec93 <__BSS_END__+0xfffd5eff>
   12b60:	00ed07b3          	add	a5,s10,a4
   12b64:	777d                	lui	a4,0xfffff
   12b66:	af470713          	addi	a4,a4,-1292 # ffffeaf4 <__BSS_END__+0xfffd5d60>
   12b6a:	9722                	add	a4,a4,s0
   12b6c:	c31c                	sw	a5,0(a4)
   12b6e:	36d60d13          	addi	s10,a2,877
   12b72:	77fd                	lui	a5,0xfffff
   12b74:	c9078e13          	addi	t3,a5,-880 # ffffec90 <__BSS_END__+0xfffd5efc>
   12b78:	aec78793          	addi	a5,a5,-1300
   12b7c:	97a2                	add	a5,a5,s0
   12b7e:	0007a023          	sw	zero,0(a5)
   12b82:	77fd                	lui	a5,0xfffff
   12b84:	af078793          	addi	a5,a5,-1296 # ffffeaf0 <__BSS_END__+0xfffd5d5c>
   12b88:	97a2                	add	a5,a5,s0
   12b8a:	0007a023          	sw	zero,0(a5)
   12b8e:	77fd                	lui	a5,0xfffff
   12b90:	b0878793          	addi	a5,a5,-1272 # ffffeb08 <__BSS_END__+0xfffd5d74>
   12b94:	97a2                	add	a5,a5,s0
   12b96:	0007a023          	sw	zero,0(a5)
   12b9a:	fc040793          	addi	a5,s0,-64
   12b9e:	4901                	li	s2,0
   12ba0:	01c78ab3          	add	s5,a5,t3
   12ba4:	00026eb7          	lui	t4,0x26
   12ba8:	87e2                	mv	a5,s8
   12baa:	780a6993          	ori	s3,s4,1920
   12bae:	8c4a                	mv	s8,s2
   12bb0:	4a01                	li	s4,0
   12bb2:	8926                	mv	s2,s1
   12bb4:	04e00613          	li	a2,78
   12bb8:	84ea                	mv	s1,s10
   12bba:	fb4e8e93          	addi	t4,t4,-76 # 25fb4 <zeroes.0+0x170>
   12bbe:	8d3e                	mv	s10,a5
   12bc0:	000ca703          	lw	a4,0(s9)
   12bc4:	00074683          	lbu	a3,0(a4)
   12bc8:	fd568793          	addi	a5,a3,-43
   12bcc:	0ff7f793          	andi	a5,a5,255
   12bd0:	00f66663          	bltu	a2,a5,12bdc <__svfscanf_r+0xac2>
   12bd4:	078a                	slli	a5,a5,0x2
   12bd6:	97f6                	add	a5,a5,t4
   12bd8:	439c                	lw	a5,0(a5)
   12bda:	8782                	jr	a5
   12bdc:	77fd                	lui	a5,0xfffff
   12bde:	af878793          	addi	a5,a5,-1288 # ffffeaf8 <__BSS_END__+0xfffd5d64>
   12be2:	97a2                	add	a5,a5,s0
   12be4:	439c                	lw	a5,0(a5)
   12be6:	0007c783          	lbu	a5,0(a5)
   12bea:	02d79d63          	bne	a5,a3,12c24 <__svfscanf_r+0xb0a>
   12bee:	2009f793          	andi	a5,s3,512
   12bf2:	cb8d                	beqz	a5,12c24 <__svfscanf_r+0xb0a>
   12bf4:	77fd                	lui	a5,0xfffff
   12bf6:	b0878793          	addi	a5,a5,-1272 # ffffeb08 <__BSS_END__+0xfffd5d74>
   12bfa:	97a2                	add	a5,a5,s0
   12bfc:	d7f9f993          	andi	s3,s3,-641
   12c00:	0187a023          	sw	s8,0(a5)
   12c04:	00da8023          	sb	a3,0(s5)
   12c08:	14fd                	addi	s1,s1,-1
   12c0a:	0a85                	addi	s5,s5,1
   12c0c:	004ca783          	lw	a5,4(s9)
   12c10:	0b85                	addi	s7,s7,1
   12c12:	17fd                	addi	a5,a5,-1
   12c14:	00fca223          	sw	a5,4(s9)
   12c18:	22f05663          	blez	a5,12e44 <__svfscanf_r+0xd2a>
   12c1c:	0705                	addi	a4,a4,1
   12c1e:	00eca023          	sw	a4,0(s9)
   12c22:	fcd9                	bnez	s1,12bc0 <__svfscanf_r+0xaa6>
   12c24:	84ca                	mv	s1,s2
   12c26:	8962                	mv	s2,s8
   12c28:	8c6a                	mv	s8,s10
   12c2a:	06090b63          	beqz	s2,12ca0 <__svfscanf_r+0xb86>
   12c2e:	eff9f993          	andi	s3,s3,-257
   12c32:	a0bd                	j	12ca0 <__svfscanf_r+0xb86>
   12c34:	012a07b3          	add	a5,s4,s2
   12c38:	f7f5                	bnez	a5,12c24 <__svfscanf_r+0xb0a>
   12c3a:	e7f9f993          	andi	s3,s3,-385
   12c3e:	b7d9                	j	12c04 <__svfscanf_r+0xaea>
   12c40:	4785                	li	a5,1
   12c42:	fefa11e3          	bne	s4,a5,12c24 <__svfscanf_r+0xb0a>
   12c46:	4a09                	li	s4,2
   12c48:	bf75                	j	12c04 <__svfscanf_r+0xaea>
   12c4a:	0809f793          	andi	a5,s3,128
   12c4e:	dbf9                	beqz	a5,12c24 <__svfscanf_r+0xb0a>
   12c50:	f7f9f993          	andi	s3,s3,-129
   12c54:	bf45                	j	12c04 <__svfscanf_r+0xaea>
   12c56:	6a0a1863          	bnez	s4,13306 <__svfscanf_r+0x11ec>
   12c5a:	000c1a63          	bnez	s8,12c6e <__svfscanf_r+0xb54>
   12c5e:	7009f793          	andi	a5,s3,1792
   12c62:	70000593          	li	a1,1792
   12c66:	00b79463          	bne	a5,a1,12c6e <__svfscanf_r+0xb54>
   12c6a:	0ac0106f          	j	13d16 <__svfscanf_r+0x1bfc>
   12c6e:	4785                	li	a5,1
   12c70:	00f90563          	beq	s2,a5,12c7a <__svfscanf_r+0xb60>
   12c74:	4791                	li	a5,4
   12c76:	faf917e3          	bne	s2,a5,12c24 <__svfscanf_r+0xb0a>
   12c7a:	0905                	addi	s2,s2,1
   12c7c:	0ff97913          	andi	s2,s2,255
   12c80:	b751                	j	12c04 <__svfscanf_r+0xaea>
   12c82:	66091663          	bnez	s2,132ee <__svfscanf_r+0x11d4>
   12c86:	1c0c1ae3          	bnez	s8,1365a <__svfscanf_r+0x1540>
   12c8a:	7009f793          	andi	a5,s3,1792
   12c8e:	70000593          	li	a1,1792
   12c92:	00b79463          	bne	a5,a1,12c9a <__svfscanf_r+0xb80>
   12c96:	0760106f          	j	13d0c <__svfscanf_r+0x1bf2>
   12c9a:	84ca                	mv	s1,s2
   12c9c:	8962                	mv	s2,s8
   12c9e:	8c6a                	mv	s8,s10
   12ca0:	fffa0f13          	addi	t5,s4,-1
   12ca4:	4705                	li	a4,1
   12ca6:	01e76463          	bltu	a4,t5,12cae <__svfscanf_r+0xb94>
   12caa:	35e0106f          	j	14008 <__svfscanf_r+0x1eee>
   12cae:	fff48713          	addi	a4,s1,-1
   12cb2:	4619                	li	a2,6
   12cb4:	24e674e3          	bgeu	a2,a4,136fc <__svfscanf_r+0x15e2>
   12cb8:	1009f713          	andi	a4,s3,256
   12cbc:	cb15                	beqz	a4,12cf0 <__svfscanf_r+0xbd6>
   12cbe:	4009f713          	andi	a4,s3,1024
   12cc2:	c319                	beqz	a4,12cc8 <__svfscanf_r+0xbae>
   12cc4:	3e80106f          	j	140ac <__svfscanf_r+0x1f92>
   12cc8:	fffac583          	lbu	a1,-1(s5)
   12ccc:	06500713          	li	a4,101
   12cd0:	fffa8493          	addi	s1,s5,-1
   12cd4:	fffb8a13          	addi	s4,s7,-1
   12cd8:	00e58663          	beq	a1,a4,12ce4 <__svfscanf_r+0xbca>
   12cdc:	04500713          	li	a4,69
   12ce0:	2ce59ce3          	bne	a1,a4,137b8 <__svfscanf_r+0x169e>
   12ce4:	8666                	mv	a2,s9
   12ce6:	8562                	mv	a0,s8
   12ce8:	161090ef          	jal	ra,1c648 <_ungetc_r>
   12cec:	8bd2                	mv	s7,s4
   12cee:	8aa6                	mv	s5,s1
   12cf0:	0109f713          	andi	a4,s3,16
   12cf4:	e2071963          	bnez	a4,12326 <__svfscanf_r+0x20c>
   12cf8:	000a8023          	sb	zero,0(s5)
   12cfc:	6009f713          	andi	a4,s3,1536
   12d00:	40000693          	li	a3,1024
   12d04:	77fd                	lui	a5,0xfffff
   12d06:	5ed702e3          	beq	a4,a3,13aea <__svfscanf_r+0x19d0>
   12d0a:	af078793          	addi	a5,a5,-1296 # ffffeaf0 <__BSS_END__+0xfffd5d5c>
   12d0e:	97a2                	add	a5,a5,s0
   12d10:	439c                	lw	a5,0(a5)
   12d12:	500797e3          	bnez	a5,13a20 <__svfscanf_r+0x1906>
   12d16:	77fd                	lui	a5,0xfffff
   12d18:	b1078793          	addi	a5,a5,-1264 # ffffeb10 <__BSS_END__+0xfffd5d7c>
   12d1c:	97a2                	add	a5,a5,s0
   12d1e:	439c                	lw	a5,0(a5)
   12d20:	0029f713          	andi	a4,s3,2
   12d24:	0019f993          	andi	s3,s3,1
   12d28:	00478913          	addi	s2,a5,4
   12d2c:	200704e3          	beqz	a4,13734 <__svfscanf_r+0x161a>
   12d30:	74fd                	lui	s1,0xfffff
   12d32:	fc040793          	addi	a5,s0,-64
   12d36:	b6048513          	addi	a0,s1,-1184 # ffffeb60 <__BSS_END__+0xfffd5dcc>
   12d3a:	c9048613          	addi	a2,s1,-880
   12d3e:	963e                	add	a2,a2,a5
   12d40:	953e                	add	a0,a0,a5
   12d42:	4681                	li	a3,0
   12d44:	85e2                	mv	a1,s8
   12d46:	27c070ef          	jal	ra,19fc2 <_strtold_r>
   12d4a:	fc040793          	addi	a5,s0,-64
   12d4e:	00978733          	add	a4,a5,s1
   12d52:	b6072503          	lw	a0,-1184(a4)
   12d56:	b6472583          	lw	a1,-1180(a4)
   12d5a:	b6872603          	lw	a2,-1176(a4)
   12d5e:	b6c72683          	lw	a3,-1172(a4)
   12d62:	480986e3          	beqz	s3,139ee <__svfscanf_r+0x18d4>
   12d66:	4a01                	li	s4,0
   12d68:	4481                	li	s1,0
   12d6a:	77fd                	lui	a5,0xfffff
   12d6c:	b1078793          	addi	a5,a5,-1264 # ffffeb10 <__BSS_END__+0xfffd5d7c>
   12d70:	97a2                	add	a5,a5,s0
   12d72:	439c                	lw	a5,0(a5)
   12d74:	4398                	lw	a4,0(a5)
   12d76:	01472023          	sw	s4,0(a4)
   12d7a:	c344                	sw	s1,4(a4)
   12d7c:	77fd                	lui	a5,0xfffff
   12d7e:	b1878793          	addi	a5,a5,-1256 # ffffeb18 <__BSS_END__+0xfffd5d84>
   12d82:	97a2                	add	a5,a5,s0
   12d84:	439c                	lw	a5,0(a5)
   12d86:	777d                	lui	a4,0xfffff
   12d88:	b1870713          	addi	a4,a4,-1256 # ffffeb18 <__BSS_END__+0xfffd5d84>
   12d8c:	0785                	addi	a5,a5,1
   12d8e:	9722                	add	a4,a4,s0
   12d90:	c31c                	sw	a5,0(a4)
   12d92:	77fd                	lui	a5,0xfffff
   12d94:	b1078793          	addi	a5,a5,-1264 # ffffeb10 <__BSS_END__+0xfffd5d7c>
   12d98:	000b4703          	lbu	a4,0(s6)
   12d9c:	97a2                	add	a5,a5,s0
   12d9e:	0127a023          	sw	s2,0(a5)
   12da2:	76fd                	lui	a3,0xfffff
   12da4:	fc040793          	addi	a5,s0,-64
   12da8:	96be                	add	a3,a3,a5
   12daa:	b6e6ae23          	sw	a4,-1156(a3) # ffffeb7c <__BSS_END__+0xfffd5de8>
   12dae:	0b05                	addi	s6,s6,1
   12db0:	c6071063          	bnez	a4,12210 <__svfscanf_r+0xf6>
   12db4:	cc2ff06f          	j	12276 <__svfscanf_r+0x15c>
   12db8:	4789                	li	a5,2
   12dba:	e6f915e3          	bne	s2,a5,12c24 <__svfscanf_r+0xb0a>
   12dbe:	490d                	li	s2,3
   12dc0:	b591                	j	12c04 <__svfscanf_r+0xaea>
   12dc2:	5009f793          	andi	a5,s3,1280
   12dc6:	40000593          	li	a1,1024
   12dca:	00b78863          	beq	a5,a1,12dda <__svfscanf_r+0xcc0>
   12dce:	4009f793          	andi	a5,s3,1024
   12dd2:	e40789e3          	beqz	a5,12c24 <__svfscanf_r+0xb0a>
   12dd6:	ec0c02e3          	beqz	s8,12c9a <__svfscanf_r+0xb80>
   12dda:	2009f793          	andi	a5,s3,512
   12dde:	e39d                	bnez	a5,12e04 <__svfscanf_r+0xcea>
   12de0:	77fd                	lui	a5,0xfffff
   12de2:	b0878793          	addi	a5,a5,-1272 # ffffeb08 <__BSS_END__+0xfffd5d74>
   12de6:	97a2                	add	a5,a5,s0
   12de8:	439c                	lw	a5,0(a5)
   12dea:	75fd                	lui	a1,0xfffff
   12dec:	af058593          	addi	a1,a1,-1296 # ffffeaf0 <__BSS_END__+0xfffd5d5c>
   12df0:	40fc07b3          	sub	a5,s8,a5
   12df4:	95a2                	add	a1,a1,s0
   12df6:	c19c                	sw	a5,0(a1)
   12df8:	77fd                	lui	a5,0xfffff
   12dfa:	aec78793          	addi	a5,a5,-1300 # ffffeaec <__BSS_END__+0xfffd5d58>
   12dfe:	97a2                	add	a5,a5,s0
   12e00:	0157a023          	sw	s5,0(a5)
   12e04:	87f9f993          	andi	s3,s3,-1921
   12e08:	1809e993          	ori	s3,s3,384
   12e0c:	4c01                	li	s8,0
   12e0e:	bbdd                	j	12c04 <__svfscanf_r+0xaea>
   12e10:	479d                	li	a5,7
   12e12:	e0f919e3          	bne	s2,a5,12c24 <__svfscanf_r+0xb0a>
   12e16:	4921                	li	s2,8
   12e18:	b3f5                	j	12c04 <__svfscanf_r+0xaea>
   12e1a:	4799                	li	a5,6
   12e1c:	e0f914e3          	bne	s2,a5,12c24 <__svfscanf_r+0xb0a>
   12e20:	491d                	li	s2,7
   12e22:	b3cd                	j	12c04 <__svfscanf_r+0xaea>
   12e24:	1009f793          	andi	a5,s3,256
   12e28:	e00786e3          	beqz	a5,12c34 <__svfscanf_r+0xb1a>
   12e2c:	77fd                	lui	a5,0xfffff
   12e2e:	af478793          	addi	a5,a5,-1292 # ffffeaf4 <__BSS_END__+0xfffd5d60>
   12e32:	97a2                	add	a5,a5,s0
   12e34:	439c                	lw	a5,0(a5)
   12e36:	f7f9f993          	andi	s3,s3,-129
   12e3a:	0c05                	addi	s8,s8,1
   12e3c:	020796e3          	bnez	a5,13668 <__svfscanf_r+0x154e>
   12e40:	14fd                	addi	s1,s1,-1
   12e42:	b3e9                	j	12c0c <__svfscanf_r+0xaf2>
   12e44:	85e6                	mv	a1,s9
   12e46:	856a                	mv	a0,s10
   12e48:	261050ef          	jal	ra,188a8 <__srefill_r>
   12e4c:	000267b7          	lui	a5,0x26
   12e50:	04e00613          	li	a2,78
   12e54:	fb478e93          	addi	t4,a5,-76 # 25fb4 <zeroes.0+0x170>
   12e58:	dc0516e3          	bnez	a0,12c24 <__svfscanf_r+0xb0a>
   12e5c:	d60492e3          	bnez	s1,12bc0 <__svfscanf_r+0xaa6>
   12e60:	b3d1                	j	12c24 <__svfscanf_r+0xb0a>
   12e62:	77fd                	lui	a5,0xfffff
   12e64:	af878793          	addi	a5,a5,-1288 # ffffeaf8 <__BSS_END__+0xfffd5d64>
   12e68:	6685                	lui	a3,0x1
   12e6a:	97a2                	add	a5,a5,s0
   12e6c:	fffd0713          	addi	a4,s10,-1
   12e70:	36c68613          	addi	a2,a3,876 # 136c <register_fini-0xed08>
   12e74:	0007a023          	sw	zero,0(a5)
   12e78:	00e67e63          	bgeu	a2,a4,12e94 <__svfscanf_r+0xd7a>
   12e7c:	77fd                	lui	a5,0xfffff
   12e7e:	777d                	lui	a4,0xfffff
   12e80:	c9378993          	addi	s3,a5,-877 # ffffec93 <__BSS_END__+0xfffd5eff>
   12e84:	af870713          	addi	a4,a4,-1288 # ffffeaf8 <__BSS_END__+0xfffd5d64>
   12e88:	013d07b3          	add	a5,s10,s3
   12e8c:	9722                	add	a4,a4,s0
   12e8e:	c31c                	sw	a5,0(a4)
   12e90:	36d68d13          	addi	s10,a3,877
   12e94:	777d                	lui	a4,0xfffff
   12e96:	c9070493          	addi	s1,a4,-880 # ffffec90 <__BSS_END__+0xfffd5efc>
   12e9a:	47f70693          	addi	a3,a4,1151
   12e9e:	00026737          	lui	a4,0x26
   12ea2:	6905                	lui	s2,0x1
   12ea4:	22870993          	addi	s3,a4,552 # 26228 <basefix.0>
   12ea8:	777d                	lui	a4,0xfffff
   12eaa:	d8090a93          	addi	s5,s2,-640 # d80 <register_fini-0xf2f4>
   12eae:	fc040793          	addi	a5,s0,-64
   12eb2:	b0c70713          	addi	a4,a4,-1268 # ffffeb0c <__BSS_END__+0xfffd5d78>
   12eb6:	94be                	add	s1,s1,a5
   12eb8:	015a6ab3          	or	s5,s4,s5
   12ebc:	9722                	add	a4,a4,s0
   12ebe:	4a01                	li	s4,0
   12ec0:	885a                	mv	a6,s6
   12ec2:	8b52                	mv	s6,s4
   12ec4:	8a26                	mv	s4,s1
   12ec6:	84ea                	mv	s1,s10
   12ec8:	00072d03          	lw	s10,0(a4)
   12ecc:	000267b7          	lui	a5,0x26
   12ed0:	0f078793          	addi	a5,a5,240 # 260f0 <zeroes.0+0x2ac>
   12ed4:	80090913          	addi	s2,s2,-2048
   12ed8:	000ca603          	lw	a2,0(s9)
   12edc:	04d00513          	li	a0,77
   12ee0:	00064583          	lbu	a1,0(a2)
   12ee4:	fd558713          	addi	a4,a1,-43
   12ee8:	0ff77713          	andi	a4,a4,255
   12eec:	02e56a63          	bltu	a0,a4,12f20 <__svfscanf_r+0xe06>
   12ef0:	070a                	slli	a4,a4,0x2
   12ef2:	973e                	add	a4,a4,a5
   12ef4:	4318                	lw	a4,0(a4)
   12ef6:	8702                	jr	a4
   12ef8:	4729                	li	a4,10
   12efa:	03a75363          	bge	a4,s10,12f20 <__svfscanf_r+0xe06>
   12efe:	00dafab3          	and	s5,s5,a3
   12f02:	00ba0023          	sb	a1,0(s4)
   12f06:	0a05                	addi	s4,s4,1
   12f08:	004ca703          	lw	a4,4(s9)
   12f0c:	177d                	addi	a4,a4,-1
   12f0e:	00eca223          	sw	a4,4(s9)
   12f12:	10e05a63          	blez	a4,13026 <__svfscanf_r+0xf0c>
   12f16:	0605                	addi	a2,a2,1
   12f18:	00cca023          	sw	a2,0(s9)
   12f1c:	14fd                	addi	s1,s1,-1
   12f1e:	fccd                	bnez	s1,12ed8 <__svfscanf_r+0xdbe>
   12f20:	77fd                	lui	a5,0xfffff
   12f22:	b0c78793          	addi	a5,a5,-1268 # ffffeb0c <__BSS_END__+0xfffd5d78>
   12f26:	97a2                	add	a5,a5,s0
   12f28:	01a7a023          	sw	s10,0(a5)
   12f2c:	100af713          	andi	a4,s5,256
   12f30:	84d2                	mv	s1,s4
   12f32:	8a5a                	mv	s4,s6
   12f34:	8b42                	mv	s6,a6
   12f36:	c30d                	beqz	a4,12f58 <__svfscanf_r+0xe3e>
   12f38:	77fd                	lui	a5,0xfffff
   12f3a:	c9078713          	addi	a4,a5,-880 # ffffec90 <__BSS_END__+0xfffd5efc>
   12f3e:	fc040793          	addi	a5,s0,-64
   12f42:	973e                	add	a4,a4,a5
   12f44:	38976ae3          	bltu	a4,s1,13ad8 <__svfscanf_r+0x19be>
   12f48:	77fd                	lui	a5,0xfffff
   12f4a:	c9078713          	addi	a4,a5,-880 # ffffec90 <__BSS_END__+0xfffd5efc>
   12f4e:	fc040793          	addi	a5,s0,-64
   12f52:	973e                	add	a4,a4,a5
   12f54:	b2e48163          	beq	s1,a4,12276 <__svfscanf_r+0x15c>
   12f58:	010af713          	andi	a4,s5,16
   12f5c:	36071263          	bnez	a4,132c0 <__svfscanf_r+0x11a6>
   12f60:	77fd                	lui	a5,0xfffff
   12f62:	c9078913          	addi	s2,a5,-880 # ffffec90 <__BSS_END__+0xfffd5efc>
   12f66:	fc040793          	addi	a5,s0,-64
   12f6a:	993e                	add	s2,s2,a5
   12f6c:	77fd                	lui	a5,0xfffff
   12f6e:	b0c78793          	addi	a5,a5,-1268 # ffffeb0c <__BSS_END__+0xfffd5d78>
   12f72:	97a2                	add	a5,a5,s0
   12f74:	4394                	lw	a3,0(a5)
   12f76:	77fd                	lui	a5,0xfffff
   12f78:	b0478793          	addi	a5,a5,-1276 # ffffeb04 <__BSS_END__+0xfffd5d70>
   12f7c:	97a2                	add	a5,a5,s0
   12f7e:	439c                	lw	a5,0(a5)
   12f80:	4601                	li	a2,0
   12f82:	85ca                	mv	a1,s2
   12f84:	8562                	mv	a0,s8
   12f86:	00048023          	sb	zero,0(s1)
   12f8a:	9782                	jalr	a5
   12f8c:	77fd                	lui	a5,0xfffff
   12f8e:	b1078793          	addi	a5,a5,-1264 # ffffeb10 <__BSS_END__+0xfffd5d7c>
   12f92:	97a2                	add	a5,a5,s0
   12f94:	439c                	lw	a5,0(a5)
   12f96:	020af713          	andi	a4,s5,32
   12f9a:	00478993          	addi	s3,a5,4
   12f9e:	2e071e63          	bnez	a4,1329a <__svfscanf_r+0x1180>
   12fa2:	008af713          	andi	a4,s5,8
   12fa6:	22071be3          	bnez	a4,139dc <__svfscanf_r+0x18c2>
   12faa:	004af713          	andi	a4,s5,4
   12fae:	6a0709e3          	beqz	a4,13e60 <__svfscanf_r+0x1d46>
   12fb2:	77fd                	lui	a5,0xfffff
   12fb4:	b1078793          	addi	a5,a5,-1264 # ffffeb10 <__BSS_END__+0xfffd5d7c>
   12fb8:	97a2                	add	a5,a5,s0
   12fba:	439c                	lw	a5,0(a5)
   12fbc:	4398                	lw	a4,0(a5)
   12fbe:	00a71023          	sh	a0,0(a4)
   12fc2:	acf1                	j	1329e <__svfscanf_r+0x1184>
   12fc4:	0d06                	slli	s10,s10,0x1
   12fc6:	9d4e                	add	s10,s10,s3
   12fc8:	000d1d03          	lh	s10,0(s10)
   12fcc:	00dafab3          	and	s5,s5,a3
   12fd0:	bf0d                	j	12f02 <__svfscanf_r+0xde8>
   12fd2:	600af713          	andi	a4,s5,1536
   12fd6:	20000513          	li	a0,512
   12fda:	f4a713e3          	bne	a4,a0,12f20 <__svfscanf_r+0xe06>
   12fde:	dffafa93          	andi	s5,s5,-513
   12fe2:	500aea93          	ori	s5,s5,1280
   12fe6:	4d41                	li	s10,16
   12fe8:	bf29                	j	12f02 <__svfscanf_r+0xde8>
   12fea:	080af713          	andi	a4,s5,128
   12fee:	db0d                	beqz	a4,12f20 <__svfscanf_r+0xe06>
   12ff0:	f7fafa93          	andi	s5,s5,-129
   12ff4:	b739                	j	12f02 <__svfscanf_r+0xde8>
   12ff6:	0d06                	slli	s10,s10,0x1
   12ff8:	9d4e                	add	s10,s10,s3
   12ffa:	000d1d03          	lh	s10,0(s10)
   12ffe:	4721                	li	a4,8
   13000:	efa74fe3          	blt	a4,s10,12efe <__svfscanf_r+0xde4>
   13004:	bf31                	j	12f20 <__svfscanf_r+0xe06>
   13006:	012af733          	and	a4,s5,s2
   1300a:	ee070ce3          	beqz	a4,12f02 <__svfscanf_r+0xde8>
   1300e:	000d1563          	bnez	s10,13018 <__svfscanf_r+0xefe>
   13012:	200aea93          	ori	s5,s5,512
   13016:	4d21                	li	s10,8
   13018:	400af713          	andi	a4,s5,1024
   1301c:	6a070e63          	beqz	a4,136d8 <__svfscanf_r+0x15be>
   13020:	a7fafa93          	andi	s5,s5,-1409
   13024:	bdf9                	j	12f02 <__svfscanf_r+0xde8>
   13026:	777d                	lui	a4,0xfffff
   13028:	b0870713          	addi	a4,a4,-1272 # ffffeb08 <__BSS_END__+0xfffd5d74>
   1302c:	9722                	add	a4,a4,s0
   1302e:	c31c                	sw	a5,0(a4)
   13030:	77fd                	lui	a5,0xfffff
   13032:	b0c78793          	addi	a5,a5,-1268 # ffffeb0c <__BSS_END__+0xfffd5d78>
   13036:	97a2                	add	a5,a5,s0
   13038:	85e6                	mv	a1,s9
   1303a:	8562                	mv	a0,s8
   1303c:	0107a023          	sw	a6,0(a5)
   13040:	069050ef          	jal	ra,188a8 <__srefill_r>
   13044:	77fd                	lui	a5,0xfffff
   13046:	47f78693          	addi	a3,a5,1151 # fffff47f <__BSS_END__+0xfffd66eb>
   1304a:	b0c78793          	addi	a5,a5,-1268
   1304e:	97a2                	add	a5,a5,s0
   13050:	0007a803          	lw	a6,0(a5)
   13054:	77fd                	lui	a5,0xfffff
   13056:	b0878793          	addi	a5,a5,-1272 # ffffeb08 <__BSS_END__+0xfffd5d74>
   1305a:	97a2                	add	a5,a5,s0
   1305c:	439c                	lw	a5,0(a5)
   1305e:	ea050fe3          	beqz	a0,12f1c <__svfscanf_r+0xe02>
   13062:	bd7d                	j	12f20 <__svfscanf_r+0xe06>
   13064:	84ea                	mv	s1,s10
   13066:	000d1363          	bnez	s10,1306c <__svfscanf_r+0xf52>
   1306a:	4485                	li	s1,1
   1306c:	76fd                	lui	a3,0xfffff
   1306e:	b0868693          	addi	a3,a3,-1272 # ffffeb08 <__BSS_END__+0xfffd5d74>
   13072:	010a7793          	andi	a5,s4,16
   13076:	96a2                	add	a3,a3,s0
   13078:	001a7713          	andi	a4,s4,1
   1307c:	c29c                	sw	a5,0(a3)
   1307e:	28070963          	beqz	a4,13310 <__svfscanf_r+0x11f6>
   13082:	26079ee3          	bnez	a5,13afe <__svfscanf_r+0x19e4>
   13086:	77fd                	lui	a5,0xfffff
   13088:	b1078793          	addi	a5,a5,-1264 # ffffeb10 <__BSS_END__+0xfffd5d7c>
   1308c:	97a2                	add	a5,a5,s0
   1308e:	439c                	lw	a5,0(a5)
   13090:	76fd                	lui	a3,0xfffff
   13092:	b1068693          	addi	a3,a3,-1264 # ffffeb10 <__BSS_END__+0xfffd5d7c>
   13096:	4398                	lw	a4,0(a5)
   13098:	96a2                	add	a3,a3,s0
   1309a:	0791                	addi	a5,a5,4
   1309c:	c298                	sw	a4,0(a3)
   1309e:	76fd                	lui	a3,0xfffff
   130a0:	aec68693          	addi	a3,a3,-1300 # ffffeaec <__BSS_END__+0xfffd5d58>
   130a4:	96a2                	add	a3,a3,s0
   130a6:	080a7313          	andi	t1,s4,128
   130aa:	c29c                	sw	a5,0(a3)
   130ac:	4a0309e3          	beqz	t1,13d5e <__svfscanf_r+0x1c44>
   130b0:	b2070c63          	beqz	a4,123e8 <__svfscanf_r+0x2ce>
   130b4:	08000513          	li	a0,128
   130b8:	7c1030ef          	jal	ra,17078 <malloc>
   130bc:	892a                	mv	s2,a0
   130be:	ac050863          	beqz	a0,1238e <__svfscanf_r+0x274>
   130c2:	77fd                	lui	a5,0xfffff
   130c4:	b1c78793          	addi	a5,a5,-1252 # ffffeb1c <__BSS_END__+0xfffd5d88>
   130c8:	97a2                	add	a5,a5,s0
   130ca:	76fd                	lui	a3,0xfffff
   130cc:	439c                	lw	a5,0(a5)
   130ce:	b1068693          	addi	a3,a3,-1264 # ffffeb10 <__BSS_END__+0xfffd5d7c>
   130d2:	96a2                	add	a3,a3,s0
   130d4:	4294                	lw	a3,0(a3)
   130d6:	0067d983          	lhu	s3,6(a5)
   130da:	0047d703          	lhu	a4,4(a5)
   130de:	c288                	sw	a0,0(a3)
   130e0:	7ce9fb63          	bgeu	s3,a4,138b6 <__svfscanf_r+0x179c>
   130e4:	4388                	lw	a0,0(a5)
   130e6:	77fd                	lui	a5,0xfffff
   130e8:	b1c78793          	addi	a5,a5,-1252 # ffffeb1c <__BSS_END__+0xfffd5d88>
   130ec:	97a2                	add	a5,a5,s0
   130ee:	439c                	lw	a5,0(a5)
   130f0:	00299713          	slli	a4,s3,0x2
   130f4:	0985                	addi	s3,s3,1
   130f6:	01379323          	sh	s3,6(a5)
   130fa:	77fd                	lui	a5,0xfffff
   130fc:	b1078793          	addi	a5,a5,-1264 # ffffeb10 <__BSS_END__+0xfffd5d7c>
   13100:	97a2                	add	a5,a5,s0
   13102:	439c                	lw	a5,0(a5)
   13104:	953a                	add	a0,a0,a4
   13106:	777d                	lui	a4,0xfffff
   13108:	c11c                	sw	a5,0(a0)
   1310a:	77fd                	lui	a5,0xfffff
   1310c:	af478793          	addi	a5,a5,-1292 # ffffeaf4 <__BSS_END__+0xfffd5d60>
   13110:	97a2                	add	a5,a5,s0
   13112:	af870713          	addi	a4,a4,-1288 # ffffeaf8 <__BSS_END__+0xfffd5d64>
   13116:	0127a023          	sw	s2,0(a5)
   1311a:	9722                	add	a4,a4,s0
   1311c:	02000793          	li	a5,32
   13120:	c31c                	sw	a5,0(a4)
   13122:	777d                	lui	a4,0xfffff
   13124:	fc040693          	addi	a3,s0,-64
   13128:	c9070793          	addi	a5,a4,-880 # ffffec90 <__BSS_END__+0xfffd5efc>
   1312c:	00f68ab3          	add	s5,a3,a5
   13130:	77fd                	lui	a5,0xfffff
   13132:	af078793          	addi	a5,a5,-1296 # ffffeaf0 <__BSS_END__+0xfffd5d5c>
   13136:	97a2                	add	a5,a5,s0
   13138:	0167a023          	sw	s6,0(a5)
   1313c:	77fd                	lui	a5,0xfffff
   1313e:	b0078793          	addi	a5,a5,-1280 # ffffeb00 <__BSS_END__+0xfffd5d6c>
   13142:	97a2                	add	a5,a5,s0
   13144:	8b66                	mv	s6,s9
   13146:	0007ac83          	lw	s9,0(a5)
   1314a:	b8870993          	addi	s3,a4,-1144
   1314e:	4d01                	li	s10,0
   13150:	00e68a33          	add	s4,a3,a4
   13154:	99b6                	add	s3,s3,a3
   13156:	53d030ef          	jal	ra,16e92 <__locale_mb_cur_max>
   1315a:	13a501e3          	beq	a0,s10,13a7c <__svfscanf_r+0x1962>
   1315e:	000b2783          	lw	a5,0(s6)
   13162:	004b2703          	lw	a4,4(s6)
   13166:	01aa06b3          	add	a3,s4,s10
   1316a:	0007c603          	lbu	a2,0(a5)
   1316e:	177d                	addi	a4,a4,-1
   13170:	0785                	addi	a5,a5,1
   13172:	00fb2023          	sw	a5,0(s6)
   13176:	c8c68823          	sb	a2,-880(a3)
   1317a:	00eb2223          	sw	a4,4(s6)
   1317e:	478d                	li	a5,3
   13180:	0d05                	addi	s10,s10,1
   13182:	00fc9763          	bne	s9,a5,13190 <__svfscanf_r+0x1076>
   13186:	b88a2783          	lw	a5,-1144(s4)
   1318a:	4711                	li	a4,4
   1318c:	00e78763          	beq	a5,a4,1319a <__svfscanf_r+0x1080>
   13190:	4621                	li	a2,8
   13192:	4581                	li	a1,0
   13194:	854e                	mv	a0,s3
   13196:	8b4fd0ef          	jal	ra,1024a <memset>
   1319a:	874e                	mv	a4,s3
   1319c:	86ea                	mv	a3,s10
   1319e:	8656                	mv	a2,s5
   131a0:	85ca                	mv	a1,s2
   131a2:	8562                	mv	a0,s8
   131a4:	490040ef          	jal	ra,17634 <_mbrtowc_r>
   131a8:	57fd                	li	a5,-1
   131aa:	8caa                	mv	s9,a0
   131ac:	0cf508e3          	beq	a0,a5,13a7c <__svfscanf_r+0x1962>
   131b0:	68051063          	bnez	a0,13830 <__svfscanf_r+0x1716>
   131b4:	77fd                	lui	a5,0xfffff
   131b6:	b0878793          	addi	a5,a5,-1272 # ffffeb08 <__BSS_END__+0xfffd5d74>
   131ba:	97a2                	add	a5,a5,s0
   131bc:	439c                	lw	a5,0(a5)
   131be:	e399                	bnez	a5,131c4 <__svfscanf_r+0x10aa>
   131c0:	00092023          	sw	zero,0(s2)
   131c4:	9bea                	add	s7,s7,s10
   131c6:	14fd                	addi	s1,s1,-1
   131c8:	77fd                	lui	a5,0xfffff
   131ca:	b0878793          	addi	a5,a5,-1272 # ffffeb08 <__BSS_END__+0xfffd5d74>
   131ce:	97a2                	add	a5,a5,s0
   131d0:	439c                	lw	a5,0(a5)
   131d2:	eb85                	bnez	a5,13202 <__svfscanf_r+0x10e8>
   131d4:	77fd                	lui	a5,0xfffff
   131d6:	b1078793          	addi	a5,a5,-1264 # ffffeb10 <__BSS_END__+0xfffd5d7c>
   131da:	97a2                	add	a5,a5,s0
   131dc:	439c                	lw	a5,0(a5)
   131de:	c38d                	beqz	a5,13200 <__svfscanf_r+0x10e6>
   131e0:	77fd                	lui	a5,0xfffff
   131e2:	af478793          	addi	a5,a5,-1292 # ffffeaf4 <__BSS_END__+0xfffd5d60>
   131e6:	97a2                	add	a5,a5,s0
   131e8:	777d                	lui	a4,0xfffff
   131ea:	439c                	lw	a5,0(a5)
   131ec:	af870713          	addi	a4,a4,-1288 # ffffeaf8 <__BSS_END__+0xfffd5d64>
   131f0:	9722                	add	a4,a4,s0
   131f2:	4318                	lw	a4,0(a4)
   131f4:	40f90d33          	sub	s10,s2,a5
   131f8:	402d5793          	srai	a5,s10,0x2
   131fc:	66e7f863          	bgeu	a5,a4,1386c <__svfscanf_r+0x1752>
   13200:	0911                	addi	s2,s2,4
   13202:	004b2783          	lw	a5,4(s6)
   13206:	4d01                	li	s10,0
   13208:	62f05b63          	blez	a5,1383e <__svfscanf_r+0x1724>
   1320c:	f4a9                	bnez	s1,13156 <__svfscanf_r+0x103c>
   1320e:	77fd                	lui	a5,0xfffff
   13210:	b0078793          	addi	a5,a5,-1280 # ffffeb00 <__BSS_END__+0xfffd5d6c>
   13214:	97a2                	add	a5,a5,s0
   13216:	0197a023          	sw	s9,0(a5)
   1321a:	77fd                	lui	a5,0xfffff
   1321c:	af078793          	addi	a5,a5,-1296 # ffffeaf0 <__BSS_END__+0xfffd5d5c>
   13220:	97a2                	add	a5,a5,s0
   13222:	8cda                	mv	s9,s6
   13224:	0007ab03          	lw	s6,0(a5)
   13228:	77fd                	lui	a5,0xfffff
   1322a:	b1078793          	addi	a5,a5,-1264 # ffffeb10 <__BSS_END__+0xfffd5d7c>
   1322e:	97a2                	add	a5,a5,s0
   13230:	439c                	lw	a5,0(a5)
   13232:	c38d                	beqz	a5,13254 <__svfscanf_r+0x113a>
   13234:	77fd                	lui	a5,0xfffff
   13236:	af478793          	addi	a5,a5,-1292 # ffffeaf4 <__BSS_END__+0xfffd5d60>
   1323a:	97a2                	add	a5,a5,s0
   1323c:	439c                	lw	a5,0(a5)
   1323e:	40f905b3          	sub	a1,s2,a5
   13242:	77fd                	lui	a5,0xfffff
   13244:	af878793          	addi	a5,a5,-1288 # ffffeaf8 <__BSS_END__+0xfffd5d64>
   13248:	97a2                	add	a5,a5,s0
   1324a:	439c                	lw	a5,0(a5)
   1324c:	4025d713          	srai	a4,a1,0x2
   13250:	54f76de3          	bltu	a4,a5,13faa <__svfscanf_r+0x1e90>
   13254:	77fd                	lui	a5,0xfffff
   13256:	b0878793          	addi	a5,a5,-1272 # ffffeb08 <__BSS_END__+0xfffd5d74>
   1325a:	97a2                	add	a5,a5,s0
   1325c:	439c                	lw	a5,0(a5)
   1325e:	777d                	lui	a4,0xfffff
   13260:	b1870713          	addi	a4,a4,-1256 # ffffeb18 <__BSS_END__+0xfffd5d84>
   13264:	0017ba93          	seqz	s5,a5
   13268:	77fd                	lui	a5,0xfffff
   1326a:	b1878793          	addi	a5,a5,-1256 # ffffeb18 <__BSS_END__+0xfffd5d84>
   1326e:	97a2                	add	a5,a5,s0
   13270:	439c                	lw	a5,0(a5)
   13272:	9722                	add	a4,a4,s0
   13274:	97d6                	add	a5,a5,s5
   13276:	c31c                	sw	a5,0(a4)
   13278:	77fd                	lui	a5,0xfffff
   1327a:	aec78793          	addi	a5,a5,-1300 # ffffeaec <__BSS_END__+0xfffd5d58>
   1327e:	97a2                	add	a5,a5,s0
   13280:	439c                	lw	a5,0(a5)
   13282:	777d                	lui	a4,0xfffff
   13284:	b1070713          	addi	a4,a4,-1264 # ffffeb10 <__BSS_END__+0xfffd5d7c>
   13288:	9722                	add	a4,a4,s0
   1328a:	c31c                	sw	a5,0(a4)
   1328c:	89aff06f          	j	12326 <__svfscanf_r+0x20c>
   13290:	77fd                	lui	a5,0xfffff
   13292:	b1078793          	addi	a5,a5,-1264 # ffffeb10 <__BSS_END__+0xfffd5d7c>
   13296:	97a2                	add	a5,a5,s0
   13298:	439c                	lw	a5,0(a5)
   1329a:	4398                	lw	a4,0(a5)
   1329c:	c308                	sw	a0,0(a4)
   1329e:	77fd                	lui	a5,0xfffff
   132a0:	b1878793          	addi	a5,a5,-1256 # ffffeb18 <__BSS_END__+0xfffd5d84>
   132a4:	97a2                	add	a5,a5,s0
   132a6:	439c                	lw	a5,0(a5)
   132a8:	777d                	lui	a4,0xfffff
   132aa:	b1870713          	addi	a4,a4,-1256 # ffffeb18 <__BSS_END__+0xfffd5d84>
   132ae:	0785                	addi	a5,a5,1
   132b0:	9722                	add	a4,a4,s0
   132b2:	c31c                	sw	a5,0(a4)
   132b4:	77fd                	lui	a5,0xfffff
   132b6:	b1078793          	addi	a5,a5,-1264 # ffffeb10 <__BSS_END__+0xfffd5d7c>
   132ba:	97a2                	add	a5,a5,s0
   132bc:	0137a023          	sw	s3,0(a5)
   132c0:	77fd                	lui	a5,0xfffff
   132c2:	c9078713          	addi	a4,a5,-880 # ffffec90 <__BSS_END__+0xfffd5efc>
   132c6:	fc040793          	addi	a5,s0,-64
   132ca:	973e                	add	a4,a4,a5
   132cc:	8c99                	sub	s1,s1,a4
   132ce:	000b4703          	lbu	a4,0(s6)
   132d2:	fc040793          	addi	a5,s0,-64
   132d6:	76fd                	lui	a3,0xfffff
   132d8:	96be                	add	a3,a3,a5
   132da:	9a26                	add	s4,s4,s1
   132dc:	b6e6ae23          	sw	a4,-1156(a3) # ffffeb7c <__BSS_END__+0xfffd5de8>
   132e0:	9bd2                	add	s7,s7,s4
   132e2:	0b05                	addi	s6,s6,1
   132e4:	c319                	beqz	a4,132ea <__svfscanf_r+0x11d0>
   132e6:	f2bfe06f          	j	12210 <__svfscanf_r+0xf6>
   132ea:	f8dfe06f          	j	12276 <__svfscanf_r+0x15c>
   132ee:	ffd90793          	addi	a5,s2,-3
   132f2:	0fd7f793          	andi	a5,a5,253
   132f6:	980782e3          	beqz	a5,12c7a <__svfscanf_r+0xb60>
   132fa:	84ca                	mv	s1,s2
   132fc:	8962                	mv	s2,s8
   132fe:	8c6a                	mv	s8,s10
   13300:	9a0900e3          	beqz	s2,12ca0 <__svfscanf_r+0xb86>
   13304:	b22d                	j	12c2e <__svfscanf_r+0xb14>
   13306:	4789                	li	a5,2
   13308:	96fa13e3          	bne	s4,a5,12c6e <__svfscanf_r+0xb54>
   1330c:	4a0d                	li	s4,3
   1330e:	b8dd                	j	12c04 <__svfscanf_r+0xaea>
   13310:	77fd                	lui	a5,0xfffff
   13312:	b0878793          	addi	a5,a5,-1272 # ffffeb08 <__BSS_END__+0xfffd5d74>
   13316:	97a2                	add	a5,a5,s0
   13318:	439c                	lw	a5,0(a5)
   1331a:	100794e3          	bnez	a5,13c22 <__svfscanf_r+0x1b08>
   1331e:	77fd                	lui	a5,0xfffff
   13320:	b1078793          	addi	a5,a5,-1264 # ffffeb10 <__BSS_END__+0xfffd5d7c>
   13324:	97a2                	add	a5,a5,s0
   13326:	439c                	lw	a5,0(a5)
   13328:	080a7313          	andi	t1,s4,128
   1332c:	0007ad03          	lw	s10,0(a5)
   13330:	00478a93          	addi	s5,a5,4
   13334:	44030363          	beqz	t1,1377a <__svfscanf_r+0x1660>
   13338:	000d1463          	bnez	s10,13340 <__svfscanf_r+0x1226>
   1333c:	f3bfe06f          	j	12276 <__svfscanf_r+0x15c>
   13340:	8526                	mv	a0,s1
   13342:	537030ef          	jal	ra,17078 <malloc>
   13346:	87aa                	mv	a5,a0
   13348:	46050ee3          	beqz	a0,13fc4 <__svfscanf_r+0x1eaa>
   1334c:	777d                	lui	a4,0xfffff
   1334e:	b1c70713          	addi	a4,a4,-1252 # ffffeb1c <__BSS_END__+0xfffd5d88>
   13352:	9722                	add	a4,a4,s0
   13354:	4318                	lw	a4,0(a4)
   13356:	00ad2023          	sw	a0,0(s10)
   1335a:	00072903          	lw	s2,0(a4)
   1335e:	00675983          	lhu	s3,6(a4)
   13362:	00475683          	lhu	a3,4(a4)
   13366:	874a                	mv	a4,s2
   13368:	04d9e563          	bltu	s3,a3,133b2 <__svfscanf_r+0x1298>
   1336c:	767d                	lui	a2,0xfffff
   1336e:	b1060613          	addi	a2,a2,-1264 # ffffeb10 <__BSS_END__+0xfffd5d7c>
   13372:	9622                	add	a2,a2,s0
   13374:	c208                	sw	a0,0(a2)
   13376:	6641                	lui	a2,0x10
   13378:	1659                	addi	a2,a2,-10
   1337a:	4ad66de3          	bltu	a2,a3,14034 <__svfscanf_r+0x1f1a>
   1337e:	06a1                	addi	a3,a3,8
   13380:	01069a13          	slli	s4,a3,0x10
   13384:	010a5a13          	srli	s4,s4,0x10
   13388:	854a                	mv	a0,s2
   1338a:	002a1593          	slli	a1,s4,0x2
   1338e:	114050ef          	jal	ra,184a2 <realloc>
   13392:	77fd                	lui	a5,0xfffff
   13394:	b1078793          	addi	a5,a5,-1264 # ffffeb10 <__BSS_END__+0xfffd5d7c>
   13398:	97a2                	add	a5,a5,s0
   1339a:	439c                	lw	a5,0(a5)
   1339c:	892a                	mv	s2,a0
   1339e:	580508e3          	beqz	a0,1412e <__svfscanf_r+0x2014>
   133a2:	777d                	lui	a4,0xfffff
   133a4:	b1c70713          	addi	a4,a4,-1252 # ffffeb1c <__BSS_END__+0xfffd5d88>
   133a8:	9722                	add	a4,a4,s0
   133aa:	4318                	lw	a4,0(a4)
   133ac:	c308                	sw	a0,0(a4)
   133ae:	01471223          	sh	s4,4(a4)
   133b2:	76fd                	lui	a3,0xfffff
   133b4:	b1c68693          	addi	a3,a3,-1252 # ffffeb1c <__BSS_END__+0xfffd5d88>
   133b8:	96a2                	add	a3,a3,s0
   133ba:	4294                	lw	a3,0(a3)
   133bc:	00299713          	slli	a4,s3,0x2
   133c0:	974a                	add	a4,a4,s2
   133c2:	0985                	addi	s3,s3,1
   133c4:	01369323          	sh	s3,6(a3)
   133c8:	01a72023          	sw	s10,0(a4)
   133cc:	86a6                	mv	a3,s1
   133ce:	8766                	mv	a4,s9
   133d0:	4605                	li	a2,1
   133d2:	85be                	mv	a1,a5
   133d4:	8562                	mv	a0,s8
   133d6:	4c0010ef          	jal	ra,14896 <_fread_r>
   133da:	89aa                	mv	s3,a0
   133dc:	56050ae3          	beqz	a0,14150 <__svfscanf_r+0x2036>
   133e0:	3a957863          	bgeu	a0,s1,13790 <__svfscanf_r+0x1676>
   133e4:	000d2503          	lw	a0,0(s10)
   133e8:	85ce                	mv	a1,s3
   133ea:	0b8050ef          	jal	ra,184a2 <realloc>
   133ee:	3a050163          	beqz	a0,13790 <__svfscanf_r+0x1676>
   133f2:	00ad2023          	sw	a0,0(s10)
   133f6:	ae69                	j	13790 <__svfscanf_r+0x1676>
   133f8:	77fd                	lui	a5,0xfffff
   133fa:	af878793          	addi	a5,a5,-1288 # ffffeaf8 <__BSS_END__+0xfffd5d64>
   133fe:	97a2                	add	a5,a5,s0
   13400:	439c                	lw	a5,0(a5)
   13402:	7a079663          	bnez	a5,13bae <__svfscanf_r+0x1a94>
   13406:	77fd                	lui	a5,0xfffff
   13408:	b1078793          	addi	a5,a5,-1264 # ffffeb10 <__BSS_END__+0xfffd5d7c>
   1340c:	97a2                	add	a5,a5,s0
   1340e:	439c                	lw	a5,0(a5)
   13410:	777d                	lui	a4,0xfffff
   13412:	b1070713          	addi	a4,a4,-1264 # ffffeb10 <__BSS_END__+0xfffd5d7c>
   13416:	0007aa83          	lw	s5,0(a5)
   1341a:	9722                	add	a4,a4,s0
   1341c:	0791                	addi	a5,a5,4
   1341e:	080a7313          	andi	t1,s4,128
   13422:	c31c                	sw	a5,0(a4)
   13424:	120308e3          	beqz	t1,13d54 <__svfscanf_r+0x1c3a>
   13428:	000a9463          	bnez	s5,13430 <__svfscanf_r+0x1316>
   1342c:	e4bfe06f          	j	12276 <__svfscanf_r+0x15c>
   13430:	02000513          	li	a0,32
   13434:	445030ef          	jal	ra,17078 <malloc>
   13438:	892a                	mv	s2,a0
   1343a:	380505e3          	beqz	a0,13fc4 <__svfscanf_r+0x1eaa>
   1343e:	77fd                	lui	a5,0xfffff
   13440:	b1c78793          	addi	a5,a5,-1252 # ffffeb1c <__BSS_END__+0xfffd5d88>
   13444:	97a2                	add	a5,a5,s0
   13446:	439c                	lw	a5,0(a5)
   13448:	012aa023          	sw	s2,0(s5)
   1344c:	4388                	lw	a0,0(a5)
   1344e:	0067d983          	lhu	s3,6(a5)
   13452:	0047d683          	lhu	a3,4(a5)
   13456:	872a                	mv	a4,a0
   13458:	3ad9f463          	bgeu	s3,a3,13800 <__svfscanf_r+0x16e6>
   1345c:	77fd                	lui	a5,0xfffff
   1345e:	b1c78793          	addi	a5,a5,-1252 # ffffeb1c <__BSS_END__+0xfffd5d88>
   13462:	97a2                	add	a5,a5,s0
   13464:	439c                	lw	a5,0(a5)
   13466:	00299713          	slli	a4,s3,0x2
   1346a:	953a                	add	a0,a0,a4
   1346c:	0985                	addi	s3,s3,1
   1346e:	01379323          	sh	s3,6(a5)
   13472:	01552023          	sw	s5,0(a0)
   13476:	02000a13          	li	s4,32
   1347a:	000ca703          	lw	a4,0(s9)
   1347e:	76fd                	lui	a3,0xfffff
   13480:	fc040793          	addi	a5,s0,-64
   13484:	97b6                	add	a5,a5,a3
   13486:	00074683          	lbu	a3,0(a4)
   1348a:	96be                	add	a3,a3,a5
   1348c:	b906c683          	lbu	a3,-1136(a3) # ffffeb90 <__BSS_END__+0xfffd5dfc>
   13490:	e299                	bnez	a3,13496 <__svfscanf_r+0x137c>
   13492:	de5fe06f          	j	12276 <__svfscanf_r+0x15c>
   13496:	84be                	mv	s1,a5
   13498:	77fd                	lui	a5,0xfffff
   1349a:	b0878793          	addi	a5,a5,-1272 # ffffeb08 <__BSS_END__+0xfffd5d74>
   1349e:	97a2                	add	a5,a5,s0
   134a0:	0167a023          	sw	s6,0(a5)
   134a4:	89ca                	mv	s3,s2
   134a6:	8b56                	mv	s6,s5
   134a8:	8ad2                	mv	s5,s4
   134aa:	a035                	j	134d6 <__svfscanf_r+0x13bc>
   134ac:	41378a33          	sub	s4,a5,s3
   134b0:	893e                	mv	s2,a5
   134b2:	075a7663          	bgeu	s4,s5,1351e <__svfscanf_r+0x1404>
   134b6:	1d7d                	addi	s10,s10,-1
   134b8:	1c0d0563          	beqz	s10,13682 <__svfscanf_r+0x1568>
   134bc:	004ca783          	lw	a5,4(s9)
   134c0:	02f05e63          	blez	a5,134fc <__svfscanf_r+0x13e2>
   134c4:	000ca703          	lw	a4,0(s9)
   134c8:	00074783          	lbu	a5,0(a4)
   134cc:	97a6                	add	a5,a5,s1
   134ce:	b907c783          	lbu	a5,-1136(a5)
   134d2:	1a078863          	beqz	a5,13682 <__svfscanf_r+0x1568>
   134d6:	004ca783          	lw	a5,4(s9)
   134da:	00170693          	addi	a3,a4,1
   134de:	00dca023          	sw	a3,0(s9)
   134e2:	17fd                	addi	a5,a5,-1
   134e4:	00fca223          	sw	a5,4(s9)
   134e8:	00074703          	lbu	a4,0(a4)
   134ec:	00190793          	addi	a5,s2,1
   134f0:	00e90023          	sb	a4,0(s2)
   134f4:	fa0b1ce3          	bnez	s6,134ac <__svfscanf_r+0x1392>
   134f8:	893e                	mv	s2,a5
   134fa:	bf75                	j	134b6 <__svfscanf_r+0x139c>
   134fc:	85e6                	mv	a1,s9
   134fe:	8562                	mv	a0,s8
   13500:	3a8050ef          	jal	ra,188a8 <__srefill_r>
   13504:	d161                	beqz	a0,134c4 <__svfscanf_r+0x13aa>
   13506:	77fd                	lui	a5,0xfffff
   13508:	b0878793          	addi	a5,a5,-1272 # ffffeb08 <__BSS_END__+0xfffd5d74>
   1350c:	97a2                	add	a5,a5,s0
   1350e:	8a56                	mv	s4,s5
   13510:	8ada                	mv	s5,s6
   13512:	0007ab03          	lw	s6,0(a5)
   13516:	17391e63          	bne	s2,s3,13692 <__svfscanf_r+0x1578>
   1351a:	e5dfe06f          	j	12376 <__svfscanf_r+0x25c>
   1351e:	0a86                	slli	s5,s5,0x1
   13520:	854e                	mv	a0,s3
   13522:	85d6                	mv	a1,s5
   13524:	77f040ef          	jal	ra,184a2 <realloc>
   13528:	89aa                	mv	s3,a0
   1352a:	28050de3          	beqz	a0,13fc4 <__svfscanf_r+0x1eaa>
   1352e:	01450933          	add	s2,a0,s4
   13532:	00ab2023          	sw	a0,0(s6)
   13536:	b741                	j	134b6 <__svfscanf_r+0x139c>
   13538:	0a0917e3          	bnez	s2,13de6 <__svfscanf_r+0x1ccc>
   1353c:	77fd                	lui	a5,0xfffff
   1353e:	b1078793          	addi	a5,a5,-1264 # ffffeb10 <__BSS_END__+0xfffd5d7c>
   13542:	97a2                	add	a5,a5,s0
   13544:	439c                	lw	a5,0(a5)
   13546:	080a7313          	andi	t1,s4,128
   1354a:	0007a983          	lw	s3,0(a5)
   1354e:	00478913          	addi	s2,a5,4
   13552:	78030a63          	beqz	t1,13ce6 <__svfscanf_r+0x1bcc>
   13556:	00099463          	bnez	s3,1355e <__svfscanf_r+0x1444>
   1355a:	d1dfe06f          	j	12276 <__svfscanf_r+0x15c>
   1355e:	02000513          	li	a0,32
   13562:	317030ef          	jal	ra,17078 <malloc>
   13566:	84aa                	mv	s1,a0
   13568:	24050ee3          	beqz	a0,13fc4 <__svfscanf_r+0x1eaa>
   1356c:	77fd                	lui	a5,0xfffff
   1356e:	b1c78793          	addi	a5,a5,-1252 # ffffeb1c <__BSS_END__+0xfffd5d88>
   13572:	97a2                	add	a5,a5,s0
   13574:	439c                	lw	a5,0(a5)
   13576:	0099a023          	sw	s1,0(s3)
   1357a:	4388                	lw	a0,0(a5)
   1357c:	0067da03          	lhu	s4,6(a5)
   13580:	0047d683          	lhu	a3,4(a5)
   13584:	872a                	mv	a4,a0
   13586:	24da7563          	bgeu	s4,a3,137d0 <__svfscanf_r+0x16b6>
   1358a:	77fd                	lui	a5,0xfffff
   1358c:	b1c78793          	addi	a5,a5,-1252 # ffffeb1c <__BSS_END__+0xfffd5d88>
   13590:	97a2                	add	a5,a5,s0
   13592:	439c                	lw	a5,0(a5)
   13594:	002a1713          	slli	a4,s4,0x2
   13598:	953a                	add	a0,a0,a4
   1359a:	0a05                	addi	s4,s4,1
   1359c:	01479323          	sh	s4,6(a5)
   135a0:	01352023          	sw	s3,0(a0)
   135a4:	02000a13          	li	s4,32
   135a8:	000ca703          	lw	a4,0(s9)
   135ac:	00074683          	lbu	a3,0(a4)
   135b0:	96ee                	add	a3,a3,s11
   135b2:	0006c683          	lbu	a3,0(a3)
   135b6:	8aa1                	andi	a3,a3,8
   135b8:	6a069263          	bnez	a3,13c5c <__svfscanf_r+0x1b42>
   135bc:	77fd                	lui	a5,0xfffff
   135be:	b1078793          	addi	a5,a5,-1264 # ffffeb10 <__BSS_END__+0xfffd5d7c>
   135c2:	97a2                	add	a5,a5,s0
   135c4:	8626                	mv	a2,s1
   135c6:	0127a023          	sw	s2,0(a5)
   135ca:	004ca783          	lw	a5,4(s9)
   135ce:	00170693          	addi	a3,a4,1
   135d2:	00dca023          	sw	a3,0(s9)
   135d6:	17fd                	addi	a5,a5,-1
   135d8:	00fca223          	sw	a5,4(s9)
   135dc:	00074783          	lbu	a5,0(a4)
   135e0:	00160a93          	addi	s5,a2,1 # 10001 <register_fini-0x73>
   135e4:	00f60023          	sb	a5,0(a2)
   135e8:	00098663          	beqz	s3,135f4 <__svfscanf_r+0x14da>
   135ec:	409a8933          	sub	s2,s5,s1
   135f0:	41497b63          	bgeu	s2,s4,13a06 <__svfscanf_r+0x18ec>
   135f4:	1d7d                	addi	s10,s10,-1
   135f6:	020d0663          	beqz	s10,13622 <__svfscanf_r+0x1508>
   135fa:	004ca783          	lw	a5,4(s9)
   135fe:	00f05d63          	blez	a5,13618 <__svfscanf_r+0x14fe>
   13602:	000ca703          	lw	a4,0(s9)
   13606:	00074783          	lbu	a5,0(a4)
   1360a:	97ee                	add	a5,a5,s11
   1360c:	0007c783          	lbu	a5,0(a5)
   13610:	8ba1                	andi	a5,a5,8
   13612:	eb81                	bnez	a5,13622 <__svfscanf_r+0x1508>
   13614:	8656                	mv	a2,s5
   13616:	bf55                	j	135ca <__svfscanf_r+0x14b0>
   13618:	85e6                	mv	a1,s9
   1361a:	8562                	mv	a0,s8
   1361c:	28c050ef          	jal	ra,188a8 <__srefill_r>
   13620:	d16d                	beqz	a0,13602 <__svfscanf_r+0x14e8>
   13622:	77fd                	lui	a5,0xfffff
   13624:	b1078793          	addi	a5,a5,-1264 # ffffeb10 <__BSS_END__+0xfffd5d7c>
   13628:	97a2                	add	a5,a5,s0
   1362a:	0007a903          	lw	s2,0(a5)
   1362e:	409a84b3          	sub	s1,s5,s1
   13632:	00148593          	addi	a1,s1,1
   13636:	9ba6                	add	s7,s7,s1
   13638:	84d6                	mv	s1,s5
   1363a:	00048023          	sb	zero,0(s1)
   1363e:	f2098f63          	beqz	s3,12d7c <__svfscanf_r+0xc62>
   13642:	f345fd63          	bgeu	a1,s4,12d7c <__svfscanf_r+0xc62>
   13646:	0009a503          	lw	a0,0(s3)
   1364a:	659040ef          	jal	ra,184a2 <realloc>
   1364e:	f2050763          	beqz	a0,12d7c <__svfscanf_r+0xc62>
   13652:	00a9a023          	sw	a0,0(s3)
   13656:	f26ff06f          	j	12d7c <__svfscanf_r+0xc62>
   1365a:	84ca                	mv	s1,s2
   1365c:	eff9f993          	andi	s3,s3,-257
   13660:	8962                	mv	s2,s8
   13662:	8c6a                	mv	s8,s10
   13664:	e3cff06f          	j	12ca0 <__svfscanf_r+0xb86>
   13668:	77fd                	lui	a5,0xfffff
   1366a:	af478793          	addi	a5,a5,-1292 # ffffeaf4 <__BSS_END__+0xfffd5d60>
   1366e:	97a2                	add	a5,a5,s0
   13670:	439c                	lw	a5,0(a5)
   13672:	76fd                	lui	a3,0xfffff
   13674:	af468693          	addi	a3,a3,-1292 # ffffeaf4 <__BSS_END__+0xfffd5d60>
   13678:	17fd                	addi	a5,a5,-1
   1367a:	96a2                	add	a3,a3,s0
   1367c:	c29c                	sw	a5,0(a3)
   1367e:	d8eff06f          	j	12c0c <__svfscanf_r+0xaf2>
   13682:	77fd                	lui	a5,0xfffff
   13684:	b0878793          	addi	a5,a5,-1272 # ffffeb08 <__BSS_END__+0xfffd5d74>
   13688:	97a2                	add	a5,a5,s0
   1368a:	8a56                	mv	s4,s5
   1368c:	8ada                	mv	s5,s6
   1368e:	0007ab03          	lw	s6,0(a5)
   13692:	413904b3          	sub	s1,s2,s3
   13696:	01391463          	bne	s2,s3,1369e <__svfscanf_r+0x1584>
   1369a:	bddfe06f          	j	12276 <__svfscanf_r+0x15c>
   1369e:	00090023          	sb	zero,0(s2)
   136a2:	000a8d63          	beqz	s5,136bc <__svfscanf_r+0x15a2>
   136a6:	00148593          	addi	a1,s1,1
   136aa:	0145f963          	bgeu	a1,s4,136bc <__svfscanf_r+0x15a2>
   136ae:	000aa503          	lw	a0,0(s5)
   136b2:	5f1040ef          	jal	ra,184a2 <realloc>
   136b6:	c119                	beqz	a0,136bc <__svfscanf_r+0x15a2>
   136b8:	00aaa023          	sw	a0,0(s5)
   136bc:	77fd                	lui	a5,0xfffff
   136be:	b1878793          	addi	a5,a5,-1256 # ffffeb18 <__BSS_END__+0xfffd5d84>
   136c2:	97a2                	add	a5,a5,s0
   136c4:	439c                	lw	a5,0(a5)
   136c6:	777d                	lui	a4,0xfffff
   136c8:	b1870713          	addi	a4,a4,-1256 # ffffeb18 <__BSS_END__+0xfffd5d84>
   136cc:	0785                	addi	a5,a5,1
   136ce:	9722                	add	a4,a4,s0
   136d0:	c31c                	sw	a5,0(a4)
   136d2:	9ba6                	add	s7,s7,s1
   136d4:	c53fe06f          	j	12326 <__svfscanf_r+0x20c>
   136d8:	777d                	lui	a4,0xfffff
   136da:	af870713          	addi	a4,a4,-1288 # ffffeaf8 <__BSS_END__+0xfffd5d64>
   136de:	9722                	add	a4,a4,s0
   136e0:	4318                	lw	a4,0(a4)
   136e2:	c7fafa93          	andi	s5,s5,-897
   136e6:	cb01                	beqz	a4,136f6 <__svfscanf_r+0x15dc>
   136e8:	75fd                	lui	a1,0xfffff
   136ea:	af858593          	addi	a1,a1,-1288 # ffffeaf8 <__BSS_END__+0xfffd5d64>
   136ee:	177d                	addi	a4,a4,-1
   136f0:	95a2                	add	a1,a1,s0
   136f2:	c198                	sw	a4,0(a1)
   136f4:	0485                	addi	s1,s1,1
   136f6:	0b05                	addi	s6,s6,1
   136f8:	811ff06f          	j	12f08 <__svfscanf_r+0xdee>
   136fc:	4709                	li	a4,2
   136fe:	1e9776e3          	bgeu	a4,s1,140ea <__svfscanf_r+0x1fd0>
   13702:	470d                	li	a4,3
   13704:	dae48a63          	beq	s1,a4,12cb8 <__svfscanf_r+0xb9e>
   13708:	ffc48693          	addi	a3,s1,-4
   1370c:	0ff6f493          	andi	s1,a3,255
   13710:	fff4ca13          	not	s4,s1
   13714:	9a56                	add	s4,s4,s5
   13716:	fffac583          	lbu	a1,-1(s5)
   1371a:	8666                	mv	a2,s9
   1371c:	1afd                	addi	s5,s5,-1
   1371e:	8562                	mv	a0,s8
   13720:	729080ef          	jal	ra,1c648 <_ungetc_r>
   13724:	ff5a19e3          	bne	s4,s5,13716 <__svfscanf_r+0x15fc>
   13728:	fffb8813          	addi	a6,s7,-1
   1372c:	40980bb3          	sub	s7,a6,s1
   13730:	d88ff06f          	j	12cb8 <__svfscanf_r+0xb9e>
   13734:	77fd                	lui	a5,0xfffff
   13736:	c9078593          	addi	a1,a5,-880 # ffffec90 <__BSS_END__+0xfffd5efc>
   1373a:	fc040793          	addi	a5,s0,-64
   1373e:	4601                	li	a2,0
   13740:	95be                	add	a1,a1,a5
   13742:	8562                	mv	a0,s8
   13744:	692060ef          	jal	ra,19dd6 <_strtod_r>
   13748:	8a2a                	mv	s4,a0
   1374a:	84ae                	mv	s1,a1
   1374c:	e0099f63          	bnez	s3,12d6a <__svfscanf_r+0xc50>
   13750:	862a                	mv	a2,a0
   13752:	86ae                	mv	a3,a1
   13754:	5e10f0ef          	jal	ra,23534 <__unorddf2>
   13758:	77fd                	lui	a5,0xfffff
   1375a:	b1078793          	addi	a5,a5,-1264 # ffffeb10 <__BSS_END__+0xfffd5d7c>
   1375e:	97a2                	add	a5,a5,s0
   13760:	439c                	lw	a5,0(a5)
   13762:	0007a983          	lw	s3,0(a5)
   13766:	160518e3          	bnez	a0,140d6 <__svfscanf_r+0x1fbc>
   1376a:	8552                	mv	a0,s4
   1376c:	85a6                	mv	a1,s1
   1376e:	128120ef          	jal	ra,25896 <__truncdfsf2>
   13772:	00a9a023          	sw	a0,0(s3)
   13776:	e06ff06f          	j	12d7c <__svfscanf_r+0xc62>
   1377a:	8766                	mv	a4,s9
   1377c:	86a6                	mv	a3,s1
   1377e:	4605                	li	a2,1
   13780:	85ea                	mv	a1,s10
   13782:	8562                	mv	a0,s8
   13784:	112010ef          	jal	ra,14896 <_fread_r>
   13788:	89aa                	mv	s3,a0
   1378a:	e119                	bnez	a0,13790 <__svfscanf_r+0x1676>
   1378c:	bebfe06f          	j	12376 <__svfscanf_r+0x25c>
   13790:	77fd                	lui	a5,0xfffff
   13792:	b1878793          	addi	a5,a5,-1256 # ffffeb18 <__BSS_END__+0xfffd5d84>
   13796:	97a2                	add	a5,a5,s0
   13798:	439c                	lw	a5,0(a5)
   1379a:	777d                	lui	a4,0xfffff
   1379c:	b1870713          	addi	a4,a4,-1256 # ffffeb18 <__BSS_END__+0xfffd5d84>
   137a0:	0785                	addi	a5,a5,1
   137a2:	9722                	add	a4,a4,s0
   137a4:	c31c                	sw	a5,0(a4)
   137a6:	77fd                	lui	a5,0xfffff
   137a8:	b1078793          	addi	a5,a5,-1264 # ffffeb10 <__BSS_END__+0xfffd5d7c>
   137ac:	97a2                	add	a5,a5,s0
   137ae:	9bce                	add	s7,s7,s3
   137b0:	0157a023          	sw	s5,0(a5)
   137b4:	b73fe06f          	j	12326 <__svfscanf_r+0x20c>
   137b8:	8666                	mv	a2,s9
   137ba:	8562                	mv	a0,s8
   137bc:	68d080ef          	jal	ra,1c648 <_ungetc_r>
   137c0:	ffeac583          	lbu	a1,-2(s5)
   137c4:	ffea8493          	addi	s1,s5,-2
   137c8:	ffeb8a13          	addi	s4,s7,-2
   137cc:	d18ff06f          	j	12ce4 <__svfscanf_r+0xbca>
   137d0:	6641                	lui	a2,0x10
   137d2:	1659                	addi	a2,a2,-10
   137d4:	06d660e3          	bltu	a2,a3,14034 <__svfscanf_r+0x1f1a>
   137d8:	06a1                	addi	a3,a3,8
   137da:	01069a93          	slli	s5,a3,0x10
   137de:	010ada93          	srli	s5,s5,0x10
   137e2:	002a9593          	slli	a1,s5,0x2
   137e6:	4bd040ef          	jal	ra,184a2 <realloc>
   137ea:	77fd                	lui	a5,0xfffff
   137ec:	b1c78793          	addi	a5,a5,-1252 # ffffeb1c <__BSS_END__+0xfffd5d88>
   137f0:	97a2                	add	a5,a5,s0
   137f2:	439c                	lw	a5,0(a5)
   137f4:	02050fe3          	beqz	a0,14032 <__svfscanf_r+0x1f18>
   137f8:	c388                	sw	a0,0(a5)
   137fa:	01579223          	sh	s5,4(a5)
   137fe:	b371                	j	1358a <__svfscanf_r+0x1470>
   13800:	6641                	lui	a2,0x10
   13802:	1659                	addi	a2,a2,-10
   13804:	02d668e3          	bltu	a2,a3,14034 <__svfscanf_r+0x1f1a>
   13808:	06a1                	addi	a3,a3,8
   1380a:	01069a13          	slli	s4,a3,0x10
   1380e:	010a5a13          	srli	s4,s4,0x10
   13812:	002a1593          	slli	a1,s4,0x2
   13816:	48d040ef          	jal	ra,184a2 <realloc>
   1381a:	77fd                	lui	a5,0xfffff
   1381c:	b1c78793          	addi	a5,a5,-1252 # ffffeb1c <__BSS_END__+0xfffd5d88>
   13820:	97a2                	add	a5,a5,s0
   13822:	439c                	lw	a5,0(a5)
   13824:	000507e3          	beqz	a0,14032 <__svfscanf_r+0x1f18>
   13828:	c388                	sw	a0,0(a5)
   1382a:	01479223          	sh	s4,4(a5)
   1382e:	b13d                	j	1345c <__svfscanf_r+0x1342>
   13830:	57f9                	li	a5,-2
   13832:	22f51a63          	bne	a0,a5,13a66 <__svfscanf_r+0x194c>
   13836:	004b2783          	lw	a5,4(s6)
   1383a:	90f04ee3          	bgtz	a5,13156 <__svfscanf_r+0x103c>
   1383e:	85da                	mv	a1,s6
   13840:	8562                	mv	a0,s8
   13842:	066050ef          	jal	ra,188a8 <__srefill_r>
   13846:	9c0503e3          	beqz	a0,1320c <__svfscanf_r+0x10f2>
   1384a:	77fd                	lui	a5,0xfffff
   1384c:	b0078793          	addi	a5,a5,-1280 # ffffeb00 <__BSS_END__+0xfffd5d6c>
   13850:	97a2                	add	a5,a5,s0
   13852:	0197a023          	sw	s9,0(a5)
   13856:	77fd                	lui	a5,0xfffff
   13858:	af078793          	addi	a5,a5,-1296 # ffffeaf0 <__BSS_END__+0xfffd5d5c>
   1385c:	97a2                	add	a5,a5,s0
   1385e:	8cda                	mv	s9,s6
   13860:	0007ab03          	lw	s6,0(a5)
   13864:	9c0d02e3          	beqz	s10,13228 <__svfscanf_r+0x110e>
   13868:	b0ffe06f          	j	12376 <__svfscanf_r+0x25c>
   1386c:	77fd                	lui	a5,0xfffff
   1386e:	af478793          	addi	a5,a5,-1292 # ffffeaf4 <__BSS_END__+0xfffd5d60>
   13872:	97a2                	add	a5,a5,s0
   13874:	4388                	lw	a0,0(a5)
   13876:	00371593          	slli	a1,a4,0x3
   1387a:	429040ef          	jal	ra,184a2 <realloc>
   1387e:	777d                	lui	a4,0xfffff
   13880:	af470713          	addi	a4,a4,-1292 # ffffeaf4 <__BSS_END__+0xfffd5d60>
   13884:	9722                	add	a4,a4,s0
   13886:	c308                	sw	a0,0(a4)
   13888:	e119                	bnez	a0,1388e <__svfscanf_r+0x1774>
   1388a:	b05fe06f          	j	1238e <__svfscanf_r+0x274>
   1388e:	777d                	lui	a4,0xfffff
   13890:	b1070713          	addi	a4,a4,-1264 # ffffeb10 <__BSS_END__+0xfffd5d7c>
   13894:	9722                	add	a4,a4,s0
   13896:	77fd                	lui	a5,0xfffff
   13898:	4318                	lw	a4,0(a4)
   1389a:	af878793          	addi	a5,a5,-1288 # ffffeaf8 <__BSS_END__+0xfffd5d64>
   1389e:	97a2                	add	a5,a5,s0
   138a0:	439c                	lw	a5,0(a5)
   138a2:	c308                	sw	a0,0(a4)
   138a4:	777d                	lui	a4,0xfffff
   138a6:	af870713          	addi	a4,a4,-1288 # ffffeaf8 <__BSS_END__+0xfffd5d64>
   138aa:	0786                	slli	a5,a5,0x1
   138ac:	9722                	add	a4,a4,s0
   138ae:	01a50933          	add	s2,a0,s10
   138b2:	c31c                	sw	a5,0(a4)
   138b4:	b2b1                	j	13200 <__svfscanf_r+0x10e6>
   138b6:	66c1                	lui	a3,0x10
   138b8:	16d9                	addi	a3,a3,-10
   138ba:	00e6f463          	bgeu	a3,a4,138c2 <__svfscanf_r+0x17a8>
   138be:	ae1fe06f          	j	1239e <__svfscanf_r+0x284>
   138c2:	77fd                	lui	a5,0xfffff
   138c4:	b1c78793          	addi	a5,a5,-1252 # ffffeb1c <__BSS_END__+0xfffd5d88>
   138c8:	97a2                	add	a5,a5,s0
   138ca:	0007aa83          	lw	s5,0(a5)
   138ce:	0721                	addi	a4,a4,8
   138d0:	01071a13          	slli	s4,a4,0x10
   138d4:	000aa503          	lw	a0,0(s5)
   138d8:	010a5a13          	srli	s4,s4,0x10
   138dc:	002a1593          	slli	a1,s4,0x2
   138e0:	3c3040ef          	jal	ra,184a2 <realloc>
   138e4:	e119                	bnez	a0,138ea <__svfscanf_r+0x17d0>
   138e6:	ab9fe06f          	j	1239e <__svfscanf_r+0x284>
   138ea:	00aaa023          	sw	a0,0(s5)
   138ee:	014a9223          	sh	s4,4(s5)
   138f2:	ff4ff06f          	j	130e6 <__svfscanf_r+0xfcc>
   138f6:	77fd                	lui	a5,0xfffff
   138f8:	b4078793          	addi	a5,a5,-1216 # ffffeb40 <__BSS_END__+0xfffd5dac>
   138fc:	97a2                	add	a5,a5,s0
   138fe:	4394                	lw	a3,0(a5)
   13900:	4711                	li	a4,4
   13902:	96e69263          	bne	a3,a4,12a66 <__svfscanf_r+0x94c>
   13906:	962ff06f          	j	12a68 <__svfscanf_r+0x94e>
   1390a:	5779                	li	a4,-2
   1390c:	06e513e3          	bne	a0,a4,14172 <__svfscanf_r+0x2058>
   13910:	004b2703          	lw	a4,4(s6)
   13914:	00e05463          	blez	a4,1391c <__svfscanf_r+0x1802>
   13918:	854ff06f          	j	1296c <__svfscanf_r+0x852>
   1391c:	85da                	mv	a1,s6
   1391e:	8562                	mv	a0,s8
   13920:	789040ef          	jal	ra,188a8 <__srefill_r>
   13924:	98050663          	beqz	a0,12ab0 <__svfscanf_r+0x996>
   13928:	77fd                	lui	a5,0xfffff
   1392a:	b0078793          	addi	a5,a5,-1280 # ffffeb00 <__BSS_END__+0xfffd5d6c>
   1392e:	97a2                	add	a5,a5,s0
   13930:	0197a023          	sw	s9,0(a5)
   13934:	77fd                	lui	a5,0xfffff
   13936:	ae478793          	addi	a5,a5,-1308 # ffffeae4 <__BSS_END__+0xfffd5d50>
   1393a:	97a2                	add	a5,a5,s0
   1393c:	8cda                	mv	s9,s6
   1393e:	0007ab03          	lw	s6,0(a5)
   13942:	98090663          	beqz	s2,12ace <__svfscanf_r+0x9b4>
   13946:	a31fe06f          	j	12376 <__svfscanf_r+0x25c>
   1394a:	66c1                	lui	a3,0x10
   1394c:	16d9                	addi	a3,a3,-10
   1394e:	00e6f463          	bgeu	a3,a4,13956 <__svfscanf_r+0x183c>
   13952:	a4dfe06f          	j	1239e <__svfscanf_r+0x284>
   13956:	77fd                	lui	a5,0xfffff
   13958:	b1c78793          	addi	a5,a5,-1252 # ffffeb1c <__BSS_END__+0xfffd5d88>
   1395c:	97a2                	add	a5,a5,s0
   1395e:	439c                	lw	a5,0(a5)
   13960:	0721                	addi	a4,a4,8
   13962:	4388                	lw	a0,0(a5)
   13964:	01071793          	slli	a5,a4,0x10
   13968:	777d                	lui	a4,0xfffff
   1396a:	83c1                	srli	a5,a5,0x10
   1396c:	b1070713          	addi	a4,a4,-1264 # ffffeb10 <__BSS_END__+0xfffd5d7c>
   13970:	9722                	add	a4,a4,s0
   13972:	00279593          	slli	a1,a5,0x2
   13976:	c31c                	sw	a5,0(a4)
   13978:	32b040ef          	jal	ra,184a2 <realloc>
   1397c:	e119                	bnez	a0,13982 <__svfscanf_r+0x1868>
   1397e:	a21fe06f          	j	1239e <__svfscanf_r+0x284>
   13982:	77fd                	lui	a5,0xfffff
   13984:	b1c78793          	addi	a5,a5,-1252 # ffffeb1c <__BSS_END__+0xfffd5d88>
   13988:	97a2                	add	a5,a5,s0
   1398a:	439c                	lw	a5,0(a5)
   1398c:	c388                	sw	a0,0(a5)
   1398e:	873e                	mv	a4,a5
   13990:	77fd                	lui	a5,0xfffff
   13992:	b1078793          	addi	a5,a5,-1264 # ffffeb10 <__BSS_END__+0xfffd5d7c>
   13996:	97a2                	add	a5,a5,s0
   13998:	439c                	lw	a5,0(a5)
   1399a:	00f71223          	sh	a5,4(a4)
   1399e:	b15fe06f          	j	124b2 <__svfscanf_r+0x398>
   139a2:	66c1                	lui	a3,0x10
   139a4:	16d9                	addi	a3,a3,-10
   139a6:	00e6f463          	bgeu	a3,a4,139ae <__svfscanf_r+0x1894>
   139aa:	9f5fe06f          	j	1239e <__svfscanf_r+0x284>
   139ae:	77fd                	lui	a5,0xfffff
   139b0:	b1c78793          	addi	a5,a5,-1252 # ffffeb1c <__BSS_END__+0xfffd5d88>
   139b4:	97a2                	add	a5,a5,s0
   139b6:	4384                	lw	s1,0(a5)
   139b8:	0721                	addi	a4,a4,8
   139ba:	01071a13          	slli	s4,a4,0x10
   139be:	4088                	lw	a0,0(s1)
   139c0:	010a5a13          	srli	s4,s4,0x10
   139c4:	002a1593          	slli	a1,s4,0x2
   139c8:	2db040ef          	jal	ra,184a2 <realloc>
   139cc:	e119                	bnez	a0,139d2 <__svfscanf_r+0x18b8>
   139ce:	9d1fe06f          	j	1239e <__svfscanf_r+0x284>
   139d2:	c088                	sw	a0,0(s1)
   139d4:	01449223          	sh	s4,4(s1)
   139d8:	f21fe06f          	j	128f8 <__svfscanf_r+0x7de>
   139dc:	77fd                	lui	a5,0xfffff
   139de:	b1078793          	addi	a5,a5,-1264 # ffffeb10 <__BSS_END__+0xfffd5d7c>
   139e2:	97a2                	add	a5,a5,s0
   139e4:	439c                	lw	a5,0(a5)
   139e6:	4398                	lw	a4,0(a5)
   139e8:	00a70023          	sb	a0,0(a4)
   139ec:	b84d                	j	1329e <__svfscanf_r+0x1184>
   139ee:	77fd                	lui	a5,0xfffff
   139f0:	b1078793          	addi	a5,a5,-1264 # ffffeb10 <__BSS_END__+0xfffd5d7c>
   139f4:	97a2                	add	a5,a5,s0
   139f6:	439c                	lw	a5,0(a5)
   139f8:	4398                	lw	a4,0(a5)
   139fa:	c308                	sw	a0,0(a4)
   139fc:	c34c                	sw	a1,4(a4)
   139fe:	c710                	sw	a2,8(a4)
   13a00:	c754                	sw	a3,12(a4)
   13a02:	b7aff06f          	j	12d7c <__svfscanf_r+0xc62>
   13a06:	0a06                	slli	s4,s4,0x1
   13a08:	8526                	mv	a0,s1
   13a0a:	85d2                	mv	a1,s4
